; Listing generated by Microsoft (R) Optimizing Compiler Version 19.00.23506.0 

include listing.inc

INCLUDELIB MSVCRTD
INCLUDELIB OLDNAMES

PUBLIC	?__empty_global_delete@@YAXPEAX@Z		; __empty_global_delete
PUBLIC	?__empty_global_delete@@YAXPEAX_K@Z		; __empty_global_delete
PUBLIC	??0v2@Cy@@QEAA@XZ				; Cy::v2::v2
PUBLIC	??0v2@Cy@@QEAA@MM@Z				; Cy::v2::v2
PUBLIC	??0v2@Cy@@QEAA@AEBU01@@Z			; Cy::v2::v2
PUBLIC	__local_stdio_printf_options
PUBLIC	_vfprintf_l
PUBLIC	fprintf
PUBLIC	??$__vcrt_va_start_verify_argument_type@QEBD@@YAXXZ ; __vcrt_va_start_verify_argument_type<char const * __ptr64 const>
PUBLIC	??2@YAPEAX_KPEAX@Z				; operator new
PUBLIC	?length@?$char_traits@D@std@@SA_KPEBD@Z		; std::char_traits<char>::length
PUBLIC	?copy@?$char_traits@D@std@@SAPEADPEADPEBD_K@Z	; std::char_traits<char>::copy
PUBLIC	?move@?$char_traits@D@std@@SAPEADPEADPEBD_K@Z	; std::char_traits<char>::move
PUBLIC	?assign@?$char_traits@D@std@@SAXAEADAEBD@Z	; std::char_traits<char>::assign
PUBLIC	?to_char_type@?$char_traits@D@std@@SADAEBH@Z	; std::char_traits<char>::to_char_type
PUBLIC	?eq_int_type@?$char_traits@D@std@@SA_NAEBH0@Z	; std::char_traits<char>::eq_int_type
PUBLIC	?eof@?$char_traits@D@std@@SAHXZ			; std::char_traits<char>::eof
PUBLIC	??0_Container_proxy@std@@QEAA@XZ		; std::_Container_proxy::_Container_proxy
PUBLIC	??0_Container_base12@std@@QEAA@XZ		; std::_Container_base12::_Container_base12
PUBLIC	??1_Container_base12@std@@QEAA@XZ		; std::_Container_base12::~_Container_base12
PUBLIC	?_Orphan_all@_Container_base12@std@@QEAAXXZ	; std::_Container_base12::_Orphan_all
PUBLIC	?_Allocate@std@@YAPEAX_K0_N@Z			; std::_Allocate
PUBLIC	?_Deallocate@std@@YAXPEAX_K1@Z			; std::_Deallocate
PUBLIC	??0?$allocator@D@std@@QEAA@XZ			; std::allocator<char>::allocator<char>
PUBLIC	??0?$allocator@D@std@@QEAA@AEBV01@@Z		; std::allocator<char>::allocator<char>
PUBLIC	?deallocate@?$allocator@D@std@@QEAAXPEAD_K@Z	; std::allocator<char>::deallocate
PUBLIC	?allocate@?$allocator@D@std@@QEAAPEAD_K@Z	; std::allocator<char>::allocate
PUBLIC	?max_size@?$allocator@D@std@@QEBA_KXZ		; std::allocator<char>::max_size
PUBLIC	?max_size@?$allocator_traits@V?$allocator@D@std@@@std@@SA_KAEBV?$allocator@D@2@@Z ; std::allocator_traits<std::allocator<char> >::max_size
PUBLIC	?select_on_container_copy_construction@?$allocator_traits@V?$allocator@D@std@@@std@@SA?AV?$allocator@D@2@AEBV32@@Z ; std::allocator_traits<std::allocator<char> >::select_on_container_copy_construction
PUBLIC	?select_on_container_copy_construction@?$_Wrap_alloc@V?$allocator@D@std@@@std@@QEBA?AU12@U_Nil@2@@Z ; std::_Wrap_alloc<std::allocator<char> >::select_on_container_copy_construction
PUBLIC	??0?$_Wrap_alloc@V?$allocator@D@std@@@std@@QEAA@AEBV?$allocator@D@1@@Z ; std::_Wrap_alloc<std::allocator<char> >::_Wrap_alloc<std::allocator<char> >
PUBLIC	?allocate@?$_Wrap_alloc@V?$allocator@D@std@@@std@@QEAAPEAD_K@Z ; std::_Wrap_alloc<std::allocator<char> >::allocate
PUBLIC	?deallocate@?$_Wrap_alloc@V?$allocator@D@std@@@std@@QEAAXPEAD_K@Z ; std::_Wrap_alloc<std::allocator<char> >::deallocate
PUBLIC	?max_size@?$_Wrap_alloc@V?$allocator@D@std@@@std@@QEBA_KU_Nil@2@@Z ; std::_Wrap_alloc<std::allocator<char> >::max_size
PUBLIC	??0?$_String_val@U?$_Simple_types@D@std@@@std@@QEAA@XZ ; std::_String_val<std::_Simple_types<char> >::_String_val<std::_Simple_types<char> >
PUBLIC	?_Myptr@?$_String_val@U?$_Simple_types@D@std@@@std@@QEAAPEADXZ ; std::_String_val<std::_Simple_types<char> >::_Myptr
PUBLIC	?_Myptr@?$_String_val@U?$_Simple_types@D@std@@@std@@QEBAPEBDXZ ; std::_String_val<std::_Simple_types<char> >::_Myptr
PUBLIC	??1?$_String_val@U?$_Simple_types@D@std@@@std@@QEAA@XZ ; std::_String_val<std::_Simple_types<char> >::~_String_val<std::_Simple_types<char> >
PUBLIC	?_Myptr@?$_String_alloc@U?$_String_base_types@DV?$allocator@D@std@@@std@@@std@@QEAAPEADXZ ; std::_String_alloc<std::_String_base_types<char,std::allocator<char> > >::_Myptr
PUBLIC	?_Myptr@?$_String_alloc@U?$_String_base_types@DV?$allocator@D@std@@@std@@@std@@QEBAPEBDXZ ; std::_String_alloc<std::_String_base_types<char,std::allocator<char> > >::_Myptr
PUBLIC	??0?$_String_alloc@U?$_String_base_types@DV?$allocator@D@std@@@std@@@std@@QEAA@AEBV?$allocator@D@1@@Z ; std::_String_alloc<std::_String_base_types<char,std::allocator<char> > >::_String_alloc<std::_String_base_types<char,std::allocator<char> > >
PUBLIC	??0?$_String_alloc@U?$_String_base_types@DV?$allocator@D@std@@@std@@@std@@QEAA@$$QEAV?$allocator@D@1@@Z ; std::_String_alloc<std::_String_base_types<char,std::allocator<char> > >::_String_alloc<std::_String_base_types<char,std::allocator<char> > >
PUBLIC	??1?$_String_alloc@U?$_String_base_types@DV?$allocator@D@std@@@std@@@std@@QEAA@XZ ; std::_String_alloc<std::_String_base_types<char,std::allocator<char> > >::~_String_alloc<std::_String_base_types<char,std::allocator<char> > >
PUBLIC	?_Alloc_proxy@?$_String_alloc@U?$_String_base_types@DV?$allocator@D@std@@@std@@@std@@QEAAXXZ ; std::_String_alloc<std::_String_base_types<char,std::allocator<char> > >::_Alloc_proxy
PUBLIC	?_Free_proxy@?$_String_alloc@U?$_String_base_types@DV?$allocator@D@std@@@std@@@std@@QEAAXXZ ; std::_String_alloc<std::_String_base_types<char,std::allocator<char> > >::_Free_proxy
PUBLIC	?_Myproxy@?$_String_alloc@U?$_String_base_types@DV?$allocator@D@std@@@std@@@std@@QEAAAEAPEAU_Container_proxy@2@XZ ; std::_String_alloc<std::_String_base_types<char,std::allocator<char> > >::_Myproxy
PUBLIC	?_Orphan_all@?$_String_alloc@U?$_String_base_types@DV?$allocator@D@std@@@std@@@std@@QEAAXXZ ; std::_String_alloc<std::_String_base_types<char,std::allocator<char> > >::_Orphan_all
PUBLIC	?_Getal@?$_String_alloc@U?$_String_base_types@DV?$allocator@D@std@@@std@@@std@@QEAAAEAU?$_Wrap_alloc@V?$allocator@D@std@@@2@XZ ; std::_String_alloc<std::_String_base_types<char,std::allocator<char> > >::_Getal
PUBLIC	?_Getal@?$_String_alloc@U?$_String_base_types@DV?$allocator@D@std@@@std@@@std@@QEBAAEBU?$_Wrap_alloc@V?$allocator@D@std@@@2@XZ ; std::_String_alloc<std::_String_base_types<char,std::allocator<char> > >::_Getal
PUBLIC	?_Get_data@?$_String_alloc@U?$_String_base_types@DV?$allocator@D@std@@@std@@@std@@QEAAAEAV?$_String_val@U?$_Simple_types@D@std@@@2@XZ ; std::_String_alloc<std::_String_base_types<char,std::allocator<char> > >::_Get_data
PUBLIC	?_Get_data@?$_String_alloc@U?$_String_base_types@DV?$allocator@D@std@@@std@@@std@@QEBAAEBV?$_String_val@U?$_Simple_types@D@std@@@2@XZ ; std::_String_alloc<std::_String_base_types<char,std::allocator<char> > >::_Get_data
PUBLIC	?_Bx@?$_String_alloc@U?$_String_base_types@DV?$allocator@D@std@@@std@@@std@@QEAAAEAT_Bxty@?$_String_val@U?$_Simple_types@D@std@@@2@XZ ; std::_String_alloc<std::_String_base_types<char,std::allocator<char> > >::_Bx
PUBLIC	?_Mysize@?$_String_alloc@U?$_String_base_types@DV?$allocator@D@std@@@std@@@std@@QEAAAEA_KXZ ; std::_String_alloc<std::_String_base_types<char,std::allocator<char> > >::_Mysize
PUBLIC	?_Mysize@?$_String_alloc@U?$_String_base_types@DV?$allocator@D@std@@@std@@@std@@QEBAAEB_KXZ ; std::_String_alloc<std::_String_base_types<char,std::allocator<char> > >::_Mysize
PUBLIC	?_Myres@?$_String_alloc@U?$_String_base_types@DV?$allocator@D@std@@@std@@@std@@QEAAAEA_KXZ ; std::_String_alloc<std::_String_base_types<char,std::allocator<char> > >::_Myres
PUBLIC	?_Get_first@?$_Compressed_pair@U?$_Wrap_alloc@V?$allocator@D@std@@@std@@V?$_String_val@U?$_Simple_types@D@std@@@2@$00@std@@QEAAAEAU?$_Wrap_alloc@V?$allocator@D@std@@@2@XZ ; std::_Compressed_pair<std::_Wrap_alloc<std::allocator<char> >,std::_String_val<std::_Simple_types<char> >,1>::_Get_first
PUBLIC	?_Get_first@?$_Compressed_pair@U?$_Wrap_alloc@V?$allocator@D@std@@@std@@V?$_String_val@U?$_Simple_types@D@std@@@2@$00@std@@QEBAAEBU?$_Wrap_alloc@V?$allocator@D@std@@@2@XZ ; std::_Compressed_pair<std::_Wrap_alloc<std::allocator<char> >,std::_String_val<std::_Simple_types<char> >,1>::_Get_first
PUBLIC	?_Get_second@?$_Compressed_pair@U?$_Wrap_alloc@V?$allocator@D@std@@@std@@V?$_String_val@U?$_Simple_types@D@std@@@2@$00@std@@QEAAAEAV?$_String_val@U?$_Simple_types@D@std@@@2@XZ ; std::_Compressed_pair<std::_Wrap_alloc<std::allocator<char> >,std::_String_val<std::_Simple_types<char> >,1>::_Get_second
PUBLIC	?_Get_second@?$_Compressed_pair@U?$_Wrap_alloc@V?$allocator@D@std@@@std@@V?$_String_val@U?$_Simple_types@D@std@@@2@$00@std@@QEBAAEBV?$_String_val@U?$_Simple_types@D@std@@@2@XZ ; std::_Compressed_pair<std::_Wrap_alloc<std::allocator<char> >,std::_String_val<std::_Simple_types<char> >,1>::_Get_second
PUBLIC	??1?$_Compressed_pair@U?$_Wrap_alloc@V?$allocator@D@std@@@std@@V?$_String_val@U?$_Simple_types@D@std@@@2@$00@std@@QEAA@XZ ; std::_Compressed_pair<std::_Wrap_alloc<std::allocator<char> >,std::_String_val<std::_Simple_types<char> >,1>::~_Compressed_pair<std::_Wrap_alloc<std::allocator<char> >,std::_String_val<std::_Simple_types<char> >,1>
PUBLIC	??0?$basic_string@DU?$char_traits@D@std@@V?$allocator@D@2@@std@@QEAA@AEBV01@@Z ; std::basic_string<char,std::char_traits<char>,std::allocator<char> >::basic_string<char,std::char_traits<char>,std::allocator<char> >
PUBLIC	??0?$basic_string@DU?$char_traits@D@std@@V?$allocator@D@2@@std@@QEAA@PEBD@Z ; std::basic_string<char,std::char_traits<char>,std::allocator<char> >::basic_string<char,std::char_traits<char>,std::allocator<char> >
PUBLIC	??1?$basic_string@DU?$char_traits@D@std@@V?$allocator@D@2@@std@@QEAA@XZ ; std::basic_string<char,std::char_traits<char>,std::allocator<char> >::~basic_string<char,std::char_traits<char>,std::allocator<char> >
PUBLIC	??Y?$basic_string@DU?$char_traits@D@std@@V?$allocator@D@2@@std@@QEAAAEAV01@PEBD@Z ; std::basic_string<char,std::char_traits<char>,std::allocator<char> >::operator+=
PUBLIC	?append@?$basic_string@DU?$char_traits@D@std@@V?$allocator@D@2@@std@@QEAAAEAV12@AEBV12@_K1@Z ; std::basic_string<char,std::char_traits<char>,std::allocator<char> >::append
PUBLIC	?append@?$basic_string@DU?$char_traits@D@std@@V?$allocator@D@2@@std@@QEAAAEAV12@PEBD_K@Z ; std::basic_string<char,std::char_traits<char>,std::allocator<char> >::append
PUBLIC	?append@?$basic_string@DU?$char_traits@D@std@@V?$allocator@D@2@@std@@QEAAAEAV12@PEBD@Z ; std::basic_string<char,std::char_traits<char>,std::allocator<char> >::append
PUBLIC	?assign@?$basic_string@DU?$char_traits@D@std@@V?$allocator@D@2@@std@@QEAAAEAV12@AEBV12@_K1@Z ; std::basic_string<char,std::char_traits<char>,std::allocator<char> >::assign
PUBLIC	?assign@?$basic_string@DU?$char_traits@D@std@@V?$allocator@D@2@@std@@QEAAAEAV12@PEBD_K@Z ; std::basic_string<char,std::char_traits<char>,std::allocator<char> >::assign
PUBLIC	?assign@?$basic_string@DU?$char_traits@D@std@@V?$allocator@D@2@@std@@QEAAAEAV12@PEBD@Z ; std::basic_string<char,std::char_traits<char>,std::allocator<char> >::assign
PUBLIC	?erase@?$basic_string@DU?$char_traits@D@std@@V?$allocator@D@2@@std@@QEAAAEAV12@_K@Z ; std::basic_string<char,std::char_traits<char>,std::allocator<char> >::erase
PUBLIC	?erase@?$basic_string@DU?$char_traits@D@std@@V?$allocator@D@2@@std@@QEAAAEAV12@_K0@Z ; std::basic_string<char,std::char_traits<char>,std::allocator<char> >::erase
PUBLIC	?c_str@?$basic_string@DU?$char_traits@D@std@@V?$allocator@D@2@@std@@QEBAPEBDXZ ; std::basic_string<char,std::char_traits<char>,std::allocator<char> >::c_str
PUBLIC	?size@?$basic_string@DU?$char_traits@D@std@@V?$allocator@D@2@@std@@QEBA_KXZ ; std::basic_string<char,std::char_traits<char>,std::allocator<char> >::size
PUBLIC	?max_size@?$basic_string@DU?$char_traits@D@std@@V?$allocator@D@2@@std@@QEBA_KXZ ; std::basic_string<char,std::char_traits<char>,std::allocator<char> >::max_size
PUBLIC	?_Copy@?$basic_string@DU?$char_traits@D@std@@V?$allocator@D@2@@std@@QEAAX_K0@Z ; std::basic_string<char,std::char_traits<char>,std::allocator<char> >::_Copy
PUBLIC	?_Eos@?$basic_string@DU?$char_traits@D@std@@V?$allocator@D@2@@std@@QEAAX_K@Z ; std::basic_string<char,std::char_traits<char>,std::allocator<char> >::_Eos
PUBLIC	?_Grow@?$basic_string@DU?$char_traits@D@std@@V?$allocator@D@2@@std@@QEAA_N_K_N@Z ; std::basic_string<char,std::char_traits<char>,std::allocator<char> >::_Grow
PUBLIC	?_Inside@?$basic_string@DU?$char_traits@D@std@@V?$allocator@D@2@@std@@QEAA_NPEBD@Z ; std::basic_string<char,std::char_traits<char>,std::allocator<char> >::_Inside
PUBLIC	?_Tidy@?$basic_string@DU?$char_traits@D@std@@V?$allocator@D@2@@std@@QEAAX_N_K@Z ; std::basic_string<char,std::char_traits<char>,std::allocator<char> >::_Tidy
PUBLIC	?_Xlen@?$basic_string@DU?$char_traits@D@std@@V?$allocator@D@2@@std@@QEBAXXZ ; std::basic_string<char,std::char_traits<char>,std::allocator<char> >::_Xlen
PUBLIC	?_Xran@?$basic_string@DU?$char_traits@D@std@@V?$allocator@D@2@@std@@QEBAXXZ ; std::basic_string<char,std::char_traits<char>,std::allocator<char> >::_Xran
PUBLIC	??0InputInfo@Cy@@QEAA@$$QEAU01@@Z		; Cy::InputInfo::InputInfo
PUBLIC	?NewInputInfo@Cy@@YA?AUInputInfo@1@PEBUWindowInfo@1@@Z ; Cy::NewInputInfo
PUBLIC	?NewWindowInfo@Cy@@YA?AUWindowInfo@1@PEBDPEAXII@Z ; Cy::NewWindowInfo
PUBLIC	?OpenFile@Cy@@YA?AUFile@1@V?$basic_string@DU?$char_traits@D@std@@V?$allocator@D@2@@std@@@Z ; Cy::OpenFile
PUBLIC	?DestroyWindowInfo@Cy@@YAXPEAUWindowInfo@1@@Z	; Cy::DestroyWindowInfo
PUBLIC	?NewTimerInfo@Cy@@YA?AUTimerInfo@1@XZ		; Cy::NewTimerInfo
PUBLIC	?GetAvgFps@Cy@@YA_KPEBUTimerInfo@1@@Z		; Cy::GetAvgFps
PUBLIC	?GetClockCount@Cy@@YA_JXZ			; Cy::GetClockCount
PUBLIC	?Sleep@Cy@@YAXPEAUTimerInfo@1@H@Z		; Cy::Sleep
PUBLIC	?Tick@Cy@@YAXPEAUTimerInfo@1@@Z			; Cy::Tick
PUBLIC	?Tock@Cy@@YAXPEAUTimerInfo@1@@Z			; Cy::Tock
PUBLIC	?DestroyTimerInfo@Cy@@YAXPEAUTimerInfo@1@@Z	; Cy::DestroyTimerInfo
PUBLIC	?Message@Cy@@YAXV?$basic_string@DU?$char_traits@D@std@@V?$allocator@D@2@@std@@@Z ; Cy::Message
PUBLIC	?Assert@Cy@@YAX_NV?$basic_string@DU?$char_traits@D@std@@V?$allocator@D@2@@std@@@Z ; Cy::Assert
PUBLIC	??$?5DU?$char_traits@D@std@@@std@@YAAEAV?$basic_istream@DU?$char_traits@D@std@@@0@AEAV10@AEAD@Z ; std::operator>><char,std::char_traits<char> >
PUBLIC	?SafeTruncate@Cy@@YAI_K@Z			; Cy::SafeTruncate
PUBLIC	?SafeTruncate@Cy@@YAH_J@Z			; Cy::SafeTruncate
PUBLIC	?WindowsSleep@Windows@@YAXI@Z			; Windows::WindowsSleep
PUBLIC	?MessageHandler@Cy@@YA_JPEAUHWND__@@I_K_J@Z	; Cy::MessageHandler
PUBLIC	??$pow@HH@@YANHH@Z				; pow<int,int>
PUBLIC	??$_Debug_pointer@$$CBD@std@@YAXPEBDPEBGI@Z	; std::_Debug_pointer<char const >
PUBLIC	??$move@AEAV?$allocator@D@std@@@std@@YA$$QEAV?$allocator@D@0@AEAV10@@Z ; std::move<std::allocator<char> & __ptr64>
PUBLIC	??$?0V?$allocator@D@std@@$$V@?$_Compressed_pair@U?$_Wrap_alloc@V?$allocator@D@std@@@std@@V?$_String_val@U?$_Simple_types@D@std@@@2@$00@std@@QEAA@U_One_then_variadic_args_t@1@$$QEAV?$allocator@D@1@@Z ; std::_Compressed_pair<std::_Wrap_alloc<std::allocator<char> >,std::_String_val<std::_Simple_types<char> >,1>::_Compressed_pair<std::_Wrap_alloc<std::allocator<char> >,std::_String_val<std::_Simple_types<char> >,1><std::allocator<char> >
PUBLIC	??$?0AEBV?$allocator@D@std@@$$V@?$_Compressed_pair@U?$_Wrap_alloc@V?$allocator@D@std@@@std@@V?$_String_val@U?$_Simple_types@D@std@@@2@$00@std@@QEAA@U_One_then_variadic_args_t@1@AEBV?$allocator@D@1@@Z ; std::_Compressed_pair<std::_Wrap_alloc<std::allocator<char> >,std::_String_val<std::_Simple_types<char> >,1>::_Compressed_pair<std::_Wrap_alloc<std::allocator<char> >,std::_String_val<std::_Simple_types<char> >,1><std::allocator<char> const & __ptr64>
PUBLIC	??$destroy@PEAD@?$_Wrap_alloc@V?$allocator@D@std@@@std@@QEAAXPEAPEAD@Z ; std::_Wrap_alloc<std::allocator<char> >::destroy<char * __ptr64>
PUBLIC	??$addressof@D@std@@YAPEADAEAD@Z		; std::addressof<char>
PUBLIC	??$_Debug_pointer_if@$$CBD@std@@YAX_NPEBDPEBGI@Z ; std::_Debug_pointer_if<char const >
PUBLIC	??$construct@PEADAEAPEAD@?$_Wrap_alloc@V?$allocator@D@std@@@std@@QEAAXPEAPEADAEAPEAD@Z ; std::_Wrap_alloc<std::allocator<char> >::construct<char * __ptr64,char * __ptr64 & __ptr64>
PUBLIC	?deallocate@?$allocator@U_Container_proxy@std@@@std@@QEAAXPEAU_Container_proxy@2@_K@Z ; std::allocator<std::_Container_proxy>::deallocate
PUBLIC	?allocate@?$allocator@U_Container_proxy@std@@@std@@QEAAPEAU_Container_proxy@2@_K@Z ; std::allocator<std::_Container_proxy>::allocate
PUBLIC	?allocate@?$_Wrap_alloc@V?$allocator@U_Container_proxy@std@@@std@@@std@@QEAAPEAU_Container_proxy@2@_K@Z ; std::_Wrap_alloc<std::allocator<std::_Container_proxy> >::allocate
PUBLIC	?deallocate@?$_Wrap_alloc@V?$allocator@U_Container_proxy@std@@@std@@@std@@QEAAXPEAU_Container_proxy@2@_K@Z ; std::_Wrap_alloc<std::allocator<std::_Container_proxy> >::deallocate
PUBLIC	??$destroy@U_Container_proxy@std@@@?$_Wrap_alloc@V?$allocator@U_Container_proxy@std@@@std@@@std@@QEAAXPEAU_Container_proxy@1@@Z ; std::_Wrap_alloc<std::allocator<std::_Container_proxy> >::destroy<std::_Container_proxy>
PUBLIC	??$construct@U_Container_proxy@std@@U12@@?$_Wrap_alloc@V?$allocator@U_Container_proxy@std@@@std@@@std@@QEAAXPEAU_Container_proxy@1@$$QEAU21@@Z ; std::_Wrap_alloc<std::allocator<std::_Container_proxy> >::construct<std::_Container_proxy,std::_Container_proxy>
PUBLIC	??$?0U?$_Wrap_alloc@V?$allocator@D@std@@@std@@@?$_Wrap_alloc@V?$allocator@U_Container_proxy@std@@@std@@@std@@QEAA@AEAU?$_Wrap_alloc@V?$allocator@D@std@@@1@@Z ; std::_Wrap_alloc<std::allocator<std::_Container_proxy> >::_Wrap_alloc<std::allocator<std::_Container_proxy> ><std::_Wrap_alloc<std::allocator<char> > >
PUBLIC	??$?0D@?$allocator@U_Container_proxy@std@@@std@@QEAA@AEBV?$allocator@D@1@@Z ; std::allocator<std::_Container_proxy>::allocator<std::_Container_proxy><char>
PUBLIC	??0_Sentry_base@?$basic_istream@DU?$char_traits@D@std@@@std@@QEAA@AEAV12@@Z ; std::basic_istream<char,std::char_traits<char> >::_Sentry_base::_Sentry_base
PUBLIC	??1_Sentry_base@?$basic_istream@DU?$char_traits@D@std@@@std@@QEAA@XZ ; std::basic_istream<char,std::char_traits<char> >::_Sentry_base::~_Sentry_base
PUBLIC	??0sentry@?$basic_istream@DU?$char_traits@D@std@@@std@@QEAA@AEAV12@_N@Z ; std::basic_istream<char,std::char_traits<char> >::sentry::sentry
PUBLIC	??Bsentry@?$basic_istream@DU?$char_traits@D@std@@@std@@QEBA_NXZ ; std::basic_istream<char,std::char_traits<char> >::sentry::operator bool
PUBLIC	??1sentry@?$basic_istream@DU?$char_traits@D@std@@@std@@QEAA@XZ ; std::basic_istream<char,std::char_traits<char> >::sentry::~sentry
PUBLIC	??$forward@V?$allocator@D@std@@@std@@YA$$QEAV?$allocator@D@0@AEAV10@@Z ; std::forward<std::allocator<char> >
PUBLIC	??$forward@AEBV?$allocator@D@std@@@std@@YAAEBV?$allocator@D@0@AEBV10@@Z ; std::forward<std::allocator<char> const & __ptr64>
PUBLIC	??$destroy@PEAD@?$allocator_traits@V?$allocator@D@std@@@std@@SAXAEAV?$allocator@D@1@PEAPEAD@Z ; std::allocator_traits<std::allocator<char> >::destroy<char * __ptr64>
PUBLIC	??$_Addressof@D@std@@YAPEADAEADU?$integral_constant@_N$0A@@0@@Z ; std::_Addressof<char>
PUBLIC	??$forward@AEAPEAD@std@@YAAEAPEADAEAPEAD@Z	; std::forward<char * __ptr64 & __ptr64>
PUBLIC	??$construct@PEADAEAPEAD@?$allocator_traits@V?$allocator@D@std@@@std@@SAXAEAV?$allocator@D@1@PEAPEADAEAPEAD@Z ; std::allocator_traits<std::allocator<char> >::construct<char * __ptr64,char * __ptr64 & __ptr64>
PUBLIC	??$destroy@U_Container_proxy@std@@@?$allocator_traits@V?$allocator@U_Container_proxy@std@@@std@@@std@@SAXAEAV?$allocator@U_Container_proxy@std@@@1@PEAU_Container_proxy@1@@Z ; std::allocator_traits<std::allocator<std::_Container_proxy> >::destroy<std::_Container_proxy>
PUBLIC	??$forward@U_Container_proxy@std@@@std@@YA$$QEAU_Container_proxy@0@AEAU10@@Z ; std::forward<std::_Container_proxy>
PUBLIC	??$construct@U_Container_proxy@std@@U12@@?$allocator_traits@V?$allocator@U_Container_proxy@std@@@std@@@std@@SAXAEAV?$allocator@U_Container_proxy@std@@@1@PEAU_Container_proxy@1@$$QEAU31@@Z ; std::allocator_traits<std::allocator<std::_Container_proxy> >::construct<std::_Container_proxy,std::_Container_proxy>
PUBLIC	??$destroy@PEAD@?$allocator@D@std@@QEAAXPEAPEAD@Z ; std::allocator<char>::destroy<char * __ptr64>
PUBLIC	??$construct@PEADAEAPEAD@?$allocator@D@std@@QEAAXPEAPEADAEAPEAD@Z ; std::allocator<char>::construct<char * __ptr64,char * __ptr64 & __ptr64>
PUBLIC	??$destroy@U_Container_proxy@std@@@?$allocator@U_Container_proxy@std@@@std@@QEAAXPEAU_Container_proxy@1@@Z ; std::allocator<std::_Container_proxy>::destroy<std::_Container_proxy>
PUBLIC	??$construct@U_Container_proxy@std@@U12@@?$allocator@U_Container_proxy@std@@@std@@QEAAXPEAU_Container_proxy@1@$$QEAU21@@Z ; std::allocator<std::_Container_proxy>::construct<std::_Container_proxy,std::_Container_proxy>
PUBLIC	?_OptionsStorage@?1??__local_stdio_printf_options@@9@4_KA ; `__local_stdio_printf_options'::`2'::_OptionsStorage
PUBLIC	?__LINE__Var@?0??_Allocate@std@@YAPEAX_K0_N@Z@4JA ; `std::_Allocate'::`1'::__LINE__Var
PUBLIC	??_C@_0BE@LMNLACIC@_Ptr_container?5?$CB?$DN?50?$AA@ ; `string'
PUBLIC	??_C@_1DG@HGDKEBPG@?$AA?$CC?$AA_?$AAP?$AAt?$AAr?$AA_?$AAc?$AAo?$AAn?$AAt?$AAa?$AAi?$AAn?$AAe?$AAr?$AA?5?$AA?$CB?$AA?$DN?$AA?5?$AA0?$AA?$CC?$AA?5?$AA?$CG?$AA?$CG?$AA?5?$AA0?$AA?$AA@ ; `string'
PUBLIC	??_C@_17CNPHIMPH@?$AA?$CF?$AAl?$AAs?$AA?$AA@	; `string'
PUBLIC	??_C@_1EG@DJALBHDK@?$AAd?$AA?3?$AA?2?$AAa?$AAp?$AAp?$AAd?$AAa?$AAt?$AAa?$AA?2?$AAv?$AAs?$AAp?$AA?2?$AAv?$AAc?$AA?2?$AAi?$AAn?$AAc?$AAl?$AAu?$AAd?$AAe?$AA?2?$AAx?$AAm?$AAe?$AAm?$AAo?$AAr@ ; `string'
PUBLIC	??_C@_1BO@NKFMJPA@?$AAs?$AAt?$AAd?$AA?3?$AA?3?$AA_?$AAA?$AAl?$AAl?$AAo?$AAc?$AAa?$AAt?$AAe?$AA?$AA@ ; `string'
PUBLIC	??_C@_1CG@JNLFBNGN@?$AA?$CC?$AAi?$AAn?$AAv?$AAa?$AAl?$AAi?$AAd?$AA?5?$AAa?$AAr?$AAg?$AAu?$AAm?$AAe?$AAn?$AAt?$AA?$CC?$AA?$AA@ ; `string'
PUBLIC	??_C@_09GLJCAGLP@_Ptr?5?$CB?$DN?50?$AA@		; `string'
PUBLIC	??_C@_1CC@GKJLLHIM@?$AA?$CC?$AA_?$AAP?$AAt?$AAr?$AA?5?$AA?$CB?$AA?$DN?$AA?5?$AA0?$AA?$CC?$AA?5?$AA?$CG?$AA?$CG?$AA?5?$AA0?$AA?$AA@ ; `string'
PUBLIC	?__LINE__Var@?0??_Deallocate@std@@YAXPEAX_K1@Z@4JA ; `std::_Deallocate'::`1'::__LINE__Var
PUBLIC	??_C@_0BN@HMCJOMKN@_Count?5?$DM?$DN?5?$CIsize_t?$CJ?$CI?91?$CJ?5?1?5_Sz?$AA@ ; `string'
PUBLIC	??_C@_1EI@MLOBABC@?$AA?$CC?$AA_?$AAC?$AAo?$AAu?$AAn?$AAt?$AA?5?$AA?$DM?$AA?$DN?$AA?5?$AA?$CI?$AAs?$AAi?$AAz?$AAe?$AA_?$AAt?$AA?$CJ?$AA?$CI?$AA?9?$AA1?$AA?$CJ?$AA?5?$AA?1?$AA?5?$AA_?$AAS?$AAz?$AA?$CC?$AA?5?$AA?$CG@ ; `string'
PUBLIC	??_C@_1CC@LOFJFFDB@?$AAs?$AAt?$AAd?$AA?3?$AA?3?$AA_?$AAD?$AAe?$AAa?$AAl?$AAl?$AAo?$AAc?$AAa?$AAt?$AAe?$AA?$AA@ ; `string'
PUBLIC	??_C@_0DD@GBGGGKGG@?$CI_Ptr_user?5?$CG?5?$CI_BIG_ALLOCATION_AL@ ; `string'
PUBLIC	??_C@_1HE@CDMBFOKC@?$AA?$CC?$AA?$CI?$AA_?$AAP?$AAt?$AAr?$AA_?$AAu?$AAs?$AAe?$AAr?$AA?5?$AA?$CG?$AA?5?$AA?$CI?$AA_?$AAB?$AAI?$AAG?$AA_?$AAA?$AAL?$AAL?$AAO?$AAC?$AAA?$AAT?$AAI?$AAO?$AAN?$AA_?$AAA@ ; `string'
PUBLIC	??_C@_0EI@NOJHEJCJ@reinterpret_cast?$DMuintptr_t?5?$CK?$DO?$CI_P@ ; `string'
PUBLIC	??_C@_1JO@EKLKIEHP@?$AA?$CC?$AAr?$AAe?$AAi?$AAn?$AAt?$AAe?$AAr?$AAp?$AAr?$AAe?$AAt?$AA_?$AAc?$AAa?$AAs?$AAt?$AA?$DM?$AAu?$AAi?$AAn?$AAt?$AAp?$AAt?$AAr?$AA_?$AAt?$AA?5?$AA?$CK?$AA?$DO?$AA?$CI?$AA_@ ; `string'
PUBLIC	??_C@_0BL@OCKMEJON@_Ptr_container?5?$DM?5_Ptr_user?$AA@ ; `string'
PUBLIC	??_C@_1EE@PDHAHDDC@?$AA?$CC?$AA_?$AAP?$AAt?$AAr?$AA_?$AAc?$AAo?$AAn?$AAt?$AAa?$AAi?$AAn?$AAe?$AAr?$AA?5?$AA?$DM?$AA?5?$AA_?$AAP?$AAt?$AAr?$AA_?$AAu?$AAs?$AAe?$AAr?$AA?$CC?$AA?5?$AA?$CG?$AA?$CG?$AA?5@ ; `string'
PUBLIC	??_C@_0DB@GLFJLNCE@2?5?$CK?5sizeof?$CIvoid?5?$CK?$CJ?5?$DM?$DN?5_Ptr_user?5@ ; `string'
PUBLIC	??_C@_1HA@NAPGMHAO@?$AA?$CC?$AA2?$AA?5?$AA?$CK?$AA?5?$AAs?$AAi?$AAz?$AAe?$AAo?$AAf?$AA?$CI?$AAv?$AAo?$AAi?$AAd?$AA?5?$AA?$CK?$AA?$CJ?$AA?5?$AA?$DM?$AA?$DN?$AA?5?$AA_?$AAP?$AAt?$AAr?$AA_?$AAu?$AAs?$AAe?$AAr@ ; `string'
PUBLIC	??_C@_0CN@BLHJCAL@_Ptr_user?5?9?5_Ptr_container?5?$DM?$DN?5_N@ ; `string'
PUBLIC	??_C@_1GI@DHJGPFNI@?$AA?$CC?$AA_?$AAP?$AAt?$AAr?$AA_?$AAu?$AAs?$AAe?$AAr?$AA?5?$AA?9?$AA?5?$AA_?$AAP?$AAt?$AAr?$AA_?$AAc?$AAo?$AAn?$AAt?$AAa?$AAi?$AAn?$AAe?$AAr?$AA?5?$AA?$DM?$AA?$DN?$AA?5?$AA_@ ; `string'
PUBLIC	?npos@?$basic_string@DU?$char_traits@D@std@@V?$allocator@D@2@@std@@2_KB ; std::basic_string<char,std::char_traits<char>,std::allocator<char> >::npos
PUBLIC	??_C@_01EEMJAFIK@?6?$AA@			; `string'
PUBLIC	??_C@_0BC@BJEMDEOO@truncate?5NOT?5SAFE?$AA@	; `string'
PUBLIC	??_C@_0BP@CHPCPMKH@could?5not?5register?5windowclass?$AA@ ; `string'
PUBLIC	??_C@_0CC@PBICDBGD@could?5not?5create?5a?5windows?5windo@ ; `string'
PUBLIC	??_C@_0N@JFIFKAKF@file?5too?5big?$AA@		; `string'
PUBLIC	??_C@_0BE@LABMMLMO@could?5not?5read?5file?$AA@	; `string'
PUBLIC	??_C@_1EE@PIAPABGP@?$AAd?$AA?3?$AA?2?$AAa?$AAp?$AAp?$AAd?$AAa?$AAt?$AAa?$AA?2?$AAv?$AAs?$AAp?$AA?2?$AAv?$AAc?$AA?2?$AAi?$AAn?$AAc?$AAl?$AAu?$AAd?$AAe?$AA?2?$AAx?$AAs?$AAt?$AAr?$AAi?$AAn@ ; `string'
PUBLIC	??_C@_0BI@CFPLBAOH@invalid?5string?5position?$AA@ ; `string'
PUBLIC	??_C@_0BA@JFNIOLAK@string?5too?5long?$AA@	; `string'
PUBLIC	??_C@_1CK@EOPGIILJ@?$AAi?$AAn?$AAv?$AAa?$AAl?$AAi?$AAd?$AA?5?$AAn?$AAu?$AAl?$AAl?$AA?5?$AAp?$AAo?$AAi?$AAn?$AAt?$AAe?$AAr?$AA?$AA@ ; `string'
PUBLIC	__real@5f800000
EXTRN	??2@YAPEAX_K@Z:PROC				; operator new
EXTRN	??3@YAXPEAX@Z:PROC				; operator delete
EXTRN	__imp__invalid_parameter:PROC
EXTRN	__imp_??0_Lockit@std@@QEAA@H@Z:PROC
EXTRN	__imp_??1_Lockit@std@@QEAA@XZ:PROC
EXTRN	pow:PROC
EXTRN	memcpy:PROC
EXTRN	__imp_memmove:PROC
EXTRN	strlen:PROC
EXTRN	__imp_CreateFileA:PROC
EXTRN	__imp_GetFileSizeEx:PROC
EXTRN	__imp_ReadFile:PROC
EXTRN	__imp_QueryPerformanceCounter:PROC
EXTRN	__imp_QueryPerformanceFrequency:PROC
EXTRN	__imp_Sleep:PROC
EXTRN	__imp_VirtualAlloc:PROC
EXTRN	__imp_VirtualFree:PROC
EXTRN	__imp_GetModuleHandleW:PROC
EXTRN	__imp_TrackMouseEvent:PROC
EXTRN	__imp_DefWindowProcW:PROC
EXTRN	__imp_RegisterClassA:PROC
EXTRN	__imp_CreateWindowExA:PROC
EXTRN	__imp_DestroyWindow:PROC
EXTRN	__imp_ShowWindow:PROC
EXTRN	__imp_SetFocus:PROC
EXTRN	__imp_GetWindowLongPtrW:PROC
EXTRN	__imp_SetWindowLongPtrW:PROC
EXTRN	__imp_GetConsoleWindow:PROC
EXTRN	__imp_timeGetDevCaps:PROC
EXTRN	__imp_timeBeginPeriod:PROC
EXTRN	__imp_timeEndPeriod:PROC
EXTRN	__imp___acrt_iob_func:PROC
EXTRN	__imp___stdio_common_vfprintf:PROC
EXTRN	__imp__CrtDbgReportW:PROC
EXTRN	__imp_?_Debug_message@std@@YAXPEBG0I@Z:PROC
EXTRN	__imp_?_Xbad_alloc@std@@YAXXZ:PROC
EXTRN	__imp_?_Xlength_error@std@@YAXPEBD@Z:PROC
EXTRN	__imp_?_Xout_of_range@std@@YAXPEBD@Z:PROC
EXTRN	__imp_?sbumpc@?$basic_streambuf@DU?$char_traits@D@std@@@std@@QEAAHXZ:PROC
EXTRN	__imp_?setstate@?$basic_ios@DU?$char_traits@D@std@@@std@@QEAAXH_N@Z:PROC
EXTRN	__imp_?rdbuf@?$basic_ios@DU?$char_traits@D@std@@@std@@QEBAPEAV?$basic_streambuf@DU?$char_traits@D@std@@@2@XZ:PROC
EXTRN	__imp_?_Ipfx@?$basic_istream@DU?$char_traits@D@std@@@std@@QEAA_N_N@Z:PROC
EXTRN	_CxxThrowException:PROC
EXTRN	_RTC_CheckStackVars:PROC
EXTRN	_RTC_InitBase:PROC
EXTRN	_RTC_Shutdown:PROC
EXTRN	__CxxFrameHandler3:PROC
EXTRN	__GSHandlerCheck:PROC
EXTRN	__GSHandlerCheck_EH:PROC
EXTRN	__security_check_cookie:PROC
EXTRN	__imp_?cin@std@@3V?$basic_istream@DU?$char_traits@D@std@@@1@A:BYTE
EXTRN	__ImageBase:BYTE
EXTRN	__security_cookie:QWORD
EXTRN	_fltused:DWORD
;	COMDAT ?_OptionsStorage@?1??__local_stdio_printf_options@@9@4_KA
_BSS	SEGMENT
?_OptionsStorage@?1??__local_stdio_printf_options@@9@4_KA DQ 01H DUP (?) ; `__local_stdio_printf_options'::`2'::_OptionsStorage
_BSS	ENDS
;	COMDAT pdata
pdata	SEGMENT
$pdata$?__empty_global_delete@@YAXPEAX@Z DD imagerel $LN3
	DD	imagerel $LN3+50
	DD	imagerel $unwind$?__empty_global_delete@@YAXPEAX@Z
pdata	ENDS
;	COMDAT pdata
pdata	SEGMENT
$pdata$?__empty_global_delete@@YAXPEAX_K@Z DD imagerel $LN3
	DD	imagerel $LN3+55
	DD	imagerel $unwind$?__empty_global_delete@@YAXPEAX_K@Z
pdata	ENDS
;	COMDAT pdata
pdata	SEGMENT
$pdata$??0v2@Cy@@QEAA@XZ DD imagerel $LN3
	DD	imagerel $LN3+86
	DD	imagerel $unwind$??0v2@Cy@@QEAA@XZ
pdata	ENDS
;	COMDAT pdata
pdata	SEGMENT
$pdata$??0v2@Cy@@QEAA@MM@Z DD imagerel $LN3
	DD	imagerel $LN3+108
	DD	imagerel $unwind$??0v2@Cy@@QEAA@MM@Z
pdata	ENDS
;	COMDAT pdata
pdata	SEGMENT
$pdata$??0v2@Cy@@QEAA@AEBU01@@Z DD imagerel $LN3
	DD	imagerel $LN3+108
	DD	imagerel $unwind$??0v2@Cy@@QEAA@AEBU01@@Z
pdata	ENDS
;	COMDAT pdata
pdata	SEGMENT
$pdata$__local_stdio_printf_options DD imagerel $LN3
	DD	imagerel $LN3+45
	DD	imagerel $unwind$__local_stdio_printf_options
pdata	ENDS
;	COMDAT pdata
pdata	SEGMENT
$pdata$_vfprintf_l DD imagerel $LN3
	DD	imagerel $LN3+114
	DD	imagerel $unwind$_vfprintf_l
pdata	ENDS
;	COMDAT pdata
pdata	SEGMENT
$pdata$fprintf DD imagerel $LN3
	DD	imagerel $LN3+175
	DD	imagerel $unwind$fprintf
pdata	ENDS
;	COMDAT pdata
pdata	SEGMENT
$pdata$??$__vcrt_va_start_verify_argument_type@QEBD@@YAXXZ DD imagerel $LN3
	DD	imagerel $LN3+38
	DD	imagerel $unwind$??$__vcrt_va_start_verify_argument_type@QEBD@@YAXXZ
pdata	ENDS
;	COMDAT pdata
pdata	SEGMENT
$pdata$??2@YAPEAX_KPEAX@Z DD imagerel $LN3
	DD	imagerel $LN3+62
	DD	imagerel $unwind$??2@YAPEAX_KPEAX@Z
pdata	ENDS
;	COMDAT pdata
pdata	SEGMENT
$pdata$?length@?$char_traits@D@std@@SA_KPEBD@Z DD imagerel $LN5
	DD	imagerel $LN5+105
	DD	imagerel $unwind$?length@?$char_traits@D@std@@SA_KPEBD@Z
pdata	ENDS
;	COMDAT pdata
pdata	SEGMENT
$pdata$?copy@?$char_traits@D@std@@SAPEADPEADPEBD_K@Z DD imagerel $LN5
	DD	imagerel $LN5+128
	DD	imagerel $unwind$?copy@?$char_traits@D@std@@SAPEADPEADPEBD_K@Z
pdata	ENDS
;	COMDAT pdata
pdata	SEGMENT
$pdata$?move@?$char_traits@D@std@@SAPEADPEADPEBD_K@Z DD imagerel $LN5
	DD	imagerel $LN5+129
	DD	imagerel $unwind$?move@?$char_traits@D@std@@SAPEADPEADPEBD_K@Z
pdata	ENDS
;	COMDAT pdata
pdata	SEGMENT
$pdata$?assign@?$char_traits@D@std@@SAXAEADAEBD@Z DD imagerel $LN3
	DD	imagerel $LN3+74
	DD	imagerel $unwind$?assign@?$char_traits@D@std@@SAXAEADAEBD@Z
pdata	ENDS
;	COMDAT pdata
pdata	SEGMENT
$pdata$?to_char_type@?$char_traits@D@std@@SADAEBH@Z DD imagerel $LN3
	DD	imagerel $LN3+60
	DD	imagerel $unwind$?to_char_type@?$char_traits@D@std@@SADAEBH@Z
pdata	ENDS
;	COMDAT pdata
pdata	SEGMENT
$pdata$?eq_int_type@?$char_traits@D@std@@SA_NAEBH0@Z DD imagerel $LN5
	DD	imagerel $LN5+104
	DD	imagerel $unwind$?eq_int_type@?$char_traits@D@std@@SA_NAEBH0@Z
pdata	ENDS
;	COMDAT pdata
pdata	SEGMENT
$pdata$?eof@?$char_traits@D@std@@SAHXZ DD imagerel $LN3
	DD	imagerel $LN3+43
	DD	imagerel $unwind$?eof@?$char_traits@D@std@@SAHXZ
pdata	ENDS
;	COMDAT pdata
pdata	SEGMENT
$pdata$??0_Container_proxy@std@@QEAA@XZ DD imagerel $LN3
	DD	imagerel $LN3+86
	DD	imagerel $unwind$??0_Container_proxy@std@@QEAA@XZ
pdata	ENDS
;	COMDAT pdata
pdata	SEGMENT
$pdata$??0_Container_base12@std@@QEAA@XZ DD imagerel $LN3
	DD	imagerel $LN3+71
	DD	imagerel $unwind$??0_Container_base12@std@@QEAA@XZ
pdata	ENDS
;	COMDAT pdata
pdata	SEGMENT
$pdata$??1_Container_base12@std@@QEAA@XZ DD imagerel $LN3
	DD	imagerel $LN3+76
	DD	imagerel $unwind$??1_Container_base12@std@@QEAA@XZ
pdata	ENDS
;	COMDAT pdata
pdata	SEGMENT
$pdata$?_Orphan_all@_Container_base12@std@@QEAAXXZ DD imagerel $LN8
	DD	imagerel $LN8+220
	DD	imagerel $unwind$?_Orphan_all@_Container_base12@std@@QEAAXXZ
pdata	ENDS
;	COMDAT pdata
pdata	SEGMENT
$pdata$?_Allocate@std@@YAPEAX_K0_N@Z DD imagerel $LN14
	DD	imagerel $LN14+579
	DD	imagerel $unwind$?_Allocate@std@@YAPEAX_K0_N@Z
pdata	ENDS
;	COMDAT pdata
pdata	SEGMENT
$pdata$?_Deallocate@std@@YAXPEAX_K1@Z DD imagerel $LN22
	DD	imagerel $LN22+1079
	DD	imagerel $unwind$?_Deallocate@std@@YAXPEAX_K1@Z
pdata	ENDS
;	COMDAT pdata
pdata	SEGMENT
$pdata$??0?$allocator@D@std@@QEAA@XZ DD imagerel $LN3
	DD	imagerel $LN3+57
	DD	imagerel $unwind$??0?$allocator@D@std@@QEAA@XZ
pdata	ENDS
;	COMDAT pdata
pdata	SEGMENT
$pdata$??0?$allocator@D@std@@QEAA@AEBV01@@Z DD imagerel $LN3
	DD	imagerel $LN3+62
	DD	imagerel $unwind$??0?$allocator@D@std@@QEAA@AEBV01@@Z
pdata	ENDS
;	COMDAT pdata
pdata	SEGMENT
$pdata$?deallocate@?$allocator@D@std@@QEAAXPEAD_K@Z DD imagerel $LN3
	DD	imagerel $LN3+87
	DD	imagerel $unwind$?deallocate@?$allocator@D@std@@QEAAXPEAD_K@Z
pdata	ENDS
;	COMDAT pdata
pdata	SEGMENT
$pdata$?allocate@?$allocator@D@std@@QEAAPEAD_K@Z DD imagerel $LN3
	DD	imagerel $LN3+77
	DD	imagerel $unwind$?allocate@?$allocator@D@std@@QEAAPEAD_K@Z
pdata	ENDS
;	COMDAT pdata
pdata	SEGMENT
$pdata$?max_size@?$allocator@D@std@@QEBA_KXZ DD imagerel $LN3
	DD	imagerel $LN3+57
	DD	imagerel $unwind$?max_size@?$allocator@D@std@@QEBA_KXZ
pdata	ENDS
;	COMDAT pdata
pdata	SEGMENT
$pdata$?max_size@?$allocator_traits@V?$allocator@D@std@@@std@@SA_KAEBV?$allocator@D@2@@Z DD imagerel $LN3
	DD	imagerel $LN3+64
	DD	imagerel $unwind$?max_size@?$allocator_traits@V?$allocator@D@std@@@std@@SA_KAEBV?$allocator@D@2@@Z
pdata	ENDS
;	COMDAT pdata
pdata	SEGMENT
$pdata$?select_on_container_copy_construction@?$allocator_traits@V?$allocator@D@std@@@std@@SA?AV?$allocator@D@2@AEBV32@@Z DD imagerel $LN3
	DD	imagerel $LN3+83
	DD	imagerel $unwind$?select_on_container_copy_construction@?$allocator_traits@V?$allocator@D@std@@@std@@SA?AV?$allocator@D@2@AEBV32@@Z
pdata	ENDS
;	COMDAT pdata
pdata	SEGMENT
$pdata$?select_on_container_copy_construction@?$_Wrap_alloc@V?$allocator@D@std@@@std@@QEBA?AU12@U_Nil@2@@Z DD imagerel $LN3
	DD	imagerel $LN3+103
	DD	imagerel $unwind$?select_on_container_copy_construction@?$_Wrap_alloc@V?$allocator@D@std@@@std@@QEBA?AU12@U_Nil@2@@Z
pdata	ENDS
;	COMDAT pdata
pdata	SEGMENT
$pdata$??0?$_Wrap_alloc@V?$allocator@D@std@@@std@@QEAA@AEBV?$allocator@D@1@@Z DD imagerel $LN3
	DD	imagerel $LN3+83
	DD	imagerel $unwind$??0?$_Wrap_alloc@V?$allocator@D@std@@@std@@QEAA@AEBV?$allocator@D@1@@Z
pdata	ENDS
;	COMDAT pdata
pdata	SEGMENT
$pdata$?allocate@?$_Wrap_alloc@V?$allocator@D@std@@@std@@QEAAPEAD_K@Z DD imagerel $LN3
	DD	imagerel $LN3+76
	DD	imagerel $unwind$?allocate@?$_Wrap_alloc@V?$allocator@D@std@@@std@@QEAAPEAD_K@Z
pdata	ENDS
;	COMDAT pdata
pdata	SEGMENT
$pdata$?deallocate@?$_Wrap_alloc@V?$allocator@D@std@@@std@@QEAAXPEAD_K@Z DD imagerel $LN3
	DD	imagerel $LN3+88
	DD	imagerel $unwind$?deallocate@?$_Wrap_alloc@V?$allocator@D@std@@@std@@QEAAXPEAD_K@Z
pdata	ENDS
;	COMDAT pdata
pdata	SEGMENT
$pdata$?max_size@?$_Wrap_alloc@V?$allocator@D@std@@@std@@QEBA_KU_Nil@2@@Z DD imagerel $LN3
	DD	imagerel $LN3+68
	DD	imagerel $unwind$?max_size@?$_Wrap_alloc@V?$allocator@D@std@@@std@@QEBA_KU_Nil@2@@Z
pdata	ENDS
;	COMDAT pdata
pdata	SEGMENT
$pdata$??0?$_String_val@U?$_Simple_types@D@std@@@std@@QEAA@XZ DD imagerel $LN4
	DD	imagerel $LN4+101
	DD	imagerel $unwind$??0?$_String_val@U?$_Simple_types@D@std@@@std@@QEAA@XZ
pdata	ENDS
;	COMDAT pdata
pdata	SEGMENT
$pdata$?_Myptr@?$_String_val@U?$_Simple_types@D@std@@@std@@QEAAPEADXZ DD imagerel $LN5
	DD	imagerel $LN5+116
	DD	imagerel $unwind$?_Myptr@?$_String_val@U?$_Simple_types@D@std@@@std@@QEAAPEADXZ
pdata	ENDS
;	COMDAT pdata
pdata	SEGMENT
$pdata$?_Myptr@?$_String_val@U?$_Simple_types@D@std@@@std@@QEBAPEBDXZ DD imagerel $LN5
	DD	imagerel $LN5+116
	DD	imagerel $unwind$?_Myptr@?$_String_val@U?$_Simple_types@D@std@@@std@@QEBAPEBDXZ
pdata	ENDS
;	COMDAT pdata
pdata	SEGMENT
$pdata$??1?$_String_val@U?$_Simple_types@D@std@@@std@@QEAA@XZ DD imagerel $LN3
	DD	imagerel $LN3+64
	DD	imagerel $unwind$??1?$_String_val@U?$_Simple_types@D@std@@@std@@QEAA@XZ
pdata	ENDS
;	COMDAT pdata
pdata	SEGMENT
$pdata$?_Myptr@?$_String_alloc@U?$_String_base_types@DV?$allocator@D@std@@@std@@@std@@QEAAPEADXZ DD imagerel $LN3
	DD	imagerel $LN3+72
	DD	imagerel $unwind$?_Myptr@?$_String_alloc@U?$_String_base_types@DV?$allocator@D@std@@@std@@@std@@QEAAPEADXZ
pdata	ENDS
;	COMDAT pdata
pdata	SEGMENT
$pdata$?_Myptr@?$_String_alloc@U?$_String_base_types@DV?$allocator@D@std@@@std@@@std@@QEBAPEBDXZ DD imagerel $LN3
	DD	imagerel $LN3+72
	DD	imagerel $unwind$?_Myptr@?$_String_alloc@U?$_String_base_types@DV?$allocator@D@std@@@std@@@std@@QEBAPEBDXZ
pdata	ENDS
;	COMDAT pdata
pdata	SEGMENT
$pdata$??0?$_String_alloc@U?$_String_base_types@DV?$allocator@D@std@@@std@@@std@@QEAA@AEBV?$allocator@D@1@@Z DD imagerel $LN4
	DD	imagerel $LN4+118
	DD	imagerel $unwind$??0?$_String_alloc@U?$_String_base_types@DV?$allocator@D@std@@@std@@@std@@QEAA@AEBV?$allocator@D@1@@Z
pdata	ENDS
;	COMDAT pdata
pdata	SEGMENT
$pdata$?dtor$0@?0???0?$_String_alloc@U?$_String_base_types@DV?$allocator@D@std@@@std@@@std@@QEAA@AEBV?$allocator@D@1@@Z@4HA DD imagerel ?dtor$0@?0???0?$_String_alloc@U?$_String_base_types@DV?$allocator@D@std@@@std@@@std@@QEAA@AEBV?$allocator@D@1@@Z@4HA
	DD	imagerel ?dtor$0@?0???0?$_String_alloc@U?$_String_base_types@DV?$allocator@D@std@@@std@@@std@@QEAA@AEBV?$allocator@D@1@@Z@4HA+39
	DD	imagerel $unwind$?dtor$0@?0???0?$_String_alloc@U?$_String_base_types@DV?$allocator@D@std@@@std@@@std@@QEAA@AEBV?$allocator@D@1@@Z@4HA
pdata	ENDS
;	COMDAT pdata
pdata	SEGMENT
$pdata$??0?$_String_alloc@U?$_String_base_types@DV?$allocator@D@std@@@std@@@std@@QEAA@$$QEAV?$allocator@D@1@@Z DD imagerel $LN4
	DD	imagerel $LN4+123
	DD	imagerel $unwind$??0?$_String_alloc@U?$_String_base_types@DV?$allocator@D@std@@@std@@@std@@QEAA@$$QEAV?$allocator@D@1@@Z
pdata	ENDS
;	COMDAT pdata
pdata	SEGMENT
$pdata$?dtor$0@?0???0?$_String_alloc@U?$_String_base_types@DV?$allocator@D@std@@@std@@@std@@QEAA@$$QEAV?$allocator@D@1@@Z@4HA DD imagerel ?dtor$0@?0???0?$_String_alloc@U?$_String_base_types@DV?$allocator@D@std@@@std@@@std@@QEAA@$$QEAV?$allocator@D@1@@Z@4HA
	DD	imagerel ?dtor$0@?0???0?$_String_alloc@U?$_String_base_types@DV?$allocator@D@std@@@std@@@std@@QEAA@$$QEAV?$allocator@D@1@@Z@4HA+39
	DD	imagerel $unwind$?dtor$0@?0???0?$_String_alloc@U?$_String_base_types@DV?$allocator@D@std@@@std@@@std@@QEAA@$$QEAV?$allocator@D@1@@Z@4HA
pdata	ENDS
;	COMDAT pdata
pdata	SEGMENT
$pdata$??1?$_String_alloc@U?$_String_base_types@DV?$allocator@D@std@@@std@@@std@@QEAA@XZ DD imagerel $LN3
	DD	imagerel $LN3+92
	DD	imagerel $unwind$??1?$_String_alloc@U?$_String_base_types@DV?$allocator@D@std@@@std@@@std@@QEAA@XZ
pdata	ENDS
;	COMDAT pdata
pdata	SEGMENT
$pdata$?_Alloc_proxy@?$_String_alloc@U?$_String_base_types@DV?$allocator@D@std@@@std@@@std@@QEAAXXZ DD imagerel $LN3
	DD	imagerel $LN3+264
	DD	imagerel $unwind$?_Alloc_proxy@?$_String_alloc@U?$_String_base_types@DV?$allocator@D@std@@@std@@@std@@QEAAXXZ
pdata	ENDS
;	COMDAT pdata
pdata	SEGMENT
$pdata$?_Free_proxy@?$_String_alloc@U?$_String_base_types@DV?$allocator@D@std@@@std@@@std@@QEAAXXZ DD imagerel $LN3
	DD	imagerel $LN3+209
	DD	imagerel $unwind$?_Free_proxy@?$_String_alloc@U?$_String_base_types@DV?$allocator@D@std@@@std@@@std@@QEAAXXZ
pdata	ENDS
;	COMDAT pdata
pdata	SEGMENT
$pdata$?_Myproxy@?$_String_alloc@U?$_String_base_types@DV?$allocator@D@std@@@std@@@std@@QEAAAEAPEAU_Container_proxy@2@XZ DD imagerel $LN3
	DD	imagerel $LN3+64
	DD	imagerel $unwind$?_Myproxy@?$_String_alloc@U?$_String_base_types@DV?$allocator@D@std@@@std@@@std@@QEAAAEAPEAU_Container_proxy@2@XZ
pdata	ENDS
;	COMDAT pdata
pdata	SEGMENT
$pdata$?_Orphan_all@?$_String_alloc@U?$_String_base_types@DV?$allocator@D@std@@@std@@@std@@QEAAXXZ DD imagerel $LN3
	DD	imagerel $LN3+72
	DD	imagerel $unwind$?_Orphan_all@?$_String_alloc@U?$_String_base_types@DV?$allocator@D@std@@@std@@@std@@QEAAXXZ
pdata	ENDS
;	COMDAT pdata
pdata	SEGMENT
$pdata$?_Getal@?$_String_alloc@U?$_String_base_types@DV?$allocator@D@std@@@std@@@std@@QEAAAEAU?$_Wrap_alloc@V?$allocator@D@std@@@2@XZ DD imagerel $LN3
	DD	imagerel $LN3+67
	DD	imagerel $unwind$?_Getal@?$_String_alloc@U?$_String_base_types@DV?$allocator@D@std@@@std@@@std@@QEAAAEAU?$_Wrap_alloc@V?$allocator@D@std@@@2@XZ
pdata	ENDS
;	COMDAT pdata
pdata	SEGMENT
$pdata$?_Getal@?$_String_alloc@U?$_String_base_types@DV?$allocator@D@std@@@std@@@std@@QEBAAEBU?$_Wrap_alloc@V?$allocator@D@std@@@2@XZ DD imagerel $LN3
	DD	imagerel $LN3+67
	DD	imagerel $unwind$?_Getal@?$_String_alloc@U?$_String_base_types@DV?$allocator@D@std@@@std@@@std@@QEBAAEBU?$_Wrap_alloc@V?$allocator@D@std@@@2@XZ
pdata	ENDS
;	COMDAT pdata
pdata	SEGMENT
$pdata$?_Get_data@?$_String_alloc@U?$_String_base_types@DV?$allocator@D@std@@@std@@@std@@QEAAAEAV?$_String_val@U?$_Simple_types@D@std@@@2@XZ DD imagerel $LN3
	DD	imagerel $LN3+67
	DD	imagerel $unwind$?_Get_data@?$_String_alloc@U?$_String_base_types@DV?$allocator@D@std@@@std@@@std@@QEAAAEAV?$_String_val@U?$_Simple_types@D@std@@@2@XZ
pdata	ENDS
;	COMDAT pdata
pdata	SEGMENT
$pdata$?_Get_data@?$_String_alloc@U?$_String_base_types@DV?$allocator@D@std@@@std@@@std@@QEBAAEBV?$_String_val@U?$_Simple_types@D@std@@@2@XZ DD imagerel $LN3
	DD	imagerel $LN3+67
	DD	imagerel $unwind$?_Get_data@?$_String_alloc@U?$_String_base_types@DV?$allocator@D@std@@@std@@@std@@QEBAAEBV?$_String_val@U?$_Simple_types@D@std@@@2@XZ
pdata	ENDS
;	COMDAT pdata
pdata	SEGMENT
$pdata$?_Bx@?$_String_alloc@U?$_String_base_types@DV?$allocator@D@std@@@std@@@std@@QEAAAEAT_Bxty@?$_String_val@U?$_Simple_types@D@std@@@2@XZ DD imagerel $LN3
	DD	imagerel $LN3+68
	DD	imagerel $unwind$?_Bx@?$_String_alloc@U?$_String_base_types@DV?$allocator@D@std@@@std@@@std@@QEAAAEAT_Bxty@?$_String_val@U?$_Simple_types@D@std@@@2@XZ
pdata	ENDS
;	COMDAT pdata
pdata	SEGMENT
$pdata$?_Mysize@?$_String_alloc@U?$_String_base_types@DV?$allocator@D@std@@@std@@@std@@QEAAAEA_KXZ DD imagerel $LN3
	DD	imagerel $LN3+68
	DD	imagerel $unwind$?_Mysize@?$_String_alloc@U?$_String_base_types@DV?$allocator@D@std@@@std@@@std@@QEAAAEA_KXZ
pdata	ENDS
;	COMDAT pdata
pdata	SEGMENT
$pdata$?_Mysize@?$_String_alloc@U?$_String_base_types@DV?$allocator@D@std@@@std@@@std@@QEBAAEB_KXZ DD imagerel $LN3
	DD	imagerel $LN3+68
	DD	imagerel $unwind$?_Mysize@?$_String_alloc@U?$_String_base_types@DV?$allocator@D@std@@@std@@@std@@QEBAAEB_KXZ
pdata	ENDS
;	COMDAT pdata
pdata	SEGMENT
$pdata$?_Myres@?$_String_alloc@U?$_String_base_types@DV?$allocator@D@std@@@std@@@std@@QEAAAEA_KXZ DD imagerel $LN3
	DD	imagerel $LN3+68
	DD	imagerel $unwind$?_Myres@?$_String_alloc@U?$_String_base_types@DV?$allocator@D@std@@@std@@@std@@QEAAAEA_KXZ
pdata	ENDS
;	COMDAT pdata
pdata	SEGMENT
$pdata$?_Get_first@?$_Compressed_pair@U?$_Wrap_alloc@V?$allocator@D@std@@@std@@V?$_String_val@U?$_Simple_types@D@std@@@2@$00@std@@QEAAAEAU?$_Wrap_alloc@V?$allocator@D@std@@@2@XZ DD imagerel $LN3
	DD	imagerel $LN3+57
	DD	imagerel $unwind$?_Get_first@?$_Compressed_pair@U?$_Wrap_alloc@V?$allocator@D@std@@@std@@V?$_String_val@U?$_Simple_types@D@std@@@2@$00@std@@QEAAAEAU?$_Wrap_alloc@V?$allocator@D@std@@@2@XZ
pdata	ENDS
;	COMDAT pdata
pdata	SEGMENT
$pdata$?_Get_first@?$_Compressed_pair@U?$_Wrap_alloc@V?$allocator@D@std@@@std@@V?$_String_val@U?$_Simple_types@D@std@@@2@$00@std@@QEBAAEBU?$_Wrap_alloc@V?$allocator@D@std@@@2@XZ DD imagerel $LN3
	DD	imagerel $LN3+57
	DD	imagerel $unwind$?_Get_first@?$_Compressed_pair@U?$_Wrap_alloc@V?$allocator@D@std@@@std@@V?$_String_val@U?$_Simple_types@D@std@@@2@$00@std@@QEBAAEBU?$_Wrap_alloc@V?$allocator@D@std@@@2@XZ
pdata	ENDS
;	COMDAT pdata
pdata	SEGMENT
$pdata$?_Get_second@?$_Compressed_pair@U?$_Wrap_alloc@V?$allocator@D@std@@@std@@V?$_String_val@U?$_Simple_types@D@std@@@2@$00@std@@QEAAAEAV?$_String_val@U?$_Simple_types@D@std@@@2@XZ DD imagerel $LN3
	DD	imagerel $LN3+57
	DD	imagerel $unwind$?_Get_second@?$_Compressed_pair@U?$_Wrap_alloc@V?$allocator@D@std@@@std@@V?$_String_val@U?$_Simple_types@D@std@@@2@$00@std@@QEAAAEAV?$_String_val@U?$_Simple_types@D@std@@@2@XZ
pdata	ENDS
;	COMDAT pdata
pdata	SEGMENT
$pdata$?_Get_second@?$_Compressed_pair@U?$_Wrap_alloc@V?$allocator@D@std@@@std@@V?$_String_val@U?$_Simple_types@D@std@@@2@$00@std@@QEBAAEBV?$_String_val@U?$_Simple_types@D@std@@@2@XZ DD imagerel $LN3
	DD	imagerel $LN3+57
	DD	imagerel $unwind$?_Get_second@?$_Compressed_pair@U?$_Wrap_alloc@V?$allocator@D@std@@@std@@V?$_String_val@U?$_Simple_types@D@std@@@2@$00@std@@QEBAAEBV?$_String_val@U?$_Simple_types@D@std@@@2@XZ
pdata	ENDS
;	COMDAT pdata
pdata	SEGMENT
$pdata$??1?$_Compressed_pair@U?$_Wrap_alloc@V?$allocator@D@std@@@std@@V?$_String_val@U?$_Simple_types@D@std@@@2@$00@std@@QEAA@XZ DD imagerel $LN3
	DD	imagerel $LN3+67
	DD	imagerel $unwind$??1?$_Compressed_pair@U?$_Wrap_alloc@V?$allocator@D@std@@@std@@V?$_String_val@U?$_Simple_types@D@std@@@2@$00@std@@QEAA@XZ
pdata	ENDS
;	COMDAT pdata
pdata	SEGMENT
$pdata$??0?$basic_string@DU?$char_traits@D@std@@V?$allocator@D@2@@std@@QEAA@AEBV01@@Z DD imagerel $LN4
	DD	imagerel $LN4+173
	DD	imagerel $unwind$??0?$basic_string@DU?$char_traits@D@std@@V?$allocator@D@2@@std@@QEAA@AEBV01@@Z
pdata	ENDS
;	COMDAT pdata
pdata	SEGMENT
$pdata$?dtor$0@?0???0?$basic_string@DU?$char_traits@D@std@@V?$allocator@D@2@@std@@QEAA@AEBV01@@Z@4HA DD imagerel ?dtor$0@?0???0?$basic_string@DU?$char_traits@D@std@@V?$allocator@D@2@@std@@QEAA@AEBV01@@Z@4HA
	DD	imagerel ?dtor$0@?0???0?$basic_string@DU?$char_traits@D@std@@V?$allocator@D@2@@std@@QEAA@AEBV01@@Z@4HA+39
	DD	imagerel $unwind$?dtor$0@?0???0?$basic_string@DU?$char_traits@D@std@@V?$allocator@D@2@@std@@QEAA@AEBV01@@Z@4HA
pdata	ENDS
;	COMDAT pdata
pdata	SEGMENT
$pdata$??0?$basic_string@DU?$char_traits@D@std@@V?$allocator@D@2@@std@@QEAA@PEBD@Z DD imagerel $LN4
	DD	imagerel $LN4+140
	DD	imagerel $unwind$??0?$basic_string@DU?$char_traits@D@std@@V?$allocator@D@2@@std@@QEAA@PEBD@Z
pdata	ENDS
;	COMDAT pdata
pdata	SEGMENT
$pdata$?dtor$0@?0???0?$basic_string@DU?$char_traits@D@std@@V?$allocator@D@2@@std@@QEAA@PEBD@Z@4HA DD imagerel ?dtor$0@?0???0?$basic_string@DU?$char_traits@D@std@@V?$allocator@D@2@@std@@QEAA@PEBD@Z@4HA
	DD	imagerel ?dtor$0@?0???0?$basic_string@DU?$char_traits@D@std@@V?$allocator@D@2@@std@@QEAA@PEBD@Z@4HA+39
	DD	imagerel $unwind$?dtor$0@?0???0?$basic_string@DU?$char_traits@D@std@@V?$allocator@D@2@@std@@QEAA@PEBD@Z@4HA
pdata	ENDS
;	COMDAT pdata
pdata	SEGMENT
$pdata$??1?$basic_string@DU?$char_traits@D@std@@V?$allocator@D@2@@std@@QEAA@XZ DD imagerel $LN3
	DD	imagerel $LN3+94
	DD	imagerel $unwind$??1?$basic_string@DU?$char_traits@D@std@@V?$allocator@D@2@@std@@QEAA@XZ
pdata	ENDS
;	COMDAT pdata
pdata	SEGMENT
$pdata$??Y?$basic_string@DU?$char_traits@D@std@@V?$allocator@D@2@@std@@QEAAAEAV01@PEBD@Z DD imagerel $LN3
	DD	imagerel $LN3+76
	DD	imagerel $unwind$??Y?$basic_string@DU?$char_traits@D@std@@V?$allocator@D@2@@std@@QEAAAEAV01@PEBD@Z
pdata	ENDS
;	COMDAT pdata
pdata	SEGMENT
$pdata$?append@?$basic_string@DU?$char_traits@D@std@@V?$allocator@D@2@@std@@QEAAAEAV12@AEBV12@_K1@Z DD imagerel $LN7
	DD	imagerel $LN7+380
	DD	imagerel $unwind$?append@?$basic_string@DU?$char_traits@D@std@@V?$allocator@D@2@@std@@QEAAAEAV12@AEBV12@_K1@Z
pdata	ENDS
;	COMDAT pdata
pdata	SEGMENT
$pdata$?append@?$basic_string@DU?$char_traits@D@std@@V?$allocator@D@2@@std@@QEAAAEAV12@PEBD_K@Z DD imagerel $LN8
	DD	imagerel $LN8+409
	DD	imagerel $unwind$?append@?$basic_string@DU?$char_traits@D@std@@V?$allocator@D@2@@std@@QEAAAEAV12@PEBD_K@Z
pdata	ENDS
;	COMDAT pdata
pdata	SEGMENT
$pdata$?append@?$basic_string@DU?$char_traits@D@std@@V?$allocator@D@2@@std@@QEAAAEAV12@PEBD@Z DD imagerel $LN3
	DD	imagerel $LN3+116
	DD	imagerel $unwind$?append@?$basic_string@DU?$char_traits@D@std@@V?$allocator@D@2@@std@@QEAAAEAV12@PEBD@Z
pdata	ENDS
;	COMDAT pdata
pdata	SEGMENT
$pdata$?assign@?$basic_string@DU?$char_traits@D@std@@V?$allocator@D@2@@std@@QEAAAEAV12@AEBV12@_K1@Z DD imagerel $LN8
	DD	imagerel $LN8+327
	DD	imagerel $unwind$?assign@?$basic_string@DU?$char_traits@D@std@@V?$allocator@D@2@@std@@QEAAAEAV12@AEBV12@_K1@Z
pdata	ENDS
;	COMDAT pdata
pdata	SEGMENT
$pdata$?assign@?$basic_string@DU?$char_traits@D@std@@V?$allocator@D@2@@std@@QEAAAEAV12@PEBD_K@Z DD imagerel $LN7
	DD	imagerel $LN7+291
	DD	imagerel $unwind$?assign@?$basic_string@DU?$char_traits@D@std@@V?$allocator@D@2@@std@@QEAAAEAV12@PEBD_K@Z
pdata	ENDS
;	COMDAT pdata
pdata	SEGMENT
$pdata$?assign@?$basic_string@DU?$char_traits@D@std@@V?$allocator@D@2@@std@@QEAAAEAV12@PEBD@Z DD imagerel $LN3
	DD	imagerel $LN3+116
	DD	imagerel $unwind$?assign@?$basic_string@DU?$char_traits@D@std@@V?$allocator@D@2@@std@@QEAAAEAV12@PEBD@Z
pdata	ENDS
;	COMDAT pdata
pdata	SEGMENT
$pdata$?erase@?$basic_string@DU?$char_traits@D@std@@V?$allocator@D@2@@std@@QEAAAEAV12@_K@Z DD imagerel $LN4
	DD	imagerel $LN4+119
	DD	imagerel $unwind$?erase@?$basic_string@DU?$char_traits@D@std@@V?$allocator@D@2@@std@@QEAAAEAV12@_K@Z
pdata	ENDS
;	COMDAT pdata
pdata	SEGMENT
$pdata$?erase@?$basic_string@DU?$char_traits@D@std@@V?$allocator@D@2@@std@@QEAAAEAV12@_K0@Z DD imagerel $LN7
	DD	imagerel $LN7+287
	DD	imagerel $unwind$?erase@?$basic_string@DU?$char_traits@D@std@@V?$allocator@D@2@@std@@QEAAAEAV12@_K0@Z
pdata	ENDS
;	COMDAT pdata
pdata	SEGMENT
$pdata$?c_str@?$basic_string@DU?$char_traits@D@std@@V?$allocator@D@2@@std@@QEBAPEBDXZ DD imagerel $LN3
	DD	imagerel $LN3+76
	DD	imagerel $unwind$?c_str@?$basic_string@DU?$char_traits@D@std@@V?$allocator@D@2@@std@@QEBAPEBDXZ
pdata	ENDS
;	COMDAT pdata
pdata	SEGMENT
$pdata$?size@?$basic_string@DU?$char_traits@D@std@@V?$allocator@D@2@@std@@QEBA_KXZ DD imagerel $LN3
	DD	imagerel $LN3+67
	DD	imagerel $unwind$?size@?$basic_string@DU?$char_traits@D@std@@V?$allocator@D@2@@std@@QEBA_KXZ
pdata	ENDS
;	COMDAT pdata
pdata	SEGMENT
$pdata$?max_size@?$basic_string@DU?$char_traits@D@std@@V?$allocator@D@2@@std@@QEBA_KXZ DD imagerel $LN5
	DD	imagerel $LN5+124
	DD	imagerel $unwind$?max_size@?$basic_string@DU?$char_traits@D@std@@V?$allocator@D@2@@std@@QEBA_KXZ
pdata	ENDS
;	COMDAT pdata
pdata	SEGMENT
$pdata$?_Copy@?$basic_string@DU?$char_traits@D@std@@V?$allocator@D@2@@std@@QEAAX_K0@Z DD imagerel $LN23
	DD	imagerel $LN23+610
	DD	imagerel $unwind$?_Copy@?$basic_string@DU?$char_traits@D@std@@V?$allocator@D@2@@std@@QEAAX_K0@Z
pdata	ENDS
;	COMDAT pdata
pdata	SEGMENT
$pdata$?catch$1@?0??_Copy@?$basic_string@DU?$char_traits@D@std@@V?$allocator@D@2@@std@@QEAAX_K0@Z@4HA DD imagerel ?catch$1@?0??_Copy@?$basic_string@DU?$char_traits@D@std@@V?$allocator@D@2@@std@@QEAAX_K0@Z@4HA
	DD	imagerel ?catch$1@?0??_Copy@?$basic_string@DU?$char_traits@D@std@@V?$allocator@D@2@@std@@QEAAX_K0@Z@4HA+110
	DD	imagerel $unwind$?catch$1@?0??_Copy@?$basic_string@DU?$char_traits@D@std@@V?$allocator@D@2@@std@@QEAAX_K0@Z@4HA
pdata	ENDS
;	COMDAT pdata
pdata	SEGMENT
$pdata$?catch$0@?0??_Copy@?$basic_string@DU?$char_traits@D@std@@V?$allocator@D@2@@std@@QEAAX_K0@Z@4HA DD imagerel ?catch$0@?0??_Copy@?$basic_string@DU?$char_traits@D@std@@V?$allocator@D@2@@std@@QEAAX_K0@Z@4HA
	DD	imagerel ?catch$0@?0??_Copy@?$basic_string@DU?$char_traits@D@std@@V?$allocator@D@2@@std@@QEAAX_K0@Z@4HA+62
	DD	imagerel $unwind$?catch$0@?0??_Copy@?$basic_string@DU?$char_traits@D@std@@V?$allocator@D@2@@std@@QEAAX_K0@Z@4HA
pdata	ENDS
;	COMDAT pdata
pdata	SEGMENT
$pdata$?_Eos@?$basic_string@DU?$char_traits@D@std@@V?$allocator@D@2@@std@@QEAAX_K@Z DD imagerel $LN3
	DD	imagerel $LN3+123
	DD	imagerel $unwind$?_Eos@?$basic_string@DU?$char_traits@D@std@@V?$allocator@D@2@@std@@QEAAX_K@Z
pdata	ENDS
;	COMDAT pdata
pdata	SEGMENT
$pdata$?_Grow@?$basic_string@DU?$char_traits@D@std@@V?$allocator@D@2@@std@@QEAA_N_K_N@Z DD imagerel $LN13
	DD	imagerel $LN13+327
	DD	imagerel $unwind$?_Grow@?$basic_string@DU?$char_traits@D@std@@V?$allocator@D@2@@std@@QEAA_N_K_N@Z
pdata	ENDS
;	COMDAT pdata
pdata	SEGMENT
$pdata$?_Inside@?$basic_string@DU?$char_traits@D@std@@V?$allocator@D@2@@std@@QEAA_NPEBD@Z DD imagerel $LN6
	DD	imagerel $LN6+149
	DD	imagerel $unwind$?_Inside@?$basic_string@DU?$char_traits@D@std@@V?$allocator@D@2@@std@@QEAA_NPEBD@Z
pdata	ENDS
;	COMDAT pdata
pdata	SEGMENT
$pdata$?_Tidy@?$basic_string@DU?$char_traits@D@std@@V?$allocator@D@2@@std@@QEAAX_N_K@Z DD imagerel $LN7
	DD	imagerel $LN7+327
	DD	imagerel $unwind$?_Tidy@?$basic_string@DU?$char_traits@D@std@@V?$allocator@D@2@@std@@QEAAX_N_K@Z
pdata	ENDS
;	COMDAT pdata
pdata	SEGMENT
$pdata$?_Xlen@?$basic_string@DU?$char_traits@D@std@@V?$allocator@D@2@@std@@QEBAXXZ DD imagerel $LN3
	DD	imagerel $LN3+65
	DD	imagerel $unwind$?_Xlen@?$basic_string@DU?$char_traits@D@std@@V?$allocator@D@2@@std@@QEBAXXZ
pdata	ENDS
;	COMDAT pdata
pdata	SEGMENT
$pdata$?_Xran@?$basic_string@DU?$char_traits@D@std@@V?$allocator@D@2@@std@@QEBAXXZ DD imagerel $LN3
	DD	imagerel $LN3+65
	DD	imagerel $unwind$?_Xran@?$basic_string@DU?$char_traits@D@std@@V?$allocator@D@2@@std@@QEBAXXZ
pdata	ENDS
;	COMDAT pdata
pdata	SEGMENT
$pdata$??0InputInfo@Cy@@QEAA@$$QEAU01@@Z DD imagerel $LN3
	DD	imagerel $LN3+224
	DD	imagerel $unwind$??0InputInfo@Cy@@QEAA@$$QEAU01@@Z
pdata	ENDS
;	COMDAT pdata
pdata	SEGMENT
$pdata$?NewInputInfo@Cy@@YA?AUInputInfo@1@PEBUWindowInfo@1@@Z DD imagerel $LN3
	DD	imagerel $LN3+271
	DD	imagerel $unwind$?NewInputInfo@Cy@@YA?AUInputInfo@1@PEBUWindowInfo@1@@Z
pdata	ENDS
;	COMDAT pdata
pdata	SEGMENT
$pdata$?NewWindowInfo@Cy@@YA?AUWindowInfo@1@PEBDPEAXII@Z DD imagerel $LN9
	DD	imagerel $LN9+624
	DD	imagerel $unwind$?NewWindowInfo@Cy@@YA?AUWindowInfo@1@PEBDPEAXII@Z
pdata	ENDS
;	COMDAT pdata
pdata	SEGMENT
$pdata$?OpenFile@Cy@@YA?AUFile@1@V?$basic_string@DU?$char_traits@D@std@@V?$allocator@D@2@@std@@@Z DD imagerel $LN15
	DD	imagerel $LN15+618
	DD	imagerel $unwind$?OpenFile@Cy@@YA?AUFile@1@V?$basic_string@DU?$char_traits@D@std@@V?$allocator@D@2@@std@@@Z
pdata	ENDS
;	COMDAT pdata
pdata	SEGMENT
$pdata$?dtor$0@?0??OpenFile@Cy@@YA?AUFile@1@V?$basic_string@DU?$char_traits@D@std@@V?$allocator@D@2@@std@@@Z@4HA DD imagerel ?dtor$0@?0??OpenFile@Cy@@YA?AUFile@1@V?$basic_string@DU?$char_traits@D@std@@V?$allocator@D@2@@std@@@Z@4HA
	DD	imagerel ?dtor$0@?0??OpenFile@Cy@@YA?AUFile@1@V?$basic_string@DU?$char_traits@D@std@@V?$allocator@D@2@@std@@@Z@4HA+39
	DD	imagerel $unwind$?dtor$0@?0??OpenFile@Cy@@YA?AUFile@1@V?$basic_string@DU?$char_traits@D@std@@V?$allocator@D@2@@std@@@Z@4HA
pdata	ENDS
;	COMDAT pdata
pdata	SEGMENT
$pdata$?DestroyWindowInfo@Cy@@YAXPEAUWindowInfo@1@@Z DD imagerel $LN3
	DD	imagerel $LN3+69
	DD	imagerel $unwind$?DestroyWindowInfo@Cy@@YAXPEAUWindowInfo@1@@Z
pdata	ENDS
;	COMDAT pdata
pdata	SEGMENT
$pdata$?NewTimerInfo@Cy@@YA?AUTimerInfo@1@XZ DD imagerel $LN3
	DD	imagerel $LN3+215
	DD	imagerel $unwind$?NewTimerInfo@Cy@@YA?AUTimerInfo@1@XZ
pdata	ENDS
;	COMDAT pdata
pdata	SEGMENT
$pdata$?GetAvgFps@Cy@@YA_KPEBUTimerInfo@1@@Z DD imagerel $LN6
	DD	imagerel $LN6+138
	DD	imagerel $unwind$?GetAvgFps@Cy@@YA_KPEBUTimerInfo@1@@Z
pdata	ENDS
;	COMDAT pdata
pdata	SEGMENT
$pdata$?GetClockCount@Cy@@YA_JXZ DD imagerel $LN3
	DD	imagerel $LN3+108
	DD	imagerel $unwind$?GetClockCount@Cy@@YA_JXZ
pdata	ENDS
;	COMDAT pdata
pdata	SEGMENT
$pdata$?Sleep@Cy@@YAXPEAUTimerInfo@1@H@Z DD imagerel $LN7
	DD	imagerel $LN7+161
	DD	imagerel $unwind$?Sleep@Cy@@YAXPEAUTimerInfo@1@H@Z
pdata	ENDS
;	COMDAT pdata
pdata	SEGMENT
$pdata$?Tick@Cy@@YAXPEAUTimerInfo@1@@Z DD imagerel $LN3
	DD	imagerel $LN3+93
	DD	imagerel $unwind$?Tick@Cy@@YAXPEAUTimerInfo@1@@Z
pdata	ENDS
;	COMDAT pdata
pdata	SEGMENT
$pdata$?Tock@Cy@@YAXPEAUTimerInfo@1@@Z DD imagerel $LN4
	DD	imagerel $LN4+203
	DD	imagerel $unwind$?Tock@Cy@@YAXPEAUTimerInfo@1@@Z
pdata	ENDS
;	COMDAT pdata
pdata	SEGMENT
$pdata$?DestroyTimerInfo@Cy@@YAXPEAUTimerInfo@1@@Z DD imagerel $LN3
	DD	imagerel $LN3+68
	DD	imagerel $unwind$?DestroyTimerInfo@Cy@@YAXPEAUTimerInfo@1@@Z
pdata	ENDS
;	COMDAT pdata
pdata	SEGMENT
$pdata$?Message@Cy@@YAXV?$basic_string@DU?$char_traits@D@std@@V?$allocator@D@2@@std@@@Z DD imagerel $LN4
	DD	imagerel $LN4+143
	DD	imagerel $unwind$?Message@Cy@@YAXV?$basic_string@DU?$char_traits@D@std@@V?$allocator@D@2@@std@@@Z
pdata	ENDS
;	COMDAT pdata
pdata	SEGMENT
$pdata$?dtor$0@?0??Message@Cy@@YAXV?$basic_string@DU?$char_traits@D@std@@V?$allocator@D@2@@std@@@Z@4HA DD imagerel ?dtor$0@?0??Message@Cy@@YAXV?$basic_string@DU?$char_traits@D@std@@V?$allocator@D@2@@std@@@Z@4HA
	DD	imagerel ?dtor$0@?0??Message@Cy@@YAXV?$basic_string@DU?$char_traits@D@std@@V?$allocator@D@2@@std@@@Z@4HA+39
	DD	imagerel $unwind$?dtor$0@?0??Message@Cy@@YAXV?$basic_string@DU?$char_traits@D@std@@V?$allocator@D@2@@std@@@Z@4HA
pdata	ENDS
;	COMDAT pdata
pdata	SEGMENT
$pdata$?Assert@Cy@@YAX_NV?$basic_string@DU?$char_traits@D@std@@V?$allocator@D@2@@std@@@Z DD imagerel $LN6
	DD	imagerel $LN6+242
	DD	imagerel $unwind$?Assert@Cy@@YAX_NV?$basic_string@DU?$char_traits@D@std@@V?$allocator@D@2@@std@@@Z
pdata	ENDS
;	COMDAT pdata
pdata	SEGMENT
$pdata$?dtor$0@?0??Assert@Cy@@YAX_NV?$basic_string@DU?$char_traits@D@std@@V?$allocator@D@2@@std@@@Z@4HA DD imagerel ?dtor$0@?0??Assert@Cy@@YAX_NV?$basic_string@DU?$char_traits@D@std@@V?$allocator@D@2@@std@@@Z@4HA
	DD	imagerel ?dtor$0@?0??Assert@Cy@@YAX_NV?$basic_string@DU?$char_traits@D@std@@V?$allocator@D@2@@std@@@Z@4HA+39
	DD	imagerel $unwind$?dtor$0@?0??Assert@Cy@@YAX_NV?$basic_string@DU?$char_traits@D@std@@V?$allocator@D@2@@std@@@Z@4HA
pdata	ENDS
;	COMDAT pdata
pdata	SEGMENT
$pdata$??$?5DU?$char_traits@D@std@@@std@@YAAEAV?$basic_istream@DU?$char_traits@D@std@@@0@AEAV10@AEAD@Z DD imagerel $LN13
	DD	imagerel $LN13+377
	DD	imagerel $unwind$??$?5DU?$char_traits@D@std@@@std@@YAAEAV?$basic_istream@DU?$char_traits@D@std@@@0@AEAV10@AEAD@Z
pdata	ENDS
;	COMDAT pdata
pdata	SEGMENT
$pdata$?dtor$0@?0???$?5DU?$char_traits@D@std@@@std@@YAAEAV?$basic_istream@DU?$char_traits@D@std@@@0@AEAV10@AEAD@Z@4HA DD imagerel ?dtor$0@?0???$?5DU?$char_traits@D@std@@@std@@YAAEAV?$basic_istream@DU?$char_traits@D@std@@@0@AEAV10@AEAD@Z@4HA
	DD	imagerel ?dtor$0@?0???$?5DU?$char_traits@D@std@@@std@@YAAEAV?$basic_istream@DU?$char_traits@D@std@@@0@AEAV10@AEAD@Z@4HA+36
	DD	imagerel $unwind$?dtor$0@?0???$?5DU?$char_traits@D@std@@@std@@YAAEAV?$basic_istream@DU?$char_traits@D@std@@@0@AEAV10@AEAD@Z@4HA
pdata	ENDS
;	COMDAT pdata
pdata	SEGMENT
$pdata$?catch$0@?0???$?5DU?$char_traits@D@std@@@std@@YAAEAV?$basic_istream@DU?$char_traits@D@std@@@0@AEAV10@AEAD@Z@4HA DD imagerel ?catch$0@?0???$?5DU?$char_traits@D@std@@@std@@YAAEAV?$basic_istream@DU?$char_traits@D@std@@@0@AEAV10@AEAD@Z@4HA
	DD	imagerel ?catch$0@?0???$?5DU?$char_traits@D@std@@@std@@YAAEAV?$basic_istream@DU?$char_traits@D@std@@@0@AEAV10@AEAD@Z@4HA+80
	DD	imagerel $unwind$?catch$0@?0???$?5DU?$char_traits@D@std@@@std@@YAAEAV?$basic_istream@DU?$char_traits@D@std@@@0@AEAV10@AEAD@Z@4HA
pdata	ENDS
;	COMDAT pdata
pdata	SEGMENT
$pdata$?SafeTruncate@Cy@@YAI_K@Z DD imagerel $LN6
	DD	imagerel $LN6+169
	DD	imagerel $unwind$?SafeTruncate@Cy@@YAI_K@Z
pdata	ENDS
;	COMDAT pdata
pdata	SEGMENT
$pdata$?SafeTruncate@Cy@@YAH_J@Z DD imagerel $LN11
	DD	imagerel $LN11+306
	DD	imagerel $unwind$?SafeTruncate@Cy@@YAH_J@Z
pdata	ENDS
;	COMDAT pdata
pdata	SEGMENT
$pdata$?WindowsSleep@Windows@@YAXI@Z DD imagerel $LN3
	DD	imagerel $LN3+62
	DD	imagerel $unwind$?WindowsSleep@Windows@@YAXI@Z
pdata	ENDS
;	COMDAT pdata
pdata	SEGMENT
$pdata$?MessageHandler@Cy@@YA_JPEAUHWND__@@I_K_J@Z DD imagerel $LN20
	DD	imagerel $LN20+774
	DD	imagerel $unwind$?MessageHandler@Cy@@YA_JPEAUHWND__@@I_K_J@Z
pdata	ENDS
;	COMDAT pdata
pdata	SEGMENT
$pdata$??$pow@HH@@YANHH@Z DD imagerel $LN3
	DD	imagerel $LN3+94
	DD	imagerel $unwind$??$pow@HH@@YANHH@Z
pdata	ENDS
;	COMDAT pdata
pdata	SEGMENT
$pdata$??$_Debug_pointer@$$CBD@std@@YAXPEBDPEBGI@Z DD imagerel $LN4
	DD	imagerel $LN4+99
	DD	imagerel $unwind$??$_Debug_pointer@$$CBD@std@@YAXPEBDPEBGI@Z
pdata	ENDS
;	COMDAT pdata
pdata	SEGMENT
$pdata$??$move@AEAV?$allocator@D@std@@@std@@YA$$QEAV?$allocator@D@0@AEAV10@@Z DD imagerel $LN3
	DD	imagerel $LN3+57
	DD	imagerel $unwind$??$move@AEAV?$allocator@D@std@@@std@@YA$$QEAV?$allocator@D@0@AEAV10@@Z
pdata	ENDS
;	COMDAT pdata
pdata	SEGMENT
$pdata$??$?0V?$allocator@D@std@@$$V@?$_Compressed_pair@U?$_Wrap_alloc@V?$allocator@D@std@@@std@@V?$_String_val@U?$_Simple_types@D@std@@@2@$00@std@@QEAA@U_One_then_variadic_args_t@1@$$QEAV?$allocator@D@1@@Z DD imagerel $LN4
	DD	imagerel $LN4+110
	DD	imagerel $unwind$??$?0V?$allocator@D@std@@$$V@?$_Compressed_pair@U?$_Wrap_alloc@V?$allocator@D@std@@@std@@V?$_String_val@U?$_Simple_types@D@std@@@2@$00@std@@QEAA@U_One_then_variadic_args_t@1@$$QEAV?$allocator@D@1@@Z
pdata	ENDS
;	COMDAT pdata
pdata	SEGMENT
$pdata$??$?0AEBV?$allocator@D@std@@$$V@?$_Compressed_pair@U?$_Wrap_alloc@V?$allocator@D@std@@@std@@V?$_String_val@U?$_Simple_types@D@std@@@2@$00@std@@QEAA@U_One_then_variadic_args_t@1@AEBV?$allocator@D@1@@Z DD imagerel $LN4
	DD	imagerel $LN4+110
	DD	imagerel $unwind$??$?0AEBV?$allocator@D@std@@$$V@?$_Compressed_pair@U?$_Wrap_alloc@V?$allocator@D@std@@@std@@V?$_String_val@U?$_Simple_types@D@std@@@2@$00@std@@QEAA@U_One_then_variadic_args_t@1@AEBV?$allocator@D@1@@Z
pdata	ENDS
;	COMDAT pdata
pdata	SEGMENT
$pdata$??$destroy@PEAD@?$_Wrap_alloc@V?$allocator@D@std@@@std@@QEAAXPEAPEAD@Z DD imagerel $LN3
	DD	imagerel $LN3+76
	DD	imagerel $unwind$??$destroy@PEAD@?$_Wrap_alloc@V?$allocator@D@std@@@std@@QEAAXPEAPEAD@Z
pdata	ENDS
;	COMDAT pdata
pdata	SEGMENT
$pdata$??$addressof@D@std@@YAPEADAEAD@Z DD imagerel $LN3
	DD	imagerel $LN3+71
	DD	imagerel $unwind$??$addressof@D@std@@YAPEADAEAD@Z
pdata	ENDS
;	COMDAT pdata
pdata	SEGMENT
$pdata$??$_Debug_pointer_if@$$CBD@std@@YAX_NPEBDPEBGI@Z DD imagerel $LN4
	DD	imagerel $LN4+114
	DD	imagerel $unwind$??$_Debug_pointer_if@$$CBD@std@@YAX_NPEBDPEBGI@Z
pdata	ENDS
;	COMDAT pdata
pdata	SEGMENT
$pdata$??$construct@PEADAEAPEAD@?$_Wrap_alloc@V?$allocator@D@std@@@std@@QEAAXPEAPEADAEAPEAD@Z DD imagerel $LN3
	DD	imagerel $LN3+96
	DD	imagerel $unwind$??$construct@PEADAEAPEAD@?$_Wrap_alloc@V?$allocator@D@std@@@std@@QEAAXPEAPEADAEAPEAD@Z
pdata	ENDS
;	COMDAT pdata
pdata	SEGMENT
$pdata$?deallocate@?$allocator@U_Container_proxy@std@@@std@@QEAAXPEAU_Container_proxy@2@_K@Z DD imagerel $LN3
	DD	imagerel $LN3+87
	DD	imagerel $unwind$?deallocate@?$allocator@U_Container_proxy@std@@@std@@QEAAXPEAU_Container_proxy@2@_K@Z
pdata	ENDS
;	COMDAT pdata
pdata	SEGMENT
$pdata$?allocate@?$allocator@U_Container_proxy@std@@@std@@QEAAPEAU_Container_proxy@2@_K@Z DD imagerel $LN3
	DD	imagerel $LN3+77
	DD	imagerel $unwind$?allocate@?$allocator@U_Container_proxy@std@@@std@@QEAAPEAU_Container_proxy@2@_K@Z
pdata	ENDS
;	COMDAT pdata
pdata	SEGMENT
$pdata$?allocate@?$_Wrap_alloc@V?$allocator@U_Container_proxy@std@@@std@@@std@@QEAAPEAU_Container_proxy@2@_K@Z DD imagerel $LN3
	DD	imagerel $LN3+76
	DD	imagerel $unwind$?allocate@?$_Wrap_alloc@V?$allocator@U_Container_proxy@std@@@std@@@std@@QEAAPEAU_Container_proxy@2@_K@Z
pdata	ENDS
;	COMDAT pdata
pdata	SEGMENT
$pdata$?deallocate@?$_Wrap_alloc@V?$allocator@U_Container_proxy@std@@@std@@@std@@QEAAXPEAU_Container_proxy@2@_K@Z DD imagerel $LN3
	DD	imagerel $LN3+88
	DD	imagerel $unwind$?deallocate@?$_Wrap_alloc@V?$allocator@U_Container_proxy@std@@@std@@@std@@QEAAXPEAU_Container_proxy@2@_K@Z
pdata	ENDS
;	COMDAT pdata
pdata	SEGMENT
$pdata$??$destroy@U_Container_proxy@std@@@?$_Wrap_alloc@V?$allocator@U_Container_proxy@std@@@std@@@std@@QEAAXPEAU_Container_proxy@1@@Z DD imagerel $LN3
	DD	imagerel $LN3+76
	DD	imagerel $unwind$??$destroy@U_Container_proxy@std@@@?$_Wrap_alloc@V?$allocator@U_Container_proxy@std@@@std@@@std@@QEAAXPEAU_Container_proxy@1@@Z
pdata	ENDS
;	COMDAT pdata
pdata	SEGMENT
$pdata$??$construct@U_Container_proxy@std@@U12@@?$_Wrap_alloc@V?$allocator@U_Container_proxy@std@@@std@@@std@@QEAAXPEAU_Container_proxy@1@$$QEAU21@@Z DD imagerel $LN3
	DD	imagerel $LN3+96
	DD	imagerel $unwind$??$construct@U_Container_proxy@std@@U12@@?$_Wrap_alloc@V?$allocator@U_Container_proxy@std@@@std@@@std@@QEAAXPEAU_Container_proxy@1@$$QEAU21@@Z
pdata	ENDS
;	COMDAT pdata
pdata	SEGMENT
$pdata$??$?0U?$_Wrap_alloc@V?$allocator@D@std@@@std@@@?$_Wrap_alloc@V?$allocator@U_Container_proxy@std@@@std@@@std@@QEAA@AEAU?$_Wrap_alloc@V?$allocator@D@std@@@1@@Z DD imagerel $LN3
	DD	imagerel $LN3+83
	DD	imagerel $unwind$??$?0U?$_Wrap_alloc@V?$allocator@D@std@@@std@@@?$_Wrap_alloc@V?$allocator@U_Container_proxy@std@@@std@@@std@@QEAA@AEAU?$_Wrap_alloc@V?$allocator@D@std@@@1@@Z
pdata	ENDS
;	COMDAT pdata
pdata	SEGMENT
$pdata$??$?0D@?$allocator@U_Container_proxy@std@@@std@@QEAA@AEBV?$allocator@D@1@@Z DD imagerel $LN3
	DD	imagerel $LN3+62
	DD	imagerel $unwind$??$?0D@?$allocator@U_Container_proxy@std@@@std@@QEAA@AEBV?$allocator@D@1@@Z
pdata	ENDS
;	COMDAT pdata
pdata	SEGMENT
$pdata$??0_Sentry_base@?$basic_istream@DU?$char_traits@D@std@@@std@@QEAA@AEAV12@@Z DD imagerel $LN4
	DD	imagerel $LN4+219
	DD	imagerel $unwind$??0_Sentry_base@?$basic_istream@DU?$char_traits@D@std@@@std@@QEAA@AEAV12@@Z
pdata	ENDS
;	COMDAT pdata
pdata	SEGMENT
$pdata$??1_Sentry_base@?$basic_istream@DU?$char_traits@D@std@@@std@@QEAA@XZ DD imagerel $LN4
	DD	imagerel $LN4+204
	DD	imagerel $unwind$??1_Sentry_base@?$basic_istream@DU?$char_traits@D@std@@@std@@QEAA@XZ
pdata	ENDS
;	COMDAT pdata
pdata	SEGMENT
$pdata$??0sentry@?$basic_istream@DU?$char_traits@D@std@@@std@@QEAA@AEAV12@_N@Z DD imagerel $LN4
	DD	imagerel $LN4+133
	DD	imagerel $unwind$??0sentry@?$basic_istream@DU?$char_traits@D@std@@@std@@QEAA@AEAV12@_N@Z
pdata	ENDS
;	COMDAT pdata
pdata	SEGMENT
$pdata$?dtor$0@?0???0sentry@?$basic_istream@DU?$char_traits@D@std@@@std@@QEAA@AEAV12@_N@Z@4HA DD imagerel ?dtor$0@?0???0sentry@?$basic_istream@DU?$char_traits@D@std@@@std@@QEAA@AEAV12@_N@Z@4HA
	DD	imagerel ?dtor$0@?0???0sentry@?$basic_istream@DU?$char_traits@D@std@@@std@@QEAA@AEAV12@_N@Z@4HA+39
	DD	imagerel $unwind$?dtor$0@?0???0sentry@?$basic_istream@DU?$char_traits@D@std@@@std@@QEAA@AEAV12@_N@Z@4HA
pdata	ENDS
;	COMDAT pdata
pdata	SEGMENT
$pdata$??Bsentry@?$basic_istream@DU?$char_traits@D@std@@@std@@QEBA_NXZ DD imagerel $LN3
	DD	imagerel $LN3+61
	DD	imagerel $unwind$??Bsentry@?$basic_istream@DU?$char_traits@D@std@@@std@@QEBA_NXZ
pdata	ENDS
;	COMDAT pdata
pdata	SEGMENT
$pdata$??1sentry@?$basic_istream@DU?$char_traits@D@std@@@std@@QEAA@XZ DD imagerel $LN3
	DD	imagerel $LN3+64
	DD	imagerel $unwind$??1sentry@?$basic_istream@DU?$char_traits@D@std@@@std@@QEAA@XZ
pdata	ENDS
;	COMDAT pdata
pdata	SEGMENT
$pdata$??$forward@V?$allocator@D@std@@@std@@YA$$QEAV?$allocator@D@0@AEAV10@@Z DD imagerel $LN3
	DD	imagerel $LN3+57
	DD	imagerel $unwind$??$forward@V?$allocator@D@std@@@std@@YA$$QEAV?$allocator@D@0@AEAV10@@Z
pdata	ENDS
;	COMDAT pdata
pdata	SEGMENT
$pdata$??$forward@AEBV?$allocator@D@std@@@std@@YAAEBV?$allocator@D@0@AEBV10@@Z DD imagerel $LN3
	DD	imagerel $LN3+57
	DD	imagerel $unwind$??$forward@AEBV?$allocator@D@std@@@std@@YAAEBV?$allocator@D@0@AEBV10@@Z
pdata	ENDS
;	COMDAT pdata
pdata	SEGMENT
$pdata$??$destroy@PEAD@?$allocator_traits@V?$allocator@D@std@@@std@@SAXAEAV?$allocator@D@1@PEAPEAD@Z DD imagerel $LN3
	DD	imagerel $LN3+76
	DD	imagerel $unwind$??$destroy@PEAD@?$allocator_traits@V?$allocator@D@std@@@std@@SAXAEAV?$allocator@D@1@PEAPEAD@Z
pdata	ENDS
;	COMDAT pdata
pdata	SEGMENT
$pdata$??$_Addressof@D@std@@YAPEADAEADU?$integral_constant@_N$0A@@0@@Z DD imagerel $LN3
	DD	imagerel $LN3+61
	DD	imagerel $unwind$??$_Addressof@D@std@@YAPEADAEADU?$integral_constant@_N$0A@@0@@Z
pdata	ENDS
;	COMDAT pdata
pdata	SEGMENT
$pdata$??$forward@AEAPEAD@std@@YAAEAPEADAEAPEAD@Z DD imagerel $LN3
	DD	imagerel $LN3+57
	DD	imagerel $unwind$??$forward@AEAPEAD@std@@YAAEAPEADAEAPEAD@Z
pdata	ENDS
;	COMDAT pdata
pdata	SEGMENT
$pdata$??$construct@PEADAEAPEAD@?$allocator_traits@V?$allocator@D@std@@@std@@SAXAEAV?$allocator@D@1@PEAPEADAEAPEAD@Z DD imagerel $LN3
	DD	imagerel $LN3+96
	DD	imagerel $unwind$??$construct@PEADAEAPEAD@?$allocator_traits@V?$allocator@D@std@@@std@@SAXAEAV?$allocator@D@1@PEAPEADAEAPEAD@Z
pdata	ENDS
;	COMDAT pdata
pdata	SEGMENT
$pdata$??$destroy@U_Container_proxy@std@@@?$allocator_traits@V?$allocator@U_Container_proxy@std@@@std@@@std@@SAXAEAV?$allocator@U_Container_proxy@std@@@1@PEAU_Container_proxy@1@@Z DD imagerel $LN3
	DD	imagerel $LN3+76
	DD	imagerel $unwind$??$destroy@U_Container_proxy@std@@@?$allocator_traits@V?$allocator@U_Container_proxy@std@@@std@@@std@@SAXAEAV?$allocator@U_Container_proxy@std@@@1@PEAU_Container_proxy@1@@Z
pdata	ENDS
;	COMDAT pdata
pdata	SEGMENT
$pdata$??$forward@U_Container_proxy@std@@@std@@YA$$QEAU_Container_proxy@0@AEAU10@@Z DD imagerel $LN3
	DD	imagerel $LN3+57
	DD	imagerel $unwind$??$forward@U_Container_proxy@std@@@std@@YA$$QEAU_Container_proxy@0@AEAU10@@Z
pdata	ENDS
;	COMDAT pdata
pdata	SEGMENT
$pdata$??$construct@U_Container_proxy@std@@U12@@?$allocator_traits@V?$allocator@U_Container_proxy@std@@@std@@@std@@SAXAEAV?$allocator@U_Container_proxy@std@@@1@PEAU_Container_proxy@1@$$QEAU31@@Z DD imagerel $LN3
	DD	imagerel $LN3+96
	DD	imagerel $unwind$??$construct@U_Container_proxy@std@@U12@@?$allocator_traits@V?$allocator@U_Container_proxy@std@@@std@@@std@@SAXAEAV?$allocator@U_Container_proxy@std@@@1@PEAU_Container_proxy@1@$$QEAU31@@Z
pdata	ENDS
;	COMDAT pdata
pdata	SEGMENT
$pdata$??$destroy@PEAD@?$allocator@D@std@@QEAAXPEAPEAD@Z DD imagerel $LN3
	DD	imagerel $LN3+55
	DD	imagerel $unwind$??$destroy@PEAD@?$allocator@D@std@@QEAAXPEAPEAD@Z
pdata	ENDS
;	COMDAT pdata
pdata	SEGMENT
$pdata$??$construct@PEADAEAPEAD@?$allocator@D@std@@QEAAXPEAPEADAEAPEAD@Z DD imagerel $LN5
	DD	imagerel $LN5+148
	DD	imagerel $unwind$??$construct@PEADAEAPEAD@?$allocator@D@std@@QEAAXPEAPEADAEAPEAD@Z
pdata	ENDS
;	COMDAT pdata
pdata	SEGMENT
$pdata$??$destroy@U_Container_proxy@std@@@?$allocator@U_Container_proxy@std@@@std@@QEAAXPEAU_Container_proxy@1@@Z DD imagerel $LN3
	DD	imagerel $LN3+55
	DD	imagerel $unwind$??$destroy@U_Container_proxy@std@@@?$allocator@U_Container_proxy@std@@@std@@QEAAXPEAU_Container_proxy@1@@Z
pdata	ENDS
;	COMDAT pdata
pdata	SEGMENT
$pdata$??$construct@U_Container_proxy@std@@U12@@?$allocator@U_Container_proxy@std@@@std@@QEAAXPEAU_Container_proxy@1@$$QEAU21@@Z DD imagerel $LN5
	DD	imagerel $LN5+154
	DD	imagerel $unwind$??$construct@U_Container_proxy@std@@U12@@?$allocator@U_Container_proxy@std@@@std@@QEAAXPEAU_Container_proxy@1@$$QEAU21@@Z
pdata	ENDS
;	COMDAT __real@5f800000
CONST	SEGMENT
__real@5f800000 DD 05f800000r			; 1.84467e+19
CONST	ENDS
;	COMDAT rtc$TMZ
rtc$TMZ	SEGMENT
_RTC_Shutdown.rtc$TMZ DQ FLAT:_RTC_Shutdown
rtc$TMZ	ENDS
;	COMDAT rtc$IMZ
rtc$IMZ	SEGMENT
_RTC_InitBase.rtc$IMZ DQ FLAT:_RTC_InitBase
rtc$IMZ	ENDS
;	COMDAT ??_C@_1CK@EOPGIILJ@?$AAi?$AAn?$AAv?$AAa?$AAl?$AAi?$AAd?$AA?5?$AAn?$AAu?$AAl?$AAl?$AA?5?$AAp?$AAo?$AAi?$AAn?$AAt?$AAe?$AAr?$AA?$AA@
CONST	SEGMENT
??_C@_1CK@EOPGIILJ@?$AAi?$AAn?$AAv?$AAa?$AAl?$AAi?$AAd?$AA?5?$AAn?$AAu?$AAl?$AAl?$AA?5?$AAp?$AAo?$AAi?$AAn?$AAt?$AAe?$AAr?$AA?$AA@ DB 'i'
	DB	00H, 'n', 00H, 'v', 00H, 'a', 00H, 'l', 00H, 'i', 00H, 'd', 00H
	DB	' ', 00H, 'n', 00H, 'u', 00H, 'l', 00H, 'l', 00H, ' ', 00H, 'p'
	DB	00H, 'o', 00H, 'i', 00H, 'n', 00H, 't', 00H, 'e', 00H, 'r', 00H
	DB	00H, 00H					; `string'
CONST	ENDS
;	COMDAT ??_C@_0BA@JFNIOLAK@string?5too?5long?$AA@
CONST	SEGMENT
??_C@_0BA@JFNIOLAK@string?5too?5long?$AA@ DB 'string too long', 00H ; `string'
CONST	ENDS
;	COMDAT ??_C@_0BI@CFPLBAOH@invalid?5string?5position?$AA@
CONST	SEGMENT
??_C@_0BI@CFPLBAOH@invalid?5string?5position?$AA@ DB 'invalid string posi'
	DB	'tion', 00H					; `string'
CONST	ENDS
;	COMDAT ??_C@_1EE@PIAPABGP@?$AAd?$AA?3?$AA?2?$AAa?$AAp?$AAp?$AAd?$AAa?$AAt?$AAa?$AA?2?$AAv?$AAs?$AAp?$AA?2?$AAv?$AAc?$AA?2?$AAi?$AAn?$AAc?$AAl?$AAu?$AAd?$AAe?$AA?2?$AAx?$AAs?$AAt?$AAr?$AAi?$AAn@
CONST	SEGMENT
??_C@_1EE@PIAPABGP@?$AAd?$AA?3?$AA?2?$AAa?$AAp?$AAp?$AAd?$AAa?$AAt?$AAa?$AA?2?$AAv?$AAs?$AAp?$AA?2?$AAv?$AAc?$AA?2?$AAi?$AAn?$AAc?$AAl?$AAu?$AAd?$AAe?$AA?2?$AAx?$AAs?$AAt?$AAr?$AAi?$AAn@ DB 'd'
	DB	00H, ':', 00H, '\', 00H, 'a', 00H, 'p', 00H, 'p', 00H, 'd', 00H
	DB	'a', 00H, 't', 00H, 'a', 00H, '\', 00H, 'v', 00H, 's', 00H, 'p'
	DB	00H, '\', 00H, 'v', 00H, 'c', 00H, '\', 00H, 'i', 00H, 'n', 00H
	DB	'c', 00H, 'l', 00H, 'u', 00H, 'd', 00H, 'e', 00H, '\', 00H, 'x'
	DB	00H, 's', 00H, 't', 00H, 'r', 00H, 'i', 00H, 'n', 00H, 'g', 00H
	DB	00H, 00H					; `string'
CONST	ENDS
;	COMDAT ??_C@_0BE@LABMMLMO@could?5not?5read?5file?$AA@
CONST	SEGMENT
??_C@_0BE@LABMMLMO@could?5not?5read?5file?$AA@ DB 'could not read file', 00H ; `string'
CONST	ENDS
;	COMDAT ??_C@_0N@JFIFKAKF@file?5too?5big?$AA@
CONST	SEGMENT
??_C@_0N@JFIFKAKF@file?5too?5big?$AA@ DB 'file too big', 00H ; `string'
CONST	ENDS
;	COMDAT ??_C@_0CC@PBICDBGD@could?5not?5create?5a?5windows?5windo@
CONST	SEGMENT
??_C@_0CC@PBICDBGD@could?5not?5create?5a?5windows?5windo@ DB 'could not c'
	DB	'reate a windows window', 00H		; `string'
CONST	ENDS
;	COMDAT ??_C@_0BP@CHPCPMKH@could?5not?5register?5windowclass?$AA@
CONST	SEGMENT
??_C@_0BP@CHPCPMKH@could?5not?5register?5windowclass?$AA@ DB 'could not r'
	DB	'egister windowclass', 00H			; `string'
CONST	ENDS
;	COMDAT ??_C@_0BC@BJEMDEOO@truncate?5NOT?5SAFE?$AA@
CONST	SEGMENT
??_C@_0BC@BJEMDEOO@truncate?5NOT?5SAFE?$AA@ DB 'truncate NOT SAFE', 00H ; `string'
CONST	ENDS
;	COMDAT ??_C@_01EEMJAFIK@?6?$AA@
CONST	SEGMENT
??_C@_01EEMJAFIK@?6?$AA@ DB 0aH, 00H			; `string'
CONST	ENDS
;	COMDAT ?npos@?$basic_string@DU?$char_traits@D@std@@V?$allocator@D@2@@std@@2_KB
CONST	SEGMENT
?npos@?$basic_string@DU?$char_traits@D@std@@V?$allocator@D@2@@std@@2_KB DQ ffffffffffffffffH ; std::basic_string<char,std::char_traits<char>,std::allocator<char> >::npos
CONST	ENDS
;	COMDAT ??_C@_1GI@DHJGPFNI@?$AA?$CC?$AA_?$AAP?$AAt?$AAr?$AA_?$AAu?$AAs?$AAe?$AAr?$AA?5?$AA?9?$AA?5?$AA_?$AAP?$AAt?$AAr?$AA_?$AAc?$AAo?$AAn?$AAt?$AAa?$AAi?$AAn?$AAe?$AAr?$AA?5?$AA?$DM?$AA?$DN?$AA?5?$AA_@
CONST	SEGMENT
??_C@_1GI@DHJGPFNI@?$AA?$CC?$AA_?$AAP?$AAt?$AAr?$AA_?$AAu?$AAs?$AAe?$AAr?$AA?5?$AA?9?$AA?5?$AA_?$AAP?$AAt?$AAr?$AA_?$AAc?$AAo?$AAn?$AAt?$AAa?$AAi?$AAn?$AAe?$AAr?$AA?5?$AA?$DM?$AA?$DN?$AA?5?$AA_@ DB '"'
	DB	00H, '_', 00H, 'P', 00H, 't', 00H, 'r', 00H, '_', 00H, 'u', 00H
	DB	's', 00H, 'e', 00H, 'r', 00H, ' ', 00H, '-', 00H, ' ', 00H, '_'
	DB	00H, 'P', 00H, 't', 00H, 'r', 00H, '_', 00H, 'c', 00H, 'o', 00H
	DB	'n', 00H, 't', 00H, 'a', 00H, 'i', 00H, 'n', 00H, 'e', 00H, 'r'
	DB	00H, ' ', 00H, '<', 00H, '=', 00H, ' ', 00H, '_', 00H, 'N', 00H
	DB	'O', 00H, 'N', 00H, '_', 00H, 'U', 00H, 'S', 00H, 'E', 00H, 'R'
	DB	00H, '_', 00H, 'S', 00H, 'I', 00H, 'Z', 00H, 'E', 00H, '"', 00H
	DB	' ', 00H, '&', 00H, '&', 00H, ' ', 00H, '0', 00H, 00H, 00H ; `string'
CONST	ENDS
;	COMDAT ??_C@_0CN@BLHJCAL@_Ptr_user?5?9?5_Ptr_container?5?$DM?$DN?5_N@
CONST	SEGMENT
??_C@_0CN@BLHJCAL@_Ptr_user?5?9?5_Ptr_container?5?$DM?$DN?5_N@ DB '_Ptr_u'
	DB	'ser - _Ptr_container <= _NON_USER_SIZE', 00H ; `string'
CONST	ENDS
;	COMDAT ??_C@_1HA@NAPGMHAO@?$AA?$CC?$AA2?$AA?5?$AA?$CK?$AA?5?$AAs?$AAi?$AAz?$AAe?$AAo?$AAf?$AA?$CI?$AAv?$AAo?$AAi?$AAd?$AA?5?$AA?$CK?$AA?$CJ?$AA?5?$AA?$DM?$AA?$DN?$AA?5?$AA_?$AAP?$AAt?$AAr?$AA_?$AAu?$AAs?$AAe?$AAr@
CONST	SEGMENT
??_C@_1HA@NAPGMHAO@?$AA?$CC?$AA2?$AA?5?$AA?$CK?$AA?5?$AAs?$AAi?$AAz?$AAe?$AAo?$AAf?$AA?$CI?$AAv?$AAo?$AAi?$AAd?$AA?5?$AA?$CK?$AA?$CJ?$AA?5?$AA?$DM?$AA?$DN?$AA?5?$AA_?$AAP?$AAt?$AAr?$AA_?$AAu?$AAs?$AAe?$AAr@ DB '"'
	DB	00H, '2', 00H, ' ', 00H, '*', 00H, ' ', 00H, 's', 00H, 'i', 00H
	DB	'z', 00H, 'e', 00H, 'o', 00H, 'f', 00H, '(', 00H, 'v', 00H, 'o'
	DB	00H, 'i', 00H, 'd', 00H, ' ', 00H, '*', 00H, ')', 00H, ' ', 00H
	DB	'<', 00H, '=', 00H, ' ', 00H, '_', 00H, 'P', 00H, 't', 00H, 'r'
	DB	00H, '_', 00H, 'u', 00H, 's', 00H, 'e', 00H, 'r', 00H, ' ', 00H
	DB	'-', 00H, ' ', 00H, '_', 00H, 'P', 00H, 't', 00H, 'r', 00H, '_'
	DB	00H, 'c', 00H, 'o', 00H, 'n', 00H, 't', 00H, 'a', 00H, 'i', 00H
	DB	'n', 00H, 'e', 00H, 'r', 00H, '"', 00H, ' ', 00H, '&', 00H, '&'
	DB	00H, ' ', 00H, '0', 00H, 00H, 00H		; `string'
CONST	ENDS
;	COMDAT ??_C@_0DB@GLFJLNCE@2?5?$CK?5sizeof?$CIvoid?5?$CK?$CJ?5?$DM?$DN?5_Ptr_user?5@
CONST	SEGMENT
??_C@_0DB@GLFJLNCE@2?5?$CK?5sizeof?$CIvoid?5?$CK?$CJ?5?$DM?$DN?5_Ptr_user?5@ DB '2'
	DB	' * sizeof(void *) <= _Ptr_user - _Ptr_container', 00H ; `string'
CONST	ENDS
;	COMDAT ??_C@_1EE@PDHAHDDC@?$AA?$CC?$AA_?$AAP?$AAt?$AAr?$AA_?$AAc?$AAo?$AAn?$AAt?$AAa?$AAi?$AAn?$AAe?$AAr?$AA?5?$AA?$DM?$AA?5?$AA_?$AAP?$AAt?$AAr?$AA_?$AAu?$AAs?$AAe?$AAr?$AA?$CC?$AA?5?$AA?$CG?$AA?$CG?$AA?5@
CONST	SEGMENT
??_C@_1EE@PDHAHDDC@?$AA?$CC?$AA_?$AAP?$AAt?$AAr?$AA_?$AAc?$AAo?$AAn?$AAt?$AAa?$AAi?$AAn?$AAe?$AAr?$AA?5?$AA?$DM?$AA?5?$AA_?$AAP?$AAt?$AAr?$AA_?$AAu?$AAs?$AAe?$AAr?$AA?$CC?$AA?5?$AA?$CG?$AA?$CG?$AA?5@ DB '"'
	DB	00H, '_', 00H, 'P', 00H, 't', 00H, 'r', 00H, '_', 00H, 'c', 00H
	DB	'o', 00H, 'n', 00H, 't', 00H, 'a', 00H, 'i', 00H, 'n', 00H, 'e'
	DB	00H, 'r', 00H, ' ', 00H, '<', 00H, ' ', 00H, '_', 00H, 'P', 00H
	DB	't', 00H, 'r', 00H, '_', 00H, 'u', 00H, 's', 00H, 'e', 00H, 'r'
	DB	00H, '"', 00H, ' ', 00H, '&', 00H, '&', 00H, ' ', 00H, '0', 00H
	DB	00H, 00H					; `string'
CONST	ENDS
;	COMDAT ??_C@_0BL@OCKMEJON@_Ptr_container?5?$DM?5_Ptr_user?$AA@
CONST	SEGMENT
??_C@_0BL@OCKMEJON@_Ptr_container?5?$DM?5_Ptr_user?$AA@ DB '_Ptr_containe'
	DB	'r < _Ptr_user', 00H				; `string'
CONST	ENDS
;	COMDAT ??_C@_1JO@EKLKIEHP@?$AA?$CC?$AAr?$AAe?$AAi?$AAn?$AAt?$AAe?$AAr?$AAp?$AAr?$AAe?$AAt?$AA_?$AAc?$AAa?$AAs?$AAt?$AA?$DM?$AAu?$AAi?$AAn?$AAt?$AAp?$AAt?$AAr?$AA_?$AAt?$AA?5?$AA?$CK?$AA?$DO?$AA?$CI?$AA_@
CONST	SEGMENT
??_C@_1JO@EKLKIEHP@?$AA?$CC?$AAr?$AAe?$AAi?$AAn?$AAt?$AAe?$AAr?$AAp?$AAr?$AAe?$AAt?$AA_?$AAc?$AAa?$AAs?$AAt?$AA?$DM?$AAu?$AAi?$AAn?$AAt?$AAp?$AAt?$AAr?$AA_?$AAt?$AA?5?$AA?$CK?$AA?$DO?$AA?$CI?$AA_@ DB '"'
	DB	00H, 'r', 00H, 'e', 00H, 'i', 00H, 'n', 00H, 't', 00H, 'e', 00H
	DB	'r', 00H, 'p', 00H, 'r', 00H, 'e', 00H, 't', 00H, '_', 00H, 'c'
	DB	00H, 'a', 00H, 's', 00H, 't', 00H, '<', 00H, 'u', 00H, 'i', 00H
	DB	'n', 00H, 't', 00H, 'p', 00H, 't', 00H, 'r', 00H, '_', 00H, 't'
	DB	00H, ' ', 00H, '*', 00H, '>', 00H, '(', 00H, '_', 00H, 'P', 00H
	DB	't', 00H, 'r', 00H, '_', 00H, 'p', 00H, 't', 00H, 'r', 00H, ')'
	DB	00H, '[', 00H, '-', 00H, '1', 00H, ']', 00H, ' ', 00H, '=', 00H
	DB	'=', 00H, ' ', 00H, '_', 00H, 'B', 00H, 'I', 00H, 'G', 00H, '_'
	DB	00H, 'A', 00H, 'L', 00H, 'L', 00H, 'O', 00H, 'C', 00H, 'A', 00H
	DB	'T', 00H, 'I', 00H, 'O', 00H, 'N', 00H, '_', 00H, 'S', 00H, 'E'
	DB	00H, 'N', 00H, 'T', 00H, 'I', 00H, 'N', 00H, 'E', 00H, 'L', 00H
	DB	'"', 00H, ' ', 00H, '&', 00H, '&', 00H, ' ', 00H, '0', 00H, 00H
	DB	00H						; `string'
CONST	ENDS
;	COMDAT ??_C@_0EI@NOJHEJCJ@reinterpret_cast?$DMuintptr_t?5?$CK?$DO?$CI_P@
CONST	SEGMENT
??_C@_0EI@NOJHEJCJ@reinterpret_cast?$DMuintptr_t?5?$CK?$DO?$CI_P@ DB 'rei'
	DB	'nterpret_cast<uintptr_t *>(_Ptr_ptr)[-1] == _BIG_ALLOCATION_S'
	DB	'ENTINEL', 00H				; `string'
CONST	ENDS
;	COMDAT ??_C@_1HE@CDMBFOKC@?$AA?$CC?$AA?$CI?$AA_?$AAP?$AAt?$AAr?$AA_?$AAu?$AAs?$AAe?$AAr?$AA?5?$AA?$CG?$AA?5?$AA?$CI?$AA_?$AAB?$AAI?$AAG?$AA_?$AAA?$AAL?$AAL?$AAO?$AAC?$AAA?$AAT?$AAI?$AAO?$AAN?$AA_?$AAA@
CONST	SEGMENT
??_C@_1HE@CDMBFOKC@?$AA?$CC?$AA?$CI?$AA_?$AAP?$AAt?$AAr?$AA_?$AAu?$AAs?$AAe?$AAr?$AA?5?$AA?$CG?$AA?5?$AA?$CI?$AA_?$AAB?$AAI?$AAG?$AA_?$AAA?$AAL?$AAL?$AAO?$AAC?$AAA?$AAT?$AAI?$AAO?$AAN?$AA_?$AAA@ DB '"'
	DB	00H, '(', 00H, '_', 00H, 'P', 00H, 't', 00H, 'r', 00H, '_', 00H
	DB	'u', 00H, 's', 00H, 'e', 00H, 'r', 00H, ' ', 00H, '&', 00H, ' '
	DB	00H, '(', 00H, '_', 00H, 'B', 00H, 'I', 00H, 'G', 00H, '_', 00H
	DB	'A', 00H, 'L', 00H, 'L', 00H, 'O', 00H, 'C', 00H, 'A', 00H, 'T'
	DB	00H, 'I', 00H, 'O', 00H, 'N', 00H, '_', 00H, 'A', 00H, 'L', 00H
	DB	'I', 00H, 'G', 00H, 'N', 00H, 'M', 00H, 'E', 00H, 'N', 00H, 'T'
	DB	00H, ' ', 00H, '-', 00H, ' ', 00H, '1', 00H, ')', 00H, ')', 00H
	DB	' ', 00H, '=', 00H, '=', 00H, ' ', 00H, '0', 00H, '"', 00H, ' '
	DB	00H, '&', 00H, '&', 00H, ' ', 00H, '0', 00H, 00H, 00H ; `string'
CONST	ENDS
;	COMDAT ??_C@_0DD@GBGGGKGG@?$CI_Ptr_user?5?$CG?5?$CI_BIG_ALLOCATION_AL@
CONST	SEGMENT
??_C@_0DD@GBGGGKGG@?$CI_Ptr_user?5?$CG?5?$CI_BIG_ALLOCATION_AL@ DB '(_Ptr'
	DB	'_user & (_BIG_ALLOCATION_ALIGNMENT - 1)) == 0', 00H ; `string'
CONST	ENDS
;	COMDAT ??_C@_1CC@LOFJFFDB@?$AAs?$AAt?$AAd?$AA?3?$AA?3?$AA_?$AAD?$AAe?$AAa?$AAl?$AAl?$AAo?$AAc?$AAa?$AAt?$AAe?$AA?$AA@
CONST	SEGMENT
??_C@_1CC@LOFJFFDB@?$AAs?$AAt?$AAd?$AA?3?$AA?3?$AA_?$AAD?$AAe?$AAa?$AAl?$AAl?$AAo?$AAc?$AAa?$AAt?$AAe?$AA?$AA@ DB 's'
	DB	00H, 't', 00H, 'd', 00H, ':', 00H, ':', 00H, '_', 00H, 'D', 00H
	DB	'e', 00H, 'a', 00H, 'l', 00H, 'l', 00H, 'o', 00H, 'c', 00H, 'a'
	DB	00H, 't', 00H, 'e', 00H, 00H, 00H		; `string'
CONST	ENDS
;	COMDAT ??_C@_1EI@MLOBABC@?$AA?$CC?$AA_?$AAC?$AAo?$AAu?$AAn?$AAt?$AA?5?$AA?$DM?$AA?$DN?$AA?5?$AA?$CI?$AAs?$AAi?$AAz?$AAe?$AA_?$AAt?$AA?$CJ?$AA?$CI?$AA?9?$AA1?$AA?$CJ?$AA?5?$AA?1?$AA?5?$AA_?$AAS?$AAz?$AA?$CC?$AA?5?$AA?$CG@
CONST	SEGMENT
??_C@_1EI@MLOBABC@?$AA?$CC?$AA_?$AAC?$AAo?$AAu?$AAn?$AAt?$AA?5?$AA?$DM?$AA?$DN?$AA?5?$AA?$CI?$AAs?$AAi?$AAz?$AAe?$AA_?$AAt?$AA?$CJ?$AA?$CI?$AA?9?$AA1?$AA?$CJ?$AA?5?$AA?1?$AA?5?$AA_?$AAS?$AAz?$AA?$CC?$AA?5?$AA?$CG@ DB '"'
	DB	00H, '_', 00H, 'C', 00H, 'o', 00H, 'u', 00H, 'n', 00H, 't', 00H
	DB	' ', 00H, '<', 00H, '=', 00H, ' ', 00H, '(', 00H, 's', 00H, 'i'
	DB	00H, 'z', 00H, 'e', 00H, '_', 00H, 't', 00H, ')', 00H, '(', 00H
	DB	'-', 00H, '1', 00H, ')', 00H, ' ', 00H, '/', 00H, ' ', 00H, '_'
	DB	00H, 'S', 00H, 'z', 00H, '"', 00H, ' ', 00H, '&', 00H, '&', 00H
	DB	' ', 00H, '0', 00H, 00H, 00H			; `string'
CONST	ENDS
;	COMDAT ??_C@_0BN@HMCJOMKN@_Count?5?$DM?$DN?5?$CIsize_t?$CJ?$CI?91?$CJ?5?1?5_Sz?$AA@
CONST	SEGMENT
??_C@_0BN@HMCJOMKN@_Count?5?$DM?$DN?5?$CIsize_t?$CJ?$CI?91?$CJ?5?1?5_Sz?$AA@ DB '_'
	DB	'Count <= (size_t)(-1) / _Sz', 00H		; `string'
CONST	ENDS
;	COMDAT ?__LINE__Var@?0??_Deallocate@std@@YAXPEAX_K1@Z@4JA
_DATA	SEGMENT
?__LINE__Var@?0??_Deallocate@std@@YAXPEAX_K1@Z@4JA DD 062H ; `std::_Deallocate'::`1'::__LINE__Var
_DATA	ENDS
;	COMDAT ??_C@_1CC@GKJLLHIM@?$AA?$CC?$AA_?$AAP?$AAt?$AAr?$AA?5?$AA?$CB?$AA?$DN?$AA?5?$AA0?$AA?$CC?$AA?5?$AA?$CG?$AA?$CG?$AA?5?$AA0?$AA?$AA@
CONST	SEGMENT
??_C@_1CC@GKJLLHIM@?$AA?$CC?$AA_?$AAP?$AAt?$AAr?$AA?5?$AA?$CB?$AA?$DN?$AA?5?$AA0?$AA?$CC?$AA?5?$AA?$CG?$AA?$CG?$AA?5?$AA0?$AA?$AA@ DB '"'
	DB	00H, '_', 00H, 'P', 00H, 't', 00H, 'r', 00H, ' ', 00H, '!', 00H
	DB	'=', 00H, ' ', 00H, '0', 00H, '"', 00H, ' ', 00H, '&', 00H, '&'
	DB	00H, ' ', 00H, '0', 00H, 00H, 00H		; `string'
CONST	ENDS
;	COMDAT ??_C@_09GLJCAGLP@_Ptr?5?$CB?$DN?50?$AA@
CONST	SEGMENT
??_C@_09GLJCAGLP@_Ptr?5?$CB?$DN?50?$AA@ DB '_Ptr != 0', 00H ; `string'
CONST	ENDS
;	COMDAT ??_C@_1CG@JNLFBNGN@?$AA?$CC?$AAi?$AAn?$AAv?$AAa?$AAl?$AAi?$AAd?$AA?5?$AAa?$AAr?$AAg?$AAu?$AAm?$AAe?$AAn?$AAt?$AA?$CC?$AA?$AA@
CONST	SEGMENT
??_C@_1CG@JNLFBNGN@?$AA?$CC?$AAi?$AAn?$AAv?$AAa?$AAl?$AAi?$AAd?$AA?5?$AAa?$AAr?$AAg?$AAu?$AAm?$AAe?$AAn?$AAt?$AA?$CC?$AA?$AA@ DB '"'
	DB	00H, 'i', 00H, 'n', 00H, 'v', 00H, 'a', 00H, 'l', 00H, 'i', 00H
	DB	'd', 00H, ' ', 00H, 'a', 00H, 'r', 00H, 'g', 00H, 'u', 00H, 'm'
	DB	00H, 'e', 00H, 'n', 00H, 't', 00H, '"', 00H, 00H, 00H ; `string'
CONST	ENDS
;	COMDAT ??_C@_1BO@NKFMJPA@?$AAs?$AAt?$AAd?$AA?3?$AA?3?$AA_?$AAA?$AAl?$AAl?$AAo?$AAc?$AAa?$AAt?$AAe?$AA?$AA@
CONST	SEGMENT
??_C@_1BO@NKFMJPA@?$AAs?$AAt?$AAd?$AA?3?$AA?3?$AA_?$AAA?$AAl?$AAl?$AAo?$AAc?$AAa?$AAt?$AAe?$AA?$AA@ DB 's'
	DB	00H, 't', 00H, 'd', 00H, ':', 00H, ':', 00H, '_', 00H, 'A', 00H
	DB	'l', 00H, 'l', 00H, 'o', 00H, 'c', 00H, 'a', 00H, 't', 00H, 'e'
	DB	00H, 00H, 00H				; `string'
CONST	ENDS
;	COMDAT ??_C@_1EG@DJALBHDK@?$AAd?$AA?3?$AA?2?$AAa?$AAp?$AAp?$AAd?$AAa?$AAt?$AAa?$AA?2?$AAv?$AAs?$AAp?$AA?2?$AAv?$AAc?$AA?2?$AAi?$AAn?$AAc?$AAl?$AAu?$AAd?$AAe?$AA?2?$AAx?$AAm?$AAe?$AAm?$AAo?$AAr@
CONST	SEGMENT
??_C@_1EG@DJALBHDK@?$AAd?$AA?3?$AA?2?$AAa?$AAp?$AAp?$AAd?$AAa?$AAt?$AAa?$AA?2?$AAv?$AAs?$AAp?$AA?2?$AAv?$AAc?$AA?2?$AAi?$AAn?$AAc?$AAl?$AAu?$AAd?$AAe?$AA?2?$AAx?$AAm?$AAe?$AAm?$AAo?$AAr@ DB 'd'
	DB	00H, ':', 00H, '\', 00H, 'a', 00H, 'p', 00H, 'p', 00H, 'd', 00H
	DB	'a', 00H, 't', 00H, 'a', 00H, '\', 00H, 'v', 00H, 's', 00H, 'p'
	DB	00H, '\', 00H, 'v', 00H, 'c', 00H, '\', 00H, 'i', 00H, 'n', 00H
	DB	'c', 00H, 'l', 00H, 'u', 00H, 'd', 00H, 'e', 00H, '\', 00H, 'x'
	DB	00H, 'm', 00H, 'e', 00H, 'm', 00H, 'o', 00H, 'r', 00H, 'y', 00H
	DB	'0', 00H, 00H, 00H				; `string'
CONST	ENDS
;	COMDAT ??_C@_17CNPHIMPH@?$AA?$CF?$AAl?$AAs?$AA?$AA@
CONST	SEGMENT
??_C@_17CNPHIMPH@?$AA?$CF?$AAl?$AAs?$AA?$AA@ DB '%', 00H, 'l', 00H, 's', 00H
	DB	00H, 00H					; `string'
CONST	ENDS
;	COMDAT ??_C@_1DG@HGDKEBPG@?$AA?$CC?$AA_?$AAP?$AAt?$AAr?$AA_?$AAc?$AAo?$AAn?$AAt?$AAa?$AAi?$AAn?$AAe?$AAr?$AA?5?$AA?$CB?$AA?$DN?$AA?5?$AA0?$AA?$CC?$AA?5?$AA?$CG?$AA?$CG?$AA?5?$AA0?$AA?$AA@
CONST	SEGMENT
??_C@_1DG@HGDKEBPG@?$AA?$CC?$AA_?$AAP?$AAt?$AAr?$AA_?$AAc?$AAo?$AAn?$AAt?$AAa?$AAi?$AAn?$AAe?$AAr?$AA?5?$AA?$CB?$AA?$DN?$AA?5?$AA0?$AA?$CC?$AA?5?$AA?$CG?$AA?$CG?$AA?5?$AA0?$AA?$AA@ DB '"'
	DB	00H, '_', 00H, 'P', 00H, 't', 00H, 'r', 00H, '_', 00H, 'c', 00H
	DB	'o', 00H, 'n', 00H, 't', 00H, 'a', 00H, 'i', 00H, 'n', 00H, 'e'
	DB	00H, 'r', 00H, ' ', 00H, '!', 00H, '=', 00H, ' ', 00H, '0', 00H
	DB	'"', 00H, ' ', 00H, '&', 00H, '&', 00H, ' ', 00H, '0', 00H, 00H
	DB	00H						; `string'
CONST	ENDS
;	COMDAT ??_C@_0BE@LMNLACIC@_Ptr_container?5?$CB?$DN?50?$AA@
CONST	SEGMENT
??_C@_0BE@LMNLACIC@_Ptr_container?5?$CB?$DN?50?$AA@ DB '_Ptr_container !='
	DB	' 0', 00H					; `string'
CONST	ENDS
;	COMDAT ?__LINE__Var@?0??_Allocate@std@@YAPEAX_K0_N@Z@4JA
_DATA	SEGMENT
?__LINE__Var@?0??_Allocate@std@@YAPEAX_K0_N@Z@4JA DD 036H ; `std::_Allocate'::`1'::__LINE__Var
_DATA	ENDS
;	COMDAT xdata
xdata	SEGMENT
$unwind$??$construct@U_Container_proxy@std@@U12@@?$allocator@U_Container_proxy@std@@@std@@QEAAXPEAU_Container_proxy@1@$$QEAU21@@Z DD 025063501H
	DD	0119231eH
	DD	070120020H
	DD	050106011H
xdata	ENDS
;	COMDAT xdata
xdata	SEGMENT
$unwind$??$destroy@U_Container_proxy@std@@@?$allocator@U_Container_proxy@std@@@std@@QEAAXPEAU_Container_proxy@1@@Z DD 05052d01H
	DD	01130316H
	DD	0700c0019H
	DD	0500bH
xdata	ENDS
;	COMDAT xdata
xdata	SEGMENT
$unwind$??$construct@PEADAEAPEAD@?$allocator@D@std@@QEAAXPEAPEADAEAPEAD@Z DD 025053401H
	DD	0118231dH
	DD	070110021H
	DD	05010H
xdata	ENDS
;	COMDAT xdata
xdata	SEGMENT
$unwind$??$destroy@PEAD@?$allocator@D@std@@QEAAXPEAPEAD@Z DD 05052d01H
	DD	01130316H
	DD	0700c0019H
	DD	0500bH
xdata	ENDS
;	COMDAT xdata
xdata	SEGMENT
$unwind$??$construct@U_Container_proxy@std@@U12@@?$allocator_traits@V?$allocator@U_Container_proxy@std@@@std@@@std@@SAXAEAV?$allocator@U_Container_proxy@std@@@1@PEAU_Container_proxy@1@$$QEAU31@@Z DD 025053401H
	DD	0118231dH
	DD	07011001dH
	DD	05010H
xdata	ENDS
;	COMDAT xdata
xdata	SEGMENT
$unwind$??$forward@U_Container_proxy@std@@@std@@YA$$QEAU_Container_proxy@0@AEAU10@@Z DD 05052801H
	DD	010e0311H
	DD	070070019H
	DD	05006H
xdata	ENDS
;	COMDAT xdata
xdata	SEGMENT
$unwind$??$destroy@U_Container_proxy@std@@@?$allocator_traits@V?$allocator@U_Container_proxy@std@@@std@@@std@@SAXAEAV?$allocator@U_Container_proxy@std@@@1@PEAU_Container_proxy@1@@Z DD 025052f01H
	DD	01132318H
	DD	0700c001dH
	DD	0500bH
xdata	ENDS
;	COMDAT xdata
xdata	SEGMENT
$unwind$??$construct@PEADAEAPEAD@?$allocator_traits@V?$allocator@D@std@@@std@@SAXAEAV?$allocator@D@1@PEAPEADAEAPEAD@Z DD 025053401H
	DD	0118231dH
	DD	07011001dH
	DD	05010H
xdata	ENDS
;	COMDAT xdata
xdata	SEGMENT
$unwind$??$forward@AEAPEAD@std@@YAAEAPEADAEAPEAD@Z DD 05052801H
	DD	010e0311H
	DD	070070019H
	DD	05006H
xdata	ENDS
;	COMDAT xdata
xdata	SEGMENT
$unwind$??$_Addressof@D@std@@YAPEADAEADU?$integral_constant@_N$0A@@0@@Z DD 05052c01H
	DD	01120315H
	DD	0700b0019H
	DD	0500aH
xdata	ENDS
;	COMDAT xdata
xdata	SEGMENT
$unwind$??$destroy@PEAD@?$allocator_traits@V?$allocator@D@std@@@std@@SAXAEAV?$allocator@D@1@PEAPEAD@Z DD 025052f01H
	DD	01132318H
	DD	0700c001dH
	DD	0500bH
xdata	ENDS
;	COMDAT xdata
xdata	SEGMENT
$unwind$??$forward@AEBV?$allocator@D@std@@@std@@YAAEBV?$allocator@D@0@AEBV10@@Z DD 05052801H
	DD	010e0311H
	DD	070070019H
	DD	05006H
xdata	ENDS
;	COMDAT xdata
xdata	SEGMENT
$unwind$??$forward@V?$allocator@D@std@@@std@@YA$$QEAV?$allocator@D@0@AEAV10@@Z DD 05052801H
	DD	010e0311H
	DD	070070019H
	DD	05006H
xdata	ENDS
;	COMDAT xdata
xdata	SEGMENT
$unwind$??1sentry@?$basic_istream@DU?$char_traits@D@std@@@std@@QEAA@XZ DD 025052a01H
	DD	010e2313H
	DD	07007001dH
	DD	05006H
xdata	ENDS
;	COMDAT xdata
xdata	SEGMENT
$unwind$??Bsentry@?$basic_istream@DU?$char_traits@D@std@@@std@@QEBA_NXZ DD 05052801H
	DD	010e0311H
	DD	070070019H
	DD	05006H
xdata	ENDS
;	COMDAT xdata
xdata	SEGMENT
$unwind$?dtor$0@?0???0sentry@?$basic_istream@DU?$char_traits@D@std@@@std@@QEAA@AEAV12@_N@Z@4HA DD 031001H
	DD	0700c4210H
	DD	0500bH
xdata	ENDS
;	COMDAT xdata
xdata	SEGMENT
$ip2state$??0sentry@?$basic_istream@DU?$char_traits@D@std@@@std@@QEAA@AEAV12@_N@Z DD imagerel ??0sentry@?$basic_istream@DU?$char_traits@D@std@@@std@@QEAA@AEAV12@_N@Z
	DD	0ffffffffH
	DD	imagerel ??0sentry@?$basic_istream@DU?$char_traits@D@std@@@std@@QEAA@AEAV12@_N@Z+83
	DD	00H
	DD	imagerel ??0sentry@?$basic_istream@DU?$char_traits@D@std@@@std@@QEAA@AEAV12@_N@Z+116
	DD	0ffffffffH
xdata	ENDS
;	COMDAT xdata
xdata	SEGMENT
$stateUnwindMap$??0sentry@?$basic_istream@DU?$char_traits@D@std@@@std@@QEAA@AEAV12@_N@Z DD 0ffffffffH
	DD	imagerel ?dtor$0@?0???0sentry@?$basic_istream@DU?$char_traits@D@std@@@std@@QEAA@AEAV12@_N@Z@4HA
xdata	ENDS
;	COMDAT CONST
CONST	SEGMENT
$cppxdata$??0sentry@?$basic_istream@DU?$char_traits@D@std@@@std@@QEAA@AEAV12@_N@Z DD 019930522H
	DD	01H
	DD	imagerel $stateUnwindMap$??0sentry@?$basic_istream@DU?$char_traits@D@std@@@std@@QEAA@AEAV12@_N@Z
	DD	00H
	DD	00H
	DD	03H
	DD	imagerel $ip2state$??0sentry@?$basic_istream@DU?$char_traits@D@std@@@std@@QEAA@AEAV12@_N@Z
	DD	0e8H
	DD	00H
	DD	01H
CONST	ENDS
;	COMDAT xdata
xdata	SEGMENT
$unwind$??0sentry@?$basic_istream@DU?$char_traits@D@std@@@std@@QEAA@AEAV12@_N@Z DD 025053f11H
	DD	0118231dH
	DD	070110021H
	DD	05010H
	DD	imagerel __CxxFrameHandler3
	DD	imagerel $cppxdata$??0sentry@?$basic_istream@DU?$char_traits@D@std@@@std@@QEAA@AEAV12@_N@Z
xdata	ENDS
;	COMDAT xdata
xdata	SEGMENT
$ip2state$??1_Sentry_base@?$basic_istream@DU?$char_traits@D@std@@@std@@QEAA@XZ DD imagerel ??1_Sentry_base@?$basic_istream@DU?$char_traits@D@std@@@std@@QEAA@XZ
	DD	0ffffffffH
xdata	ENDS
;	COMDAT CONST
CONST	SEGMENT
$cppxdata$??1_Sentry_base@?$basic_istream@DU?$char_traits@D@std@@@std@@QEAA@XZ DD 019930522H
	DD	00H
	DD	00H
	DD	00H
	DD	00H
	DD	01H
	DD	imagerel $ip2state$??1_Sentry_base@?$basic_istream@DU?$char_traits@D@std@@@std@@QEAA@XZ
	DD	0e8H
	DD	00H
	DD	05H
CONST	ENDS
;	COMDAT xdata
xdata	SEGMENT
$unwind$??1_Sentry_base@?$basic_istream@DU?$char_traits@D@std@@@std@@QEAA@XZ DD 025053519H
	DD	010e2313H
	DD	070070023H
	DD	05006H
	DD	imagerel __CxxFrameHandler3
	DD	imagerel $cppxdata$??1_Sentry_base@?$basic_istream@DU?$char_traits@D@std@@@std@@QEAA@XZ
xdata	ENDS
;	COMDAT xdata
xdata	SEGMENT
$unwind$??0_Sentry_base@?$basic_istream@DU?$char_traits@D@std@@@std@@QEAA@AEAV12@@Z DD 025052f01H
	DD	01132318H
	DD	0700c001fH
	DD	0500bH
xdata	ENDS
;	COMDAT xdata
xdata	SEGMENT
$unwind$??$?0D@?$allocator@U_Container_proxy@std@@@std@@QEAA@AEBV?$allocator@D@1@@Z DD 05052d01H
	DD	01130316H
	DD	0700c0019H
	DD	0500bH
xdata	ENDS
;	COMDAT xdata
xdata	SEGMENT
$unwind$??$?0U?$_Wrap_alloc@V?$allocator@D@std@@@std@@@?$_Wrap_alloc@V?$allocator@U_Container_proxy@std@@@std@@@std@@QEAA@AEAU?$_Wrap_alloc@V?$allocator@D@std@@@1@@Z DD 025052f01H
	DD	01132318H
	DD	0700c001dH
	DD	0500bH
xdata	ENDS
;	COMDAT xdata
xdata	SEGMENT
$unwind$??$construct@U_Container_proxy@std@@U12@@?$_Wrap_alloc@V?$allocator@U_Container_proxy@std@@@std@@@std@@QEAAXPEAU_Container_proxy@1@$$QEAU21@@Z DD 025053401H
	DD	0118231dH
	DD	07011001dH
	DD	05010H
xdata	ENDS
;	COMDAT xdata
xdata	SEGMENT
$unwind$??$destroy@U_Container_proxy@std@@@?$_Wrap_alloc@V?$allocator@U_Container_proxy@std@@@std@@@std@@QEAAXPEAU_Container_proxy@1@@Z DD 025052f01H
	DD	01132318H
	DD	0700c001dH
	DD	0500bH
xdata	ENDS
;	COMDAT xdata
xdata	SEGMENT
$unwind$?deallocate@?$_Wrap_alloc@V?$allocator@U_Container_proxy@std@@@std@@@std@@QEAAXPEAU_Container_proxy@2@_K@Z DD 025053401H
	DD	0118231dH
	DD	07011001dH
	DD	05010H
xdata	ENDS
;	COMDAT xdata
xdata	SEGMENT
$unwind$?allocate@?$_Wrap_alloc@V?$allocator@U_Container_proxy@std@@@std@@@std@@QEAAPEAU_Container_proxy@2@_K@Z DD 025052f01H
	DD	01132318H
	DD	0700c001dH
	DD	0500bH
xdata	ENDS
;	COMDAT xdata
xdata	SEGMENT
$unwind$?allocate@?$allocator@U_Container_proxy@std@@@std@@QEAAPEAU_Container_proxy@2@_K@Z DD 025052f01H
	DD	01132318H
	DD	0700c001dH
	DD	0500bH
xdata	ENDS
;	COMDAT xdata
xdata	SEGMENT
$unwind$?deallocate@?$allocator@U_Container_proxy@std@@@std@@QEAAXPEAU_Container_proxy@2@_K@Z DD 025053401H
	DD	0118231dH
	DD	07011001dH
	DD	05010H
xdata	ENDS
;	COMDAT xdata
xdata	SEGMENT
$unwind$??$construct@PEADAEAPEAD@?$_Wrap_alloc@V?$allocator@D@std@@@std@@QEAAXPEAPEADAEAPEAD@Z DD 025053401H
	DD	0118231dH
	DD	07011001dH
	DD	05010H
xdata	ENDS
;	COMDAT xdata
xdata	SEGMENT
$unwind$??$_Debug_pointer_if@$$CBD@std@@YAX_NPEBDPEBGI@Z DD 025053801H
	DD	011c2321H
	DD	07015001dH
	DD	05014H
xdata	ENDS
;	COMDAT xdata
xdata	SEGMENT
$unwind$??$addressof@D@std@@YAPEADAEAD@Z DD 025052a01H
	DD	010e2313H
	DD	070070025H
	DD	05006H
xdata	ENDS
;	COMDAT xdata
xdata	SEGMENT
$unwind$??$destroy@PEAD@?$_Wrap_alloc@V?$allocator@D@std@@@std@@QEAAXPEAPEAD@Z DD 025052f01H
	DD	01132318H
	DD	0700c001dH
	DD	0500bH
xdata	ENDS
;	COMDAT xdata
xdata	SEGMENT
$unwind$??$?0AEBV?$allocator@D@std@@$$V@?$_Compressed_pair@U?$_Wrap_alloc@V?$allocator@D@std@@@std@@V?$_String_val@U?$_Simple_types@D@std@@@2@$00@std@@QEAA@U_One_then_variadic_args_t@1@AEBV?$allocator@D@1@@Z DD 025053301H
	DD	0117231cH
	DD	07010001dH
	DD	0500fH
xdata	ENDS
;	COMDAT xdata
xdata	SEGMENT
$unwind$??$?0V?$allocator@D@std@@$$V@?$_Compressed_pair@U?$_Wrap_alloc@V?$allocator@D@std@@@std@@V?$_String_val@U?$_Simple_types@D@std@@@2@$00@std@@QEAA@U_One_then_variadic_args_t@1@$$QEAV?$allocator@D@1@@Z DD 025053301H
	DD	0117231cH
	DD	07010001dH
	DD	0500fH
xdata	ENDS
;	COMDAT xdata
xdata	SEGMENT
$unwind$??$move@AEAV?$allocator@D@std@@@std@@YA$$QEAV?$allocator@D@0@AEAV10@@Z DD 05052801H
	DD	010e0311H
	DD	070070019H
	DD	05006H
xdata	ENDS
;	COMDAT xdata
xdata	SEGMENT
$unwind$??$_Debug_pointer@$$CBD@std@@YAXPEBDPEBGI@Z DD 025053401H
	DD	0118231dH
	DD	07011001dH
	DD	05010H
xdata	ENDS
;	COMDAT xdata
xdata	SEGMENT
$unwind$??$pow@HH@@YANHH@Z DD 035052c01H
	DD	01113316H
	DD	0700a0021H
	DD	05009H
xdata	ENDS
;	COMDAT xdata
xdata	SEGMENT
$unwind$?MessageHandler@Cy@@YA_JPEAUHWND__@@I_K_J@Z DD 025053801H
	DD	011c2321H
	DD	07015002dH
	DD	05014H
xdata	ENDS
;	COMDAT xdata
xdata	SEGMENT
$unwind$?WindowsSleep@Windows@@YAXI@Z DD 025052801H
	DD	010d2312H
	DD	07006001dH
	DD	05005H
xdata	ENDS
;	COMDAT xdata
xdata	SEGMENT
$unwind$?SafeTruncate@Cy@@YAH_J@Z DD 025052a01H
	DD	010e2313H
	DD	07007003dH
	DD	05006H
xdata	ENDS
;	COMDAT xdata
xdata	SEGMENT
$unwind$?SafeTruncate@Cy@@YAI_K@Z DD 025052a01H
	DD	010e2313H
	DD	07007002dH
	DD	05006H
xdata	ENDS
;	COMDAT xdata
xdata	SEGMENT
$unwind$?catch$0@?0???$?5DU?$char_traits@D@std@@@std@@YAAEAV?$basic_istream@DU?$char_traits@D@std@@@0@AEAV10@AEAD@Z@4HA DD 031019H
	DD	0700c4210H
	DD	0500bH
	DD	imagerel __CxxFrameHandler3
	DD	imagerel $cppxdata$??$?5DU?$char_traits@D@std@@@std@@YAAEAV?$basic_istream@DU?$char_traits@D@std@@@0@AEAV10@AEAD@Z
xdata	ENDS
;	COMDAT xdata
xdata	SEGMENT
$unwind$?dtor$0@?0???$?5DU?$char_traits@D@std@@@std@@YAAEAV?$basic_istream@DU?$char_traits@D@std@@@0@AEAV10@AEAD@Z@4HA DD 031001H
	DD	0700c4210H
	DD	0500bH
xdata	ENDS
;	COMDAT xdata
xdata	SEGMENT
$ip2state$??$?5DU?$char_traits@D@std@@@std@@YAAEAV?$basic_istream@DU?$char_traits@D@std@@@0@AEAV10@AEAD@Z DD imagerel ??$?5DU?$char_traits@D@std@@@std@@YAAEAV?$basic_istream@DU?$char_traits@D@std@@@0@AEAV10@AEAD@Z
	DD	0ffffffffH
	DD	imagerel ??$?5DU?$char_traits@D@std@@@std@@YAAEAV?$basic_istream@DU?$char_traits@D@std@@@0@AEAV10@AEAD@Z+102
	DD	00H
	DD	imagerel ??$?5DU?$char_traits@D@std@@@std@@YAAEAV?$basic_istream@DU?$char_traits@D@std@@@0@AEAV10@AEAD@Z+122
	DD	01H
	DD	imagerel ??$?5DU?$char_traits@D@std@@@std@@YAAEAV?$basic_istream@DU?$char_traits@D@std@@@0@AEAV10@AEAD@Z+256
	DD	00H
	DD	imagerel ??$?5DU?$char_traits@D@std@@@std@@YAAEAV?$basic_istream@DU?$char_traits@D@std@@@0@AEAV10@AEAD@Z+314
	DD	0ffffffffH
	DD	imagerel ?catch$0@?0???$?5DU?$char_traits@D@std@@@std@@YAAEAV?$basic_istream@DU?$char_traits@D@std@@@0@AEAV10@AEAD@Z@4HA
	DD	00H
	DD	imagerel ?catch$0@?0???$?5DU?$char_traits@D@std@@@std@@YAAEAV?$basic_istream@DU?$char_traits@D@std@@@0@AEAV10@AEAD@Z@4HA+20
	DD	02H
	DD	imagerel ?catch$0@?0???$?5DU?$char_traits@D@std@@@std@@YAAEAV?$basic_istream@DU?$char_traits@D@std@@@0@AEAV10@AEAD@Z@4HA+65
	DD	00H
xdata	ENDS
;	COMDAT xdata
xdata	SEGMENT
$handlerMap$0$??$?5DU?$char_traits@D@std@@@std@@YAAEAV?$basic_istream@DU?$char_traits@D@std@@@0@AEAV10@AEAD@Z DD 040H
	DD	00H
	DD	00H
	DD	imagerel ?catch$0@?0???$?5DU?$char_traits@D@std@@@std@@YAAEAV?$basic_istream@DU?$char_traits@D@std@@@0@AEAV10@AEAD@Z@4HA
	DD	048H
xdata	ENDS
;	COMDAT xdata
xdata	SEGMENT
$tryMap$??$?5DU?$char_traits@D@std@@@std@@YAAEAV?$basic_istream@DU?$char_traits@D@std@@@0@AEAV10@AEAD@Z DD 01H
	DD	01H
	DD	02H
	DD	01H
	DD	imagerel $handlerMap$0$??$?5DU?$char_traits@D@std@@@std@@YAAEAV?$basic_istream@DU?$char_traits@D@std@@@0@AEAV10@AEAD@Z
xdata	ENDS
;	COMDAT xdata
xdata	SEGMENT
$stateUnwindMap$??$?5DU?$char_traits@D@std@@@std@@YAAEAV?$basic_istream@DU?$char_traits@D@std@@@0@AEAV10@AEAD@Z DD 0ffffffffH
	DD	imagerel ?dtor$0@?0???$?5DU?$char_traits@D@std@@@std@@YAAEAV?$basic_istream@DU?$char_traits@D@std@@@0@AEAV10@AEAD@Z@4HA
	DD	00H
	DD	00H
	DD	00H
	DD	00H
xdata	ENDS
;	COMDAT xdata
xdata	SEGMENT
$unwind$??$?5DU?$char_traits@D@std@@@std@@YAAEAV?$basic_istream@DU?$char_traits@D@std@@@0@AEAV10@AEAD@Z DD 025054b19H
	DD	01132318H
	DD	0700c0039H
	DD	0500bH
	DD	imagerel __GSHandlerCheck_EH
	DD	imagerel $cppxdata$??$?5DU?$char_traits@D@std@@@std@@YAAEAV?$basic_istream@DU?$char_traits@D@std@@@0@AEAV10@AEAD@Z
	DD	01bbH
xdata	ENDS
;	COMDAT CONST
CONST	SEGMENT
??$?5DU?$char_traits@D@std@@@std@@YAAEAV?$basic_istream@DU?$char_traits@D@std@@@0@AEAV10@AEAD@Z$rtcName$0 DB 05fH ; std::operator>><char,std::char_traits<char> >
	DB	04dH
	DB	065H
	DB	074H
	DB	061H
	DB	00H
	ORG $+2
??$?5DU?$char_traits@D@std@@@std@@YAAEAV?$basic_istream@DU?$char_traits@D@std@@@0@AEAV10@AEAD@Z$rtcName$1 DB 05fH ; std::operator>><char,std::char_traits<char> >
	DB	04fH
	DB	06bH
	DB	00H
	ORG $+4
??$?5DU?$char_traits@D@std@@@std@@YAAEAV?$basic_istream@DU?$char_traits@D@std@@@0@AEAV10@AEAD@Z$rtcVarDesc DD 068H ; std::operator>><char,std::char_traits<char> >
	DD	010H
	DQ	FLAT:??$?5DU?$char_traits@D@std@@@std@@YAAEAV?$basic_istream@DU?$char_traits@D@std@@@0@AEAV10@AEAD@Z$rtcName$1
	DD	024H
	DD	04H
	DQ	FLAT:??$?5DU?$char_traits@D@std@@@std@@YAAEAV?$basic_istream@DU?$char_traits@D@std@@@0@AEAV10@AEAD@Z$rtcName$0
	ORG $+96
??$?5DU?$char_traits@D@std@@@std@@YAAEAV?$basic_istream@DU?$char_traits@D@std@@@0@AEAV10@AEAD@Z$rtcFrameData DD 02H ; std::operator>><char,std::char_traits<char> >
	DD	00H
	DQ	FLAT:??$?5DU?$char_traits@D@std@@@std@@YAAEAV?$basic_istream@DU?$char_traits@D@std@@@0@AEAV10@AEAD@Z$rtcVarDesc
$cppxdata$??$?5DU?$char_traits@D@std@@@std@@YAAEAV?$basic_istream@DU?$char_traits@D@std@@@0@AEAV10@AEAD@Z DD 019930522H
	DD	03H
	DD	imagerel $stateUnwindMap$??$?5DU?$char_traits@D@std@@@std@@YAAEAV?$basic_istream@DU?$char_traits@D@std@@@0@AEAV10@AEAD@Z
	DD	01H
	DD	imagerel $tryMap$??$?5DU?$char_traits@D@std@@@std@@YAAEAV?$basic_istream@DU?$char_traits@D@std@@@0@AEAV10@AEAD@Z
	DD	08H
	DD	imagerel $ip2state$??$?5DU?$char_traits@D@std@@@std@@YAAEAV?$basic_istream@DU?$char_traits@D@std@@@0@AEAV10@AEAD@Z
	DD	0198H
	DD	00H
	DD	01H
CONST	ENDS
;	COMDAT xdata
xdata	SEGMENT
$unwind$?dtor$0@?0??Assert@Cy@@YAX_NV?$basic_string@DU?$char_traits@D@std@@V?$allocator@D@2@@std@@@Z@4HA DD 031001H
	DD	0700c4210H
	DD	0500bH
xdata	ENDS
;	COMDAT xdata
xdata	SEGMENT
$ip2state$?Assert@Cy@@YAX_NV?$basic_string@DU?$char_traits@D@std@@V?$allocator@D@2@@std@@@Z DD imagerel ?Assert@Cy@@YAX_NV?$basic_string@DU?$char_traits@D@std@@V?$allocator@D@2@@std@@@Z
	DD	0ffffffffH
	DD	imagerel ?Assert@Cy@@YAX_NV?$basic_string@DU?$char_traits@D@std@@V?$allocator@D@2@@std@@@Z+74
	DD	00H
	DD	imagerel ?Assert@Cy@@YAX_NV?$basic_string@DU?$char_traits@D@std@@V?$allocator@D@2@@std@@@Z+189
	DD	0ffffffffH
xdata	ENDS
;	COMDAT xdata
xdata	SEGMENT
$stateUnwindMap$?Assert@Cy@@YAX_NV?$basic_string@DU?$char_traits@D@std@@V?$allocator@D@2@@std@@@Z DD 0ffffffffH
	DD	imagerel ?dtor$0@?0??Assert@Cy@@YAX_NV?$basic_string@DU?$char_traits@D@std@@V?$allocator@D@2@@std@@@Z@4HA
xdata	ENDS
;	COMDAT xdata
xdata	SEGMENT
$unwind$?Assert@Cy@@YAX_NV?$basic_string@DU?$char_traits@D@std@@V?$allocator@D@2@@std@@@Z DD 025054a19H
	DD	01122317H
	DD	0700b0037H
	DD	0500aH
	DD	imagerel __GSHandlerCheck_EH
	DD	imagerel $cppxdata$?Assert@Cy@@YAX_NV?$basic_string@DU?$char_traits@D@std@@V?$allocator@D@2@@std@@@Z
	DD	01a2H
xdata	ENDS
;	COMDAT CONST
CONST	SEGMENT
?Assert@Cy@@YAX_NV?$basic_string@DU?$char_traits@D@std@@V?$allocator@D@2@@std@@@Z$rtcName$0 DB 078H ; Cy::Assert
	DB	00H
	ORG $+14
?Assert@Cy@@YAX_NV?$basic_string@DU?$char_traits@D@std@@V?$allocator@D@2@@std@@@Z$rtcVarDesc DD 024H ; Cy::Assert
	DD	01H
	DQ	FLAT:?Assert@Cy@@YAX_NV?$basic_string@DU?$char_traits@D@std@@V?$allocator@D@2@@std@@@Z$rtcName$0
	ORG $+48
?Assert@Cy@@YAX_NV?$basic_string@DU?$char_traits@D@std@@V?$allocator@D@2@@std@@@Z$rtcFrameData DD 01H ; Cy::Assert
	DD	00H
	DQ	FLAT:?Assert@Cy@@YAX_NV?$basic_string@DU?$char_traits@D@std@@V?$allocator@D@2@@std@@@Z$rtcVarDesc
$cppxdata$?Assert@Cy@@YAX_NV?$basic_string@DU?$char_traits@D@std@@V?$allocator@D@2@@std@@@Z DD 019930522H
	DD	01H
	DD	imagerel $stateUnwindMap$?Assert@Cy@@YAX_NV?$basic_string@DU?$char_traits@D@std@@V?$allocator@D@2@@std@@@Z
	DD	00H
	DD	00H
	DD	03H
	DD	imagerel $ip2state$?Assert@Cy@@YAX_NV?$basic_string@DU?$char_traits@D@std@@V?$allocator@D@2@@std@@@Z
	DD	0188H
	DD	00H
	DD	01H
CONST	ENDS
;	COMDAT xdata
xdata	SEGMENT
$unwind$?dtor$0@?0??Message@Cy@@YAXV?$basic_string@DU?$char_traits@D@std@@V?$allocator@D@2@@std@@@Z@4HA DD 031001H
	DD	0700c4210H
	DD	0500bH
xdata	ENDS
;	COMDAT xdata
xdata	SEGMENT
$ip2state$?Message@Cy@@YAXV?$basic_string@DU?$char_traits@D@std@@V?$allocator@D@2@@std@@@Z DD imagerel ?Message@Cy@@YAXV?$basic_string@DU?$char_traits@D@std@@V?$allocator@D@2@@std@@@Z
	DD	0ffffffffH
	DD	imagerel ?Message@Cy@@YAXV?$basic_string@DU?$char_traits@D@std@@V?$allocator@D@2@@std@@@Z+53
	DD	00H
	DD	imagerel ?Message@Cy@@YAXV?$basic_string@DU?$char_traits@D@std@@V?$allocator@D@2@@std@@@Z+121
	DD	0ffffffffH
xdata	ENDS
;	COMDAT xdata
xdata	SEGMENT
$stateUnwindMap$?Message@Cy@@YAXV?$basic_string@DU?$char_traits@D@std@@V?$allocator@D@2@@std@@@Z DD 0ffffffffH
	DD	imagerel ?dtor$0@?0??Message@Cy@@YAXV?$basic_string@DU?$char_traits@D@std@@V?$allocator@D@2@@std@@@Z@4HA
xdata	ENDS
;	COMDAT CONST
CONST	SEGMENT
$cppxdata$?Message@Cy@@YAXV?$basic_string@DU?$char_traits@D@std@@V?$allocator@D@2@@std@@@Z DD 019930522H
	DD	01H
	DD	imagerel $stateUnwindMap$?Message@Cy@@YAXV?$basic_string@DU?$char_traits@D@std@@V?$allocator@D@2@@std@@@Z
	DD	00H
	DD	00H
	DD	03H
	DD	imagerel $ip2state$?Message@Cy@@YAXV?$basic_string@DU?$char_traits@D@std@@V?$allocator@D@2@@std@@@Z
	DD	0e8H
	DD	00H
	DD	01H
CONST	ENDS
;	COMDAT xdata
xdata	SEGMENT
$unwind$?Message@Cy@@YAXV?$basic_string@DU?$char_traits@D@std@@V?$allocator@D@2@@std@@@Z DD 025053511H
	DD	010e2313H
	DD	070070021H
	DD	05006H
	DD	imagerel __CxxFrameHandler3
	DD	imagerel $cppxdata$?Message@Cy@@YAXV?$basic_string@DU?$char_traits@D@std@@V?$allocator@D@2@@std@@@Z
xdata	ENDS
;	COMDAT xdata
xdata	SEGMENT
$unwind$?DestroyTimerInfo@Cy@@YAXPEAUTimerInfo@1@@Z DD 025052a01H
	DD	010e2313H
	DD	07007001dH
	DD	05006H
xdata	ENDS
;	COMDAT xdata
xdata	SEGMENT
$unwind$?Tock@Cy@@YAXPEAUTimerInfo@1@@Z DD 025052a01H
	DD	010e2313H
	DD	070070021H
	DD	05006H
xdata	ENDS
;	COMDAT xdata
xdata	SEGMENT
$unwind$?Tick@Cy@@YAXPEAUTimerInfo@1@@Z DD 025052a01H
	DD	010e2313H
	DD	07007001dH
	DD	05006H
xdata	ENDS
;	COMDAT xdata
xdata	SEGMENT
$unwind$?Sleep@Cy@@YAXPEAUTimerInfo@1@H@Z DD 025052e01H
	DD	01122317H
	DD	0700b0029H
	DD	0500aH
xdata	ENDS
;	COMDAT xdata
xdata	SEGMENT
$unwind$?GetClockCount@Cy@@YA_JXZ DD 025052f19H
	DD	010a230fH
	DD	070030021H
	DD	05002H
	DD	imagerel __GSHandlerCheck
	DD	0f8H
xdata	ENDS
;	COMDAT CONST
CONST	SEGMENT
?GetClockCount@Cy@@YA_JXZ$rtcName$0 DB 063H		; Cy::GetClockCount
	DB	06cH
	DB	06fH
	DB	063H
	DB	06bH
	DB	043H
	DB	06fH
	DB	075H
	DB	06eH
	DB	074H
	DB	00H
	ORG $+5
?GetClockCount@Cy@@YA_JXZ$rtcVarDesc DD 028H		; Cy::GetClockCount
	DD	08H
	DQ	FLAT:?GetClockCount@Cy@@YA_JXZ$rtcName$0
	ORG $+48
?GetClockCount@Cy@@YA_JXZ$rtcFrameData DD 01H		; Cy::GetClockCount
	DD	00H
	DQ	FLAT:?GetClockCount@Cy@@YA_JXZ$rtcVarDesc
CONST	ENDS
;	COMDAT xdata
xdata	SEGMENT
$unwind$?GetAvgFps@Cy@@YA_KPEBUTimerInfo@1@@Z DD 05052801H
	DD	010e0311H
	DD	070070021H
	DD	05006H
xdata	ENDS
;	COMDAT xdata
xdata	SEGMENT
$unwind$?NewTimerInfo@Cy@@YA?AUTimerInfo@1@XZ DD 025063c19H
	DD	010f2314H
	DD	070080034H
	DD	050066007H
	DD	imagerel __GSHandlerCheck
	DD	0198H
xdata	ENDS
;	COMDAT CONST
CONST	SEGMENT
?NewTimerInfo@Cy@@YA?AUTimerInfo@1@XZ$rtcName$0 DB 074H	; Cy::NewTimerInfo
	DB	069H
	DB	06dH
	DB	065H
	DB	072H
	DB	049H
	DB	06eH
	DB	066H
	DB	06fH
	DB	00H
	ORG $+6
?NewTimerInfo@Cy@@YA?AUTimerInfo@1@XZ$rtcName$1 DB 063H	; Cy::NewTimerInfo
	DB	06cH
	DB	06fH
	DB	063H
	DB	06bH
	DB	073H
	DB	050H
	DB	065H
	DB	072H
	DB	053H
	DB	065H
	DB	063H
	DB	00H
	ORG $+3
?NewTimerInfo@Cy@@YA?AUTimerInfo@1@XZ$rtcName$2 DB 074H	; Cy::NewTimerInfo
	DB	069H
	DB	06dH
	DB	065H
	DB	043H
	DB	061H
	DB	070H
	DB	073H
	DB	00H
	ORG $+7
?NewTimerInfo@Cy@@YA?AUTimerInfo@1@XZ$rtcVarDesc DD 0c8H ; Cy::NewTimerInfo
	DD	08H
	DQ	FLAT:?NewTimerInfo@Cy@@YA?AUTimerInfo@1@XZ$rtcName$2
	DD	0a8H
	DD	08H
	DQ	FLAT:?NewTimerInfo@Cy@@YA?AUTimerInfo@1@XZ$rtcName$1
	DD	030H
	DD	058H
	DQ	FLAT:?NewTimerInfo@Cy@@YA?AUTimerInfo@1@XZ$rtcName$0
	ORG $+144
?NewTimerInfo@Cy@@YA?AUTimerInfo@1@XZ$rtcFrameData DD 03H ; Cy::NewTimerInfo
	DD	00H
	DQ	FLAT:?NewTimerInfo@Cy@@YA?AUTimerInfo@1@XZ$rtcVarDesc
CONST	ENDS
;	COMDAT xdata
xdata	SEGMENT
$unwind$?DestroyWindowInfo@Cy@@YAXPEAUWindowInfo@1@@Z DD 025052a01H
	DD	010e2313H
	DD	07007001dH
	DD	05006H
xdata	ENDS
;	COMDAT xdata
xdata	SEGMENT
$unwind$?dtor$0@?0??OpenFile@Cy@@YA?AUFile@1@V?$basic_string@DU?$char_traits@D@std@@V?$allocator@D@2@@std@@@Z@4HA DD 031001H
	DD	0700c4210H
	DD	0500bH
xdata	ENDS
;	COMDAT xdata
xdata	SEGMENT
$ip2state$?OpenFile@Cy@@YA?AUFile@1@V?$basic_string@DU?$char_traits@D@std@@V?$allocator@D@2@@std@@@Z DD imagerel ?OpenFile@Cy@@YA?AUFile@1@V?$basic_string@DU?$char_traits@D@std@@V?$allocator@D@2@@std@@@Z
	DD	0ffffffffH
	DD	imagerel ?OpenFile@Cy@@YA?AUFile@1@V?$basic_string@DU?$char_traits@D@std@@V?$allocator@D@2@@std@@@Z+76
	DD	00H
	DD	imagerel ?OpenFile@Cy@@YA?AUFile@1@V?$basic_string@DU?$char_traits@D@std@@V?$allocator@D@2@@std@@@Z+527
	DD	0ffffffffH
xdata	ENDS
;	COMDAT xdata
xdata	SEGMENT
$stateUnwindMap$?OpenFile@Cy@@YA?AUFile@1@V?$basic_string@DU?$char_traits@D@std@@V?$allocator@D@2@@std@@@Z DD 0ffffffffH
	DD	imagerel ?dtor$0@?0??OpenFile@Cy@@YA?AUFile@1@V?$basic_string@DU?$char_traits@D@std@@V?$allocator@D@2@@std@@@Z@4HA
xdata	ENDS
;	COMDAT xdata
xdata	SEGMENT
$unwind$?OpenFile@Cy@@YA?AUFile@1@V?$basic_string@DU?$char_traits@D@std@@V?$allocator@D@2@@std@@@Z DD 045064c19H
	DD	01144319H
	DD	0700d005aH
	DD	0500b600cH
	DD	imagerel __GSHandlerCheck_EH
	DD	imagerel $cppxdata$?OpenFile@Cy@@YA?AUFile@1@V?$basic_string@DU?$char_traits@D@std@@V?$allocator@D@2@@std@@@Z
	DD	02c2H
xdata	ENDS
;	COMDAT CONST
CONST	SEGMENT
?OpenFile@Cy@@YA?AUFile@1@V?$basic_string@DU?$char_traits@D@std@@V?$allocator@D@2@@std@@@Z$rtcName$0 DB 066H ; Cy::OpenFile
	DB	069H
	DB	06cH
	DB	065H
	DB	00H
	ORG $+3
?OpenFile@Cy@@YA?AUFile@1@V?$basic_string@DU?$char_traits@D@std@@V?$allocator@D@2@@std@@@Z$rtcName$1 DB 066H ; Cy::OpenFile
	DB	069H
	DB	06cH
	DB	065H
	DB	053H
	DB	069H
	DB	07aH
	DB	065H
	DB	00H
	ORG $+7
?OpenFile@Cy@@YA?AUFile@1@V?$basic_string@DU?$char_traits@D@std@@V?$allocator@D@2@@std@@@Z$rtcName$2 DB 062H ; Cy::OpenFile
	DB	079H
	DB	074H
	DB	065H
	DB	073H
	DB	052H
	DB	065H
	DB	061H
	DB	064H
	DB	00H
	ORG $+14
?OpenFile@Cy@@YA?AUFile@1@V?$basic_string@DU?$char_traits@D@std@@V?$allocator@D@2@@std@@@Z$rtcVarDesc DD 0d4H ; Cy::OpenFile
	DD	04H
	DQ	FLAT:?OpenFile@Cy@@YA?AUFile@1@V?$basic_string@DU?$char_traits@D@std@@V?$allocator@D@2@@std@@@Z$rtcName$2
	DD	098H
	DD	08H
	DQ	FLAT:?OpenFile@Cy@@YA?AUFile@1@V?$basic_string@DU?$char_traits@D@std@@V?$allocator@D@2@@std@@@Z$rtcName$1
	DD	048H
	DD	010H
	DQ	FLAT:?OpenFile@Cy@@YA?AUFile@1@V?$basic_string@DU?$char_traits@D@std@@V?$allocator@D@2@@std@@@Z$rtcName$0
	ORG $+144
?OpenFile@Cy@@YA?AUFile@1@V?$basic_string@DU?$char_traits@D@std@@V?$allocator@D@2@@std@@@Z$rtcFrameData DD 03H ; Cy::OpenFile
	DD	00H
	DQ	FLAT:?OpenFile@Cy@@YA?AUFile@1@V?$basic_string@DU?$char_traits@D@std@@V?$allocator@D@2@@std@@@Z$rtcVarDesc
$cppxdata$?OpenFile@Cy@@YA?AUFile@1@V?$basic_string@DU?$char_traits@D@std@@V?$allocator@D@2@@std@@@Z DD 019930522H
	DD	01H
	DD	imagerel $stateUnwindMap$?OpenFile@Cy@@YA?AUFile@1@V?$basic_string@DU?$char_traits@D@std@@V?$allocator@D@2@@std@@@Z
	DD	00H
	DD	00H
	DD	03H
	DD	imagerel $ip2state$?OpenFile@Cy@@YA?AUFile@1@V?$basic_string@DU?$char_traits@D@std@@V?$allocator@D@2@@std@@@Z
	DD	02a8H
	DD	00H
	DD	01H
CONST	ENDS
;	COMDAT xdata
xdata	SEGMENT
$unwind$?NewWindowInfo@Cy@@YA?AUWindowInfo@1@PEBDPEAXII@Z DD 065064b19H
	DD	011e6323H
	DD	070170064H
	DD	050156016H
	DD	imagerel __GSHandlerCheck
	DD	0310H
xdata	ENDS
;	COMDAT CONST
CONST	SEGMENT
?NewWindowInfo@Cy@@YA?AUWindowInfo@1@PEBDPEAXII@Z$rtcName$0 DB 077H ; Cy::NewWindowInfo
	DB	069H
	DB	06eH
	DB	064H
	DB	06fH
	DB	077H
	DB	049H
	DB	06eH
	DB	066H
	DB	06fH
	DB	00H
	ORG $+1
?NewWindowInfo@Cy@@YA?AUWindowInfo@1@PEBDPEAXII@Z$rtcName$1 DB 077H ; Cy::NewWindowInfo
	DB	063H
	DB	00H
	ORG $+1
?NewWindowInfo@Cy@@YA?AUWindowInfo@1@PEBDPEAXII@Z$rtcVarDesc DD 0b0H ; Cy::NewWindowInfo
	DD	048H
	DQ	FLAT:?NewWindowInfo@Cy@@YA?AUWindowInfo@1@PEBDPEAXII@Z$rtcName$1
	DD	068H
	DD	020H
	DQ	FLAT:?NewWindowInfo@Cy@@YA?AUWindowInfo@1@PEBDPEAXII@Z$rtcName$0
	ORG $+96
?NewWindowInfo@Cy@@YA?AUWindowInfo@1@PEBDPEAXII@Z$rtcFrameData DD 02H ; Cy::NewWindowInfo
	DD	00H
	DQ	FLAT:?NewWindowInfo@Cy@@YA?AUWindowInfo@1@PEBDPEAXII@Z$rtcVarDesc
CONST	ENDS
;	COMDAT xdata
xdata	SEGMENT
$unwind$?NewInputInfo@Cy@@YA?AUInputInfo@1@PEBUWindowInfo@1@@Z DD 025064119H
	DD	01142319H
	DD	0700d0048H
	DD	0500b600cH
	DD	imagerel __GSHandlerCheck
	DD	0238H
xdata	ENDS
;	COMDAT CONST
CONST	SEGMENT
?NewInputInfo@Cy@@YA?AUInputInfo@1@PEBUWindowInfo@1@@Z$rtcName$0 DB 069H ; Cy::NewInputInfo
	DB	049H
	DB	06eH
	DB	066H
	DB	06fH
	DB	00H
	ORG $+10
?NewInputInfo@Cy@@YA?AUInputInfo@1@PEBUWindowInfo@1@@Z$rtcVarDesc DD 030H ; Cy::NewInputInfo
	DD	088H
	DQ	FLAT:?NewInputInfo@Cy@@YA?AUInputInfo@1@PEBUWindowInfo@1@@Z$rtcName$0
	ORG $+48
?NewInputInfo@Cy@@YA?AUInputInfo@1@PEBUWindowInfo@1@@Z$rtcFrameData DD 01H ; Cy::NewInputInfo
	DD	00H
	DQ	FLAT:?NewInputInfo@Cy@@YA?AUInputInfo@1@PEBUWindowInfo@1@@Z$rtcVarDesc
CONST	ENDS
;	COMDAT xdata
xdata	SEGMENT
$unwind$??0InputInfo@Cy@@QEAA@$$QEAU01@@Z DD 025063001H
	DD	01142319H
	DD	0700d001cH
	DD	0500b600cH
xdata	ENDS
;	COMDAT xdata
xdata	SEGMENT
$unwind$?_Xran@?$basic_string@DU?$char_traits@D@std@@V?$allocator@D@2@@std@@QEBAXXZ DD 025052a01H
	DD	010e2313H
	DD	07007001dH
	DD	05006H
xdata	ENDS
;	COMDAT xdata
xdata	SEGMENT
$unwind$?_Xlen@?$basic_string@DU?$char_traits@D@std@@V?$allocator@D@2@@std@@QEBAXXZ DD 025052a01H
	DD	010e2313H
	DD	07007001dH
	DD	05006H
xdata	ENDS
;	COMDAT xdata
xdata	SEGMENT
$unwind$?_Tidy@?$basic_string@DU?$char_traits@D@std@@V?$allocator@D@2@@std@@QEAAX_N_K@Z DD 025053301H
	DD	0117231cH
	DD	070100021H
	DD	0500fH
xdata	ENDS
;	COMDAT xdata
xdata	SEGMENT
$unwind$?_Inside@?$basic_string@DU?$char_traits@D@std@@V?$allocator@D@2@@std@@QEAA_NPEBD@Z DD 025052f01H
	DD	01132318H
	DD	0700c001fH
	DD	0500bH
xdata	ENDS
;	COMDAT xdata
xdata	SEGMENT
$unwind$?_Grow@?$basic_string@DU?$char_traits@D@std@@V?$allocator@D@2@@std@@QEAA_N_K_N@Z DD 025053401H
	DD	0118231dH
	DD	07011001fH
	DD	05010H
xdata	ENDS
;	COMDAT xdata
xdata	SEGMENT
$unwind$?_Eos@?$basic_string@DU?$char_traits@D@std@@V?$allocator@D@2@@std@@QEAAX_K@Z DD 025052f01H
	DD	01132318H
	DD	0700c0021H
	DD	0500bH
xdata	ENDS
;	COMDAT xdata
xdata	SEGMENT
$unwind$?catch$0@?0??_Copy@?$basic_string@DU?$char_traits@D@std@@V?$allocator@D@2@@std@@QEAAX_K0@Z@4HA DD 031019H
	DD	0700c4210H
	DD	0500bH
	DD	imagerel __CxxFrameHandler3
	DD	imagerel $cppxdata$?_Copy@?$basic_string@DU?$char_traits@D@std@@V?$allocator@D@2@@std@@QEAAX_K0@Z
xdata	ENDS
;	COMDAT xdata
xdata	SEGMENT
$unwind$?catch$1@?0??_Copy@?$basic_string@DU?$char_traits@D@std@@V?$allocator@D@2@@std@@QEAAX_K0@Z@4HA DD 031019H
	DD	0700c4210H
	DD	0500bH
	DD	imagerel __CxxFrameHandler3
	DD	imagerel $cppxdata$?_Copy@?$basic_string@DU?$char_traits@D@std@@V?$allocator@D@2@@std@@QEAAX_K0@Z
xdata	ENDS
;	COMDAT xdata
xdata	SEGMENT
$ip2state$?_Copy@?$basic_string@DU?$char_traits@D@std@@V?$allocator@D@2@@std@@QEAAX_K0@Z DD imagerel ?_Copy@?$basic_string@DU?$char_traits@D@std@@V?$allocator@D@2@@std@@QEAAX_K0@Z
	DD	0ffffffffH
	DD	imagerel ?_Copy@?$basic_string@DU?$char_traits@D@std@@V?$allocator@D@2@@std@@QEAAX_K0@Z+356
	DD	00H
	DD	imagerel ?_Copy@?$basic_string@DU?$char_traits@D@std@@V?$allocator@D@2@@std@@QEAAX_K0@Z+418
	DD	0ffffffffH
	DD	imagerel ?catch$1@?0??_Copy@?$basic_string@DU?$char_traits@D@std@@V?$allocator@D@2@@std@@QEAAX_K0@Z@4HA
	DD	00H
	DD	imagerel ?catch$1@?0??_Copy@?$basic_string@DU?$char_traits@D@std@@V?$allocator@D@2@@std@@QEAAX_K0@Z@4HA+20
	DD	01H
	DD	imagerel ?catch$1@?0??_Copy@?$basic_string@DU?$char_traits@D@std@@V?$allocator@D@2@@std@@QEAAX_K0@Z@4HA+31
	DD	02H
	DD	imagerel ?catch$1@?0??_Copy@?$basic_string@DU?$char_traits@D@std@@V?$allocator@D@2@@std@@QEAAX_K0@Z@4HA+93
	DD	01H
	DD	imagerel ?catch$1@?0??_Copy@?$basic_string@DU?$char_traits@D@std@@V?$allocator@D@2@@std@@QEAAX_K0@Z@4HA+95
	DD	00H
	DD	imagerel ?catch$0@?0??_Copy@?$basic_string@DU?$char_traits@D@std@@V?$allocator@D@2@@std@@QEAAX_K0@Z@4HA+20
	DD	03H
	DD	imagerel ?catch$0@?0??_Copy@?$basic_string@DU?$char_traits@D@std@@V?$allocator@D@2@@std@@QEAAX_K0@Z@4HA+47
	DD	00H
xdata	ENDS
;	COMDAT xdata
xdata	SEGMENT
$handlerMap$1$?_Copy@?$basic_string@DU?$char_traits@D@std@@V?$allocator@D@2@@std@@QEAAX_K0@Z DD 040H
	DD	00H
	DD	00H
	DD	imagerel ?catch$0@?0??_Copy@?$basic_string@DU?$char_traits@D@std@@V?$allocator@D@2@@std@@QEAAX_K0@Z@4HA
	DD	048H
xdata	ENDS
;	COMDAT xdata
xdata	SEGMENT
$handlerMap$0$?_Copy@?$basic_string@DU?$char_traits@D@std@@V?$allocator@D@2@@std@@QEAAX_K0@Z DD 040H
	DD	00H
	DD	00H
	DD	imagerel ?catch$1@?0??_Copy@?$basic_string@DU?$char_traits@D@std@@V?$allocator@D@2@@std@@QEAAX_K0@Z@4HA
	DD	048H
xdata	ENDS
;	COMDAT xdata
xdata	SEGMENT
$tryMap$?_Copy@?$basic_string@DU?$char_traits@D@std@@V?$allocator@D@2@@std@@QEAAX_K0@Z DD 00H
	DD	00H
	DD	03H
	DD	01H
	DD	imagerel $handlerMap$0$?_Copy@?$basic_string@DU?$char_traits@D@std@@V?$allocator@D@2@@std@@QEAAX_K0@Z
	DD	02H
	DD	02H
	DD	03H
	DD	01H
	DD	imagerel $handlerMap$1$?_Copy@?$basic_string@DU?$char_traits@D@std@@V?$allocator@D@2@@std@@QEAAX_K0@Z
xdata	ENDS
;	COMDAT xdata
xdata	SEGMENT
$stateUnwindMap$?_Copy@?$basic_string@DU?$char_traits@D@std@@V?$allocator@D@2@@std@@QEAAX_K0@Z DD 0ffffffffH
	DD	00H
	DD	0ffffffffH
	DD	00H
	DD	01H
	DD	00H
	DD	01H
	DD	00H
xdata	ENDS
;	COMDAT xdata
xdata	SEGMENT
$unwind$?_Copy@?$basic_string@DU?$char_traits@D@std@@V?$allocator@D@2@@std@@QEAAX_K0@Z DD 025055019H
	DD	0118231dH
	DD	07011002bH
	DD	05010H
	DD	imagerel __GSHandlerCheck_EH
	DD	imagerel $cppxdata$?_Copy@?$basic_string@DU?$char_traits@D@std@@V?$allocator@D@2@@std@@QEAAX_K0@Z
	DD	014bH
xdata	ENDS
;	COMDAT CONST
CONST	SEGMENT
?_Copy@?$basic_string@DU?$char_traits@D@std@@V?$allocator@D@2@@std@@QEAAX_K0@Z$rtcName$0 DB 05fH ; std::basic_string<char,std::char_traits<char>,std::allocator<char> >::_Copy
	DB	050H
	DB	074H
	DB	072H
	DB	00H
	ORG $+11
?_Copy@?$basic_string@DU?$char_traits@D@std@@V?$allocator@D@2@@std@@QEAAX_K0@Z$rtcVarDesc DD 048H ; std::basic_string<char,std::char_traits<char>,std::allocator<char> >::_Copy
	DD	08H
	DQ	FLAT:?_Copy@?$basic_string@DU?$char_traits@D@std@@V?$allocator@D@2@@std@@QEAAX_K0@Z$rtcName$0
	ORG $+48
?_Copy@?$basic_string@DU?$char_traits@D@std@@V?$allocator@D@2@@std@@QEAAX_K0@Z$rtcFrameData DD 01H ; std::basic_string<char,std::char_traits<char>,std::allocator<char> >::_Copy
	DD	00H
	DQ	FLAT:?_Copy@?$basic_string@DU?$char_traits@D@std@@V?$allocator@D@2@@std@@QEAAX_K0@Z$rtcVarDesc
$cppxdata$?_Copy@?$basic_string@DU?$char_traits@D@std@@V?$allocator@D@2@@std@@QEAAX_K0@Z DD 019930522H
	DD	04H
	DD	imagerel $stateUnwindMap$?_Copy@?$basic_string@DU?$char_traits@D@std@@V?$allocator@D@2@@std@@QEAAX_K0@Z
	DD	02H
	DD	imagerel $tryMap$?_Copy@?$basic_string@DU?$char_traits@D@std@@V?$allocator@D@2@@std@@QEAAX_K0@Z
	DD	0aH
	DD	imagerel $ip2state$?_Copy@?$basic_string@DU?$char_traits@D@std@@V?$allocator@D@2@@std@@QEAAX_K0@Z
	DD	0128H
	DD	00H
	DD	01H
CONST	ENDS
;	COMDAT xdata
xdata	SEGMENT
$unwind$?max_size@?$basic_string@DU?$char_traits@D@std@@V?$allocator@D@2@@std@@QEBA_KXZ DD 025052a01H
	DD	010e2313H
	DD	070070025H
	DD	05006H
xdata	ENDS
;	COMDAT xdata
xdata	SEGMENT
$unwind$?size@?$basic_string@DU?$char_traits@D@std@@V?$allocator@D@2@@std@@QEBA_KXZ DD 025052a01H
	DD	010e2313H
	DD	07007001dH
	DD	05006H
xdata	ENDS
;	COMDAT xdata
xdata	SEGMENT
$ip2state$?c_str@?$basic_string@DU?$char_traits@D@std@@V?$allocator@D@2@@std@@QEBAPEBDXZ DD imagerel ?c_str@?$basic_string@DU?$char_traits@D@std@@V?$allocator@D@2@@std@@QEBAPEBDXZ
	DD	0ffffffffH
xdata	ENDS
;	COMDAT CONST
CONST	SEGMENT
$cppxdata$?c_str@?$basic_string@DU?$char_traits@D@std@@V?$allocator@D@2@@std@@QEBAPEBDXZ DD 019930522H
	DD	00H
	DD	00H
	DD	00H
	DD	00H
	DD	01H
	DD	imagerel $ip2state$?c_str@?$basic_string@DU?$char_traits@D@std@@V?$allocator@D@2@@std@@QEBAPEBDXZ
	DD	0e8H
	DD	00H
	DD	05H
CONST	ENDS
;	COMDAT xdata
xdata	SEGMENT
$unwind$?c_str@?$basic_string@DU?$char_traits@D@std@@V?$allocator@D@2@@std@@QEBAPEBDXZ DD 025053519H
	DD	010e2313H
	DD	070070021H
	DD	05006H
	DD	imagerel __CxxFrameHandler3
	DD	imagerel $cppxdata$?c_str@?$basic_string@DU?$char_traits@D@std@@V?$allocator@D@2@@std@@QEBAPEBDXZ
xdata	ENDS
;	COMDAT xdata
xdata	SEGMENT
$unwind$?erase@?$basic_string@DU?$char_traits@D@std@@V?$allocator@D@2@@std@@QEAAAEAV12@_K0@Z DD 025053401H
	DD	0118231dH
	DD	070110025H
	DD	05010H
xdata	ENDS
;	COMDAT xdata
xdata	SEGMENT
$unwind$?erase@?$basic_string@DU?$char_traits@D@std@@V?$allocator@D@2@@std@@QEAAAEAV12@_K@Z DD 025052f01H
	DD	01132318H
	DD	0700c001dH
	DD	0500bH
xdata	ENDS
;	COMDAT xdata
xdata	SEGMENT
$unwind$?assign@?$basic_string@DU?$char_traits@D@std@@V?$allocator@D@2@@std@@QEAAAEAV12@PEBD@Z DD 025052f01H
	DD	01132318H
	DD	0700c001dH
	DD	0500bH
xdata	ENDS
;	COMDAT xdata
xdata	SEGMENT
$unwind$?assign@?$basic_string@DU?$char_traits@D@std@@V?$allocator@D@2@@std@@QEAAAEAV12@PEBD_K@Z DD 025053401H
	DD	0118231dH
	DD	07011001fH
	DD	05010H
xdata	ENDS
;	COMDAT xdata
xdata	SEGMENT
$unwind$?assign@?$basic_string@DU?$char_traits@D@std@@V?$allocator@D@2@@std@@QEAAAEAV12@AEBV12@_K1@Z DD 025053901H
	DD	011d2322H
	DD	070160021H
	DD	05015H
xdata	ENDS
;	COMDAT xdata
xdata	SEGMENT
$unwind$?append@?$basic_string@DU?$char_traits@D@std@@V?$allocator@D@2@@std@@QEAAAEAV12@PEBD@Z DD 025052f01H
	DD	01132318H
	DD	0700c001dH
	DD	0500bH
xdata	ENDS
;	COMDAT xdata
xdata	SEGMENT
$unwind$?append@?$basic_string@DU?$char_traits@D@std@@V?$allocator@D@2@@std@@QEAAAEAV12@PEBD_K@Z DD 025053401H
	DD	0118231dH
	DD	070110021H
	DD	05010H
xdata	ENDS
;	COMDAT xdata
xdata	SEGMENT
$unwind$?append@?$basic_string@DU?$char_traits@D@std@@V?$allocator@D@2@@std@@QEAAAEAV12@AEBV12@_K1@Z DD 025053901H
	DD	011d2322H
	DD	070160023H
	DD	05015H
xdata	ENDS
;	COMDAT xdata
xdata	SEGMENT
$unwind$??Y?$basic_string@DU?$char_traits@D@std@@V?$allocator@D@2@@std@@QEAAAEAV01@PEBD@Z DD 025052f01H
	DD	01132318H
	DD	0700c001dH
	DD	0500bH
xdata	ENDS
;	COMDAT xdata
xdata	SEGMENT
$ip2state$??1?$basic_string@DU?$char_traits@D@std@@V?$allocator@D@2@@std@@QEAA@XZ DD imagerel ??1?$basic_string@DU?$char_traits@D@std@@V?$allocator@D@2@@std@@QEAA@XZ
	DD	0ffffffffH
xdata	ENDS
;	COMDAT CONST
CONST	SEGMENT
$cppxdata$??1?$basic_string@DU?$char_traits@D@std@@V?$allocator@D@2@@std@@QEAA@XZ DD 019930522H
	DD	00H
	DD	00H
	DD	00H
	DD	00H
	DD	01H
	DD	imagerel $ip2state$??1?$basic_string@DU?$char_traits@D@std@@V?$allocator@D@2@@std@@QEAA@XZ
	DD	0e8H
	DD	00H
	DD	05H
CONST	ENDS
;	COMDAT xdata
xdata	SEGMENT
$unwind$??1?$basic_string@DU?$char_traits@D@std@@V?$allocator@D@2@@std@@QEAA@XZ DD 025053519H
	DD	010e2313H
	DD	070070021H
	DD	05006H
	DD	imagerel __CxxFrameHandler3
	DD	imagerel $cppxdata$??1?$basic_string@DU?$char_traits@D@std@@V?$allocator@D@2@@std@@QEAA@XZ
xdata	ENDS
;	COMDAT xdata
xdata	SEGMENT
$unwind$?dtor$0@?0???0?$basic_string@DU?$char_traits@D@std@@V?$allocator@D@2@@std@@QEAA@PEBD@Z@4HA DD 031001H
	DD	0700c4210H
	DD	0500bH
xdata	ENDS
;	COMDAT xdata
xdata	SEGMENT
$ip2state$??0?$basic_string@DU?$char_traits@D@std@@V?$allocator@D@2@@std@@QEAA@PEBD@Z DD imagerel ??0?$basic_string@DU?$char_traits@D@std@@V?$allocator@D@2@@std@@QEAA@PEBD@Z
	DD	0ffffffffH
	DD	imagerel ??0?$basic_string@DU?$char_traits@D@std@@V?$allocator@D@2@@std@@QEAA@PEBD@Z+86
	DD	00H
	DD	imagerel ??0?$basic_string@DU?$char_traits@D@std@@V?$allocator@D@2@@std@@QEAA@PEBD@Z+123
	DD	0ffffffffH
xdata	ENDS
;	COMDAT xdata
xdata	SEGMENT
$stateUnwindMap$??0?$basic_string@DU?$char_traits@D@std@@V?$allocator@D@2@@std@@QEAA@PEBD@Z DD 0ffffffffH
	DD	imagerel ?dtor$0@?0???0?$basic_string@DU?$char_traits@D@std@@V?$allocator@D@2@@std@@QEAA@PEBD@Z@4HA
xdata	ENDS
;	COMDAT CONST
CONST	SEGMENT
$cppxdata$??0?$basic_string@DU?$char_traits@D@std@@V?$allocator@D@2@@std@@QEAA@PEBD@Z DD 019930522H
	DD	01H
	DD	imagerel $stateUnwindMap$??0?$basic_string@DU?$char_traits@D@std@@V?$allocator@D@2@@std@@QEAA@PEBD@Z
	DD	00H
	DD	00H
	DD	03H
	DD	imagerel $ip2state$??0?$basic_string@DU?$char_traits@D@std@@V?$allocator@D@2@@std@@QEAA@PEBD@Z
	DD	0108H
	DD	00H
	DD	01H
CONST	ENDS
;	COMDAT xdata
xdata	SEGMENT
$unwind$??0?$basic_string@DU?$char_traits@D@std@@V?$allocator@D@2@@std@@QEAA@PEBD@Z DD 025053a11H
	DD	01132318H
	DD	0700c0025H
	DD	0500bH
	DD	imagerel __CxxFrameHandler3
	DD	imagerel $cppxdata$??0?$basic_string@DU?$char_traits@D@std@@V?$allocator@D@2@@std@@QEAA@PEBD@Z
xdata	ENDS
;	COMDAT xdata
xdata	SEGMENT
$unwind$?dtor$0@?0???0?$basic_string@DU?$char_traits@D@std@@V?$allocator@D@2@@std@@QEAA@AEBV01@@Z@4HA DD 031001H
	DD	0700c4210H
	DD	0500bH
xdata	ENDS
;	COMDAT xdata
xdata	SEGMENT
$ip2state$??0?$basic_string@DU?$char_traits@D@std@@V?$allocator@D@2@@std@@QEAA@AEBV01@@Z DD imagerel ??0?$basic_string@DU?$char_traits@D@std@@V?$allocator@D@2@@std@@QEAA@AEBV01@@Z
	DD	0ffffffffH
	DD	imagerel ??0?$basic_string@DU?$char_traits@D@std@@V?$allocator@D@2@@std@@QEAA@AEBV01@@Z+109
	DD	00H
	DD	imagerel ??0?$basic_string@DU?$char_traits@D@std@@V?$allocator@D@2@@std@@QEAA@AEBV01@@Z+156
	DD	0ffffffffH
xdata	ENDS
;	COMDAT xdata
xdata	SEGMENT
$stateUnwindMap$??0?$basic_string@DU?$char_traits@D@std@@V?$allocator@D@2@@std@@QEAA@AEBV01@@Z DD 0ffffffffH
	DD	imagerel ?dtor$0@?0???0?$basic_string@DU?$char_traits@D@std@@V?$allocator@D@2@@std@@QEAA@AEBV01@@Z@4HA
xdata	ENDS
;	COMDAT CONST
CONST	SEGMENT
$cppxdata$??0?$basic_string@DU?$char_traits@D@std@@V?$allocator@D@2@@std@@QEAA@AEBV01@@Z DD 019930522H
	DD	01H
	DD	imagerel $stateUnwindMap$??0?$basic_string@DU?$char_traits@D@std@@V?$allocator@D@2@@std@@QEAA@AEBV01@@Z
	DD	00H
	DD	00H
	DD	03H
	DD	imagerel $ip2state$??0?$basic_string@DU?$char_traits@D@std@@V?$allocator@D@2@@std@@QEAA@AEBV01@@Z
	DD	0128H
	DD	00H
	DD	01H
CONST	ENDS
;	COMDAT xdata
xdata	SEGMENT
$unwind$??0?$basic_string@DU?$char_traits@D@std@@V?$allocator@D@2@@std@@QEAA@AEBV01@@Z DD 025053a11H
	DD	01132318H
	DD	0700c0029H
	DD	0500bH
	DD	imagerel __CxxFrameHandler3
	DD	imagerel $cppxdata$??0?$basic_string@DU?$char_traits@D@std@@V?$allocator@D@2@@std@@QEAA@AEBV01@@Z
xdata	ENDS
;	COMDAT xdata
xdata	SEGMENT
$unwind$??1?$_Compressed_pair@U?$_Wrap_alloc@V?$allocator@D@std@@@std@@V?$_String_val@U?$_Simple_types@D@std@@@2@$00@std@@QEAA@XZ DD 025052a01H
	DD	010e2313H
	DD	07007001dH
	DD	05006H
xdata	ENDS
;	COMDAT xdata
xdata	SEGMENT
$unwind$?_Get_second@?$_Compressed_pair@U?$_Wrap_alloc@V?$allocator@D@std@@@std@@V?$_String_val@U?$_Simple_types@D@std@@@2@$00@std@@QEBAAEBV?$_String_val@U?$_Simple_types@D@std@@@2@XZ DD 05052801H
	DD	010e0311H
	DD	070070019H
	DD	05006H
xdata	ENDS
;	COMDAT xdata
xdata	SEGMENT
$unwind$?_Get_second@?$_Compressed_pair@U?$_Wrap_alloc@V?$allocator@D@std@@@std@@V?$_String_val@U?$_Simple_types@D@std@@@2@$00@std@@QEAAAEAV?$_String_val@U?$_Simple_types@D@std@@@2@XZ DD 05052801H
	DD	010e0311H
	DD	070070019H
	DD	05006H
xdata	ENDS
;	COMDAT xdata
xdata	SEGMENT
$unwind$?_Get_first@?$_Compressed_pair@U?$_Wrap_alloc@V?$allocator@D@std@@@std@@V?$_String_val@U?$_Simple_types@D@std@@@2@$00@std@@QEBAAEBU?$_Wrap_alloc@V?$allocator@D@std@@@2@XZ DD 05052801H
	DD	010e0311H
	DD	070070019H
	DD	05006H
xdata	ENDS
;	COMDAT xdata
xdata	SEGMENT
$unwind$?_Get_first@?$_Compressed_pair@U?$_Wrap_alloc@V?$allocator@D@std@@@std@@V?$_String_val@U?$_Simple_types@D@std@@@2@$00@std@@QEAAAEAU?$_Wrap_alloc@V?$allocator@D@std@@@2@XZ DD 05052801H
	DD	010e0311H
	DD	070070019H
	DD	05006H
xdata	ENDS
;	COMDAT xdata
xdata	SEGMENT
$unwind$?_Myres@?$_String_alloc@U?$_String_base_types@DV?$allocator@D@std@@@std@@@std@@QEAAAEA_KXZ DD 025052a01H
	DD	010e2313H
	DD	07007001dH
	DD	05006H
xdata	ENDS
;	COMDAT xdata
xdata	SEGMENT
$unwind$?_Mysize@?$_String_alloc@U?$_String_base_types@DV?$allocator@D@std@@@std@@@std@@QEBAAEB_KXZ DD 025052a01H
	DD	010e2313H
	DD	07007001dH
	DD	05006H
xdata	ENDS
;	COMDAT xdata
xdata	SEGMENT
$unwind$?_Mysize@?$_String_alloc@U?$_String_base_types@DV?$allocator@D@std@@@std@@@std@@QEAAAEA_KXZ DD 025052a01H
	DD	010e2313H
	DD	07007001dH
	DD	05006H
xdata	ENDS
;	COMDAT xdata
xdata	SEGMENT
$unwind$?_Bx@?$_String_alloc@U?$_String_base_types@DV?$allocator@D@std@@@std@@@std@@QEAAAEAT_Bxty@?$_String_val@U?$_Simple_types@D@std@@@2@XZ DD 025052a01H
	DD	010e2313H
	DD	07007001dH
	DD	05006H
xdata	ENDS
;	COMDAT xdata
xdata	SEGMENT
$unwind$?_Get_data@?$_String_alloc@U?$_String_base_types@DV?$allocator@D@std@@@std@@@std@@QEBAAEBV?$_String_val@U?$_Simple_types@D@std@@@2@XZ DD 025052a01H
	DD	010e2313H
	DD	07007001dH
	DD	05006H
xdata	ENDS
;	COMDAT xdata
xdata	SEGMENT
$unwind$?_Get_data@?$_String_alloc@U?$_String_base_types@DV?$allocator@D@std@@@std@@@std@@QEAAAEAV?$_String_val@U?$_Simple_types@D@std@@@2@XZ DD 025052a01H
	DD	010e2313H
	DD	07007001dH
	DD	05006H
xdata	ENDS
;	COMDAT xdata
xdata	SEGMENT
$unwind$?_Getal@?$_String_alloc@U?$_String_base_types@DV?$allocator@D@std@@@std@@@std@@QEBAAEBU?$_Wrap_alloc@V?$allocator@D@std@@@2@XZ DD 025052a01H
	DD	010e2313H
	DD	07007001dH
	DD	05006H
xdata	ENDS
;	COMDAT xdata
xdata	SEGMENT
$unwind$?_Getal@?$_String_alloc@U?$_String_base_types@DV?$allocator@D@std@@@std@@@std@@QEAAAEAU?$_Wrap_alloc@V?$allocator@D@std@@@2@XZ DD 025052a01H
	DD	010e2313H
	DD	07007001dH
	DD	05006H
xdata	ENDS
;	COMDAT xdata
xdata	SEGMENT
$unwind$?_Orphan_all@?$_String_alloc@U?$_String_base_types@DV?$allocator@D@std@@@std@@@std@@QEAAXXZ DD 025052a01H
	DD	010e2313H
	DD	07007001dH
	DD	05006H
xdata	ENDS
;	COMDAT xdata
xdata	SEGMENT
$unwind$?_Myproxy@?$_String_alloc@U?$_String_base_types@DV?$allocator@D@std@@@std@@@std@@QEAAAEAPEAU_Container_proxy@2@XZ DD 025052a01H
	DD	010e2313H
	DD	07007001dH
	DD	05006H
xdata	ENDS
;	COMDAT xdata
xdata	SEGMENT
$unwind$?_Free_proxy@?$_String_alloc@U?$_String_base_types@DV?$allocator@D@std@@@std@@@std@@QEAAXXZ DD 025053b19H
	DD	010e2313H
	DD	070070021H
	DD	05006H
	DD	imagerel __GSHandlerCheck
	DD	0f8H
xdata	ENDS
;	COMDAT CONST
CONST	SEGMENT
?_Free_proxy@?$_String_alloc@U?$_String_base_types@DV?$allocator@D@std@@@std@@@std@@QEAAXXZ$rtcName$0 DB 05fH ; std::_String_alloc<std::_String_base_types<char,std::allocator<char> > >::_Free_proxy
	DB	041H
	DB	06cH
	DB	070H
	DB	072H
	DB	06fH
	DB	078H
	DB	079H
	DB	00H
	ORG $+7
?_Free_proxy@?$_String_alloc@U?$_String_base_types@DV?$allocator@D@std@@@std@@@std@@QEAAXXZ$rtcVarDesc DD 024H ; std::_String_alloc<std::_String_base_types<char,std::allocator<char> > >::_Free_proxy
	DD	01H
	DQ	FLAT:?_Free_proxy@?$_String_alloc@U?$_String_base_types@DV?$allocator@D@std@@@std@@@std@@QEAAXXZ$rtcName$0
	ORG $+48
?_Free_proxy@?$_String_alloc@U?$_String_base_types@DV?$allocator@D@std@@@std@@@std@@QEAAXXZ$rtcFrameData DD 01H ; std::_String_alloc<std::_String_base_types<char,std::allocator<char> > >::_Free_proxy
	DD	00H
	DQ	FLAT:?_Free_proxy@?$_String_alloc@U?$_String_base_types@DV?$allocator@D@std@@@std@@@std@@QEAAXXZ$rtcVarDesc
CONST	ENDS
;	COMDAT xdata
xdata	SEGMENT
$unwind$?_Alloc_proxy@?$_String_alloc@U?$_String_base_types@DV?$allocator@D@std@@@std@@@std@@QEAAXXZ DD 025053b19H
	DD	010e2313H
	DD	070070029H
	DD	05006H
	DD	imagerel __GSHandlerCheck
	DD	0130H
xdata	ENDS
;	COMDAT CONST
CONST	SEGMENT
?_Alloc_proxy@?$_String_alloc@U?$_String_base_types@DV?$allocator@D@std@@@std@@@std@@QEAAXXZ$rtcName$0 DB 05fH ; std::_String_alloc<std::_String_base_types<char,std::allocator<char> > >::_Alloc_proxy
	DB	041H
	DB	06cH
	DB	070H
	DB	072H
	DB	06fH
	DB	078H
	DB	079H
	DB	00H
	ORG $+7
?_Alloc_proxy@?$_String_alloc@U?$_String_base_types@DV?$allocator@D@std@@@std@@@std@@QEAAXXZ$rtcVarDesc DD 024H ; std::_String_alloc<std::_String_base_types<char,std::allocator<char> > >::_Alloc_proxy
	DD	01H
	DQ	FLAT:?_Alloc_proxy@?$_String_alloc@U?$_String_base_types@DV?$allocator@D@std@@@std@@@std@@QEAAXXZ$rtcName$0
	ORG $+48
?_Alloc_proxy@?$_String_alloc@U?$_String_base_types@DV?$allocator@D@std@@@std@@@std@@QEAAXXZ$rtcFrameData DD 01H ; std::_String_alloc<std::_String_base_types<char,std::allocator<char> > >::_Alloc_proxy
	DD	00H
	DQ	FLAT:?_Alloc_proxy@?$_String_alloc@U?$_String_base_types@DV?$allocator@D@std@@@std@@@std@@QEAAXXZ$rtcVarDesc
CONST	ENDS
;	COMDAT xdata
xdata	SEGMENT
$ip2state$??1?$_String_alloc@U?$_String_base_types@DV?$allocator@D@std@@@std@@@std@@QEAA@XZ DD imagerel ??1?$_String_alloc@U?$_String_base_types@DV?$allocator@D@std@@@std@@@std@@QEAA@XZ
	DD	0ffffffffH
xdata	ENDS
;	COMDAT CONST
CONST	SEGMENT
$cppxdata$??1?$_String_alloc@U?$_String_base_types@DV?$allocator@D@std@@@std@@@std@@QEAA@XZ DD 019930522H
	DD	00H
	DD	00H
	DD	00H
	DD	00H
	DD	01H
	DD	imagerel $ip2state$??1?$_String_alloc@U?$_String_base_types@DV?$allocator@D@std@@@std@@@std@@QEAA@XZ
	DD	0e8H
	DD	00H
	DD	05H
CONST	ENDS
;	COMDAT xdata
xdata	SEGMENT
$unwind$??1?$_String_alloc@U?$_String_base_types@DV?$allocator@D@std@@@std@@@std@@QEAA@XZ DD 025053519H
	DD	010e2313H
	DD	070070021H
	DD	05006H
	DD	imagerel __CxxFrameHandler3
	DD	imagerel $cppxdata$??1?$_String_alloc@U?$_String_base_types@DV?$allocator@D@std@@@std@@@std@@QEAA@XZ
xdata	ENDS
;	COMDAT xdata
xdata	SEGMENT
$unwind$?dtor$0@?0???0?$_String_alloc@U?$_String_base_types@DV?$allocator@D@std@@@std@@@std@@QEAA@$$QEAV?$allocator@D@1@@Z@4HA DD 031001H
	DD	0700c4210H
	DD	0500bH
xdata	ENDS
;	COMDAT xdata
xdata	SEGMENT
$ip2state$??0?$_String_alloc@U?$_String_base_types@DV?$allocator@D@std@@@std@@@std@@QEAA@$$QEAV?$allocator@D@1@@Z DD imagerel ??0?$_String_alloc@U?$_String_base_types@DV?$allocator@D@std@@@std@@@std@@QEAA@$$QEAV?$allocator@D@1@@Z
	DD	0ffffffffH
	DD	imagerel ??0?$_String_alloc@U?$_String_base_types@DV?$allocator@D@std@@@std@@@std@@QEAA@$$QEAV?$allocator@D@1@@Z+93
	DD	00H
	DD	imagerel ??0?$_String_alloc@U?$_String_base_types@DV?$allocator@D@std@@@std@@@std@@QEAA@$$QEAV?$allocator@D@1@@Z+106
	DD	0ffffffffH
xdata	ENDS
;	COMDAT xdata
xdata	SEGMENT
$stateUnwindMap$??0?$_String_alloc@U?$_String_base_types@DV?$allocator@D@std@@@std@@@std@@QEAA@$$QEAV?$allocator@D@1@@Z DD 0ffffffffH
	DD	imagerel ?dtor$0@?0???0?$_String_alloc@U?$_String_base_types@DV?$allocator@D@std@@@std@@@std@@QEAA@$$QEAV?$allocator@D@1@@Z@4HA
xdata	ENDS
;	COMDAT CONST
CONST	SEGMENT
$cppxdata$??0?$_String_alloc@U?$_String_base_types@DV?$allocator@D@std@@@std@@@std@@QEAA@$$QEAV?$allocator@D@1@@Z DD 019930522H
	DD	01H
	DD	imagerel $stateUnwindMap$??0?$_String_alloc@U?$_String_base_types@DV?$allocator@D@std@@@std@@@std@@QEAA@$$QEAV?$allocator@D@1@@Z
	DD	00H
	DD	00H
	DD	03H
	DD	imagerel $ip2state$??0?$_String_alloc@U?$_String_base_types@DV?$allocator@D@std@@@std@@@std@@QEAA@$$QEAV?$allocator@D@1@@Z
	DD	0108H
	DD	00H
	DD	01H
CONST	ENDS
;	COMDAT xdata
xdata	SEGMENT
$unwind$??0?$_String_alloc@U?$_String_base_types@DV?$allocator@D@std@@@std@@@std@@QEAA@$$QEAV?$allocator@D@1@@Z DD 025053a11H
	DD	01132318H
	DD	0700c0025H
	DD	0500bH
	DD	imagerel __CxxFrameHandler3
	DD	imagerel $cppxdata$??0?$_String_alloc@U?$_String_base_types@DV?$allocator@D@std@@@std@@@std@@QEAA@$$QEAV?$allocator@D@1@@Z
xdata	ENDS
;	COMDAT xdata
xdata	SEGMENT
$unwind$?dtor$0@?0???0?$_String_alloc@U?$_String_base_types@DV?$allocator@D@std@@@std@@@std@@QEAA@AEBV?$allocator@D@1@@Z@4HA DD 031001H
	DD	0700c4210H
	DD	0500bH
xdata	ENDS
;	COMDAT xdata
xdata	SEGMENT
$ip2state$??0?$_String_alloc@U?$_String_base_types@DV?$allocator@D@std@@@std@@@std@@QEAA@AEBV?$allocator@D@1@@Z DD imagerel ??0?$_String_alloc@U?$_String_base_types@DV?$allocator@D@std@@@std@@@std@@QEAA@AEBV?$allocator@D@1@@Z
	DD	0ffffffffH
	DD	imagerel ??0?$_String_alloc@U?$_String_base_types@DV?$allocator@D@std@@@std@@@std@@QEAA@AEBV?$allocator@D@1@@Z+88
	DD	00H
	DD	imagerel ??0?$_String_alloc@U?$_String_base_types@DV?$allocator@D@std@@@std@@@std@@QEAA@AEBV?$allocator@D@1@@Z+101
	DD	0ffffffffH
xdata	ENDS
;	COMDAT xdata
xdata	SEGMENT
$stateUnwindMap$??0?$_String_alloc@U?$_String_base_types@DV?$allocator@D@std@@@std@@@std@@QEAA@AEBV?$allocator@D@1@@Z DD 0ffffffffH
	DD	imagerel ?dtor$0@?0???0?$_String_alloc@U?$_String_base_types@DV?$allocator@D@std@@@std@@@std@@QEAA@AEBV?$allocator@D@1@@Z@4HA
xdata	ENDS
;	COMDAT CONST
CONST	SEGMENT
$cppxdata$??0?$_String_alloc@U?$_String_base_types@DV?$allocator@D@std@@@std@@@std@@QEAA@AEBV?$allocator@D@1@@Z DD 019930522H
	DD	01H
	DD	imagerel $stateUnwindMap$??0?$_String_alloc@U?$_String_base_types@DV?$allocator@D@std@@@std@@@std@@QEAA@AEBV?$allocator@D@1@@Z
	DD	00H
	DD	00H
	DD	03H
	DD	imagerel $ip2state$??0?$_String_alloc@U?$_String_base_types@DV?$allocator@D@std@@@std@@@std@@QEAA@AEBV?$allocator@D@1@@Z
	DD	0108H
	DD	00H
	DD	01H
CONST	ENDS
;	COMDAT xdata
xdata	SEGMENT
$unwind$??0?$_String_alloc@U?$_String_base_types@DV?$allocator@D@std@@@std@@@std@@QEAA@AEBV?$allocator@D@1@@Z DD 025053a11H
	DD	01132318H
	DD	0700c0025H
	DD	0500bH
	DD	imagerel __CxxFrameHandler3
	DD	imagerel $cppxdata$??0?$_String_alloc@U?$_String_base_types@DV?$allocator@D@std@@@std@@@std@@QEAA@AEBV?$allocator@D@1@@Z
xdata	ENDS
;	COMDAT xdata
xdata	SEGMENT
$unwind$?_Myptr@?$_String_alloc@U?$_String_base_types@DV?$allocator@D@std@@@std@@@std@@QEBAPEBDXZ DD 025052a01H
	DD	010e2313H
	DD	07007001dH
	DD	05006H
xdata	ENDS
;	COMDAT xdata
xdata	SEGMENT
$unwind$?_Myptr@?$_String_alloc@U?$_String_base_types@DV?$allocator@D@std@@@std@@@std@@QEAAPEADXZ DD 025052a01H
	DD	010e2313H
	DD	07007001dH
	DD	05006H
xdata	ENDS
;	COMDAT xdata
xdata	SEGMENT
$unwind$??1?$_String_val@U?$_Simple_types@D@std@@@std@@QEAA@XZ DD 025052a01H
	DD	010e2313H
	DD	07007001dH
	DD	05006H
xdata	ENDS
;	COMDAT xdata
xdata	SEGMENT
$unwind$?_Myptr@?$_String_val@U?$_Simple_types@D@std@@@std@@QEBAPEBDXZ DD 025052a01H
	DD	010e2313H
	DD	07007001fH
	DD	05006H
xdata	ENDS
;	COMDAT xdata
xdata	SEGMENT
$unwind$?_Myptr@?$_String_val@U?$_Simple_types@D@std@@@std@@QEAAPEADXZ DD 025052a01H
	DD	010e2313H
	DD	07007001fH
	DD	05006H
xdata	ENDS
;	COMDAT xdata
xdata	SEGMENT
$unwind$??0?$_String_val@U?$_Simple_types@D@std@@@std@@QEAA@XZ DD 025052a01H
	DD	010e2313H
	DD	07007001dH
	DD	05006H
xdata	ENDS
;	COMDAT xdata
xdata	SEGMENT
$unwind$?max_size@?$_Wrap_alloc@V?$allocator@D@std@@@std@@QEBA_KU_Nil@2@@Z DD 025052e01H
	DD	01122317H
	DD	0700b001dH
	DD	0500aH
xdata	ENDS
;	COMDAT xdata
xdata	SEGMENT
$unwind$?deallocate@?$_Wrap_alloc@V?$allocator@D@std@@@std@@QEAAXPEAD_K@Z DD 025053401H
	DD	0118231dH
	DD	07011001dH
	DD	05010H
xdata	ENDS
;	COMDAT xdata
xdata	SEGMENT
$unwind$?allocate@?$_Wrap_alloc@V?$allocator@D@std@@@std@@QEAAPEAD_K@Z DD 025052f01H
	DD	01132318H
	DD	0700c001dH
	DD	0500bH
xdata	ENDS
;	COMDAT xdata
xdata	SEGMENT
$unwind$??0?$_Wrap_alloc@V?$allocator@D@std@@@std@@QEAA@AEBV?$allocator@D@1@@Z DD 025052f01H
	DD	01132318H
	DD	0700c001dH
	DD	0500bH
xdata	ENDS
;	COMDAT xdata
xdata	SEGMENT
$unwind$?select_on_container_copy_construction@?$_Wrap_alloc@V?$allocator@D@std@@@std@@QEBA?AU12@U_Nil@2@@Z DD 025053401H
	DD	0118231dH
	DD	070110021H
	DD	05010H
xdata	ENDS
;	COMDAT xdata
xdata	SEGMENT
$unwind$?select_on_container_copy_construction@?$allocator_traits@V?$allocator@D@std@@@std@@SA?AV?$allocator@D@2@AEBV32@@Z DD 025052f01H
	DD	01132318H
	DD	0700c001dH
	DD	0500bH
xdata	ENDS
;	COMDAT xdata
xdata	SEGMENT
$unwind$?max_size@?$allocator_traits@V?$allocator@D@std@@@std@@SA_KAEBV?$allocator@D@2@@Z DD 025052a01H
	DD	010e2313H
	DD	07007001dH
	DD	05006H
xdata	ENDS
;	COMDAT xdata
xdata	SEGMENT
$unwind$?max_size@?$allocator@D@std@@QEBA_KXZ DD 05052801H
	DD	010e0311H
	DD	070070019H
	DD	05006H
xdata	ENDS
;	COMDAT xdata
xdata	SEGMENT
$unwind$?allocate@?$allocator@D@std@@QEAAPEAD_K@Z DD 025052f01H
	DD	01132318H
	DD	0700c001dH
	DD	0500bH
xdata	ENDS
;	COMDAT xdata
xdata	SEGMENT
$unwind$?deallocate@?$allocator@D@std@@QEAAXPEAD_K@Z DD 025053401H
	DD	0118231dH
	DD	07011001dH
	DD	05010H
xdata	ENDS
;	COMDAT xdata
xdata	SEGMENT
$unwind$??0?$allocator@D@std@@QEAA@AEBV01@@Z DD 05052d01H
	DD	01130316H
	DD	0700c0019H
	DD	0500bH
xdata	ENDS
;	COMDAT xdata
xdata	SEGMENT
$unwind$??0?$allocator@D@std@@QEAA@XZ DD 05052801H
	DD	010e0311H
	DD	070070019H
	DD	05006H
xdata	ENDS
;	COMDAT xdata
xdata	SEGMENT
$unwind$?_Deallocate@std@@YAXPEAX_K1@Z DD 035053401H
	DD	0118331dH
	DD	07011002fH
	DD	05010H
xdata	ENDS
;	COMDAT xdata
xdata	SEGMENT
$unwind$?_Allocate@std@@YAPEAX_K0_N@Z DD 035053401H
	DD	0118331dH
	DD	07011002fH
	DD	05010H
xdata	ENDS
;	COMDAT xdata
xdata	SEGMENT
$unwind$?_Orphan_all@_Container_base12@std@@QEAAXXZ DD 025053b19H
	DD	010e2313H
	DD	070070025H
	DD	05006H
	DD	imagerel __GSHandlerCheck
	DD	0118H
xdata	ENDS
;	COMDAT CONST
CONST	SEGMENT
?_Orphan_all@_Container_base12@std@@QEAAXXZ$rtcName$0 DB 05fH ; std::_Container_base12::_Orphan_all
	DB	04cH
	DB	06fH
	DB	063H
	DB	06bH
	DB	00H
	ORG $+10
?_Orphan_all@_Container_base12@std@@QEAAXXZ$rtcVarDesc DD 024H ; std::_Container_base12::_Orphan_all
	DD	04H
	DQ	FLAT:?_Orphan_all@_Container_base12@std@@QEAAXXZ$rtcName$0
	ORG $+48
?_Orphan_all@_Container_base12@std@@QEAAXXZ$rtcFrameData DD 01H ; std::_Container_base12::_Orphan_all
	DD	00H
	DQ	FLAT:?_Orphan_all@_Container_base12@std@@QEAAXXZ$rtcVarDesc
CONST	ENDS
;	COMDAT xdata
xdata	SEGMENT
$ip2state$??1_Container_base12@std@@QEAA@XZ DD imagerel ??1_Container_base12@std@@QEAA@XZ
	DD	0ffffffffH
xdata	ENDS
;	COMDAT CONST
CONST	SEGMENT
$cppxdata$??1_Container_base12@std@@QEAA@XZ DD 019930522H
	DD	00H
	DD	00H
	DD	00H
	DD	00H
	DD	01H
	DD	imagerel $ip2state$??1_Container_base12@std@@QEAA@XZ
	DD	0e8H
	DD	00H
	DD	05H
CONST	ENDS
;	COMDAT xdata
xdata	SEGMENT
$unwind$??1_Container_base12@std@@QEAA@XZ DD 025053519H
	DD	010e2313H
	DD	070070021H
	DD	05006H
	DD	imagerel __CxxFrameHandler3
	DD	imagerel $cppxdata$??1_Container_base12@std@@QEAA@XZ
xdata	ENDS
;	COMDAT xdata
xdata	SEGMENT
$unwind$??0_Container_base12@std@@QEAA@XZ DD 05052801H
	DD	010e0311H
	DD	070070019H
	DD	05006H
xdata	ENDS
;	COMDAT xdata
xdata	SEGMENT
$unwind$??0_Container_proxy@std@@QEAA@XZ DD 05052801H
	DD	010e0311H
	DD	070070019H
	DD	05006H
xdata	ENDS
;	COMDAT xdata
xdata	SEGMENT
$unwind$?eof@?$char_traits@D@std@@SAHXZ DD 05051c01H
	DD	010a030dH
	DD	070030019H
	DD	05002H
xdata	ENDS
;	COMDAT xdata
xdata	SEGMENT
$unwind$?eq_int_type@?$char_traits@D@std@@SA_NAEBH0@Z DD 05052d01H
	DD	01130316H
	DD	0700c001bH
	DD	0500bH
xdata	ENDS
;	COMDAT xdata
xdata	SEGMENT
$unwind$?to_char_type@?$char_traits@D@std@@SADAEBH@Z DD 05052801H
	DD	010e0311H
	DD	070070019H
	DD	05006H
xdata	ENDS
;	COMDAT xdata
xdata	SEGMENT
$unwind$?assign@?$char_traits@D@std@@SAXAEADAEBD@Z DD 05052d01H
	DD	01130316H
	DD	0700c0019H
	DD	0500bH
xdata	ENDS
;	COMDAT xdata
xdata	SEGMENT
$unwind$?move@?$char_traits@D@std@@SAPEADPEADPEBD_K@Z DD 025053401H
	DD	0118231dH
	DD	07011001fH
	DD	05010H
xdata	ENDS
;	COMDAT xdata
xdata	SEGMENT
$unwind$?copy@?$char_traits@D@std@@SAPEADPEADPEBD_K@Z DD 025053401H
	DD	0118231dH
	DD	07011001fH
	DD	05010H
xdata	ENDS
;	COMDAT xdata
xdata	SEGMENT
$unwind$?length@?$char_traits@D@std@@SA_KPEBD@Z DD 025052a01H
	DD	010e2313H
	DD	07007001fH
	DD	05006H
xdata	ENDS
;	COMDAT xdata
xdata	SEGMENT
$unwind$??2@YAPEAX_KPEAX@Z DD 05052d01H
	DD	01130316H
	DD	0700c0019H
	DD	0500bH
xdata	ENDS
;	COMDAT xdata
xdata	SEGMENT
$unwind$??$__vcrt_va_start_verify_argument_type@QEBD@@YAXXZ DD 05051c01H
	DD	010a030dH
	DD	070030019H
	DD	05002H
xdata	ENDS
;	COMDAT xdata
xdata	SEGMENT
$unwind$fprintf DD 025054a19H
	DD	011d2322H
	DD	070160025H
	DD	05015H
	DD	imagerel __GSHandlerCheck
	DD	0118H
xdata	ENDS
;	COMDAT CONST
CONST	SEGMENT
fprintf$rtcName$0 DB 05fH
	DB	041H
	DB	072H
	DB	067H
	DB	04cH
	DB	069H
	DB	073H
	DB	074H
	DB	00H
	ORG $+7
fprintf$rtcVarDesc DD 048H
	DD	08H
	DQ	FLAT:fprintf$rtcName$0
	ORG $+48
fprintf$rtcFrameData DD 01H
	DD	00H
	DQ	FLAT:fprintf$rtcVarDesc
CONST	ENDS
;	COMDAT xdata
xdata	SEGMENT
$unwind$_vfprintf_l DD 035053901H
	DD	011d3322H
	DD	07016001fH
	DD	05015H
xdata	ENDS
;	COMDAT xdata
xdata	SEGMENT
$unwind$__local_stdio_printf_options DD 05051c01H
	DD	010a030dH
	DD	070030019H
	DD	05002H
xdata	ENDS
;	COMDAT xdata
xdata	SEGMENT
$unwind$??0v2@Cy@@QEAA@AEBU01@@Z DD 05052d01H
	DD	01130316H
	DD	0700c0019H
	DD	0500bH
xdata	ENDS
;	COMDAT xdata
xdata	SEGMENT
$unwind$??0v2@Cy@@QEAA@MM@Z DD 05053401H
	DD	011a031dH
	DD	070130019H
	DD	05012H
xdata	ENDS
;	COMDAT xdata
xdata	SEGMENT
$unwind$??0v2@Cy@@QEAA@XZ DD 05052801H
	DD	010e0311H
	DD	070070019H
	DD	05006H
xdata	ENDS
;	COMDAT xdata
xdata	SEGMENT
$unwind$?__empty_global_delete@@YAXPEAX_K@Z DD 05052d01H
	DD	01130316H
	DD	0700c0019H
	DD	0500bH
xdata	ENDS
;	COMDAT xdata
xdata	SEGMENT
$unwind$?__empty_global_delete@@YAXPEAX@Z DD 05052801H
	DD	010e0311H
	DD	070070019H
	DD	05006H
xdata	ENDS
; Function compile flags: /Odtp /RTCsu /ZI
;	COMDAT ??$construct@U_Container_proxy@std@@U12@@?$allocator@U_Container_proxy@std@@@std@@QEAAXPEAU_Container_proxy@1@$$QEAU21@@Z
_TEXT	SEGMENT
$T1 = 200
tv74 = 216
this$ = 256
_Ptr$ = 264
<_Args_0>$ = 272
??$construct@U_Container_proxy@std@@U12@@?$allocator@U_Container_proxy@std@@@std@@QEAAXPEAU_Container_proxy@1@$$QEAU21@@Z PROC ; std::allocator<std::_Container_proxy>::construct<std::_Container_proxy,std::_Container_proxy>, COMDAT
; File d:\appdata\vsp\vc\include\xmemory0
; Line 654
$LN5:
  00000	4c 89 44 24 18	 mov	 QWORD PTR [rsp+24], r8
  00005	48 89 54 24 10	 mov	 QWORD PTR [rsp+16], rdx
  0000a	48 89 4c 24 08	 mov	 QWORD PTR [rsp+8], rcx
  0000f	55		 push	 rbp
  00010	56		 push	 rsi
  00011	57		 push	 rdi
  00012	48 81 ec 00 01
	00 00		 sub	 rsp, 256		; 00000100H
  00019	48 8d 6c 24 20	 lea	 rbp, QWORD PTR [rsp+32]
  0001e	48 8b fc	 mov	 rdi, rsp
  00021	b9 40 00 00 00	 mov	 ecx, 64			; 00000040H
  00026	b8 cc cc cc cc	 mov	 eax, -858993460		; ccccccccH
  0002b	f3 ab		 rep stosd
  0002d	48 8b 8c 24 28
	01 00 00	 mov	 rcx, QWORD PTR [rsp+296]
; Line 655
  00035	48 8b 95 08 01
	00 00		 mov	 rdx, QWORD PTR _Ptr$[rbp]
  0003c	b9 10 00 00 00	 mov	 ecx, 16
  00041	e8 00 00 00 00	 call	 ??2@YAPEAX_KPEAX@Z	; operator new
  00046	48 89 85 c8 00
	00 00		 mov	 QWORD PTR $T1[rbp], rax
  0004d	48 83 bd c8 00
	00 00 00	 cmp	 QWORD PTR $T1[rbp], 0
  00055	74 2d		 je	 SHORT $LN3@construct
  00057	48 8b 8d 10 01
	00 00		 mov	 rcx, QWORD PTR <_Args_0>$[rbp]
  0005e	e8 00 00 00 00	 call	 ??$forward@U_Container_proxy@std@@@std@@YA$$QEAU_Container_proxy@0@AEAU10@@Z ; std::forward<std::_Container_proxy>
  00063	48 8b bd c8 00
	00 00		 mov	 rdi, QWORD PTR $T1[rbp]
  0006a	48 8b f0	 mov	 rsi, rax
  0006d	b9 10 00 00 00	 mov	 ecx, 16
  00072	f3 a4		 rep movsb
  00074	48 8b 85 c8 00
	00 00		 mov	 rax, QWORD PTR $T1[rbp]
  0007b	48 89 85 d8 00
	00 00		 mov	 QWORD PTR tv74[rbp], rax
  00082	eb 0b		 jmp	 SHORT $LN4@construct
$LN3@construct:
  00084	48 c7 85 d8 00
	00 00 00 00 00
	00		 mov	 QWORD PTR tv74[rbp], 0
$LN4@construct:
; Line 656
  0008f	48 8d a5 e0 00
	00 00		 lea	 rsp, QWORD PTR [rbp+224]
  00096	5f		 pop	 rdi
  00097	5e		 pop	 rsi
  00098	5d		 pop	 rbp
  00099	c3		 ret	 0
??$construct@U_Container_proxy@std@@U12@@?$allocator@U_Container_proxy@std@@@std@@QEAAXPEAU_Container_proxy@1@$$QEAU21@@Z ENDP ; std::allocator<std::_Container_proxy>::construct<std::_Container_proxy,std::_Container_proxy>
_TEXT	ENDS
; Function compile flags: /Odtp /RTCsu /ZI
;	COMDAT ??$destroy@U_Container_proxy@std@@@?$allocator@U_Container_proxy@std@@@std@@QEAAXPEAU_Container_proxy@1@@Z
_TEXT	SEGMENT
this$ = 224
_Ptr$ = 232
??$destroy@U_Container_proxy@std@@@?$allocator@U_Container_proxy@std@@@std@@QEAAXPEAU_Container_proxy@1@@Z PROC ; std::allocator<std::_Container_proxy>::destroy<std::_Container_proxy>, COMDAT
; File d:\appdata\vsp\vc\include\xmemory0
; Line 661
$LN3:
  00000	48 89 54 24 10	 mov	 QWORD PTR [rsp+16], rdx
  00005	48 89 4c 24 08	 mov	 QWORD PTR [rsp+8], rcx
  0000a	55		 push	 rbp
  0000b	57		 push	 rdi
  0000c	48 81 ec c8 00
	00 00		 sub	 rsp, 200		; 000000c8H
  00013	48 8b ec	 mov	 rbp, rsp
  00016	48 8b fc	 mov	 rdi, rsp
  00019	b9 32 00 00 00	 mov	 ecx, 50			; 00000032H
  0001e	b8 cc cc cc cc	 mov	 eax, -858993460		; ccccccccH
  00023	f3 ab		 rep stosd
  00025	48 8b 8c 24 e8
	00 00 00	 mov	 rcx, QWORD PTR [rsp+232]
; Line 663
  0002d	48 8d a5 c8 00
	00 00		 lea	 rsp, QWORD PTR [rbp+200]
  00034	5f		 pop	 rdi
  00035	5d		 pop	 rbp
  00036	c3		 ret	 0
??$destroy@U_Container_proxy@std@@@?$allocator@U_Container_proxy@std@@@std@@QEAAXPEAU_Container_proxy@1@@Z ENDP ; std::allocator<std::_Container_proxy>::destroy<std::_Container_proxy>
_TEXT	ENDS
; Function compile flags: /Odtp /RTCsu /ZI
;	COMDAT ??$construct@PEADAEAPEAD@?$allocator@D@std@@QEAAXPEAPEADAEAPEAD@Z
_TEXT	SEGMENT
$T1 = 200
tv73 = 216
this$ = 256
_Ptr$ = 264
<_Args_0>$ = 272
??$construct@PEADAEAPEAD@?$allocator@D@std@@QEAAXPEAPEADAEAPEAD@Z PROC ; std::allocator<char>::construct<char * __ptr64,char * __ptr64 & __ptr64>, COMDAT
; File d:\appdata\vsp\vc\include\xmemory0
; Line 654
$LN5:
  00000	4c 89 44 24 18	 mov	 QWORD PTR [rsp+24], r8
  00005	48 89 54 24 10	 mov	 QWORD PTR [rsp+16], rdx
  0000a	48 89 4c 24 08	 mov	 QWORD PTR [rsp+8], rcx
  0000f	55		 push	 rbp
  00010	57		 push	 rdi
  00011	48 81 ec 08 01
	00 00		 sub	 rsp, 264		; 00000108H
  00018	48 8d 6c 24 20	 lea	 rbp, QWORD PTR [rsp+32]
  0001d	48 8b fc	 mov	 rdi, rsp
  00020	b9 42 00 00 00	 mov	 ecx, 66			; 00000042H
  00025	b8 cc cc cc cc	 mov	 eax, -858993460		; ccccccccH
  0002a	f3 ab		 rep stosd
  0002c	48 8b 8c 24 28
	01 00 00	 mov	 rcx, QWORD PTR [rsp+296]
; Line 655
  00034	48 8b 95 08 01
	00 00		 mov	 rdx, QWORD PTR _Ptr$[rbp]
  0003b	b9 08 00 00 00	 mov	 ecx, 8
  00040	e8 00 00 00 00	 call	 ??2@YAPEAX_KPEAX@Z	; operator new
  00045	48 89 85 c8 00
	00 00		 mov	 QWORD PTR $T1[rbp], rax
  0004c	48 83 bd c8 00
	00 00 00	 cmp	 QWORD PTR $T1[rbp], 0
  00054	74 29		 je	 SHORT $LN3@construct
  00056	48 8b 8d 10 01
	00 00		 mov	 rcx, QWORD PTR <_Args_0>$[rbp]
  0005d	e8 00 00 00 00	 call	 ??$forward@AEAPEAD@std@@YAAEAPEADAEAPEAD@Z ; std::forward<char * __ptr64 & __ptr64>
  00062	48 8b 8d c8 00
	00 00		 mov	 rcx, QWORD PTR $T1[rbp]
  00069	48 8b 00	 mov	 rax, QWORD PTR [rax]
  0006c	48 89 01	 mov	 QWORD PTR [rcx], rax
  0006f	48 8b 85 c8 00
	00 00		 mov	 rax, QWORD PTR $T1[rbp]
  00076	48 89 85 d8 00
	00 00		 mov	 QWORD PTR tv73[rbp], rax
  0007d	eb 0b		 jmp	 SHORT $LN4@construct
$LN3@construct:
  0007f	48 c7 85 d8 00
	00 00 00 00 00
	00		 mov	 QWORD PTR tv73[rbp], 0
$LN4@construct:
; Line 656
  0008a	48 8d a5 e8 00
	00 00		 lea	 rsp, QWORD PTR [rbp+232]
  00091	5f		 pop	 rdi
  00092	5d		 pop	 rbp
  00093	c3		 ret	 0
??$construct@PEADAEAPEAD@?$allocator@D@std@@QEAAXPEAPEADAEAPEAD@Z ENDP ; std::allocator<char>::construct<char * __ptr64,char * __ptr64 & __ptr64>
_TEXT	ENDS
; Function compile flags: /Odtp /RTCsu /ZI
;	COMDAT ??$destroy@PEAD@?$allocator@D@std@@QEAAXPEAPEAD@Z
_TEXT	SEGMENT
this$ = 224
_Ptr$ = 232
??$destroy@PEAD@?$allocator@D@std@@QEAAXPEAPEAD@Z PROC	; std::allocator<char>::destroy<char * __ptr64>, COMDAT
; File d:\appdata\vsp\vc\include\xmemory0
; Line 661
$LN3:
  00000	48 89 54 24 10	 mov	 QWORD PTR [rsp+16], rdx
  00005	48 89 4c 24 08	 mov	 QWORD PTR [rsp+8], rcx
  0000a	55		 push	 rbp
  0000b	57		 push	 rdi
  0000c	48 81 ec c8 00
	00 00		 sub	 rsp, 200		; 000000c8H
  00013	48 8b ec	 mov	 rbp, rsp
  00016	48 8b fc	 mov	 rdi, rsp
  00019	b9 32 00 00 00	 mov	 ecx, 50			; 00000032H
  0001e	b8 cc cc cc cc	 mov	 eax, -858993460		; ccccccccH
  00023	f3 ab		 rep stosd
  00025	48 8b 8c 24 e8
	00 00 00	 mov	 rcx, QWORD PTR [rsp+232]
; Line 663
  0002d	48 8d a5 c8 00
	00 00		 lea	 rsp, QWORD PTR [rbp+200]
  00034	5f		 pop	 rdi
  00035	5d		 pop	 rbp
  00036	c3		 ret	 0
??$destroy@PEAD@?$allocator@D@std@@QEAAXPEAPEAD@Z ENDP	; std::allocator<char>::destroy<char * __ptr64>
_TEXT	ENDS
; Function compile flags: /Odtp /RTCsu /ZI
;	COMDAT ??$construct@U_Container_proxy@std@@U12@@?$allocator_traits@V?$allocator@U_Container_proxy@std@@@std@@@std@@SAXAEAV?$allocator@U_Container_proxy@std@@@1@PEAU_Container_proxy@1@$$QEAU31@@Z
_TEXT	SEGMENT
_Al$ = 224
_Ptr$ = 232
<_Args_0>$ = 240
??$construct@U_Container_proxy@std@@U12@@?$allocator_traits@V?$allocator@U_Container_proxy@std@@@std@@@std@@SAXAEAV?$allocator@U_Container_proxy@std@@@1@PEAU_Container_proxy@1@$$QEAU31@@Z PROC ; std::allocator_traits<std::allocator<std::_Container_proxy> >::construct<std::_Container_proxy,std::_Container_proxy>, COMDAT
; File d:\appdata\vsp\vc\include\xmemory0
; Line 772
$LN3:
  00000	4c 89 44 24 18	 mov	 QWORD PTR [rsp+24], r8
  00005	48 89 54 24 10	 mov	 QWORD PTR [rsp+16], rdx
  0000a	48 89 4c 24 08	 mov	 QWORD PTR [rsp+8], rcx
  0000f	55		 push	 rbp
  00010	57		 push	 rdi
  00011	48 81 ec e8 00
	00 00		 sub	 rsp, 232		; 000000e8H
  00018	48 8d 6c 24 20	 lea	 rbp, QWORD PTR [rsp+32]
  0001d	48 8b fc	 mov	 rdi, rsp
  00020	b9 3a 00 00 00	 mov	 ecx, 58			; 0000003aH
  00025	b8 cc cc cc cc	 mov	 eax, -858993460		; ccccccccH
  0002a	f3 ab		 rep stosd
  0002c	48 8b 8c 24 08
	01 00 00	 mov	 rcx, QWORD PTR [rsp+264]
; Line 773
  00034	48 8b 8d f0 00
	00 00		 mov	 rcx, QWORD PTR <_Args_0>$[rbp]
  0003b	e8 00 00 00 00	 call	 ??$forward@U_Container_proxy@std@@@std@@YA$$QEAU_Container_proxy@0@AEAU10@@Z ; std::forward<std::_Container_proxy>
  00040	4c 8b c0	 mov	 r8, rax
  00043	48 8b 95 e8 00
	00 00		 mov	 rdx, QWORD PTR _Ptr$[rbp]
  0004a	48 8b 8d e0 00
	00 00		 mov	 rcx, QWORD PTR _Al$[rbp]
  00051	e8 00 00 00 00	 call	 ??$construct@U_Container_proxy@std@@U12@@?$allocator@U_Container_proxy@std@@@std@@QEAAXPEAU_Container_proxy@1@$$QEAU21@@Z ; std::allocator<std::_Container_proxy>::construct<std::_Container_proxy,std::_Container_proxy>
; Line 774
  00056	48 8d a5 c8 00
	00 00		 lea	 rsp, QWORD PTR [rbp+200]
  0005d	5f		 pop	 rdi
  0005e	5d		 pop	 rbp
  0005f	c3		 ret	 0
??$construct@U_Container_proxy@std@@U12@@?$allocator_traits@V?$allocator@U_Container_proxy@std@@@std@@@std@@SAXAEAV?$allocator@U_Container_proxy@std@@@1@PEAU_Container_proxy@1@$$QEAU31@@Z ENDP ; std::allocator_traits<std::allocator<std::_Container_proxy> >::construct<std::_Container_proxy,std::_Container_proxy>
_TEXT	ENDS
; Function compile flags: /Odtp /RTCsu /ZI
;	COMDAT ??$forward@U_Container_proxy@std@@@std@@YA$$QEAU_Container_proxy@0@AEAU10@@Z
_TEXT	SEGMENT
_Arg$ = 224
??$forward@U_Container_proxy@std@@@std@@YA$$QEAU_Container_proxy@0@AEAU10@@Z PROC ; std::forward<std::_Container_proxy>, COMDAT
; File d:\appdata\vsp\vc\include\type_traits
; Line 1233
$LN3:
  00000	48 89 4c 24 08	 mov	 QWORD PTR [rsp+8], rcx
  00005	55		 push	 rbp
  00006	57		 push	 rdi
  00007	48 81 ec c8 00
	00 00		 sub	 rsp, 200		; 000000c8H
  0000e	48 8b ec	 mov	 rbp, rsp
  00011	48 8b fc	 mov	 rdi, rsp
  00014	b9 32 00 00 00	 mov	 ecx, 50			; 00000032H
  00019	b8 cc cc cc cc	 mov	 eax, -858993460		; ccccccccH
  0001e	f3 ab		 rep stosd
  00020	48 8b 8c 24 e8
	00 00 00	 mov	 rcx, QWORD PTR [rsp+232]
; Line 1234
  00028	48 8b 85 e0 00
	00 00		 mov	 rax, QWORD PTR _Arg$[rbp]
; Line 1235
  0002f	48 8d a5 c8 00
	00 00		 lea	 rsp, QWORD PTR [rbp+200]
  00036	5f		 pop	 rdi
  00037	5d		 pop	 rbp
  00038	c3		 ret	 0
??$forward@U_Container_proxy@std@@@std@@YA$$QEAU_Container_proxy@0@AEAU10@@Z ENDP ; std::forward<std::_Container_proxy>
_TEXT	ENDS
; Function compile flags: /Odtp /RTCsu /ZI
;	COMDAT ??$destroy@U_Container_proxy@std@@@?$allocator_traits@V?$allocator@U_Container_proxy@std@@@std@@@std@@SAXAEAV?$allocator@U_Container_proxy@std@@@1@PEAU_Container_proxy@1@@Z
_TEXT	SEGMENT
_Al$ = 224
_Ptr$ = 232
??$destroy@U_Container_proxy@std@@@?$allocator_traits@V?$allocator@U_Container_proxy@std@@@std@@@std@@SAXAEAV?$allocator@U_Container_proxy@std@@@1@PEAU_Container_proxy@1@@Z PROC ; std::allocator_traits<std::allocator<std::_Container_proxy> >::destroy<std::_Container_proxy>, COMDAT
; File d:\appdata\vsp\vc\include\xmemory0
; Line 779
$LN3:
  00000	48 89 54 24 10	 mov	 QWORD PTR [rsp+16], rdx
  00005	48 89 4c 24 08	 mov	 QWORD PTR [rsp+8], rcx
  0000a	55		 push	 rbp
  0000b	57		 push	 rdi
  0000c	48 81 ec e8 00
	00 00		 sub	 rsp, 232		; 000000e8H
  00013	48 8d 6c 24 20	 lea	 rbp, QWORD PTR [rsp+32]
  00018	48 8b fc	 mov	 rdi, rsp
  0001b	b9 3a 00 00 00	 mov	 ecx, 58			; 0000003aH
  00020	b8 cc cc cc cc	 mov	 eax, -858993460		; ccccccccH
  00025	f3 ab		 rep stosd
  00027	48 8b 8c 24 08
	01 00 00	 mov	 rcx, QWORD PTR [rsp+264]
; Line 780
  0002f	48 8b 95 e8 00
	00 00		 mov	 rdx, QWORD PTR _Ptr$[rbp]
  00036	48 8b 8d e0 00
	00 00		 mov	 rcx, QWORD PTR _Al$[rbp]
  0003d	e8 00 00 00 00	 call	 ??$destroy@U_Container_proxy@std@@@?$allocator@U_Container_proxy@std@@@std@@QEAAXPEAU_Container_proxy@1@@Z ; std::allocator<std::_Container_proxy>::destroy<std::_Container_proxy>
; Line 781
  00042	48 8d a5 c8 00
	00 00		 lea	 rsp, QWORD PTR [rbp+200]
  00049	5f		 pop	 rdi
  0004a	5d		 pop	 rbp
  0004b	c3		 ret	 0
??$destroy@U_Container_proxy@std@@@?$allocator_traits@V?$allocator@U_Container_proxy@std@@@std@@@std@@SAXAEAV?$allocator@U_Container_proxy@std@@@1@PEAU_Container_proxy@1@@Z ENDP ; std::allocator_traits<std::allocator<std::_Container_proxy> >::destroy<std::_Container_proxy>
_TEXT	ENDS
; Function compile flags: /Odtp /RTCsu /ZI
;	COMDAT ??$construct@PEADAEAPEAD@?$allocator_traits@V?$allocator@D@std@@@std@@SAXAEAV?$allocator@D@1@PEAPEADAEAPEAD@Z
_TEXT	SEGMENT
_Al$ = 224
_Ptr$ = 232
<_Args_0>$ = 240
??$construct@PEADAEAPEAD@?$allocator_traits@V?$allocator@D@std@@@std@@SAXAEAV?$allocator@D@1@PEAPEADAEAPEAD@Z PROC ; std::allocator_traits<std::allocator<char> >::construct<char * __ptr64,char * __ptr64 & __ptr64>, COMDAT
; File d:\appdata\vsp\vc\include\xmemory0
; Line 772
$LN3:
  00000	4c 89 44 24 18	 mov	 QWORD PTR [rsp+24], r8
  00005	48 89 54 24 10	 mov	 QWORD PTR [rsp+16], rdx
  0000a	48 89 4c 24 08	 mov	 QWORD PTR [rsp+8], rcx
  0000f	55		 push	 rbp
  00010	57		 push	 rdi
  00011	48 81 ec e8 00
	00 00		 sub	 rsp, 232		; 000000e8H
  00018	48 8d 6c 24 20	 lea	 rbp, QWORD PTR [rsp+32]
  0001d	48 8b fc	 mov	 rdi, rsp
  00020	b9 3a 00 00 00	 mov	 ecx, 58			; 0000003aH
  00025	b8 cc cc cc cc	 mov	 eax, -858993460		; ccccccccH
  0002a	f3 ab		 rep stosd
  0002c	48 8b 8c 24 08
	01 00 00	 mov	 rcx, QWORD PTR [rsp+264]
; Line 773
  00034	48 8b 8d f0 00
	00 00		 mov	 rcx, QWORD PTR <_Args_0>$[rbp]
  0003b	e8 00 00 00 00	 call	 ??$forward@AEAPEAD@std@@YAAEAPEADAEAPEAD@Z ; std::forward<char * __ptr64 & __ptr64>
  00040	4c 8b c0	 mov	 r8, rax
  00043	48 8b 95 e8 00
	00 00		 mov	 rdx, QWORD PTR _Ptr$[rbp]
  0004a	48 8b 8d e0 00
	00 00		 mov	 rcx, QWORD PTR _Al$[rbp]
  00051	e8 00 00 00 00	 call	 ??$construct@PEADAEAPEAD@?$allocator@D@std@@QEAAXPEAPEADAEAPEAD@Z ; std::allocator<char>::construct<char * __ptr64,char * __ptr64 & __ptr64>
; Line 774
  00056	48 8d a5 c8 00
	00 00		 lea	 rsp, QWORD PTR [rbp+200]
  0005d	5f		 pop	 rdi
  0005e	5d		 pop	 rbp
  0005f	c3		 ret	 0
??$construct@PEADAEAPEAD@?$allocator_traits@V?$allocator@D@std@@@std@@SAXAEAV?$allocator@D@1@PEAPEADAEAPEAD@Z ENDP ; std::allocator_traits<std::allocator<char> >::construct<char * __ptr64,char * __ptr64 & __ptr64>
_TEXT	ENDS
; Function compile flags: /Odtp /RTCsu /ZI
;	COMDAT ??$forward@AEAPEAD@std@@YAAEAPEADAEAPEAD@Z
_TEXT	SEGMENT
_Arg$ = 224
??$forward@AEAPEAD@std@@YAAEAPEADAEAPEAD@Z PROC		; std::forward<char * __ptr64 & __ptr64>, COMDAT
; File d:\appdata\vsp\vc\include\type_traits
; Line 1233
$LN3:
  00000	48 89 4c 24 08	 mov	 QWORD PTR [rsp+8], rcx
  00005	55		 push	 rbp
  00006	57		 push	 rdi
  00007	48 81 ec c8 00
	00 00		 sub	 rsp, 200		; 000000c8H
  0000e	48 8b ec	 mov	 rbp, rsp
  00011	48 8b fc	 mov	 rdi, rsp
  00014	b9 32 00 00 00	 mov	 ecx, 50			; 00000032H
  00019	b8 cc cc cc cc	 mov	 eax, -858993460		; ccccccccH
  0001e	f3 ab		 rep stosd
  00020	48 8b 8c 24 e8
	00 00 00	 mov	 rcx, QWORD PTR [rsp+232]
; Line 1234
  00028	48 8b 85 e0 00
	00 00		 mov	 rax, QWORD PTR _Arg$[rbp]
; Line 1235
  0002f	48 8d a5 c8 00
	00 00		 lea	 rsp, QWORD PTR [rbp+200]
  00036	5f		 pop	 rdi
  00037	5d		 pop	 rbp
  00038	c3		 ret	 0
??$forward@AEAPEAD@std@@YAAEAPEADAEAPEAD@Z ENDP		; std::forward<char * __ptr64 & __ptr64>
_TEXT	ENDS
; Function compile flags: /Odtp /RTCsu /ZI
;	COMDAT ??$_Addressof@D@std@@YAPEADAEADU?$integral_constant@_N$0A@@0@@Z
_TEXT	SEGMENT
_Val$ = 224
__formal$ = 232
??$_Addressof@D@std@@YAPEADAEADU?$integral_constant@_N$0A@@0@@Z PROC ; std::_Addressof<char>, COMDAT
; File d:\appdata\vsp\vc\include\xstddef
; Line 688
$LN3:
  00000	88 54 24 10	 mov	 BYTE PTR [rsp+16], dl
  00004	48 89 4c 24 08	 mov	 QWORD PTR [rsp+8], rcx
  00009	55		 push	 rbp
  0000a	57		 push	 rdi
  0000b	48 81 ec c8 00
	00 00		 sub	 rsp, 200		; 000000c8H
  00012	48 8b ec	 mov	 rbp, rsp
  00015	48 8b fc	 mov	 rdi, rsp
  00018	b9 32 00 00 00	 mov	 ecx, 50			; 00000032H
  0001d	b8 cc cc cc cc	 mov	 eax, -858993460		; ccccccccH
  00022	f3 ab		 rep stosd
  00024	48 8b 8c 24 e8
	00 00 00	 mov	 rcx, QWORD PTR [rsp+232]
; Line 689
  0002c	48 8b 85 e0 00
	00 00		 mov	 rax, QWORD PTR _Val$[rbp]
; Line 692
  00033	48 8d a5 c8 00
	00 00		 lea	 rsp, QWORD PTR [rbp+200]
  0003a	5f		 pop	 rdi
  0003b	5d		 pop	 rbp
  0003c	c3		 ret	 0
??$_Addressof@D@std@@YAPEADAEADU?$integral_constant@_N$0A@@0@@Z ENDP ; std::_Addressof<char>
_TEXT	ENDS
; Function compile flags: /Odtp /RTCsu /ZI
;	COMDAT ??$destroy@PEAD@?$allocator_traits@V?$allocator@D@std@@@std@@SAXAEAV?$allocator@D@1@PEAPEAD@Z
_TEXT	SEGMENT
_Al$ = 224
_Ptr$ = 232
??$destroy@PEAD@?$allocator_traits@V?$allocator@D@std@@@std@@SAXAEAV?$allocator@D@1@PEAPEAD@Z PROC ; std::allocator_traits<std::allocator<char> >::destroy<char * __ptr64>, COMDAT
; File d:\appdata\vsp\vc\include\xmemory0
; Line 779
$LN3:
  00000	48 89 54 24 10	 mov	 QWORD PTR [rsp+16], rdx
  00005	48 89 4c 24 08	 mov	 QWORD PTR [rsp+8], rcx
  0000a	55		 push	 rbp
  0000b	57		 push	 rdi
  0000c	48 81 ec e8 00
	00 00		 sub	 rsp, 232		; 000000e8H
  00013	48 8d 6c 24 20	 lea	 rbp, QWORD PTR [rsp+32]
  00018	48 8b fc	 mov	 rdi, rsp
  0001b	b9 3a 00 00 00	 mov	 ecx, 58			; 0000003aH
  00020	b8 cc cc cc cc	 mov	 eax, -858993460		; ccccccccH
  00025	f3 ab		 rep stosd
  00027	48 8b 8c 24 08
	01 00 00	 mov	 rcx, QWORD PTR [rsp+264]
; Line 780
  0002f	48 8b 95 e8 00
	00 00		 mov	 rdx, QWORD PTR _Ptr$[rbp]
  00036	48 8b 8d e0 00
	00 00		 mov	 rcx, QWORD PTR _Al$[rbp]
  0003d	e8 00 00 00 00	 call	 ??$destroy@PEAD@?$allocator@D@std@@QEAAXPEAPEAD@Z ; std::allocator<char>::destroy<char * __ptr64>
; Line 781
  00042	48 8d a5 c8 00
	00 00		 lea	 rsp, QWORD PTR [rbp+200]
  00049	5f		 pop	 rdi
  0004a	5d		 pop	 rbp
  0004b	c3		 ret	 0
??$destroy@PEAD@?$allocator_traits@V?$allocator@D@std@@@std@@SAXAEAV?$allocator@D@1@PEAPEAD@Z ENDP ; std::allocator_traits<std::allocator<char> >::destroy<char * __ptr64>
_TEXT	ENDS
; Function compile flags: /Odtp /RTCsu /ZI
;	COMDAT ??$forward@AEBV?$allocator@D@std@@@std@@YAAEBV?$allocator@D@0@AEBV10@@Z
_TEXT	SEGMENT
_Arg$ = 224
??$forward@AEBV?$allocator@D@std@@@std@@YAAEBV?$allocator@D@0@AEBV10@@Z PROC ; std::forward<std::allocator<char> const & __ptr64>, COMDAT
; File d:\appdata\vsp\vc\include\type_traits
; Line 1233
$LN3:
  00000	48 89 4c 24 08	 mov	 QWORD PTR [rsp+8], rcx
  00005	55		 push	 rbp
  00006	57		 push	 rdi
  00007	48 81 ec c8 00
	00 00		 sub	 rsp, 200		; 000000c8H
  0000e	48 8b ec	 mov	 rbp, rsp
  00011	48 8b fc	 mov	 rdi, rsp
  00014	b9 32 00 00 00	 mov	 ecx, 50			; 00000032H
  00019	b8 cc cc cc cc	 mov	 eax, -858993460		; ccccccccH
  0001e	f3 ab		 rep stosd
  00020	48 8b 8c 24 e8
	00 00 00	 mov	 rcx, QWORD PTR [rsp+232]
; Line 1234
  00028	48 8b 85 e0 00
	00 00		 mov	 rax, QWORD PTR _Arg$[rbp]
; Line 1235
  0002f	48 8d a5 c8 00
	00 00		 lea	 rsp, QWORD PTR [rbp+200]
  00036	5f		 pop	 rdi
  00037	5d		 pop	 rbp
  00038	c3		 ret	 0
??$forward@AEBV?$allocator@D@std@@@std@@YAAEBV?$allocator@D@0@AEBV10@@Z ENDP ; std::forward<std::allocator<char> const & __ptr64>
_TEXT	ENDS
; Function compile flags: /Odtp /RTCsu /ZI
;	COMDAT ??$forward@V?$allocator@D@std@@@std@@YA$$QEAV?$allocator@D@0@AEAV10@@Z
_TEXT	SEGMENT
_Arg$ = 224
??$forward@V?$allocator@D@std@@@std@@YA$$QEAV?$allocator@D@0@AEAV10@@Z PROC ; std::forward<std::allocator<char> >, COMDAT
; File d:\appdata\vsp\vc\include\type_traits
; Line 1233
$LN3:
  00000	48 89 4c 24 08	 mov	 QWORD PTR [rsp+8], rcx
  00005	55		 push	 rbp
  00006	57		 push	 rdi
  00007	48 81 ec c8 00
	00 00		 sub	 rsp, 200		; 000000c8H
  0000e	48 8b ec	 mov	 rbp, rsp
  00011	48 8b fc	 mov	 rdi, rsp
  00014	b9 32 00 00 00	 mov	 ecx, 50			; 00000032H
  00019	b8 cc cc cc cc	 mov	 eax, -858993460		; ccccccccH
  0001e	f3 ab		 rep stosd
  00020	48 8b 8c 24 e8
	00 00 00	 mov	 rcx, QWORD PTR [rsp+232]
; Line 1234
  00028	48 8b 85 e0 00
	00 00		 mov	 rax, QWORD PTR _Arg$[rbp]
; Line 1235
  0002f	48 8d a5 c8 00
	00 00		 lea	 rsp, QWORD PTR [rbp+200]
  00036	5f		 pop	 rdi
  00037	5d		 pop	 rbp
  00038	c3		 ret	 0
??$forward@V?$allocator@D@std@@@std@@YA$$QEAV?$allocator@D@0@AEAV10@@Z ENDP ; std::forward<std::allocator<char> >
_TEXT	ENDS
; Function compile flags: /Odtp /RTCsu /ZI
;	COMDAT ??1sentry@?$basic_istream@DU?$char_traits@D@std@@@std@@QEAA@XZ
_TEXT	SEGMENT
this$ = 224
??1sentry@?$basic_istream@DU?$char_traits@D@std@@@std@@QEAA@XZ PROC ; std::basic_istream<char,std::char_traits<char> >::sentry::~sentry, COMDAT
$LN3:
  00000	48 89 4c 24 08	 mov	 QWORD PTR [rsp+8], rcx
  00005	55		 push	 rbp
  00006	57		 push	 rdi
  00007	48 81 ec e8 00
	00 00		 sub	 rsp, 232		; 000000e8H
  0000e	48 8d 6c 24 20	 lea	 rbp, QWORD PTR [rsp+32]
  00013	48 8b fc	 mov	 rdi, rsp
  00016	b9 3a 00 00 00	 mov	 ecx, 58			; 0000003aH
  0001b	b8 cc cc cc cc	 mov	 eax, -858993460		; ccccccccH
  00020	f3 ab		 rep stosd
  00022	48 8b 8c 24 08
	01 00 00	 mov	 rcx, QWORD PTR [rsp+264]
  0002a	48 8b 8d e0 00
	00 00		 mov	 rcx, QWORD PTR this$[rbp]
  00031	e8 00 00 00 00	 call	 ??1_Sentry_base@?$basic_istream@DU?$char_traits@D@std@@@std@@QEAA@XZ ; std::basic_istream<char,std::char_traits<char> >::_Sentry_base::~_Sentry_base
  00036	48 8d a5 c8 00
	00 00		 lea	 rsp, QWORD PTR [rbp+200]
  0003d	5f		 pop	 rdi
  0003e	5d		 pop	 rbp
  0003f	c3		 ret	 0
??1sentry@?$basic_istream@DU?$char_traits@D@std@@@std@@QEAA@XZ ENDP ; std::basic_istream<char,std::char_traits<char> >::sentry::~sentry
_TEXT	ENDS
; Function compile flags: /Odtp /RTCsu /ZI
;	COMDAT ??Bsentry@?$basic_istream@DU?$char_traits@D@std@@@std@@QEBA_NXZ
_TEXT	SEGMENT
this$ = 224
??Bsentry@?$basic_istream@DU?$char_traits@D@std@@@std@@QEBA_NXZ PROC ; std::basic_istream<char,std::char_traits<char> >::sentry::operator bool, COMDAT
; File d:\appdata\vsp\vc\include\istream
; Line 122
$LN3:
  00000	48 89 4c 24 08	 mov	 QWORD PTR [rsp+8], rcx
  00005	55		 push	 rbp
  00006	57		 push	 rdi
  00007	48 81 ec c8 00
	00 00		 sub	 rsp, 200		; 000000c8H
  0000e	48 8b ec	 mov	 rbp, rsp
  00011	48 8b fc	 mov	 rdi, rsp
  00014	b9 32 00 00 00	 mov	 ecx, 50			; 00000032H
  00019	b8 cc cc cc cc	 mov	 eax, -858993460		; ccccccccH
  0001e	f3 ab		 rep stosd
  00020	48 8b 8c 24 e8
	00 00 00	 mov	 rcx, QWORD PTR [rsp+232]
; Line 123
  00028	48 8b 85 e0 00
	00 00		 mov	 rax, QWORD PTR this$[rbp]
  0002f	0f b6 40 08	 movzx	 eax, BYTE PTR [rax+8]
; Line 124
  00033	48 8d a5 c8 00
	00 00		 lea	 rsp, QWORD PTR [rbp+200]
  0003a	5f		 pop	 rdi
  0003b	5d		 pop	 rbp
  0003c	c3		 ret	 0
??Bsentry@?$basic_istream@DU?$char_traits@D@std@@@std@@QEBA_NXZ ENDP ; std::basic_istream<char,std::char_traits<char> >::sentry::operator bool
_TEXT	ENDS
; Function compile flags: /Odtp /RTCsu /ZI
;	COMDAT ??0sentry@?$basic_istream@DU?$char_traits@D@std@@@std@@QEAA@AEAV12@_N@Z
_TEXT	SEGMENT
$T1 = 200
this$ = 256
_Istr$ = 264
_Noskip$ = 272
??0sentry@?$basic_istream@DU?$char_traits@D@std@@@std@@QEAA@AEAV12@_N@Z PROC ; std::basic_istream<char,std::char_traits<char> >::sentry::sentry, COMDAT
; File d:\appdata\vsp\vc\include\istream
; Line 117
$LN4:
  00000	44 88 44 24 18	 mov	 BYTE PTR [rsp+24], r8b
  00005	48 89 54 24 10	 mov	 QWORD PTR [rsp+16], rdx
  0000a	48 89 4c 24 08	 mov	 QWORD PTR [rsp+8], rcx
  0000f	55		 push	 rbp
  00010	57		 push	 rdi
  00011	48 81 ec 08 01
	00 00		 sub	 rsp, 264		; 00000108H
  00018	48 8d 6c 24 20	 lea	 rbp, QWORD PTR [rsp+32]
  0001d	48 8b fc	 mov	 rdi, rsp
  00020	b9 42 00 00 00	 mov	 ecx, 66			; 00000042H
  00025	b8 cc cc cc cc	 mov	 eax, -858993460		; ccccccccH
  0002a	f3 ab		 rep stosd
  0002c	48 8b 8c 24 28
	01 00 00	 mov	 rcx, QWORD PTR [rsp+296]
  00034	48 c7 85 c8 00
	00 00 fe ff ff
	ff		 mov	 QWORD PTR $T1[rbp], -2
; Line 116
  0003f	48 8b 95 08 01
	00 00		 mov	 rdx, QWORD PTR _Istr$[rbp]
  00046	48 8b 8d 00 01
	00 00		 mov	 rcx, QWORD PTR this$[rbp]
  0004d	e8 00 00 00 00	 call	 ??0_Sentry_base@?$basic_istream@DU?$char_traits@D@std@@@std@@QEAA@AEAV12@@Z ; std::basic_istream<char,std::char_traits<char> >::_Sentry_base::_Sentry_base
  00052	90		 npad	 1
; Line 118
  00053	0f b6 95 10 01
	00 00		 movzx	 edx, BYTE PTR _Noskip$[rbp]
  0005a	48 8b 85 00 01
	00 00		 mov	 rax, QWORD PTR this$[rbp]
  00061	48 8b 08	 mov	 rcx, QWORD PTR [rax]
  00064	ff 15 00 00 00
	00		 call	 QWORD PTR __imp_?_Ipfx@?$basic_istream@DU?$char_traits@D@std@@@std@@QEAA_N_N@Z
  0006a	48 8b 8d 00 01
	00 00		 mov	 rcx, QWORD PTR this$[rbp]
  00071	88 41 08	 mov	 BYTE PTR [rcx+8], al
; Line 119
  00074	48 8b 85 00 01
	00 00		 mov	 rax, QWORD PTR this$[rbp]
  0007b	48 8d a5 e8 00
	00 00		 lea	 rsp, QWORD PTR [rbp+232]
  00082	5f		 pop	 rdi
  00083	5d		 pop	 rbp
  00084	c3		 ret	 0
??0sentry@?$basic_istream@DU?$char_traits@D@std@@@std@@QEAA@AEAV12@_N@Z ENDP ; std::basic_istream<char,std::char_traits<char> >::sentry::sentry
_TEXT	ENDS
;	COMDAT text$x
text$x	SEGMENT
$T1 = 200
this$ = 256
_Istr$ = 264
_Noskip$ = 272
?dtor$0@?0???0sentry@?$basic_istream@DU?$char_traits@D@std@@@std@@QEAA@AEAV12@_N@Z@4HA PROC ; `std::basic_istream<char,std::char_traits<char> >::sentry::sentry'::`1'::dtor$0
  00000	48 89 4c 24 08	 mov	 QWORD PTR [rsp+8], rcx
  00005	48 89 54 24 10	 mov	 QWORD PTR [rsp+16], rdx
  0000a	55		 push	 rbp
  0000b	57		 push	 rdi
  0000c	48 83 ec 28	 sub	 rsp, 40			; 00000028H
  00010	48 8d 6a 20	 lea	 rbp, QWORD PTR [rdx+32]
  00014	48 8b 8d 00 01
	00 00		 mov	 rcx, QWORD PTR this$[rbp]
  0001b	e8 00 00 00 00	 call	 ??1_Sentry_base@?$basic_istream@DU?$char_traits@D@std@@@std@@QEAA@XZ ; std::basic_istream<char,std::char_traits<char> >::_Sentry_base::~_Sentry_base
  00020	48 83 c4 28	 add	 rsp, 40			; 00000028H
  00024	5f		 pop	 rdi
  00025	5d		 pop	 rbp
  00026	c3		 ret	 0
?dtor$0@?0???0sentry@?$basic_istream@DU?$char_traits@D@std@@@std@@QEAA@AEAV12@_N@Z@4HA ENDP ; `std::basic_istream<char,std::char_traits<char> >::sentry::sentry'::`1'::dtor$0
text$x	ENDS
; Function compile flags: /Odtp /RTCsu /ZI
;	COMDAT text$x
text$x	SEGMENT
$T1 = 200
this$ = 256
_Istr$ = 264
_Noskip$ = 272
?dtor$0@?0???0sentry@?$basic_istream@DU?$char_traits@D@std@@@std@@QEAA@AEAV12@_N@Z@4HA PROC ; `std::basic_istream<char,std::char_traits<char> >::sentry::sentry'::`1'::dtor$0
  00000	48 89 4c 24 08	 mov	 QWORD PTR [rsp+8], rcx
  00005	48 89 54 24 10	 mov	 QWORD PTR [rsp+16], rdx
  0000a	55		 push	 rbp
  0000b	57		 push	 rdi
  0000c	48 83 ec 28	 sub	 rsp, 40			; 00000028H
  00010	48 8d 6a 20	 lea	 rbp, QWORD PTR [rdx+32]
  00014	48 8b 8d 00 01
	00 00		 mov	 rcx, QWORD PTR this$[rbp]
  0001b	e8 00 00 00 00	 call	 ??1_Sentry_base@?$basic_istream@DU?$char_traits@D@std@@@std@@QEAA@XZ ; std::basic_istream<char,std::char_traits<char> >::_Sentry_base::~_Sentry_base
  00020	48 83 c4 28	 add	 rsp, 40			; 00000028H
  00024	5f		 pop	 rdi
  00025	5d		 pop	 rbp
  00026	c3		 ret	 0
?dtor$0@?0???0sentry@?$basic_istream@DU?$char_traits@D@std@@@std@@QEAA@AEAV12@_N@Z@4HA ENDP ; `std::basic_istream<char,std::char_traits<char> >::sentry::sentry'::`1'::dtor$0
text$x	ENDS
; Function compile flags: /Odtp /RTCsu /ZI
;	COMDAT ??1_Sentry_base@?$basic_istream@DU?$char_traits@D@std@@@std@@QEAA@XZ
_TEXT	SEGMENT
$T1 = 200
tv87 = 216
tv72 = 216
tv94 = 224
this$ = 272
??1_Sentry_base@?$basic_istream@DU?$char_traits@D@std@@@std@@QEAA@XZ PROC ; std::basic_istream<char,std::char_traits<char> >::_Sentry_base::~_Sentry_base, COMDAT
; File d:\appdata\vsp\vc\include\istream
; Line 100
$LN4:
  00000	48 89 4c 24 08	 mov	 QWORD PTR [rsp+8], rcx
  00005	55		 push	 rbp
  00006	57		 push	 rdi
  00007	48 81 ec 18 01
	00 00		 sub	 rsp, 280		; 00000118H
  0000e	48 8d 6c 24 20	 lea	 rbp, QWORD PTR [rsp+32]
  00013	48 8b fc	 mov	 rdi, rsp
  00016	b9 46 00 00 00	 mov	 ecx, 70			; 00000046H
  0001b	b8 cc cc cc cc	 mov	 eax, -858993460		; ccccccccH
  00020	f3 ab		 rep stosd
  00022	48 8b 8c 24 38
	01 00 00	 mov	 rcx, QWORD PTR [rsp+312]
  0002a	48 c7 85 c8 00
	00 00 fe ff ff
	ff		 mov	 QWORD PTR $T1[rbp], -2
; Line 101
  00035	48 8b 85 10 01
	00 00		 mov	 rax, QWORD PTR this$[rbp]
  0003c	48 8b 00	 mov	 rax, QWORD PTR [rax]
  0003f	48 89 85 d8 00
	00 00		 mov	 QWORD PTR tv72[rbp], rax
  00046	48 8b 85 d8 00
	00 00		 mov	 rax, QWORD PTR tv72[rbp]
  0004d	48 8b 00	 mov	 rax, QWORD PTR [rax]
  00050	48 63 40 04	 movsxd	 rax, DWORD PTR [rax+4]
  00054	48 8b 8d d8 00
	00 00		 mov	 rcx, QWORD PTR tv72[rbp]
  0005b	48 03 c8	 add	 rcx, rax
  0005e	48 8b c1	 mov	 rax, rcx
  00061	48 8b c8	 mov	 rcx, rax
  00064	ff 15 00 00 00
	00		 call	 QWORD PTR __imp_?rdbuf@?$basic_ios@DU?$char_traits@D@std@@@std@@QEBAPEAV?$basic_streambuf@DU?$char_traits@D@std@@@2@XZ
  0006a	90		 npad	 1
  0006b	48 85 c0	 test	 rax, rax
  0006e	74 52		 je	 SHORT $LN2@Sentry_bas
; Line 102
  00070	48 8b 85 10 01
	00 00		 mov	 rax, QWORD PTR this$[rbp]
  00077	48 8b 00	 mov	 rax, QWORD PTR [rax]
  0007a	48 89 85 d8 00
	00 00		 mov	 QWORD PTR tv87[rbp], rax
  00081	48 8b 85 d8 00
	00 00		 mov	 rax, QWORD PTR tv87[rbp]
  00088	48 8b 00	 mov	 rax, QWORD PTR [rax]
  0008b	48 63 40 04	 movsxd	 rax, DWORD PTR [rax+4]
  0008f	48 8b 8d d8 00
	00 00		 mov	 rcx, QWORD PTR tv87[rbp]
  00096	48 03 c8	 add	 rcx, rax
  00099	48 8b c1	 mov	 rax, rcx
  0009c	48 8b c8	 mov	 rcx, rax
  0009f	ff 15 00 00 00
	00		 call	 QWORD PTR __imp_?rdbuf@?$basic_ios@DU?$char_traits@D@std@@@std@@QEBAPEAV?$basic_streambuf@DU?$char_traits@D@std@@@2@XZ
  000a5	90		 npad	 1
  000a6	48 89 85 e0 00
	00 00		 mov	 QWORD PTR tv94[rbp], rax
  000ad	48 8b 85 e0 00
	00 00		 mov	 rax, QWORD PTR tv94[rbp]
  000b4	48 8b 00	 mov	 rax, QWORD PTR [rax]
  000b7	48 8b 8d e0 00
	00 00		 mov	 rcx, QWORD PTR tv94[rbp]
  000be	ff 50 10	 call	 QWORD PTR [rax+16]
  000c1	90		 npad	 1
$LN2@Sentry_bas:
; Line 103
  000c2	48 8d a5 f8 00
	00 00		 lea	 rsp, QWORD PTR [rbp+248]
  000c9	5f		 pop	 rdi
  000ca	5d		 pop	 rbp
  000cb	c3		 ret	 0
??1_Sentry_base@?$basic_istream@DU?$char_traits@D@std@@@std@@QEAA@XZ ENDP ; std::basic_istream<char,std::char_traits<char> >::_Sentry_base::~_Sentry_base
_TEXT	ENDS
; Function compile flags: /Odtp /RTCsu /ZI
;	COMDAT ??0_Sentry_base@?$basic_istream@DU?$char_traits@D@std@@@std@@QEAA@AEAV12@@Z
_TEXT	SEGMENT
tv88 = 192
tv73 = 192
tv95 = 200
this$ = 240
_Istr$ = 248
??0_Sentry_base@?$basic_istream@DU?$char_traits@D@std@@@std@@QEAA@AEAV12@@Z PROC ; std::basic_istream<char,std::char_traits<char> >::_Sentry_base::_Sentry_base, COMDAT
; File d:\appdata\vsp\vc\include\istream
; Line 94
$LN4:
  00000	48 89 54 24 10	 mov	 QWORD PTR [rsp+16], rdx
  00005	48 89 4c 24 08	 mov	 QWORD PTR [rsp+8], rcx
  0000a	55		 push	 rbp
  0000b	57		 push	 rdi
  0000c	48 81 ec f8 00
	00 00		 sub	 rsp, 248		; 000000f8H
  00013	48 8d 6c 24 20	 lea	 rbp, QWORD PTR [rsp+32]
  00018	48 8b fc	 mov	 rdi, rsp
  0001b	b9 3e 00 00 00	 mov	 ecx, 62			; 0000003eH
  00020	b8 cc cc cc cc	 mov	 eax, -858993460		; ccccccccH
  00025	f3 ab		 rep stosd
  00027	48 8b 8c 24 18
	01 00 00	 mov	 rcx, QWORD PTR [rsp+280]
; Line 93
  0002f	48 8b 85 f0 00
	00 00		 mov	 rax, QWORD PTR this$[rbp]
  00036	48 8b 8d f8 00
	00 00		 mov	 rcx, QWORD PTR _Istr$[rbp]
  0003d	48 89 08	 mov	 QWORD PTR [rax], rcx
; Line 95
  00040	48 8b 85 f0 00
	00 00		 mov	 rax, QWORD PTR this$[rbp]
  00047	48 8b 00	 mov	 rax, QWORD PTR [rax]
  0004a	48 89 85 c0 00
	00 00		 mov	 QWORD PTR tv73[rbp], rax
  00051	48 8b 85 c0 00
	00 00		 mov	 rax, QWORD PTR tv73[rbp]
  00058	48 8b 00	 mov	 rax, QWORD PTR [rax]
  0005b	48 63 40 04	 movsxd	 rax, DWORD PTR [rax+4]
  0005f	48 8b 8d c0 00
	00 00		 mov	 rcx, QWORD PTR tv73[rbp]
  00066	48 03 c8	 add	 rcx, rax
  00069	48 8b c1	 mov	 rax, rcx
  0006c	48 8b c8	 mov	 rcx, rax
  0006f	ff 15 00 00 00
	00		 call	 QWORD PTR __imp_?rdbuf@?$basic_ios@DU?$char_traits@D@std@@@std@@QEBAPEAV?$basic_streambuf@DU?$char_traits@D@std@@@2@XZ
  00075	48 85 c0	 test	 rax, rax
  00078	74 50		 je	 SHORT $LN2@Sentry_bas
; Line 96
  0007a	48 8b 85 f0 00
	00 00		 mov	 rax, QWORD PTR this$[rbp]
  00081	48 8b 00	 mov	 rax, QWORD PTR [rax]
  00084	48 89 85 c0 00
	00 00		 mov	 QWORD PTR tv88[rbp], rax
  0008b	48 8b 85 c0 00
	00 00		 mov	 rax, QWORD PTR tv88[rbp]
  00092	48 8b 00	 mov	 rax, QWORD PTR [rax]
  00095	48 63 40 04	 movsxd	 rax, DWORD PTR [rax+4]
  00099	48 8b 8d c0 00
	00 00		 mov	 rcx, QWORD PTR tv88[rbp]
  000a0	48 03 c8	 add	 rcx, rax
  000a3	48 8b c1	 mov	 rax, rcx
  000a6	48 8b c8	 mov	 rcx, rax
  000a9	ff 15 00 00 00
	00		 call	 QWORD PTR __imp_?rdbuf@?$basic_ios@DU?$char_traits@D@std@@@std@@QEBAPEAV?$basic_streambuf@DU?$char_traits@D@std@@@2@XZ
  000af	48 89 85 c8 00
	00 00		 mov	 QWORD PTR tv95[rbp], rax
  000b6	48 8b 85 c8 00
	00 00		 mov	 rax, QWORD PTR tv95[rbp]
  000bd	48 8b 00	 mov	 rax, QWORD PTR [rax]
  000c0	48 8b 8d c8 00
	00 00		 mov	 rcx, QWORD PTR tv95[rbp]
  000c7	ff 50 08	 call	 QWORD PTR [rax+8]
$LN2@Sentry_bas:
; Line 97
  000ca	48 8b 85 f0 00
	00 00		 mov	 rax, QWORD PTR this$[rbp]
  000d1	48 8d a5 d8 00
	00 00		 lea	 rsp, QWORD PTR [rbp+216]
  000d8	5f		 pop	 rdi
  000d9	5d		 pop	 rbp
  000da	c3		 ret	 0
??0_Sentry_base@?$basic_istream@DU?$char_traits@D@std@@@std@@QEAA@AEAV12@@Z ENDP ; std::basic_istream<char,std::char_traits<char> >::_Sentry_base::_Sentry_base
_TEXT	ENDS
; Function compile flags: /Odtp /RTCsu /ZI
;	COMDAT ??$?0D@?$allocator@U_Container_proxy@std@@@std@@QEAA@AEBV?$allocator@D@1@@Z
_TEXT	SEGMENT
this$ = 224
__formal$ = 232
??$?0D@?$allocator@U_Container_proxy@std@@@std@@QEAA@AEBV?$allocator@D@1@@Z PROC ; std::allocator<std::_Container_proxy>::allocator<std::_Container_proxy><char>, COMDAT
; File d:\appdata\vsp\vc\include\xmemory0
; Line 627
$LN3:
  00000	48 89 54 24 10	 mov	 QWORD PTR [rsp+16], rdx
  00005	48 89 4c 24 08	 mov	 QWORD PTR [rsp+8], rcx
  0000a	55		 push	 rbp
  0000b	57		 push	 rdi
  0000c	48 81 ec c8 00
	00 00		 sub	 rsp, 200		; 000000c8H
  00013	48 8b ec	 mov	 rbp, rsp
  00016	48 8b fc	 mov	 rdi, rsp
  00019	b9 32 00 00 00	 mov	 ecx, 50			; 00000032H
  0001e	b8 cc cc cc cc	 mov	 eax, -858993460		; ccccccccH
  00023	f3 ab		 rep stosd
  00025	48 8b 8c 24 e8
	00 00 00	 mov	 rcx, QWORD PTR [rsp+232]
; Line 628
  0002d	48 8b 85 e0 00
	00 00		 mov	 rax, QWORD PTR this$[rbp]
  00034	48 8d a5 c8 00
	00 00		 lea	 rsp, QWORD PTR [rbp+200]
  0003b	5f		 pop	 rdi
  0003c	5d		 pop	 rbp
  0003d	c3		 ret	 0
??$?0D@?$allocator@U_Container_proxy@std@@@std@@QEAA@AEBV?$allocator@D@1@@Z ENDP ; std::allocator<std::_Container_proxy>::allocator<std::_Container_proxy><char>
_TEXT	ENDS
; Function compile flags: /Odtp /RTCsu /ZI
;	COMDAT ??$?0U?$_Wrap_alloc@V?$allocator@D@std@@@std@@@?$_Wrap_alloc@V?$allocator@U_Container_proxy@std@@@std@@@std@@QEAA@AEAU?$_Wrap_alloc@V?$allocator@D@std@@@1@@Z
_TEXT	SEGMENT
this$ = 224
_Right$ = 232
??$?0U?$_Wrap_alloc@V?$allocator@D@std@@@std@@@?$_Wrap_alloc@V?$allocator@U_Container_proxy@std@@@std@@@std@@QEAA@AEAU?$_Wrap_alloc@V?$allocator@D@std@@@1@@Z PROC ; std::_Wrap_alloc<std::allocator<std::_Container_proxy> >::_Wrap_alloc<std::allocator<std::_Container_proxy> ><std::_Wrap_alloc<std::allocator<char> > >, COMDAT
; File d:\appdata\vsp\vc\include\xmemory0
; Line 874
$LN3:
  00000	48 89 54 24 10	 mov	 QWORD PTR [rsp+16], rdx
  00005	48 89 4c 24 08	 mov	 QWORD PTR [rsp+8], rcx
  0000a	55		 push	 rbp
  0000b	57		 push	 rdi
  0000c	48 81 ec e8 00
	00 00		 sub	 rsp, 232		; 000000e8H
  00013	48 8d 6c 24 20	 lea	 rbp, QWORD PTR [rsp+32]
  00018	48 8b fc	 mov	 rdi, rsp
  0001b	b9 3a 00 00 00	 mov	 ecx, 58			; 0000003aH
  00020	b8 cc cc cc cc	 mov	 eax, -858993460		; ccccccccH
  00025	f3 ab		 rep stosd
  00027	48 8b 8c 24 08
	01 00 00	 mov	 rcx, QWORD PTR [rsp+264]
; Line 873
  0002f	48 8b 95 e8 00
	00 00		 mov	 rdx, QWORD PTR _Right$[rbp]
  00036	48 8b 8d e0 00
	00 00		 mov	 rcx, QWORD PTR this$[rbp]
  0003d	e8 00 00 00 00	 call	 ??$?0D@?$allocator@U_Container_proxy@std@@@std@@QEAA@AEBV?$allocator@D@1@@Z ; std::allocator<std::_Container_proxy>::allocator<std::_Container_proxy><char>
; Line 875
  00042	48 8b 85 e0 00
	00 00		 mov	 rax, QWORD PTR this$[rbp]
  00049	48 8d a5 c8 00
	00 00		 lea	 rsp, QWORD PTR [rbp+200]
  00050	5f		 pop	 rdi
  00051	5d		 pop	 rbp
  00052	c3		 ret	 0
??$?0U?$_Wrap_alloc@V?$allocator@D@std@@@std@@@?$_Wrap_alloc@V?$allocator@U_Container_proxy@std@@@std@@@std@@QEAA@AEAU?$_Wrap_alloc@V?$allocator@D@std@@@1@@Z ENDP ; std::_Wrap_alloc<std::allocator<std::_Container_proxy> >::_Wrap_alloc<std::allocator<std::_Container_proxy> ><std::_Wrap_alloc<std::allocator<char> > >
_TEXT	ENDS
; Function compile flags: /Odtp /RTCsu /ZI
;	COMDAT ??$construct@U_Container_proxy@std@@U12@@?$_Wrap_alloc@V?$allocator@U_Container_proxy@std@@@std@@@std@@QEAAXPEAU_Container_proxy@1@$$QEAU21@@Z
_TEXT	SEGMENT
this$ = 224
_Ptr$ = 232
<_Args_0>$ = 240
??$construct@U_Container_proxy@std@@U12@@?$_Wrap_alloc@V?$allocator@U_Container_proxy@std@@@std@@@std@@QEAAXPEAU_Container_proxy@1@$$QEAU21@@Z PROC ; std::_Wrap_alloc<std::allocator<std::_Container_proxy> >::construct<std::_Container_proxy,std::_Container_proxy>, COMDAT
; File d:\appdata\vsp\vc\include\xmemory0
; Line 916
$LN3:
  00000	4c 89 44 24 18	 mov	 QWORD PTR [rsp+24], r8
  00005	48 89 54 24 10	 mov	 QWORD PTR [rsp+16], rdx
  0000a	48 89 4c 24 08	 mov	 QWORD PTR [rsp+8], rcx
  0000f	55		 push	 rbp
  00010	57		 push	 rdi
  00011	48 81 ec e8 00
	00 00		 sub	 rsp, 232		; 000000e8H
  00018	48 8d 6c 24 20	 lea	 rbp, QWORD PTR [rsp+32]
  0001d	48 8b fc	 mov	 rdi, rsp
  00020	b9 3a 00 00 00	 mov	 ecx, 58			; 0000003aH
  00025	b8 cc cc cc cc	 mov	 eax, -858993460		; ccccccccH
  0002a	f3 ab		 rep stosd
  0002c	48 8b 8c 24 08
	01 00 00	 mov	 rcx, QWORD PTR [rsp+264]
; Line 917
  00034	48 8b 8d f0 00
	00 00		 mov	 rcx, QWORD PTR <_Args_0>$[rbp]
  0003b	e8 00 00 00 00	 call	 ??$forward@U_Container_proxy@std@@@std@@YA$$QEAU_Container_proxy@0@AEAU10@@Z ; std::forward<std::_Container_proxy>
  00040	4c 8b c0	 mov	 r8, rax
  00043	48 8b 95 e8 00
	00 00		 mov	 rdx, QWORD PTR _Ptr$[rbp]
  0004a	48 8b 8d e0 00
	00 00		 mov	 rcx, QWORD PTR this$[rbp]
  00051	e8 00 00 00 00	 call	 ??$construct@U_Container_proxy@std@@U12@@?$allocator_traits@V?$allocator@U_Container_proxy@std@@@std@@@std@@SAXAEAV?$allocator@U_Container_proxy@std@@@1@PEAU_Container_proxy@1@$$QEAU31@@Z ; std::allocator_traits<std::allocator<std::_Container_proxy> >::construct<std::_Container_proxy,std::_Container_proxy>
; Line 919
  00056	48 8d a5 c8 00
	00 00		 lea	 rsp, QWORD PTR [rbp+200]
  0005d	5f		 pop	 rdi
  0005e	5d		 pop	 rbp
  0005f	c3		 ret	 0
??$construct@U_Container_proxy@std@@U12@@?$_Wrap_alloc@V?$allocator@U_Container_proxy@std@@@std@@@std@@QEAAXPEAU_Container_proxy@1@$$QEAU21@@Z ENDP ; std::_Wrap_alloc<std::allocator<std::_Container_proxy> >::construct<std::_Container_proxy,std::_Container_proxy>
_TEXT	ENDS
; Function compile flags: /Odtp /RTCsu /ZI
;	COMDAT ??$destroy@U_Container_proxy@std@@@?$_Wrap_alloc@V?$allocator@U_Container_proxy@std@@@std@@@std@@QEAAXPEAU_Container_proxy@1@@Z
_TEXT	SEGMENT
this$ = 224
_Ptr$ = 232
??$destroy@U_Container_proxy@std@@@?$_Wrap_alloc@V?$allocator@U_Container_proxy@std@@@std@@@std@@QEAAXPEAU_Container_proxy@1@@Z PROC ; std::_Wrap_alloc<std::allocator<std::_Container_proxy> >::destroy<std::_Container_proxy>, COMDAT
; File d:\appdata\vsp\vc\include\xmemory0
; Line 924
$LN3:
  00000	48 89 54 24 10	 mov	 QWORD PTR [rsp+16], rdx
  00005	48 89 4c 24 08	 mov	 QWORD PTR [rsp+8], rcx
  0000a	55		 push	 rbp
  0000b	57		 push	 rdi
  0000c	48 81 ec e8 00
	00 00		 sub	 rsp, 232		; 000000e8H
  00013	48 8d 6c 24 20	 lea	 rbp, QWORD PTR [rsp+32]
  00018	48 8b fc	 mov	 rdi, rsp
  0001b	b9 3a 00 00 00	 mov	 ecx, 58			; 0000003aH
  00020	b8 cc cc cc cc	 mov	 eax, -858993460		; ccccccccH
  00025	f3 ab		 rep stosd
  00027	48 8b 8c 24 08
	01 00 00	 mov	 rcx, QWORD PTR [rsp+264]
; Line 925
  0002f	48 8b 95 e8 00
	00 00		 mov	 rdx, QWORD PTR _Ptr$[rbp]
  00036	48 8b 8d e0 00
	00 00		 mov	 rcx, QWORD PTR this$[rbp]
  0003d	e8 00 00 00 00	 call	 ??$destroy@U_Container_proxy@std@@@?$allocator_traits@V?$allocator@U_Container_proxy@std@@@std@@@std@@SAXAEAV?$allocator@U_Container_proxy@std@@@1@PEAU_Container_proxy@1@@Z ; std::allocator_traits<std::allocator<std::_Container_proxy> >::destroy<std::_Container_proxy>
; Line 926
  00042	48 8d a5 c8 00
	00 00		 lea	 rsp, QWORD PTR [rbp+200]
  00049	5f		 pop	 rdi
  0004a	5d		 pop	 rbp
  0004b	c3		 ret	 0
??$destroy@U_Container_proxy@std@@@?$_Wrap_alloc@V?$allocator@U_Container_proxy@std@@@std@@@std@@QEAAXPEAU_Container_proxy@1@@Z ENDP ; std::_Wrap_alloc<std::allocator<std::_Container_proxy> >::destroy<std::_Container_proxy>
_TEXT	ENDS
; Function compile flags: /Odtp /RTCsu /ZI
;	COMDAT ?deallocate@?$_Wrap_alloc@V?$allocator@U_Container_proxy@std@@@std@@@std@@QEAAXPEAU_Container_proxy@2@_K@Z
_TEXT	SEGMENT
this$ = 224
_Ptr$ = 232
_Count$ = 240
?deallocate@?$_Wrap_alloc@V?$allocator@U_Container_proxy@std@@@std@@@std@@QEAAXPEAU_Container_proxy@2@_K@Z PROC ; std::_Wrap_alloc<std::allocator<std::_Container_proxy> >::deallocate, COMDAT
; File d:\appdata\vsp\vc\include\xmemory0
; Line 908
$LN3:
  00000	4c 89 44 24 18	 mov	 QWORD PTR [rsp+24], r8
  00005	48 89 54 24 10	 mov	 QWORD PTR [rsp+16], rdx
  0000a	48 89 4c 24 08	 mov	 QWORD PTR [rsp+8], rcx
  0000f	55		 push	 rbp
  00010	57		 push	 rdi
  00011	48 81 ec e8 00
	00 00		 sub	 rsp, 232		; 000000e8H
  00018	48 8d 6c 24 20	 lea	 rbp, QWORD PTR [rsp+32]
  0001d	48 8b fc	 mov	 rdi, rsp
  00020	b9 3a 00 00 00	 mov	 ecx, 58			; 0000003aH
  00025	b8 cc cc cc cc	 mov	 eax, -858993460		; ccccccccH
  0002a	f3 ab		 rep stosd
  0002c	48 8b 8c 24 08
	01 00 00	 mov	 rcx, QWORD PTR [rsp+264]
; Line 909
  00034	4c 8b 85 f0 00
	00 00		 mov	 r8, QWORD PTR _Count$[rbp]
  0003b	48 8b 95 e8 00
	00 00		 mov	 rdx, QWORD PTR _Ptr$[rbp]
  00042	48 8b 8d e0 00
	00 00		 mov	 rcx, QWORD PTR this$[rbp]
  00049	e8 00 00 00 00	 call	 ?deallocate@?$allocator@U_Container_proxy@std@@@std@@QEAAXPEAU_Container_proxy@2@_K@Z ; std::allocator<std::_Container_proxy>::deallocate
; Line 910
  0004e	48 8d a5 c8 00
	00 00		 lea	 rsp, QWORD PTR [rbp+200]
  00055	5f		 pop	 rdi
  00056	5d		 pop	 rbp
  00057	c3		 ret	 0
?deallocate@?$_Wrap_alloc@V?$allocator@U_Container_proxy@std@@@std@@@std@@QEAAXPEAU_Container_proxy@2@_K@Z ENDP ; std::_Wrap_alloc<std::allocator<std::_Container_proxy> >::deallocate
_TEXT	ENDS
; Function compile flags: /Odtp /RTCsu /ZI
;	COMDAT ?allocate@?$_Wrap_alloc@V?$allocator@U_Container_proxy@std@@@std@@@std@@QEAAPEAU_Container_proxy@2@_K@Z
_TEXT	SEGMENT
this$ = 224
_Count$ = 232
?allocate@?$_Wrap_alloc@V?$allocator@U_Container_proxy@std@@@std@@@std@@QEAAPEAU_Container_proxy@2@_K@Z PROC ; std::_Wrap_alloc<std::allocator<std::_Container_proxy> >::allocate, COMDAT
; File d:\appdata\vsp\vc\include\xmemory0
; Line 897
$LN3:
  00000	48 89 54 24 10	 mov	 QWORD PTR [rsp+16], rdx
  00005	48 89 4c 24 08	 mov	 QWORD PTR [rsp+8], rcx
  0000a	55		 push	 rbp
  0000b	57		 push	 rdi
  0000c	48 81 ec e8 00
	00 00		 sub	 rsp, 232		; 000000e8H
  00013	48 8d 6c 24 20	 lea	 rbp, QWORD PTR [rsp+32]
  00018	48 8b fc	 mov	 rdi, rsp
  0001b	b9 3a 00 00 00	 mov	 ecx, 58			; 0000003aH
  00020	b8 cc cc cc cc	 mov	 eax, -858993460		; ccccccccH
  00025	f3 ab		 rep stosd
  00027	48 8b 8c 24 08
	01 00 00	 mov	 rcx, QWORD PTR [rsp+264]
; Line 898
  0002f	48 8b 95 e8 00
	00 00		 mov	 rdx, QWORD PTR _Count$[rbp]
  00036	48 8b 8d e0 00
	00 00		 mov	 rcx, QWORD PTR this$[rbp]
  0003d	e8 00 00 00 00	 call	 ?allocate@?$allocator@U_Container_proxy@std@@@std@@QEAAPEAU_Container_proxy@2@_K@Z ; std::allocator<std::_Container_proxy>::allocate
; Line 899
  00042	48 8d a5 c8 00
	00 00		 lea	 rsp, QWORD PTR [rbp+200]
  00049	5f		 pop	 rdi
  0004a	5d		 pop	 rbp
  0004b	c3		 ret	 0
?allocate@?$_Wrap_alloc@V?$allocator@U_Container_proxy@std@@@std@@@std@@QEAAPEAU_Container_proxy@2@_K@Z ENDP ; std::_Wrap_alloc<std::allocator<std::_Container_proxy> >::allocate
_TEXT	ENDS
; Function compile flags: /Odtp /RTCsu /ZI
;	COMDAT ?allocate@?$allocator@U_Container_proxy@std@@@std@@QEAAPEAU_Container_proxy@2@_K@Z
_TEXT	SEGMENT
this$ = 224
_Count$ = 232
?allocate@?$allocator@U_Container_proxy@std@@@std@@QEAAPEAU_Container_proxy@2@_K@Z PROC ; std::allocator<std::_Container_proxy>::allocate, COMDAT
; File d:\appdata\vsp\vc\include\xmemory0
; Line 642
$LN3:
  00000	48 89 54 24 10	 mov	 QWORD PTR [rsp+16], rdx
  00005	48 89 4c 24 08	 mov	 QWORD PTR [rsp+8], rcx
  0000a	55		 push	 rbp
  0000b	57		 push	 rdi
  0000c	48 81 ec e8 00
	00 00		 sub	 rsp, 232		; 000000e8H
  00013	48 8d 6c 24 20	 lea	 rbp, QWORD PTR [rsp+32]
  00018	48 8b fc	 mov	 rdi, rsp
  0001b	b9 3a 00 00 00	 mov	 ecx, 58			; 0000003aH
  00020	b8 cc cc cc cc	 mov	 eax, -858993460		; ccccccccH
  00025	f3 ab		 rep stosd
  00027	48 8b 8c 24 08
	01 00 00	 mov	 rcx, QWORD PTR [rsp+264]
; Line 643
  0002f	41 b0 01	 mov	 r8b, 1
  00032	ba 10 00 00 00	 mov	 edx, 16
  00037	48 8b 8d e8 00
	00 00		 mov	 rcx, QWORD PTR _Count$[rbp]
  0003e	e8 00 00 00 00	 call	 ?_Allocate@std@@YAPEAX_K0_N@Z ; std::_Allocate
; Line 644
  00043	48 8d a5 c8 00
	00 00		 lea	 rsp, QWORD PTR [rbp+200]
  0004a	5f		 pop	 rdi
  0004b	5d		 pop	 rbp
  0004c	c3		 ret	 0
?allocate@?$allocator@U_Container_proxy@std@@@std@@QEAAPEAU_Container_proxy@2@_K@Z ENDP ; std::allocator<std::_Container_proxy>::allocate
_TEXT	ENDS
; Function compile flags: /Odtp /RTCsu /ZI
;	COMDAT ?deallocate@?$allocator@U_Container_proxy@std@@@std@@QEAAXPEAU_Container_proxy@2@_K@Z
_TEXT	SEGMENT
this$ = 224
_Ptr$ = 232
_Count$ = 240
?deallocate@?$allocator@U_Container_proxy@std@@@std@@QEAAXPEAU_Container_proxy@2@_K@Z PROC ; std::allocator<std::_Container_proxy>::deallocate, COMDAT
; File d:\appdata\vsp\vc\include\xmemory0
; Line 637
$LN3:
  00000	4c 89 44 24 18	 mov	 QWORD PTR [rsp+24], r8
  00005	48 89 54 24 10	 mov	 QWORD PTR [rsp+16], rdx
  0000a	48 89 4c 24 08	 mov	 QWORD PTR [rsp+8], rcx
  0000f	55		 push	 rbp
  00010	57		 push	 rdi
  00011	48 81 ec e8 00
	00 00		 sub	 rsp, 232		; 000000e8H
  00018	48 8d 6c 24 20	 lea	 rbp, QWORD PTR [rsp+32]
  0001d	48 8b fc	 mov	 rdi, rsp
  00020	b9 3a 00 00 00	 mov	 ecx, 58			; 0000003aH
  00025	b8 cc cc cc cc	 mov	 eax, -858993460		; ccccccccH
  0002a	f3 ab		 rep stosd
  0002c	48 8b 8c 24 08
	01 00 00	 mov	 rcx, QWORD PTR [rsp+264]
; Line 638
  00034	41 b8 10 00 00
	00		 mov	 r8d, 16
  0003a	48 8b 95 f0 00
	00 00		 mov	 rdx, QWORD PTR _Count$[rbp]
  00041	48 8b 8d e8 00
	00 00		 mov	 rcx, QWORD PTR _Ptr$[rbp]
  00048	e8 00 00 00 00	 call	 ?_Deallocate@std@@YAXPEAX_K1@Z ; std::_Deallocate
; Line 639
  0004d	48 8d a5 c8 00
	00 00		 lea	 rsp, QWORD PTR [rbp+200]
  00054	5f		 pop	 rdi
  00055	5d		 pop	 rbp
  00056	c3		 ret	 0
?deallocate@?$allocator@U_Container_proxy@std@@@std@@QEAAXPEAU_Container_proxy@2@_K@Z ENDP ; std::allocator<std::_Container_proxy>::deallocate
_TEXT	ENDS
; Function compile flags: /Odtp /RTCsu /ZI
;	COMDAT ??$construct@PEADAEAPEAD@?$_Wrap_alloc@V?$allocator@D@std@@@std@@QEAAXPEAPEADAEAPEAD@Z
_TEXT	SEGMENT
this$ = 224
_Ptr$ = 232
<_Args_0>$ = 240
??$construct@PEADAEAPEAD@?$_Wrap_alloc@V?$allocator@D@std@@@std@@QEAAXPEAPEADAEAPEAD@Z PROC ; std::_Wrap_alloc<std::allocator<char> >::construct<char * __ptr64,char * __ptr64 & __ptr64>, COMDAT
; File d:\appdata\vsp\vc\include\xmemory0
; Line 916
$LN3:
  00000	4c 89 44 24 18	 mov	 QWORD PTR [rsp+24], r8
  00005	48 89 54 24 10	 mov	 QWORD PTR [rsp+16], rdx
  0000a	48 89 4c 24 08	 mov	 QWORD PTR [rsp+8], rcx
  0000f	55		 push	 rbp
  00010	57		 push	 rdi
  00011	48 81 ec e8 00
	00 00		 sub	 rsp, 232		; 000000e8H
  00018	48 8d 6c 24 20	 lea	 rbp, QWORD PTR [rsp+32]
  0001d	48 8b fc	 mov	 rdi, rsp
  00020	b9 3a 00 00 00	 mov	 ecx, 58			; 0000003aH
  00025	b8 cc cc cc cc	 mov	 eax, -858993460		; ccccccccH
  0002a	f3 ab		 rep stosd
  0002c	48 8b 8c 24 08
	01 00 00	 mov	 rcx, QWORD PTR [rsp+264]
; Line 917
  00034	48 8b 8d f0 00
	00 00		 mov	 rcx, QWORD PTR <_Args_0>$[rbp]
  0003b	e8 00 00 00 00	 call	 ??$forward@AEAPEAD@std@@YAAEAPEADAEAPEAD@Z ; std::forward<char * __ptr64 & __ptr64>
  00040	4c 8b c0	 mov	 r8, rax
  00043	48 8b 95 e8 00
	00 00		 mov	 rdx, QWORD PTR _Ptr$[rbp]
  0004a	48 8b 8d e0 00
	00 00		 mov	 rcx, QWORD PTR this$[rbp]
  00051	e8 00 00 00 00	 call	 ??$construct@PEADAEAPEAD@?$allocator_traits@V?$allocator@D@std@@@std@@SAXAEAV?$allocator@D@1@PEAPEADAEAPEAD@Z ; std::allocator_traits<std::allocator<char> >::construct<char * __ptr64,char * __ptr64 & __ptr64>
; Line 919
  00056	48 8d a5 c8 00
	00 00		 lea	 rsp, QWORD PTR [rbp+200]
  0005d	5f		 pop	 rdi
  0005e	5d		 pop	 rbp
  0005f	c3		 ret	 0
??$construct@PEADAEAPEAD@?$_Wrap_alloc@V?$allocator@D@std@@@std@@QEAAXPEAPEADAEAPEAD@Z ENDP ; std::_Wrap_alloc<std::allocator<char> >::construct<char * __ptr64,char * __ptr64 & __ptr64>
_TEXT	ENDS
; Function compile flags: /Odtp /RTCsu /ZI
;	COMDAT ??$_Debug_pointer_if@$$CBD@std@@YAX_NPEBDPEBGI@Z
_TEXT	SEGMENT
_Test$ = 224
_Ptr$ = 232
_File$ = 240
_Line$ = 248
??$_Debug_pointer_if@$$CBD@std@@YAX_NPEBDPEBGI@Z PROC	; std::_Debug_pointer_if<char const >, COMDAT
; File d:\appdata\vsp\vc\include\xutility
; Line 774
$LN4:
  00000	44 89 4c 24 20	 mov	 DWORD PTR [rsp+32], r9d
  00005	4c 89 44 24 18	 mov	 QWORD PTR [rsp+24], r8
  0000a	48 89 54 24 10	 mov	 QWORD PTR [rsp+16], rdx
  0000f	88 4c 24 08	 mov	 BYTE PTR [rsp+8], cl
  00013	55		 push	 rbp
  00014	57		 push	 rdi
  00015	48 81 ec e8 00
	00 00		 sub	 rsp, 232		; 000000e8H
  0001c	48 8d 6c 24 20	 lea	 rbp, QWORD PTR [rsp+32]
  00021	48 8b fc	 mov	 rdi, rsp
  00024	b9 3a 00 00 00	 mov	 ecx, 58			; 0000003aH
  00029	b8 cc cc cc cc	 mov	 eax, -858993460		; ccccccccH
  0002e	f3 ab		 rep stosd
  00030	0f b6 8c 24 08
	01 00 00	 movzx	 ecx, BYTE PTR [rsp+264]
; Line 775
  00038	0f b6 85 e0 00
	00 00		 movzx	 eax, BYTE PTR _Test$[rbp]
  0003f	85 c0		 test	 eax, eax
  00041	74 25		 je	 SHORT $LN2@Debug_poin
  00043	48 83 bd e8 00
	00 00 00	 cmp	 QWORD PTR _Ptr$[rbp], 0
  0004b	75 1b		 jne	 SHORT $LN2@Debug_poin
; Line 776
  0004d	44 8b 85 f8 00
	00 00		 mov	 r8d, DWORD PTR _Line$[rbp]
  00054	48 8b 95 f0 00
	00 00		 mov	 rdx, QWORD PTR _File$[rbp]
  0005b	48 8d 0d 00 00
	00 00		 lea	 rcx, OFFSET FLAT:??_C@_1CK@EOPGIILJ@?$AAi?$AAn?$AAv?$AAa?$AAl?$AAi?$AAd?$AA?5?$AAn?$AAu?$AAl?$AAl?$AA?5?$AAp?$AAo?$AAi?$AAn?$AAt?$AAe?$AAr?$AA?$AA@
  00062	ff 15 00 00 00
	00		 call	 QWORD PTR __imp_?_Debug_message@std@@YAXPEBG0I@Z
$LN2@Debug_poin:
; Line 777
  00068	48 8d a5 c8 00
	00 00		 lea	 rsp, QWORD PTR [rbp+200]
  0006f	5f		 pop	 rdi
  00070	5d		 pop	 rbp
  00071	c3		 ret	 0
??$_Debug_pointer_if@$$CBD@std@@YAX_NPEBDPEBGI@Z ENDP	; std::_Debug_pointer_if<char const >
_TEXT	ENDS
; Function compile flags: /Odtp /RTCsu /ZI
;	COMDAT ??$addressof@D@std@@YAPEADAEAD@Z
_TEXT	SEGMENT
$T1 = 228
_Val$ = 288
??$addressof@D@std@@YAPEADAEAD@Z PROC			; std::addressof<char>, COMDAT
; File d:\appdata\vsp\vc\include\xstddef
; Line 696
$LN3:
  00000	48 89 4c 24 08	 mov	 QWORD PTR [rsp+8], rcx
  00005	55		 push	 rbp
  00006	57		 push	 rdi
  00007	48 81 ec 28 01
	00 00		 sub	 rsp, 296		; 00000128H
  0000e	48 8d 6c 24 20	 lea	 rbp, QWORD PTR [rsp+32]
  00013	48 8b fc	 mov	 rdi, rsp
  00016	b9 4a 00 00 00	 mov	 ecx, 74			; 0000004aH
  0001b	b8 cc cc cc cc	 mov	 eax, -858993460		; ccccccccH
  00020	f3 ab		 rep stosd
  00022	48 8b 8c 24 48
	01 00 00	 mov	 rcx, QWORD PTR [rsp+328]
; Line 697
  0002a	0f b6 95 e4 00
	00 00		 movzx	 edx, BYTE PTR $T1[rbp]
  00031	48 8b 8d 20 01
	00 00		 mov	 rcx, QWORD PTR _Val$[rbp]
  00038	e8 00 00 00 00	 call	 ??$_Addressof@D@std@@YAPEADAEADU?$integral_constant@_N$0A@@0@@Z ; std::_Addressof<char>
; Line 698
  0003d	48 8d a5 08 01
	00 00		 lea	 rsp, QWORD PTR [rbp+264]
  00044	5f		 pop	 rdi
  00045	5d		 pop	 rbp
  00046	c3		 ret	 0
??$addressof@D@std@@YAPEADAEAD@Z ENDP			; std::addressof<char>
_TEXT	ENDS
; Function compile flags: /Odtp /RTCsu /ZI
;	COMDAT ??$destroy@PEAD@?$_Wrap_alloc@V?$allocator@D@std@@@std@@QEAAXPEAPEAD@Z
_TEXT	SEGMENT
this$ = 224
_Ptr$ = 232
??$destroy@PEAD@?$_Wrap_alloc@V?$allocator@D@std@@@std@@QEAAXPEAPEAD@Z PROC ; std::_Wrap_alloc<std::allocator<char> >::destroy<char * __ptr64>, COMDAT
; File d:\appdata\vsp\vc\include\xmemory0
; Line 924
$LN3:
  00000	48 89 54 24 10	 mov	 QWORD PTR [rsp+16], rdx
  00005	48 89 4c 24 08	 mov	 QWORD PTR [rsp+8], rcx
  0000a	55		 push	 rbp
  0000b	57		 push	 rdi
  0000c	48 81 ec e8 00
	00 00		 sub	 rsp, 232		; 000000e8H
  00013	48 8d 6c 24 20	 lea	 rbp, QWORD PTR [rsp+32]
  00018	48 8b fc	 mov	 rdi, rsp
  0001b	b9 3a 00 00 00	 mov	 ecx, 58			; 0000003aH
  00020	b8 cc cc cc cc	 mov	 eax, -858993460		; ccccccccH
  00025	f3 ab		 rep stosd
  00027	48 8b 8c 24 08
	01 00 00	 mov	 rcx, QWORD PTR [rsp+264]
; Line 925
  0002f	48 8b 95 e8 00
	00 00		 mov	 rdx, QWORD PTR _Ptr$[rbp]
  00036	48 8b 8d e0 00
	00 00		 mov	 rcx, QWORD PTR this$[rbp]
  0003d	e8 00 00 00 00	 call	 ??$destroy@PEAD@?$allocator_traits@V?$allocator@D@std@@@std@@SAXAEAV?$allocator@D@1@PEAPEAD@Z ; std::allocator_traits<std::allocator<char> >::destroy<char * __ptr64>
; Line 926
  00042	48 8d a5 c8 00
	00 00		 lea	 rsp, QWORD PTR [rbp+200]
  00049	5f		 pop	 rdi
  0004a	5d		 pop	 rbp
  0004b	c3		 ret	 0
??$destroy@PEAD@?$_Wrap_alloc@V?$allocator@D@std@@@std@@QEAAXPEAPEAD@Z ENDP ; std::_Wrap_alloc<std::allocator<char> >::destroy<char * __ptr64>
_TEXT	ENDS
; Function compile flags: /Odtp /RTCsu /ZI
;	COMDAT ??$?0AEBV?$allocator@D@std@@$$V@?$_Compressed_pair@U?$_Wrap_alloc@V?$allocator@D@std@@@std@@V?$_String_val@U?$_Simple_types@D@std@@@2@$00@std@@QEAA@U_One_then_variadic_args_t@1@AEBV?$allocator@D@1@@Z
_TEXT	SEGMENT
this$ = 224
__formal$ = 232
_Val1$ = 240
??$?0AEBV?$allocator@D@std@@$$V@?$_Compressed_pair@U?$_Wrap_alloc@V?$allocator@D@std@@@std@@V?$_String_val@U?$_Simple_types@D@std@@@2@$00@std@@QEAA@U_One_then_variadic_args_t@1@AEBV?$allocator@D@1@@Z PROC ; std::_Compressed_pair<std::_Wrap_alloc<std::allocator<char> >,std::_String_val<std::_Simple_types<char> >,1>::_Compressed_pair<std::_Wrap_alloc<std::allocator<char> >,std::_String_val<std::_Simple_types<char> >,1><std::allocator<char> const & __ptr64>, COMDAT
; File d:\appdata\vsp\vc\include\xutility
; Line 288
$LN4:
  00000	4c 89 44 24 18	 mov	 QWORD PTR [rsp+24], r8
  00005	88 54 24 10	 mov	 BYTE PTR [rsp+16], dl
  00009	48 89 4c 24 08	 mov	 QWORD PTR [rsp+8], rcx
  0000e	55		 push	 rbp
  0000f	57		 push	 rdi
  00010	48 81 ec e8 00
	00 00		 sub	 rsp, 232		; 000000e8H
  00017	48 8d 6c 24 20	 lea	 rbp, QWORD PTR [rsp+32]
  0001c	48 8b fc	 mov	 rdi, rsp
  0001f	b9 3a 00 00 00	 mov	 ecx, 58			; 0000003aH
  00024	b8 cc cc cc cc	 mov	 eax, -858993460		; ccccccccH
  00029	f3 ab		 rep stosd
  0002b	48 8b 8c 24 08
	01 00 00	 mov	 rcx, QWORD PTR [rsp+264]
; Line 286
  00033	48 8b 8d f0 00
	00 00		 mov	 rcx, QWORD PTR _Val1$[rbp]
  0003a	e8 00 00 00 00	 call	 ??$forward@AEBV?$allocator@D@std@@@std@@YAAEBV?$allocator@D@0@AEBV10@@Z ; std::forward<std::allocator<char> const & __ptr64>
  0003f	48 8b d0	 mov	 rdx, rax
  00042	48 8b 8d e0 00
	00 00		 mov	 rcx, QWORD PTR this$[rbp]
  00049	e8 00 00 00 00	 call	 ??0?$_Wrap_alloc@V?$allocator@D@std@@@std@@QEAA@AEBV?$allocator@D@1@@Z ; std::_Wrap_alloc<std::allocator<char> >::_Wrap_alloc<std::allocator<char> >
; Line 287
  0004e	48 8b 85 e0 00
	00 00		 mov	 rax, QWORD PTR this$[rbp]
  00055	48 8b c8	 mov	 rcx, rax
  00058	e8 00 00 00 00	 call	 ??0?$_String_val@U?$_Simple_types@D@std@@@std@@QEAA@XZ ; std::_String_val<std::_Simple_types<char> >::_String_val<std::_Simple_types<char> >
; Line 289
  0005d	48 8b 85 e0 00
	00 00		 mov	 rax, QWORD PTR this$[rbp]
  00064	48 8d a5 c8 00
	00 00		 lea	 rsp, QWORD PTR [rbp+200]
  0006b	5f		 pop	 rdi
  0006c	5d		 pop	 rbp
  0006d	c3		 ret	 0
??$?0AEBV?$allocator@D@std@@$$V@?$_Compressed_pair@U?$_Wrap_alloc@V?$allocator@D@std@@@std@@V?$_String_val@U?$_Simple_types@D@std@@@2@$00@std@@QEAA@U_One_then_variadic_args_t@1@AEBV?$allocator@D@1@@Z ENDP ; std::_Compressed_pair<std::_Wrap_alloc<std::allocator<char> >,std::_String_val<std::_Simple_types<char> >,1>::_Compressed_pair<std::_Wrap_alloc<std::allocator<char> >,std::_String_val<std::_Simple_types<char> >,1><std::allocator<char> const & __ptr64>
_TEXT	ENDS
; Function compile flags: /Odtp /RTCsu /ZI
;	COMDAT ??$?0V?$allocator@D@std@@$$V@?$_Compressed_pair@U?$_Wrap_alloc@V?$allocator@D@std@@@std@@V?$_String_val@U?$_Simple_types@D@std@@@2@$00@std@@QEAA@U_One_then_variadic_args_t@1@$$QEAV?$allocator@D@1@@Z
_TEXT	SEGMENT
this$ = 224
__formal$ = 232
_Val1$ = 240
??$?0V?$allocator@D@std@@$$V@?$_Compressed_pair@U?$_Wrap_alloc@V?$allocator@D@std@@@std@@V?$_String_val@U?$_Simple_types@D@std@@@2@$00@std@@QEAA@U_One_then_variadic_args_t@1@$$QEAV?$allocator@D@1@@Z PROC ; std::_Compressed_pair<std::_Wrap_alloc<std::allocator<char> >,std::_String_val<std::_Simple_types<char> >,1>::_Compressed_pair<std::_Wrap_alloc<std::allocator<char> >,std::_String_val<std::_Simple_types<char> >,1><std::allocator<char> >, COMDAT
; File d:\appdata\vsp\vc\include\xutility
; Line 288
$LN4:
  00000	4c 89 44 24 18	 mov	 QWORD PTR [rsp+24], r8
  00005	88 54 24 10	 mov	 BYTE PTR [rsp+16], dl
  00009	48 89 4c 24 08	 mov	 QWORD PTR [rsp+8], rcx
  0000e	55		 push	 rbp
  0000f	57		 push	 rdi
  00010	48 81 ec e8 00
	00 00		 sub	 rsp, 232		; 000000e8H
  00017	48 8d 6c 24 20	 lea	 rbp, QWORD PTR [rsp+32]
  0001c	48 8b fc	 mov	 rdi, rsp
  0001f	b9 3a 00 00 00	 mov	 ecx, 58			; 0000003aH
  00024	b8 cc cc cc cc	 mov	 eax, -858993460		; ccccccccH
  00029	f3 ab		 rep stosd
  0002b	48 8b 8c 24 08
	01 00 00	 mov	 rcx, QWORD PTR [rsp+264]
; Line 286
  00033	48 8b 8d f0 00
	00 00		 mov	 rcx, QWORD PTR _Val1$[rbp]
  0003a	e8 00 00 00 00	 call	 ??$forward@V?$allocator@D@std@@@std@@YA$$QEAV?$allocator@D@0@AEAV10@@Z ; std::forward<std::allocator<char> >
  0003f	48 8b d0	 mov	 rdx, rax
  00042	48 8b 8d e0 00
	00 00		 mov	 rcx, QWORD PTR this$[rbp]
  00049	e8 00 00 00 00	 call	 ??0?$_Wrap_alloc@V?$allocator@D@std@@@std@@QEAA@AEBV?$allocator@D@1@@Z ; std::_Wrap_alloc<std::allocator<char> >::_Wrap_alloc<std::allocator<char> >
; Line 287
  0004e	48 8b 85 e0 00
	00 00		 mov	 rax, QWORD PTR this$[rbp]
  00055	48 8b c8	 mov	 rcx, rax
  00058	e8 00 00 00 00	 call	 ??0?$_String_val@U?$_Simple_types@D@std@@@std@@QEAA@XZ ; std::_String_val<std::_Simple_types<char> >::_String_val<std::_Simple_types<char> >
; Line 289
  0005d	48 8b 85 e0 00
	00 00		 mov	 rax, QWORD PTR this$[rbp]
  00064	48 8d a5 c8 00
	00 00		 lea	 rsp, QWORD PTR [rbp+200]
  0006b	5f		 pop	 rdi
  0006c	5d		 pop	 rbp
  0006d	c3		 ret	 0
??$?0V?$allocator@D@std@@$$V@?$_Compressed_pair@U?$_Wrap_alloc@V?$allocator@D@std@@@std@@V?$_String_val@U?$_Simple_types@D@std@@@2@$00@std@@QEAA@U_One_then_variadic_args_t@1@$$QEAV?$allocator@D@1@@Z ENDP ; std::_Compressed_pair<std::_Wrap_alloc<std::allocator<char> >,std::_String_val<std::_Simple_types<char> >,1>::_Compressed_pair<std::_Wrap_alloc<std::allocator<char> >,std::_String_val<std::_Simple_types<char> >,1><std::allocator<char> >
_TEXT	ENDS
; Function compile flags: /Odtp /RTCsu /ZI
;	COMDAT ??$move@AEAV?$allocator@D@std@@@std@@YA$$QEAV?$allocator@D@0@AEAV10@@Z
_TEXT	SEGMENT
_Arg$ = 224
??$move@AEAV?$allocator@D@std@@@std@@YA$$QEAV?$allocator@D@0@AEAV10@@Z PROC ; std::move<std::allocator<char> & __ptr64>, COMDAT
; File d:\appdata\vsp\vc\include\type_traits
; Line 1249
$LN3:
  00000	48 89 4c 24 08	 mov	 QWORD PTR [rsp+8], rcx
  00005	55		 push	 rbp
  00006	57		 push	 rdi
  00007	48 81 ec c8 00
	00 00		 sub	 rsp, 200		; 000000c8H
  0000e	48 8b ec	 mov	 rbp, rsp
  00011	48 8b fc	 mov	 rdi, rsp
  00014	b9 32 00 00 00	 mov	 ecx, 50			; 00000032H
  00019	b8 cc cc cc cc	 mov	 eax, -858993460		; ccccccccH
  0001e	f3 ab		 rep stosd
  00020	48 8b 8c 24 e8
	00 00 00	 mov	 rcx, QWORD PTR [rsp+232]
; Line 1250
  00028	48 8b 85 e0 00
	00 00		 mov	 rax, QWORD PTR _Arg$[rbp]
; Line 1251
  0002f	48 8d a5 c8 00
	00 00		 lea	 rsp, QWORD PTR [rbp+200]
  00036	5f		 pop	 rdi
  00037	5d		 pop	 rbp
  00038	c3		 ret	 0
??$move@AEAV?$allocator@D@std@@@std@@YA$$QEAV?$allocator@D@0@AEAV10@@Z ENDP ; std::move<std::allocator<char> & __ptr64>
_TEXT	ENDS
; Function compile flags: /Odtp /RTCsu /ZI
;	COMDAT ??$_Debug_pointer@$$CBD@std@@YAXPEBDPEBGI@Z
_TEXT	SEGMENT
_Ptr$ = 224
_File$ = 232
_Line$ = 240
??$_Debug_pointer@$$CBD@std@@YAXPEBDPEBGI@Z PROC	; std::_Debug_pointer<char const >, COMDAT
; File d:\appdata\vsp\vc\include\xutility
; Line 760
$LN4:
  00000	44 89 44 24 18	 mov	 DWORD PTR [rsp+24], r8d
  00005	48 89 54 24 10	 mov	 QWORD PTR [rsp+16], rdx
  0000a	48 89 4c 24 08	 mov	 QWORD PTR [rsp+8], rcx
  0000f	55		 push	 rbp
  00010	57		 push	 rdi
  00011	48 81 ec e8 00
	00 00		 sub	 rsp, 232		; 000000e8H
  00018	48 8d 6c 24 20	 lea	 rbp, QWORD PTR [rsp+32]
  0001d	48 8b fc	 mov	 rdi, rsp
  00020	b9 3a 00 00 00	 mov	 ecx, 58			; 0000003aH
  00025	b8 cc cc cc cc	 mov	 eax, -858993460		; ccccccccH
  0002a	f3 ab		 rep stosd
  0002c	48 8b 8c 24 08
	01 00 00	 mov	 rcx, QWORD PTR [rsp+264]
; Line 761
  00034	48 83 bd e0 00
	00 00 00	 cmp	 QWORD PTR _Ptr$[rbp], 0
  0003c	75 1b		 jne	 SHORT $LN2@Debug_poin
; Line 762
  0003e	44 8b 85 f0 00
	00 00		 mov	 r8d, DWORD PTR _Line$[rbp]
  00045	48 8b 95 e8 00
	00 00		 mov	 rdx, QWORD PTR _File$[rbp]
  0004c	48 8d 0d 00 00
	00 00		 lea	 rcx, OFFSET FLAT:??_C@_1CK@EOPGIILJ@?$AAi?$AAn?$AAv?$AAa?$AAl?$AAi?$AAd?$AA?5?$AAn?$AAu?$AAl?$AAl?$AA?5?$AAp?$AAo?$AAi?$AAn?$AAt?$AAe?$AAr?$AA?$AA@
  00053	ff 15 00 00 00
	00		 call	 QWORD PTR __imp_?_Debug_message@std@@YAXPEBG0I@Z
$LN2@Debug_poin:
; Line 763
  00059	48 8d a5 c8 00
	00 00		 lea	 rsp, QWORD PTR [rbp+200]
  00060	5f		 pop	 rdi
  00061	5d		 pop	 rbp
  00062	c3		 ret	 0
??$_Debug_pointer@$$CBD@std@@YAXPEBDPEBGI@Z ENDP	; std::_Debug_pointer<char const >
_TEXT	ENDS
; Function compile flags: /Odtp /RTCsu /ZI
;	COMDAT ??$pow@HH@@YANHH@Z
_TEXT	SEGMENT
tv67 = 192
_Left$ = 240
_Right$ = 248
??$pow@HH@@YANHH@Z PROC					; pow<int,int>, COMDAT
; File d:\appdata\vsp\vc\include\xtgmath.h
; Line 82
$LN3:
  00000	89 54 24 10	 mov	 DWORD PTR [rsp+16], edx
  00004	89 4c 24 08	 mov	 DWORD PTR [rsp+8], ecx
  00008	55		 push	 rbp
  00009	57		 push	 rdi
  0000a	48 81 ec 08 01
	00 00		 sub	 rsp, 264		; 00000108H
  00011	48 8d 6c 24 30	 lea	 rbp, QWORD PTR [rsp+48]
  00016	48 8b fc	 mov	 rdi, rsp
  00019	b9 42 00 00 00	 mov	 ecx, 66			; 00000042H
  0001e	b8 cc cc cc cc	 mov	 eax, -858993460		; ccccccccH
  00023	f3 ab		 rep stosd
  00025	8b 8c 24 28 01
	00 00		 mov	 ecx, DWORD PTR [rsp+296]
; Line 84
  0002c	f2 0f 2a 85 f8
	00 00 00	 cvtsi2sd xmm0, DWORD PTR _Right$[rbp]
  00034	f2 0f 2a 8d f0
	00 00 00	 cvtsi2sd xmm1, DWORD PTR _Left$[rbp]
  0003c	f2 0f 11 8d c0
	00 00 00	 movsd	 QWORD PTR tv67[rbp], xmm1
  00044	0f 28 c8	 movaps	 xmm1, xmm0
  00047	f2 0f 10 85 c0
	00 00 00	 movsd	 xmm0, QWORD PTR tv67[rbp]
  0004f	e8 00 00 00 00	 call	 pow
; Line 85
  00054	48 8d a5 d8 00
	00 00		 lea	 rsp, QWORD PTR [rbp+216]
  0005b	5f		 pop	 rdi
  0005c	5d		 pop	 rbp
  0005d	c3		 ret	 0
??$pow@HH@@YANHH@Z ENDP					; pow<int,int>
_TEXT	ENDS
; Function compile flags: /Odtp /RTCsu /ZI
;	COMDAT ?MessageHandler@Cy@@YA_JPEAUHWND__@@I_K_J@Z
_TEXT	SEGMENT
input$ = 8
cs$1 = 40
tracked$2 = 68
$T3 = 292
tv67 = 308
hwnd$ = 352
msg$ = 360
wP$ = 368
lP$ = 376
?MessageHandler@Cy@@YA_JPEAUHWND__@@I_K_J@Z PROC	; Cy::MessageHandler, COMDAT
; File d:\scottsdocs\sourcecode\vulkanengine\vulkanengine\code\commonwindows.cpp
; Line 22
$LN20:
  00000	4c 89 4c 24 20	 mov	 QWORD PTR [rsp+32], r9
  00005	4c 89 44 24 18	 mov	 QWORD PTR [rsp+24], r8
  0000a	89 54 24 10	 mov	 DWORD PTR [rsp+16], edx
  0000e	48 89 4c 24 08	 mov	 QWORD PTR [rsp+8], rcx
  00013	55		 push	 rbp
  00014	57		 push	 rdi
  00015	48 81 ec 68 01
	00 00		 sub	 rsp, 360		; 00000168H
  0001c	48 8d 6c 24 20	 lea	 rbp, QWORD PTR [rsp+32]
  00021	48 8b fc	 mov	 rdi, rsp
  00024	b9 5a 00 00 00	 mov	 ecx, 90			; 0000005aH
  00029	b8 cc cc cc cc	 mov	 eax, -858993460		; ccccccccH
  0002e	f3 ab		 rep stosd
  00030	48 8b 8c 24 88
	01 00 00	 mov	 rcx, QWORD PTR [rsp+392]
; Line 23
  00038	33 d2		 xor	 edx, edx
  0003a	48 8b 8d 60 01
	00 00		 mov	 rcx, QWORD PTR hwnd$[rbp]
  00041	ff 15 00 00 00
	00		 call	 QWORD PTR __imp_GetWindowLongPtrW
  00047	48 89 45 08	 mov	 QWORD PTR input$[rbp], rax
; Line 24
  0004b	8b 85 68 01 00
	00		 mov	 eax, DWORD PTR msg$[rbp]
  00051	89 85 34 01 00
	00		 mov	 DWORD PTR tv67[rbp], eax
  00057	81 bd 34 01 00
	00 00 02 00 00	 cmp	 DWORD PTR tv67[rbp], 512 ; 00000200H
  00061	77 54		 ja	 SHORT $LN17@MessageHan
  00063	81 bd 34 01 00
	00 00 02 00 00	 cmp	 DWORD PTR tv67[rbp], 512 ; 00000200H
  0006d	0f 84 00 01 00
	00		 je	 $LN10@MessageHan
  00073	83 bd 34 01 00
	00 01		 cmp	 DWORD PTR tv67[rbp], 1
  0007a	74 7d		 je	 SHORT $LN4@MessageHan
  0007c	83 bd 34 01 00
	00 02		 cmp	 DWORD PTR tv67[rbp], 2
  00083	0f 84 96 00 00
	00		 je	 $LN5@MessageHan
  00089	83 bd 34 01 00
	00 10		 cmp	 DWORD PTR tv67[rbp], 16
  00090	0f 84 89 00 00
	00		 je	 $LN5@MessageHan
  00096	81 bd 34 01 00
	00 00 01 00 00	 cmp	 DWORD PTR tv67[rbp], 256 ; 00000100H
  000a0	0f 84 a9 00 00
	00		 je	 $LN8@MessageHan
  000a6	81 bd 34 01 00
	00 01 01 00 00	 cmp	 DWORD PTR tv67[rbp], 257 ; 00000101H
  000b0	74 79		 je	 SHORT $LN6@MessageHan
  000b2	e9 64 01 00 00	 jmp	 $LN15@MessageHan
$LN17@MessageHan:
  000b7	8b 85 34 01 00
	00		 mov	 eax, DWORD PTR tv67[rbp]
  000bd	2d 01 02 00 00	 sub	 eax, 513		; 00000201H
  000c2	89 85 34 01 00
	00		 mov	 DWORD PTR tv67[rbp], eax
  000c8	81 bd 34 01 00
	00 a1 00 00 00	 cmp	 DWORD PTR tv67[rbp], 161 ; 000000a1H
  000d2	0f 87 43 01 00
	00		 ja	 $LN15@MessageHan
  000d8	8b 85 34 01 00
	00		 mov	 eax, DWORD PTR tv67[rbp]
  000de	48 8d 0d 00 00
	00 00		 lea	 rcx, OFFSET FLAT:__ImageBase
  000e5	0f b6 84 01 00
	00 00 00	 movzx	 eax, BYTE PTR $LN18@MessageHan[rcx+rax]
  000ed	8b 84 81 00 00
	00 00		 mov	 eax, DWORD PTR $LN19@MessageHan[rcx+rax*4]
  000f4	48 03 c1	 add	 rax, rcx
  000f7	ff e0		 jmp	 rax
$LN4@MessageHan:
; Line 28
  000f9	48 8b 85 78 01
	00 00		 mov	 rax, QWORD PTR lP$[rbp]
  00100	48 89 45 28	 mov	 QWORD PTR cs$1[rbp], rax
; Line 29
  00104	48 8b 45 28	 mov	 rax, QWORD PTR cs$1[rbp]
  00108	4c 8b 00	 mov	 r8, QWORD PTR [rax]
  0010b	33 d2		 xor	 edx, edx
  0010d	48 8b 8d 60 01
	00 00		 mov	 rcx, QWORD PTR hwnd$[rbp]
  00114	ff 15 00 00 00
	00		 call	 QWORD PTR __imp_SetWindowLongPtrW
; Line 31
  0011a	e9 1f 01 00 00	 jmp	 $LN2@MessageHan
$LN5@MessageHan:
; Line 35
  0011f	48 8b 45 08	 mov	 rax, QWORD PTR input$[rbp]
  00123	c6 00 00	 mov	 BYTE PTR [rax], 0
; Line 37
  00126	e9 13 01 00 00	 jmp	 $LN2@MessageHan
$LN6@MessageHan:
; Line 43
  0012b	48 83 bd 70 01
	00 00 5b	 cmp	 QWORD PTR wP$[rbp], 91	; 0000005bH
  00133	73 15		 jae	 SHORT $LN7@MessageHan
; Line 45
  00135	48 8b 85 70 01
	00 00		 mov	 rax, QWORD PTR wP$[rbp]
  0013c	48 8b 4d 08	 mov	 rcx, QWORD PTR input$[rbp]
  00140	48 03 c8	 add	 rcx, rax
  00143	48 8b c1	 mov	 rax, rcx
  00146	c6 40 01 00	 mov	 BYTE PTR [rax+1], 0
$LN7@MessageHan:
; Line 48
  0014a	e9 ef 00 00 00	 jmp	 $LN2@MessageHan
$LN8@MessageHan:
; Line 54
  0014f	48 83 bd 70 01
	00 00 5b	 cmp	 QWORD PTR wP$[rbp], 91	; 0000005bH
  00157	73 15		 jae	 SHORT $LN9@MessageHan
; Line 56
  00159	48 8b 85 70 01
	00 00		 mov	 rax, QWORD PTR wP$[rbp]
  00160	48 8b 4d 08	 mov	 rcx, QWORD PTR input$[rbp]
  00164	48 03 c8	 add	 rcx, rax
  00167	48 8b c1	 mov	 rax, rcx
  0016a	c6 40 01 01	 mov	 BYTE PTR [rax+1], 1
$LN9@MessageHan:
; Line 59
  0016e	e9 cb 00 00 00	 jmp	 $LN2@MessageHan
$LN10@MessageHan:
; Line 65
  00173	48 8b 45 08	 mov	 rax, QWORD PTR input$[rbp]
  00177	48 83 c0 70	 add	 rax, 112		; 00000070H
  0017b	48 8b c8	 mov	 rcx, rax
  0017e	ff 15 00 00 00
	00		 call	 QWORD PTR __imp_TrackMouseEvent
  00184	89 45 44	 mov	 DWORD PTR tracked$2[rbp], eax
; Line 66
  00187	83 7d 44 01	 cmp	 DWORD PTR tracked$2[rbp], 1
  0018b	75 0a		 jne	 SHORT $LN11@MessageHan
; Line 68
  0018d	48 8b 45 08	 mov	 rax, QWORD PTR input$[rbp]
  00191	c6 40 6c 01	 mov	 BYTE PTR [rax+108], 1
; Line 70
  00195	eb 08		 jmp	 SHORT $LN12@MessageHan
$LN11@MessageHan:
; Line 72
  00197	48 8b 45 08	 mov	 rax, QWORD PTR input$[rbp]
  0019b	c6 40 6c 00	 mov	 BYTE PTR [rax+108], 0
$LN12@MessageHan:
; Line 76
  0019f	48 8b 45 08	 mov	 rax, QWORD PTR input$[rbp]
  001a3	48 8b 40 5c	 mov	 rax, QWORD PTR [rax+92]
  001a7	48 8b 4d 08	 mov	 rcx, QWORD PTR input$[rbp]
  001ab	48 89 41 64	 mov	 QWORD PTR [rcx+100], rax
; Line 77
  001af	48 8b 85 78 01
	00 00		 mov	 rax, QWORD PTR lP$[rbp]
  001b6	48 c1 e8 10	 shr	 rax, 16
  001ba	48 25 ff ff 00
	00		 and	 rax, 65535		; 0000ffffH
  001c0	98		 cwde
  001c1	f3 0f 2a c0	 cvtsi2ss xmm0, eax
  001c5	48 8b 85 78 01
	00 00		 mov	 rax, QWORD PTR lP$[rbp]
  001cc	48 25 ff ff 00
	00		 and	 rax, 65535		; 0000ffffH
  001d2	98		 cwde
  001d3	f3 0f 2a c8	 cvtsi2ss xmm1, eax
  001d7	0f 28 d0	 movaps	 xmm2, xmm0
  001da	48 8d 8d 24 01
	00 00		 lea	 rcx, QWORD PTR $T3[rbp]
  001e1	e8 00 00 00 00	 call	 ??0v2@Cy@@QEAA@MM@Z	; Cy::v2::v2
  001e6	48 8b 00	 mov	 rax, QWORD PTR [rax]
  001e9	48 8b 4d 08	 mov	 rcx, QWORD PTR input$[rbp]
  001ed	48 89 41 5c	 mov	 QWORD PTR [rcx+92], rax
; Line 79
  001f1	eb 4b		 jmp	 SHORT $LN2@MessageHan
$LN13@MessageHan:
; Line 82
  001f3	b8 01 00 00 00	 mov	 eax, 1
  001f8	48 6b c0 01	 imul	 rax, rax, 1
  001fc	48 8b 4d 08	 mov	 rcx, QWORD PTR input$[rbp]
  00200	c6 44 01 01 01	 mov	 BYTE PTR [rcx+rax+1], 1
; Line 84
  00205	eb 37		 jmp	 SHORT $LN2@MessageHan
$LN14@MessageHan:
; Line 87
  00207	b8 01 00 00 00	 mov	 eax, 1
  0020c	48 6b c0 01	 imul	 rax, rax, 1
  00210	48 8b 4d 08	 mov	 rcx, QWORD PTR input$[rbp]
  00214	c6 44 01 01 00	 mov	 BYTE PTR [rcx+rax+1], 0
; Line 89
  00219	eb 23		 jmp	 SHORT $LN2@MessageHan
$LN15@MessageHan:
; Line 92
  0021b	4c 8b 8d 78 01
	00 00		 mov	 r9, QWORD PTR lP$[rbp]
  00222	4c 8b 85 70 01
	00 00		 mov	 r8, QWORD PTR wP$[rbp]
  00229	8b 95 68 01 00
	00		 mov	 edx, DWORD PTR msg$[rbp]
  0022f	48 8b 8d 60 01
	00 00		 mov	 rcx, QWORD PTR hwnd$[rbp]
  00236	ff 15 00 00 00
	00		 call	 QWORD PTR __imp_DefWindowProcW
  0023c	eb 02		 jmp	 SHORT $LN1@MessageHan
$LN2@MessageHan:
; Line 95
  0023e	33 c0		 xor	 eax, eax
$LN1@MessageHan:
; Line 96
  00240	48 8d a5 48 01
	00 00		 lea	 rsp, QWORD PTR [rbp+328]
  00247	5f		 pop	 rdi
  00248	5d		 pop	 rbp
  00249	c3		 ret	 0
  0024a	66 90		 npad	 2
$LN19@MessageHan:
  0024c	00 00 00 00	 DD	 $LN13@MessageHan
  00250	00 00 00 00	 DD	 $LN14@MessageHan
  00254	00 00 00 00	 DD	 $LN8@MessageHan
  00258	00 00 00 00	 DD	 $LN6@MessageHan
  0025c	00 00 00 00	 DD	 $LN10@MessageHan
  00260	00 00 00 00	 DD	 $LN15@MessageHan
$LN18@MessageHan:
  00264	00		 DB	 0
  00265	01		 DB	 1
  00266	05		 DB	 5
  00267	05		 DB	 5
  00268	05		 DB	 5
  00269	05		 DB	 5
  0026a	05		 DB	 5
  0026b	05		 DB	 5
  0026c	05		 DB	 5
  0026d	05		 DB	 5
  0026e	05		 DB	 5
  0026f	05		 DB	 5
  00270	05		 DB	 5
  00271	05		 DB	 5
  00272	05		 DB	 5
  00273	05		 DB	 5
  00274	05		 DB	 5
  00275	05		 DB	 5
  00276	05		 DB	 5
  00277	05		 DB	 5
  00278	05		 DB	 5
  00279	05		 DB	 5
  0027a	05		 DB	 5
  0027b	05		 DB	 5
  0027c	05		 DB	 5
  0027d	05		 DB	 5
  0027e	05		 DB	 5
  0027f	05		 DB	 5
  00280	05		 DB	 5
  00281	05		 DB	 5
  00282	05		 DB	 5
  00283	05		 DB	 5
  00284	05		 DB	 5
  00285	05		 DB	 5
  00286	05		 DB	 5
  00287	05		 DB	 5
  00288	05		 DB	 5
  00289	05		 DB	 5
  0028a	05		 DB	 5
  0028b	05		 DB	 5
  0028c	05		 DB	 5
  0028d	05		 DB	 5
  0028e	05		 DB	 5
  0028f	05		 DB	 5
  00290	05		 DB	 5
  00291	05		 DB	 5
  00292	05		 DB	 5
  00293	05		 DB	 5
  00294	05		 DB	 5
  00295	05		 DB	 5
  00296	05		 DB	 5
  00297	05		 DB	 5
  00298	05		 DB	 5
  00299	05		 DB	 5
  0029a	05		 DB	 5
  0029b	05		 DB	 5
  0029c	05		 DB	 5
  0029d	05		 DB	 5
  0029e	05		 DB	 5
  0029f	05		 DB	 5
  002a0	05		 DB	 5
  002a1	05		 DB	 5
  002a2	05		 DB	 5
  002a3	05		 DB	 5
  002a4	05		 DB	 5
  002a5	05		 DB	 5
  002a6	05		 DB	 5
  002a7	05		 DB	 5
  002a8	05		 DB	 5
  002a9	05		 DB	 5
  002aa	05		 DB	 5
  002ab	05		 DB	 5
  002ac	05		 DB	 5
  002ad	05		 DB	 5
  002ae	05		 DB	 5
  002af	05		 DB	 5
  002b0	05		 DB	 5
  002b1	05		 DB	 5
  002b2	05		 DB	 5
  002b3	05		 DB	 5
  002b4	05		 DB	 5
  002b5	05		 DB	 5
  002b6	05		 DB	 5
  002b7	05		 DB	 5
  002b8	05		 DB	 5
  002b9	05		 DB	 5
  002ba	05		 DB	 5
  002bb	05		 DB	 5
  002bc	05		 DB	 5
  002bd	05		 DB	 5
  002be	05		 DB	 5
  002bf	05		 DB	 5
  002c0	05		 DB	 5
  002c1	05		 DB	 5
  002c2	05		 DB	 5
  002c3	05		 DB	 5
  002c4	05		 DB	 5
  002c5	05		 DB	 5
  002c6	05		 DB	 5
  002c7	05		 DB	 5
  002c8	05		 DB	 5
  002c9	05		 DB	 5
  002ca	05		 DB	 5
  002cb	05		 DB	 5
  002cc	05		 DB	 5
  002cd	05		 DB	 5
  002ce	05		 DB	 5
  002cf	05		 DB	 5
  002d0	05		 DB	 5
  002d1	05		 DB	 5
  002d2	05		 DB	 5
  002d3	05		 DB	 5
  002d4	05		 DB	 5
  002d5	05		 DB	 5
  002d6	05		 DB	 5
  002d7	05		 DB	 5
  002d8	05		 DB	 5
  002d9	05		 DB	 5
  002da	05		 DB	 5
  002db	05		 DB	 5
  002dc	05		 DB	 5
  002dd	05		 DB	 5
  002de	05		 DB	 5
  002df	05		 DB	 5
  002e0	05		 DB	 5
  002e1	05		 DB	 5
  002e2	05		 DB	 5
  002e3	05		 DB	 5
  002e4	05		 DB	 5
  002e5	05		 DB	 5
  002e6	05		 DB	 5
  002e7	05		 DB	 5
  002e8	05		 DB	 5
  002e9	05		 DB	 5
  002ea	05		 DB	 5
  002eb	05		 DB	 5
  002ec	05		 DB	 5
  002ed	05		 DB	 5
  002ee	05		 DB	 5
  002ef	05		 DB	 5
  002f0	05		 DB	 5
  002f1	05		 DB	 5
  002f2	05		 DB	 5
  002f3	02		 DB	 2
  002f4	03		 DB	 3
  002f5	05		 DB	 5
  002f6	05		 DB	 5
  002f7	05		 DB	 5
  002f8	05		 DB	 5
  002f9	05		 DB	 5
  002fa	05		 DB	 5
  002fb	05		 DB	 5
  002fc	05		 DB	 5
  002fd	05		 DB	 5
  002fe	05		 DB	 5
  002ff	05		 DB	 5
  00300	05		 DB	 5
  00301	05		 DB	 5
  00302	05		 DB	 5
  00303	04		 DB	 4
  00304	04		 DB	 4
  00305	04		 DB	 4
?MessageHandler@Cy@@YA_JPEAUHWND__@@I_K_J@Z ENDP	; Cy::MessageHandler
_TEXT	ENDS
; Function compile flags: /Odtp /RTCsu /ZI
;	COMDAT ?WindowsSleep@Windows@@YAXI@Z
_TEXT	SEGMENT
sleepInMilli$ = 224
?WindowsSleep@Windows@@YAXI@Z PROC			; Windows::WindowsSleep, COMDAT
; File d:\scottsdocs\sourcecode\vulkanengine\vulkanengine\code\commonwindows.cpp
; Line 13
$LN3:
  00000	89 4c 24 08	 mov	 DWORD PTR [rsp+8], ecx
  00004	55		 push	 rbp
  00005	57		 push	 rdi
  00006	48 81 ec e8 00
	00 00		 sub	 rsp, 232		; 000000e8H
  0000d	48 8d 6c 24 20	 lea	 rbp, QWORD PTR [rsp+32]
  00012	48 8b fc	 mov	 rdi, rsp
  00015	b9 3a 00 00 00	 mov	 ecx, 58			; 0000003aH
  0001a	b8 cc cc cc cc	 mov	 eax, -858993460		; ccccccccH
  0001f	f3 ab		 rep stosd
  00021	8b 8c 24 08 01
	00 00		 mov	 ecx, DWORD PTR [rsp+264]
; Line 14
  00028	8b 8d e0 00 00
	00		 mov	 ecx, DWORD PTR sleepInMilli$[rbp]
  0002e	ff 15 00 00 00
	00		 call	 QWORD PTR __imp_Sleep
; Line 15
  00034	48 8d a5 c8 00
	00 00		 lea	 rsp, QWORD PTR [rbp+200]
  0003b	5f		 pop	 rdi
  0003c	5d		 pop	 rbp
  0003d	c3		 ret	 0
?WindowsSleep@Windows@@YAXI@Z ENDP			; Windows::WindowsSleep
_TEXT	ENDS
; Function compile flags: /Odtp /RTCsu /ZI
;	COMDAT ?SafeTruncate@Cy@@YAH_J@Z
_TEXT	SEGMENT
safe$1 = 4
safe$2 = 36
$T3 = 264
$T4 = 328
$T5 = 360
$T6 = 424
tv85 = 436
tv69 = 436
tv133 = 440
tv91 = 440
value$ = 480
?SafeTruncate@Cy@@YAH_J@Z PROC				; Cy::SafeTruncate, COMDAT
; File d:\scottsdocs\sourcecode\vulkanengine\vulkanengine\code\util.h
; Line 104
$LN11:
  00000	48 89 4c 24 08	 mov	 QWORD PTR [rsp+8], rcx
  00005	55		 push	 rbp
  00006	57		 push	 rdi
  00007	48 81 ec e8 01
	00 00		 sub	 rsp, 488		; 000001e8H
  0000e	48 8d 6c 24 20	 lea	 rbp, QWORD PTR [rsp+32]
  00013	48 8b fc	 mov	 rdi, rsp
  00016	b9 7a 00 00 00	 mov	 ecx, 122		; 0000007aH
  0001b	b8 cc cc cc cc	 mov	 eax, -858993460		; ccccccccH
  00020	f3 ab		 rep stosd
  00022	48 8b 8c 24 08
	02 00 00	 mov	 rcx, QWORD PTR [rsp+520]
; Line 105
  0002a	48 8b 85 e0 01
	00 00		 mov	 rax, QWORD PTR value$[rbp]
  00031	48 c1 f8 3f	 sar	 rax, 63			; 0000003fH
  00035	48 85 c0	 test	 rax, rax
  00038	74 79		 je	 SHORT $LN2@SafeTrunca
; Line 107
  0003a	48 8b 85 e0 01
	00 00		 mov	 rax, QWORD PTR value$[rbp]
  00041	48 c1 f8 20	 sar	 rax, 32			; 00000020H
  00045	48 85 c0	 test	 rax, rax
  00048	75 13		 jne	 SHORT $LN5@SafeTrunca
  0004a	33 c0		 xor	 eax, eax
  0004c	83 f8 ff	 cmp	 eax, -1			; ffffffffH
  0004f	74 0c		 je	 SHORT $LN5@SafeTrunca
  00051	c7 85 b4 01 00
	00 00 00 00 00	 mov	 DWORD PTR tv69[rbp], 0
  0005b	eb 0a		 jmp	 SHORT $LN6@SafeTrunca
$LN5@SafeTrunca:
  0005d	c7 85 b4 01 00
	00 01 00 00 00	 mov	 DWORD PTR tv69[rbp], 1
$LN6@SafeTrunca:
  00067	0f b6 85 b4 01
	00 00		 movzx	 eax, BYTE PTR tv69[rbp]
  0006e	88 45 04	 mov	 BYTE PTR safe$1[rbp], al
; Line 108
  00071	48 8d 85 08 01
	00 00		 lea	 rax, QWORD PTR $T3[rbp]
  00078	48 89 85 48 01
	00 00		 mov	 QWORD PTR $T4[rbp], rax
  0007f	48 8d 15 00 00
	00 00		 lea	 rdx, OFFSET FLAT:??_C@_0BC@BJEMDEOO@truncate?5NOT?5SAFE?$AA@
  00086	48 8b 8d 48 01
	00 00		 mov	 rcx, QWORD PTR $T4[rbp]
  0008d	e8 00 00 00 00	 call	 ??0?$basic_string@DU?$char_traits@D@std@@V?$allocator@D@2@@std@@QEAA@PEBD@Z ; std::basic_string<char,std::char_traits<char>,std::allocator<char> >::basic_string<char,std::char_traits<char>,std::allocator<char> >
  00092	48 89 85 b8 01
	00 00		 mov	 QWORD PTR tv91[rbp], rax
  00099	48 8b 95 b8 01
	00 00		 mov	 rdx, QWORD PTR tv91[rbp]
  000a0	0f b6 4d 04	 movzx	 ecx, BYTE PTR safe$1[rbp]
  000a4	e8 00 00 00 00	 call	 ?Assert@Cy@@YAX_NV?$basic_string@DU?$char_traits@D@std@@V?$allocator@D@2@@std@@@Z ; Cy::Assert
; Line 109
  000a9	8b 85 e0 01 00
	00		 mov	 eax, DWORD PTR value$[rbp]
  000af	eb 77		 jmp	 SHORT $LN1@SafeTrunca
; Line 111
  000b1	eb 75		 jmp	 SHORT $LN1@SafeTrunca
$LN2@SafeTrunca:
; Line 113
  000b3	48 8b 85 e0 01
	00 00		 mov	 rax, QWORD PTR value$[rbp]
  000ba	48 c1 f8 20	 sar	 rax, 32			; 00000020H
  000be	48 85 c0	 test	 rax, rax
  000c1	74 13		 je	 SHORT $LN7@SafeTrunca
  000c3	33 c0		 xor	 eax, eax
  000c5	83 f8 ff	 cmp	 eax, -1			; ffffffffH
  000c8	74 0c		 je	 SHORT $LN7@SafeTrunca
  000ca	c7 85 b4 01 00
	00 00 00 00 00	 mov	 DWORD PTR tv85[rbp], 0
  000d4	eb 0a		 jmp	 SHORT $LN8@SafeTrunca
$LN7@SafeTrunca:
  000d6	c7 85 b4 01 00
	00 01 00 00 00	 mov	 DWORD PTR tv85[rbp], 1
$LN8@SafeTrunca:
  000e0	0f b6 85 b4 01
	00 00		 movzx	 eax, BYTE PTR tv85[rbp]
  000e7	88 45 24	 mov	 BYTE PTR safe$2[rbp], al
; Line 114
  000ea	48 8d 85 68 01
	00 00		 lea	 rax, QWORD PTR $T5[rbp]
  000f1	48 89 85 a8 01
	00 00		 mov	 QWORD PTR $T6[rbp], rax
  000f8	48 8d 15 00 00
	00 00		 lea	 rdx, OFFSET FLAT:??_C@_0BC@BJEMDEOO@truncate?5NOT?5SAFE?$AA@
  000ff	48 8b 8d a8 01
	00 00		 mov	 rcx, QWORD PTR $T6[rbp]
  00106	e8 00 00 00 00	 call	 ??0?$basic_string@DU?$char_traits@D@std@@V?$allocator@D@2@@std@@QEAA@PEBD@Z ; std::basic_string<char,std::char_traits<char>,std::allocator<char> >::basic_string<char,std::char_traits<char>,std::allocator<char> >
  0010b	48 89 85 b8 01
	00 00		 mov	 QWORD PTR tv133[rbp], rax
  00112	48 8b 95 b8 01
	00 00		 mov	 rdx, QWORD PTR tv133[rbp]
  00119	0f b6 4d 24	 movzx	 ecx, BYTE PTR safe$2[rbp]
  0011d	e8 00 00 00 00	 call	 ?Assert@Cy@@YAX_NV?$basic_string@DU?$char_traits@D@std@@V?$allocator@D@2@@std@@@Z ; Cy::Assert
; Line 115
  00122	8b 85 e0 01 00
	00		 mov	 eax, DWORD PTR value$[rbp]
$LN1@SafeTrunca:
; Line 117
  00128	48 8d a5 c8 01
	00 00		 lea	 rsp, QWORD PTR [rbp+456]
  0012f	5f		 pop	 rdi
  00130	5d		 pop	 rbp
  00131	c3		 ret	 0
?SafeTruncate@Cy@@YAH_J@Z ENDP				; Cy::SafeTruncate
_TEXT	ENDS
; Function compile flags: /Odtp /RTCsu /ZI
;	COMDAT ?SafeTruncate@Cy@@YAI_K@Z
_TEXT	SEGMENT
safe$ = 4
$T1 = 232
$T2 = 296
tv67 = 308
tv73 = 312
value$ = 352
?SafeTruncate@Cy@@YAI_K@Z PROC				; Cy::SafeTruncate, COMDAT
; File d:\scottsdocs\sourcecode\vulkanengine\vulkanengine\code\util.h
; Line 86
$LN6:
  00000	48 89 4c 24 08	 mov	 QWORD PTR [rsp+8], rcx
  00005	55		 push	 rbp
  00006	57		 push	 rdi
  00007	48 81 ec 68 01
	00 00		 sub	 rsp, 360		; 00000168H
  0000e	48 8d 6c 24 20	 lea	 rbp, QWORD PTR [rsp+32]
  00013	48 8b fc	 mov	 rdi, rsp
  00016	b9 5a 00 00 00	 mov	 ecx, 90			; 0000005aH
  0001b	b8 cc cc cc cc	 mov	 eax, -858993460		; ccccccccH
  00020	f3 ab		 rep stosd
  00022	48 8b 8c 24 88
	01 00 00	 mov	 rcx, QWORD PTR [rsp+392]
; Line 87
  0002a	48 8b 85 60 01
	00 00		 mov	 rax, QWORD PTR value$[rbp]
  00031	48 c1 e8 20	 shr	 rax, 32			; 00000020H
  00035	48 85 c0	 test	 rax, rax
  00038	74 13		 je	 SHORT $LN3@SafeTrunca
  0003a	33 c0		 xor	 eax, eax
  0003c	83 f8 ff	 cmp	 eax, -1			; ffffffffH
  0003f	74 0c		 je	 SHORT $LN3@SafeTrunca
  00041	c7 85 34 01 00
	00 00 00 00 00	 mov	 DWORD PTR tv67[rbp], 0
  0004b	eb 0a		 jmp	 SHORT $LN4@SafeTrunca
$LN3@SafeTrunca:
  0004d	c7 85 34 01 00
	00 01 00 00 00	 mov	 DWORD PTR tv67[rbp], 1
$LN4@SafeTrunca:
  00057	0f b6 85 34 01
	00 00		 movzx	 eax, BYTE PTR tv67[rbp]
  0005e	88 45 04	 mov	 BYTE PTR safe$[rbp], al
; Line 88
  00061	48 8d 85 e8 00
	00 00		 lea	 rax, QWORD PTR $T1[rbp]
  00068	48 89 85 28 01
	00 00		 mov	 QWORD PTR $T2[rbp], rax
  0006f	48 8d 15 00 00
	00 00		 lea	 rdx, OFFSET FLAT:??_C@_0BC@BJEMDEOO@truncate?5NOT?5SAFE?$AA@
  00076	48 8b 8d 28 01
	00 00		 mov	 rcx, QWORD PTR $T2[rbp]
  0007d	e8 00 00 00 00	 call	 ??0?$basic_string@DU?$char_traits@D@std@@V?$allocator@D@2@@std@@QEAA@PEBD@Z ; std::basic_string<char,std::char_traits<char>,std::allocator<char> >::basic_string<char,std::char_traits<char>,std::allocator<char> >
  00082	48 89 85 38 01
	00 00		 mov	 QWORD PTR tv73[rbp], rax
  00089	48 8b 95 38 01
	00 00		 mov	 rdx, QWORD PTR tv73[rbp]
  00090	0f b6 4d 04	 movzx	 ecx, BYTE PTR safe$[rbp]
  00094	e8 00 00 00 00	 call	 ?Assert@Cy@@YAX_NV?$basic_string@DU?$char_traits@D@std@@V?$allocator@D@2@@std@@@Z ; Cy::Assert
; Line 89
  00099	8b 85 60 01 00
	00		 mov	 eax, DWORD PTR value$[rbp]
; Line 90
  0009f	48 8d a5 48 01
	00 00		 lea	 rsp, QWORD PTR [rbp+328]
  000a6	5f		 pop	 rdi
  000a7	5d		 pop	 rbp
  000a8	c3		 ret	 0
?SafeTruncate@Cy@@YAI_K@Z ENDP				; Cy::SafeTruncate
_TEXT	ENDS
; Function compile flags: /Odtp /RTCsu /ZI
;	COMDAT ??$?5DU?$char_traits@D@std@@@std@@YAAEAV?$basic_istream@DU?$char_traits@D@std@@@0@AEAV10@AEAD@Z
_TEXT	SEGMENT
_Meta$ = 4
_State$ = 36
_Ok$ = 72
$T5 = 308
$T6 = 344
$T7 = 376
tv65 = 392
tv157 = 400
__$ArrayPad$ = 408
_Istr$ = 448
_Ch$ = 456
??$?5DU?$char_traits@D@std@@@std@@YAAEAV?$basic_istream@DU?$char_traits@D@std@@@0@AEAV10@AEAD@Z PROC ; std::operator>><char,std::char_traits<char> >, COMDAT
; File d:\appdata\vsp\vc\include\istream
; Line 1052
$LN13:
  00000	48 89 54 24 10	 mov	 QWORD PTR [rsp+16], rdx
  00005	48 89 4c 24 08	 mov	 QWORD PTR [rsp+8], rcx
  0000a	55		 push	 rbp
  0000b	57		 push	 rdi
  0000c	48 81 ec c8 01
	00 00		 sub	 rsp, 456		; 000001c8H
  00013	48 8d 6c 24 20	 lea	 rbp, QWORD PTR [rsp+32]
  00018	48 8b fc	 mov	 rdi, rsp
  0001b	b9 72 00 00 00	 mov	 ecx, 114		; 00000072H
  00020	b8 cc cc cc cc	 mov	 eax, -858993460		; ccccccccH
  00025	f3 ab		 rep stosd
  00027	48 8b 8c 24 e8
	01 00 00	 mov	 rcx, QWORD PTR [rsp+488]
  0002f	48 c7 85 78 01
	00 00 fe ff ff
	ff		 mov	 QWORD PTR $T7[rbp], -2
  0003a	48 8b 05 00 00
	00 00		 mov	 rax, QWORD PTR __security_cookie
  00041	48 33 c5	 xor	 rax, rbp
  00044	48 89 85 98 01
	00 00		 mov	 QWORD PTR __$ArrayPad$[rbp], rax
; Line 1056
  0004b	c7 45 24 00 00
	00 00		 mov	 DWORD PTR _State$[rbp], 0
; Line 1057
  00052	45 33 c0	 xor	 r8d, r8d
  00055	48 8b 95 c0 01
	00 00		 mov	 rdx, QWORD PTR _Istr$[rbp]
  0005c	48 8d 4d 48	 lea	 rcx, QWORD PTR _Ok$[rbp]
  00060	e8 00 00 00 00	 call	 ??0sentry@?$basic_istream@DU?$char_traits@D@std@@@std@@QEAA@AEAV12@_N@Z ; std::basic_istream<char,std::char_traits<char> >::sentry::sentry
  00065	90		 npad	 1
; Line 1059
  00066	48 8d 4d 48	 lea	 rcx, QWORD PTR _Ok$[rbp]
  0006a	e8 00 00 00 00	 call	 ??Bsentry@?$basic_istream@DU?$char_traits@D@std@@@std@@QEBA_NXZ ; std::basic_istream<char,std::char_traits<char> >::sentry::operator bool
  0006f	0f b6 c0	 movzx	 eax, al
  00072	85 c0		 test	 eax, eax
  00074	0f 84 88 00 00
	00		 je	 $LN2@operator
; Line 1062
  0007a	48 8b 85 c0 01
	00 00		 mov	 rax, QWORD PTR _Istr$[rbp]
  00081	48 8b 00	 mov	 rax, QWORD PTR [rax]
  00084	48 63 40 04	 movsxd	 rax, DWORD PTR [rax+4]
  00088	48 8b 8d c0 01
	00 00		 mov	 rcx, QWORD PTR _Istr$[rbp]
  0008f	48 03 c8	 add	 rcx, rax
  00092	48 8b c1	 mov	 rax, rcx
  00095	48 8b c8	 mov	 rcx, rax
  00098	ff 15 00 00 00
	00		 call	 QWORD PTR __imp_?rdbuf@?$basic_ios@DU?$char_traits@D@std@@@std@@QEBAPEAV?$basic_streambuf@DU?$char_traits@D@std@@@2@XZ
  0009e	48 89 85 88 01
	00 00		 mov	 QWORD PTR tv65[rbp], rax
  000a5	48 8b 8d 88 01
	00 00		 mov	 rcx, QWORD PTR tv65[rbp]
  000ac	ff 15 00 00 00
	00		 call	 QWORD PTR __imp_?sbumpc@?$basic_streambuf@DU?$char_traits@D@std@@@std@@QEAAHXZ
  000b2	89 85 90 01 00
	00		 mov	 DWORD PTR tv157[rbp], eax
  000b8	8b 85 90 01 00
	00		 mov	 eax, DWORD PTR tv157[rbp]
  000be	89 45 04	 mov	 DWORD PTR _Meta$[rbp], eax
; Line 1063
  000c1	e8 00 00 00 00	 call	 ?eof@?$char_traits@D@std@@SAHXZ ; std::char_traits<char>::eof
  000c6	89 85 34 01 00
	00		 mov	 DWORD PTR $T5[rbp], eax
  000cc	48 8d 55 04	 lea	 rdx, QWORD PTR _Meta$[rbp]
  000d0	48 8d 8d 34 01
	00 00		 lea	 rcx, QWORD PTR $T5[rbp]
  000d7	e8 00 00 00 00	 call	 ?eq_int_type@?$char_traits@D@std@@SA_NAEBH0@Z ; std::char_traits<char>::eq_int_type
  000dc	0f b6 c0	 movzx	 eax, al
  000df	85 c0		 test	 eax, eax
  000e1	74 0b		 je	 SHORT $LN4@operator
; Line 1064
  000e3	8b 45 24	 mov	 eax, DWORD PTR _State$[rbp]
  000e6	83 c8 03	 or	 eax, 3
  000e9	89 45 24	 mov	 DWORD PTR _State$[rbp], eax
; Line 1065
  000ec	eb 12		 jmp	 SHORT $LN5@operator
$LN4@operator:
; Line 1066
  000ee	48 8d 4d 04	 lea	 rcx, QWORD PTR _Meta$[rbp]
  000f2	e8 00 00 00 00	 call	 ?to_char_type@?$char_traits@D@std@@SADAEBH@Z ; std::char_traits<char>::to_char_type
  000f7	48 8b 8d c8 01
	00 00		 mov	 rcx, QWORD PTR _Ch$[rbp]
  000fe	88 01		 mov	 BYTE PTR [rcx], al
$LN5@operator:
  00100	eb 00		 jmp	 SHORT $LN2@operator
$LN11@operator:
$LN2@operator:
; Line 1070
  00102	48 8b 85 c0 01
	00 00		 mov	 rax, QWORD PTR _Istr$[rbp]
  00109	48 8b 00	 mov	 rax, QWORD PTR [rax]
  0010c	48 63 40 04	 movsxd	 rax, DWORD PTR [rax+4]
  00110	48 8b 8d c0 01
	00 00		 mov	 rcx, QWORD PTR _Istr$[rbp]
  00117	48 03 c8	 add	 rcx, rax
  0011a	48 8b c1	 mov	 rax, rcx
  0011d	45 33 c0	 xor	 r8d, r8d
  00120	8b 55 24	 mov	 edx, DWORD PTR _State$[rbp]
  00123	48 8b c8	 mov	 rcx, rax
  00126	ff 15 00 00 00
	00		 call	 QWORD PTR __imp_?setstate@?$basic_ios@DU?$char_traits@D@std@@@std@@QEAAXH_N@Z
; Line 1071
  0012c	48 8b 85 c0 01
	00 00		 mov	 rax, QWORD PTR _Istr$[rbp]
  00133	48 89 85 58 01
	00 00		 mov	 QWORD PTR $T6[rbp], rax
  0013a	48 8d 4d 48	 lea	 rcx, QWORD PTR _Ok$[rbp]
  0013e	e8 00 00 00 00	 call	 ??1sentry@?$basic_istream@DU?$char_traits@D@std@@@std@@QEAA@XZ
  00143	48 8b 85 58 01
	00 00		 mov	 rax, QWORD PTR $T6[rbp]
; Line 1072
  0014a	48 8b f8	 mov	 rdi, rax
  0014d	48 8d 4d e0	 lea	 rcx, QWORD PTR [rbp-32]
  00151	48 8d 15 00 00
	00 00		 lea	 rdx, OFFSET FLAT:??$?5DU?$char_traits@D@std@@@std@@YAAEAV?$basic_istream@DU?$char_traits@D@std@@@0@AEAV10@AEAD@Z$rtcFrameData
  00158	e8 00 00 00 00	 call	 _RTC_CheckStackVars
  0015d	48 8b c7	 mov	 rax, rdi
  00160	48 8b 8d 98 01
	00 00		 mov	 rcx, QWORD PTR __$ArrayPad$[rbp]
  00167	48 33 cd	 xor	 rcx, rbp
  0016a	e8 00 00 00 00	 call	 __security_check_cookie
  0016f	48 8d a5 a8 01
	00 00		 lea	 rsp, QWORD PTR [rbp+424]
  00176	5f		 pop	 rdi
  00177	5d		 pop	 rbp
  00178	c3		 ret	 0
??$?5DU?$char_traits@D@std@@@std@@YAAEAV?$basic_istream@DU?$char_traits@D@std@@@0@AEAV10@AEAD@Z ENDP ; std::operator>><char,std::char_traits<char> >
_TEXT	ENDS
;	COMDAT text$x
text$x	SEGMENT
_Meta$ = 4
_State$ = 36
_Ok$ = 72
$T5 = 308
$T6 = 344
$T7 = 376
tv65 = 392
tv157 = 400
__$ArrayPad$ = 408
_Istr$ = 448
_Ch$ = 456
?dtor$0@?0???$?5DU?$char_traits@D@std@@@std@@YAAEAV?$basic_istream@DU?$char_traits@D@std@@@0@AEAV10@AEAD@Z@4HA PROC ; `std::operator>><char,std::char_traits<char> >'::`1'::dtor$0
  00000	48 89 4c 24 08	 mov	 QWORD PTR [rsp+8], rcx
  00005	48 89 54 24 10	 mov	 QWORD PTR [rsp+16], rdx
  0000a	55		 push	 rbp
  0000b	57		 push	 rdi
  0000c	48 83 ec 28	 sub	 rsp, 40			; 00000028H
  00010	48 8d 6a 20	 lea	 rbp, QWORD PTR [rdx+32]
  00014	48 8d 4d 48	 lea	 rcx, QWORD PTR _Ok$[rbp]
  00018	e8 00 00 00 00	 call	 ??1sentry@?$basic_istream@DU?$char_traits@D@std@@@std@@QEAA@XZ
  0001d	48 83 c4 28	 add	 rsp, 40			; 00000028H
  00021	5f		 pop	 rdi
  00022	5d		 pop	 rbp
  00023	c3		 ret	 0
?dtor$0@?0???$?5DU?$char_traits@D@std@@@std@@YAAEAV?$basic_istream@DU?$char_traits@D@std@@@0@AEAV10@AEAD@Z@4HA ENDP ; `std::operator>><char,std::char_traits<char> >'::`1'::dtor$0
_Meta$ = 4
_State$ = 36
_Ok$ = 72
$T5 = 308
$T6 = 344
$T7 = 376
tv65 = 392
tv157 = 400
__$ArrayPad$ = 408
_Istr$ = 448
_Ch$ = 456
?catch$0@?0???$?5DU?$char_traits@D@std@@@std@@YAAEAV?$basic_istream@DU?$char_traits@D@std@@@0@AEAV10@AEAD@Z@4HA PROC ; `std::operator>><char,std::char_traits<char> >'::`1'::catch$0
; Line 1067
  00024	48 89 4c 24 08	 mov	 QWORD PTR [rsp+8], rcx
  00029	48 89 54 24 10	 mov	 QWORD PTR [rsp+16], rdx
  0002e	55		 push	 rbp
  0002f	57		 push	 rdi
  00030	48 83 ec 28	 sub	 rsp, 40			; 00000028H
  00034	48 8d 6a 20	 lea	 rbp, QWORD PTR [rdx+32]
__catch$??$?5DU?$char_traits@D@std@@@std@@YAAEAV?$basic_istream@DU?$char_traits@D@std@@@0@AEAV10@AEAD@Z$0:
  00038	48 8b 85 c0 01
	00 00		 mov	 rax, QWORD PTR _Istr$[rbp]
  0003f	48 8b 00	 mov	 rax, QWORD PTR [rax]
  00042	48 63 40 04	 movsxd	 rax, DWORD PTR [rax+4]
  00046	48 8b 8d c0 01
	00 00		 mov	 rcx, QWORD PTR _Istr$[rbp]
  0004d	48 03 c8	 add	 rcx, rax
  00050	48 8b c1	 mov	 rax, rcx
  00053	41 b0 01	 mov	 r8b, 1
  00056	ba 04 00 00 00	 mov	 edx, 4
  0005b	48 8b c8	 mov	 rcx, rax
  0005e	ff 15 00 00 00
	00		 call	 QWORD PTR __imp_?setstate@?$basic_ios@DU?$char_traits@D@std@@@std@@QEAAXH_N@Z
  00064	90		 npad	 1
  00065	48 8d 05 00 00
	00 00		 lea	 rax, $LN11@catch$0
  0006c	48 83 c4 28	 add	 rsp, 40			; 00000028H
  00070	5f		 pop	 rdi
  00071	5d		 pop	 rbp
  00072	c3		 ret	 0
  00073	cc		 int	 3
?catch$0@?0???$?5DU?$char_traits@D@std@@@std@@YAAEAV?$basic_istream@DU?$char_traits@D@std@@@0@AEAV10@AEAD@Z@4HA ENDP ; `std::operator>><char,std::char_traits<char> >'::`1'::catch$0
text$x	ENDS
; Function compile flags: /Odtp /RTCsu /ZI
;	COMDAT text$x
text$x	SEGMENT
_Meta$ = 4
_State$ = 36
_Ok$ = 72
$T5 = 308
$T6 = 344
$T7 = 376
tv65 = 392
tv157 = 400
__$ArrayPad$ = 408
_Istr$ = 448
_Ch$ = 456
?dtor$0@?0???$?5DU?$char_traits@D@std@@@std@@YAAEAV?$basic_istream@DU?$char_traits@D@std@@@0@AEAV10@AEAD@Z@4HA PROC ; `std::operator>><char,std::char_traits<char> >'::`1'::dtor$0
  00000	48 89 4c 24 08	 mov	 QWORD PTR [rsp+8], rcx
  00005	48 89 54 24 10	 mov	 QWORD PTR [rsp+16], rdx
  0000a	55		 push	 rbp
  0000b	57		 push	 rdi
  0000c	48 83 ec 28	 sub	 rsp, 40			; 00000028H
  00010	48 8d 6a 20	 lea	 rbp, QWORD PTR [rdx+32]
  00014	48 8d 4d 48	 lea	 rcx, QWORD PTR _Ok$[rbp]
  00018	e8 00 00 00 00	 call	 ??1sentry@?$basic_istream@DU?$char_traits@D@std@@@std@@QEAA@XZ
  0001d	48 83 c4 28	 add	 rsp, 40			; 00000028H
  00021	5f		 pop	 rdi
  00022	5d		 pop	 rbp
  00023	c3		 ret	 0
?dtor$0@?0???$?5DU?$char_traits@D@std@@@std@@YAAEAV?$basic_istream@DU?$char_traits@D@std@@@0@AEAV10@AEAD@Z@4HA ENDP ; `std::operator>><char,std::char_traits<char> >'::`1'::dtor$0
text$x	ENDS
; Function compile flags: /Odtp /RTCsu /ZI
;	COMDAT text$x
text$x	SEGMENT
_Meta$ = 4
_State$ = 36
_Ok$ = 72
$T5 = 308
$T6 = 344
$T7 = 376
tv65 = 392
tv157 = 400
__$ArrayPad$ = 408
_Istr$ = 448
_Ch$ = 456
?catch$0@?0???$?5DU?$char_traits@D@std@@@std@@YAAEAV?$basic_istream@DU?$char_traits@D@std@@@0@AEAV10@AEAD@Z@4HA PROC ; `std::operator>><char,std::char_traits<char> >'::`1'::catch$0
; Line 1067
  00024	48 89 4c 24 08	 mov	 QWORD PTR [rsp+8], rcx
  00029	48 89 54 24 10	 mov	 QWORD PTR [rsp+16], rdx
  0002e	55		 push	 rbp
  0002f	57		 push	 rdi
  00030	48 83 ec 28	 sub	 rsp, 40			; 00000028H
  00034	48 8d 6a 20	 lea	 rbp, QWORD PTR [rdx+32]
__catch$??$?5DU?$char_traits@D@std@@@std@@YAAEAV?$basic_istream@DU?$char_traits@D@std@@@0@AEAV10@AEAD@Z$0:
  00038	48 8b 85 c0 01
	00 00		 mov	 rax, QWORD PTR _Istr$[rbp]
  0003f	48 8b 00	 mov	 rax, QWORD PTR [rax]
  00042	48 63 40 04	 movsxd	 rax, DWORD PTR [rax+4]
  00046	48 8b 8d c0 01
	00 00		 mov	 rcx, QWORD PTR _Istr$[rbp]
  0004d	48 03 c8	 add	 rcx, rax
  00050	48 8b c1	 mov	 rax, rcx
  00053	41 b0 01	 mov	 r8b, 1
  00056	ba 04 00 00 00	 mov	 edx, 4
  0005b	48 8b c8	 mov	 rcx, rax
  0005e	ff 15 00 00 00
	00		 call	 QWORD PTR __imp_?setstate@?$basic_ios@DU?$char_traits@D@std@@@std@@QEAAXH_N@Z
  00064	90		 npad	 1
  00065	48 8d 05 00 00
	00 00		 lea	 rax, $LN11@catch$0
  0006c	48 83 c4 28	 add	 rsp, 40			; 00000028H
  00070	5f		 pop	 rdi
  00071	5d		 pop	 rbp
  00072	c3		 ret	 0
  00073	cc		 int	 3
?catch$0@?0???$?5DU?$char_traits@D@std@@@std@@YAAEAV?$basic_istream@DU?$char_traits@D@std@@@0@AEAV10@AEAD@Z@4HA ENDP ; `std::operator>><char,std::char_traits<char> >'::`1'::catch$0
text$x	ENDS
; Function compile flags: /Odtp /RTCsu /ZI
;	COMDAT ?Assert@Cy@@YAX_NV?$basic_string@DU?$char_traits@D@std@@V?$allocator@D@2@@std@@@Z
_TEXT	SEGMENT
x$ = 4
consoleHandle$4 = 40
$T5 = 264
$T6 = 328
$T7 = 360
tv85 = 376
__$ArrayPad$ = 384
test$ = 432
message$ = 440
?Assert@Cy@@YAX_NV?$basic_string@DU?$char_traits@D@std@@V?$allocator@D@2@@std@@@Z PROC ; Cy::Assert, COMDAT
; File d:\scottsdocs\sourcecode\vulkanengine\vulkanengine\code\util.h
; Line 65
$LN6:
  00000	48 89 54 24 10	 mov	 QWORD PTR [rsp+16], rdx
  00005	88 4c 24 08	 mov	 BYTE PTR [rsp+8], cl
  00009	55		 push	 rbp
  0000a	57		 push	 rdi
  0000b	48 81 ec b8 01
	00 00		 sub	 rsp, 440		; 000001b8H
  00012	48 8d 6c 24 20	 lea	 rbp, QWORD PTR [rsp+32]
  00017	48 8b fc	 mov	 rdi, rsp
  0001a	b9 6e 00 00 00	 mov	 ecx, 110		; 0000006eH
  0001f	b8 cc cc cc cc	 mov	 eax, -858993460		; ccccccccH
  00024	f3 ab		 rep stosd
  00026	0f b6 8c 24 d8
	01 00 00	 movzx	 ecx, BYTE PTR [rsp+472]
  0002e	48 c7 85 68 01
	00 00 fe ff ff
	ff		 mov	 QWORD PTR $T7[rbp], -2
  00039	48 8b 05 00 00
	00 00		 mov	 rax, QWORD PTR __security_cookie
  00040	48 33 c5	 xor	 rax, rbp
  00043	48 89 85 80 01
	00 00		 mov	 QWORD PTR __$ArrayPad$[rbp], rax
; Line 68
  0004a	0f b6 85 b0 01
	00 00		 movzx	 eax, BYTE PTR test$[rbp]
  00051	85 c0		 test	 eax, eax
  00053	75 68		 jne	 SHORT $LN2@Assert
; Line 70
  00055	ff 15 00 00 00
	00		 call	 QWORD PTR __imp_GetConsoleWindow
  0005b	48 89 45 28	 mov	 QWORD PTR consoleHandle$4[rbp], rax
; Line 71
  0005f	ba 05 00 00 00	 mov	 edx, 5
  00064	48 8b 4d 28	 mov	 rcx, QWORD PTR consoleHandle$4[rbp]
  00068	ff 15 00 00 00
	00		 call	 QWORD PTR __imp_ShowWindow
; Line 72
  0006e	48 8b 4d 28	 mov	 rcx, QWORD PTR consoleHandle$4[rbp]
  00072	ff 15 00 00 00
	00		 call	 QWORD PTR __imp_SetFocus
; Line 73
  00078	48 8d 85 08 01
	00 00		 lea	 rax, QWORD PTR $T5[rbp]
  0007f	48 89 85 48 01
	00 00		 mov	 QWORD PTR $T6[rbp], rax
  00086	48 8b 95 b8 01
	00 00		 mov	 rdx, QWORD PTR message$[rbp]
  0008d	48 8b 8d 48 01
	00 00		 mov	 rcx, QWORD PTR $T6[rbp]
  00094	e8 00 00 00 00	 call	 ??0?$basic_string@DU?$char_traits@D@std@@V?$allocator@D@2@@std@@QEAA@AEBV01@@Z ; std::basic_string<char,std::char_traits<char>,std::allocator<char> >::basic_string<char,std::char_traits<char>,std::allocator<char> >
  00099	48 89 85 78 01
	00 00		 mov	 QWORD PTR tv85[rbp], rax
  000a0	48 8b 8d 78 01
	00 00		 mov	 rcx, QWORD PTR tv85[rbp]
  000a7	e8 00 00 00 00	 call	 ?Message@Cy@@YAXV?$basic_string@DU?$char_traits@D@std@@V?$allocator@D@2@@std@@@Z ; Cy::Message
; Line 74
  000ac	48 8d 55 04	 lea	 rdx, QWORD PTR x$[rbp]
  000b0	48 8b 0d 00 00
	00 00		 mov	 rcx, QWORD PTR __imp_?cin@std@@3V?$basic_istream@DU?$char_traits@D@std@@@1@A
  000b7	e8 00 00 00 00	 call	 ??$?5DU?$char_traits@D@std@@@std@@YAAEAV?$basic_istream@DU?$char_traits@D@std@@@0@AEAV10@AEAD@Z ; std::operator>><char,std::char_traits<char> >
  000bc	90		 npad	 1
$LN2@Assert:
; Line 78
  000bd	48 8b 8d b8 01
	00 00		 mov	 rcx, QWORD PTR message$[rbp]
  000c4	e8 00 00 00 00	 call	 ??1?$basic_string@DU?$char_traits@D@std@@V?$allocator@D@2@@std@@QEAA@XZ ; std::basic_string<char,std::char_traits<char>,std::allocator<char> >::~basic_string<char,std::char_traits<char>,std::allocator<char> >
  000c9	48 8d 4d e0	 lea	 rcx, QWORD PTR [rbp-32]
  000cd	48 8d 15 00 00
	00 00		 lea	 rdx, OFFSET FLAT:?Assert@Cy@@YAX_NV?$basic_string@DU?$char_traits@D@std@@V?$allocator@D@2@@std@@@Z$rtcFrameData
  000d4	e8 00 00 00 00	 call	 _RTC_CheckStackVars
  000d9	48 8b 8d 80 01
	00 00		 mov	 rcx, QWORD PTR __$ArrayPad$[rbp]
  000e0	48 33 cd	 xor	 rcx, rbp
  000e3	e8 00 00 00 00	 call	 __security_check_cookie
  000e8	48 8d a5 98 01
	00 00		 lea	 rsp, QWORD PTR [rbp+408]
  000ef	5f		 pop	 rdi
  000f0	5d		 pop	 rbp
  000f1	c3		 ret	 0
?Assert@Cy@@YAX_NV?$basic_string@DU?$char_traits@D@std@@V?$allocator@D@2@@std@@@Z ENDP ; Cy::Assert
_TEXT	ENDS
;	COMDAT text$x
text$x	SEGMENT
x$ = 4
consoleHandle$4 = 40
$T5 = 264
$T6 = 328
$T7 = 360
tv85 = 376
__$ArrayPad$ = 384
test$ = 432
message$ = 440
?dtor$0@?0??Assert@Cy@@YAX_NV?$basic_string@DU?$char_traits@D@std@@V?$allocator@D@2@@std@@@Z@4HA PROC ; `Cy::Assert'::`1'::dtor$0
  00000	48 89 4c 24 08	 mov	 QWORD PTR [rsp+8], rcx
  00005	48 89 54 24 10	 mov	 QWORD PTR [rsp+16], rdx
  0000a	55		 push	 rbp
  0000b	57		 push	 rdi
  0000c	48 83 ec 28	 sub	 rsp, 40			; 00000028H
  00010	48 8d 6a 20	 lea	 rbp, QWORD PTR [rdx+32]
  00014	48 8b 8d b8 01
	00 00		 mov	 rcx, QWORD PTR message$[rbp]
  0001b	e8 00 00 00 00	 call	 ??1?$basic_string@DU?$char_traits@D@std@@V?$allocator@D@2@@std@@QEAA@XZ ; std::basic_string<char,std::char_traits<char>,std::allocator<char> >::~basic_string<char,std::char_traits<char>,std::allocator<char> >
  00020	48 83 c4 28	 add	 rsp, 40			; 00000028H
  00024	5f		 pop	 rdi
  00025	5d		 pop	 rbp
  00026	c3		 ret	 0
?dtor$0@?0??Assert@Cy@@YAX_NV?$basic_string@DU?$char_traits@D@std@@V?$allocator@D@2@@std@@@Z@4HA ENDP ; `Cy::Assert'::`1'::dtor$0
text$x	ENDS
; Function compile flags: /Odtp /RTCsu /ZI
;	COMDAT text$x
text$x	SEGMENT
x$ = 4
consoleHandle$4 = 40
$T5 = 264
$T6 = 328
$T7 = 360
tv85 = 376
__$ArrayPad$ = 384
test$ = 432
message$ = 440
?dtor$0@?0??Assert@Cy@@YAX_NV?$basic_string@DU?$char_traits@D@std@@V?$allocator@D@2@@std@@@Z@4HA PROC ; `Cy::Assert'::`1'::dtor$0
  00000	48 89 4c 24 08	 mov	 QWORD PTR [rsp+8], rcx
  00005	48 89 54 24 10	 mov	 QWORD PTR [rsp+16], rdx
  0000a	55		 push	 rbp
  0000b	57		 push	 rdi
  0000c	48 83 ec 28	 sub	 rsp, 40			; 00000028H
  00010	48 8d 6a 20	 lea	 rbp, QWORD PTR [rdx+32]
  00014	48 8b 8d b8 01
	00 00		 mov	 rcx, QWORD PTR message$[rbp]
  0001b	e8 00 00 00 00	 call	 ??1?$basic_string@DU?$char_traits@D@std@@V?$allocator@D@2@@std@@QEAA@XZ ; std::basic_string<char,std::char_traits<char>,std::allocator<char> >::~basic_string<char,std::char_traits<char>,std::allocator<char> >
  00020	48 83 c4 28	 add	 rsp, 40			; 00000028H
  00024	5f		 pop	 rdi
  00025	5d		 pop	 rbp
  00026	c3		 ret	 0
?dtor$0@?0??Assert@Cy@@YAX_NV?$basic_string@DU?$char_traits@D@std@@V?$allocator@D@2@@std@@@Z@4HA ENDP ; `Cy::Assert'::`1'::dtor$0
text$x	ENDS
; Function compile flags: /Odtp /RTCsu /ZI
;	COMDAT ?Message@Cy@@YAXV?$basic_string@DU?$char_traits@D@std@@V?$allocator@D@2@@std@@@Z
_TEXT	SEGMENT
$T1 = 200
tv69 = 216
message$ = 256
?Message@Cy@@YAXV?$basic_string@DU?$char_traits@D@std@@V?$allocator@D@2@@std@@@Z PROC ; Cy::Message, COMDAT
; File d:\scottsdocs\sourcecode\vulkanengine\vulkanengine\code\util.h
; Line 41
$LN4:
  00000	48 89 4c 24 08	 mov	 QWORD PTR [rsp+8], rcx
  00005	55		 push	 rbp
  00006	57		 push	 rdi
  00007	48 81 ec 08 01
	00 00		 sub	 rsp, 264		; 00000108H
  0000e	48 8d 6c 24 20	 lea	 rbp, QWORD PTR [rsp+32]
  00013	48 8b fc	 mov	 rdi, rsp
  00016	b9 42 00 00 00	 mov	 ecx, 66			; 00000042H
  0001b	b8 cc cc cc cc	 mov	 eax, -858993460		; ccccccccH
  00020	f3 ab		 rep stosd
  00022	48 8b 8c 24 28
	01 00 00	 mov	 rcx, QWORD PTR [rsp+296]
  0002a	48 c7 85 c8 00
	00 00 fe ff ff
	ff		 mov	 QWORD PTR $T1[rbp], -2
; Line 42
  00035	48 8d 15 00 00
	00 00		 lea	 rdx, OFFSET FLAT:??_C@_01EEMJAFIK@?6?$AA@
  0003c	48 8b 8d 00 01
	00 00		 mov	 rcx, QWORD PTR message$[rbp]
  00043	e8 00 00 00 00	 call	 ??Y?$basic_string@DU?$char_traits@D@std@@V?$allocator@D@2@@std@@QEAAAEAV01@PEBD@Z ; std::basic_string<char,std::char_traits<char>,std::allocator<char> >::operator+=
; Line 44
  00048	48 8b 8d 00 01
	00 00		 mov	 rcx, QWORD PTR message$[rbp]
  0004f	e8 00 00 00 00	 call	 ?c_str@?$basic_string@DU?$char_traits@D@std@@V?$allocator@D@2@@std@@QEBAPEBDXZ ; std::basic_string<char,std::char_traits<char>,std::allocator<char> >::c_str
  00054	48 89 85 d8 00
	00 00		 mov	 QWORD PTR tv69[rbp], rax
  0005b	b9 01 00 00 00	 mov	 ecx, 1
  00060	ff 15 00 00 00
	00		 call	 QWORD PTR __imp___acrt_iob_func
  00066	48 8b 8d d8 00
	00 00		 mov	 rcx, QWORD PTR tv69[rbp]
  0006d	48 8b d1	 mov	 rdx, rcx
  00070	48 8b c8	 mov	 rcx, rax
  00073	e8 00 00 00 00	 call	 fprintf
  00078	90		 npad	 1
; Line 48
  00079	48 8b 8d 00 01
	00 00		 mov	 rcx, QWORD PTR message$[rbp]
  00080	e8 00 00 00 00	 call	 ??1?$basic_string@DU?$char_traits@D@std@@V?$allocator@D@2@@std@@QEAA@XZ ; std::basic_string<char,std::char_traits<char>,std::allocator<char> >::~basic_string<char,std::char_traits<char>,std::allocator<char> >
  00085	48 8d a5 e8 00
	00 00		 lea	 rsp, QWORD PTR [rbp+232]
  0008c	5f		 pop	 rdi
  0008d	5d		 pop	 rbp
  0008e	c3		 ret	 0
?Message@Cy@@YAXV?$basic_string@DU?$char_traits@D@std@@V?$allocator@D@2@@std@@@Z ENDP ; Cy::Message
_TEXT	ENDS
;	COMDAT text$x
text$x	SEGMENT
$T1 = 200
tv69 = 216
message$ = 256
?dtor$0@?0??Message@Cy@@YAXV?$basic_string@DU?$char_traits@D@std@@V?$allocator@D@2@@std@@@Z@4HA PROC ; `Cy::Message'::`1'::dtor$0
  00000	48 89 4c 24 08	 mov	 QWORD PTR [rsp+8], rcx
  00005	48 89 54 24 10	 mov	 QWORD PTR [rsp+16], rdx
  0000a	55		 push	 rbp
  0000b	57		 push	 rdi
  0000c	48 83 ec 28	 sub	 rsp, 40			; 00000028H
  00010	48 8d 6a 20	 lea	 rbp, QWORD PTR [rdx+32]
  00014	48 8b 8d 00 01
	00 00		 mov	 rcx, QWORD PTR message$[rbp]
  0001b	e8 00 00 00 00	 call	 ??1?$basic_string@DU?$char_traits@D@std@@V?$allocator@D@2@@std@@QEAA@XZ ; std::basic_string<char,std::char_traits<char>,std::allocator<char> >::~basic_string<char,std::char_traits<char>,std::allocator<char> >
  00020	48 83 c4 28	 add	 rsp, 40			; 00000028H
  00024	5f		 pop	 rdi
  00025	5d		 pop	 rbp
  00026	c3		 ret	 0
?dtor$0@?0??Message@Cy@@YAXV?$basic_string@DU?$char_traits@D@std@@V?$allocator@D@2@@std@@@Z@4HA ENDP ; `Cy::Message'::`1'::dtor$0
text$x	ENDS
; Function compile flags: /Odtp /RTCsu /ZI
;	COMDAT text$x
text$x	SEGMENT
$T1 = 200
tv69 = 216
message$ = 256
?dtor$0@?0??Message@Cy@@YAXV?$basic_string@DU?$char_traits@D@std@@V?$allocator@D@2@@std@@@Z@4HA PROC ; `Cy::Message'::`1'::dtor$0
  00000	48 89 4c 24 08	 mov	 QWORD PTR [rsp+8], rcx
  00005	48 89 54 24 10	 mov	 QWORD PTR [rsp+16], rdx
  0000a	55		 push	 rbp
  0000b	57		 push	 rdi
  0000c	48 83 ec 28	 sub	 rsp, 40			; 00000028H
  00010	48 8d 6a 20	 lea	 rbp, QWORD PTR [rdx+32]
  00014	48 8b 8d 00 01
	00 00		 mov	 rcx, QWORD PTR message$[rbp]
  0001b	e8 00 00 00 00	 call	 ??1?$basic_string@DU?$char_traits@D@std@@V?$allocator@D@2@@std@@QEAA@XZ ; std::basic_string<char,std::char_traits<char>,std::allocator<char> >::~basic_string<char,std::char_traits<char>,std::allocator<char> >
  00020	48 83 c4 28	 add	 rsp, 40			; 00000028H
  00024	5f		 pop	 rdi
  00025	5d		 pop	 rbp
  00026	c3		 ret	 0
?dtor$0@?0??Message@Cy@@YAXV?$basic_string@DU?$char_traits@D@std@@V?$allocator@D@2@@std@@@Z@4HA ENDP ; `Cy::Message'::`1'::dtor$0
text$x	ENDS
; Function compile flags: /Odtp /RTCsu /ZI
;	COMDAT ?DestroyTimerInfo@Cy@@YAXPEAUTimerInfo@1@@Z
_TEXT	SEGMENT
timerInfo$ = 224
?DestroyTimerInfo@Cy@@YAXPEAUTimerInfo@1@@Z PROC	; Cy::DestroyTimerInfo, COMDAT
; File d:\scottsdocs\sourcecode\vulkanengine\vulkanengine\code\commonwindows.cpp
; Line 283
$LN3:
  00000	48 89 4c 24 08	 mov	 QWORD PTR [rsp+8], rcx
  00005	55		 push	 rbp
  00006	57		 push	 rdi
  00007	48 81 ec e8 00
	00 00		 sub	 rsp, 232		; 000000e8H
  0000e	48 8d 6c 24 20	 lea	 rbp, QWORD PTR [rsp+32]
  00013	48 8b fc	 mov	 rdi, rsp
  00016	b9 3a 00 00 00	 mov	 ecx, 58			; 0000003aH
  0001b	b8 cc cc cc cc	 mov	 eax, -858993460		; ccccccccH
  00020	f3 ab		 rep stosd
  00022	48 8b 8c 24 08
	01 00 00	 mov	 rcx, QWORD PTR [rsp+264]
; Line 284
  0002a	48 8b 85 e0 00
	00 00		 mov	 rax, QWORD PTR timerInfo$[rbp]
  00031	8b 48 08	 mov	 ecx, DWORD PTR [rax+8]
  00034	ff 15 00 00 00
	00		 call	 QWORD PTR __imp_timeEndPeriod
; Line 285
  0003a	48 8d a5 c8 00
	00 00		 lea	 rsp, QWORD PTR [rbp+200]
  00041	5f		 pop	 rdi
  00042	5d		 pop	 rbp
  00043	c3		 ret	 0
?DestroyTimerInfo@Cy@@YAXPEAUTimerInfo@1@@Z ENDP	; Cy::DestroyTimerInfo
_TEXT	ENDS
; Function compile flags: /Odtp /RTCsu /ZI
;	COMDAT ?Tock@Cy@@YAXPEAUTimerInfo@1@@Z
_TEXT	SEGMENT
frameClocks$ = 8
timerInfo$ = 256
?Tock@Cy@@YAXPEAUTimerInfo@1@@Z PROC			; Cy::Tock, COMDAT
; File d:\scottsdocs\sourcecode\vulkanengine\vulkanengine\code\commonwindows.cpp
; Line 249
$LN4:
  00000	48 89 4c 24 08	 mov	 QWORD PTR [rsp+8], rcx
  00005	55		 push	 rbp
  00006	57		 push	 rdi
  00007	48 81 ec 08 01
	00 00		 sub	 rsp, 264		; 00000108H
  0000e	48 8d 6c 24 20	 lea	 rbp, QWORD PTR [rsp+32]
  00013	48 8b fc	 mov	 rdi, rsp
  00016	b9 42 00 00 00	 mov	 ecx, 66			; 00000042H
  0001b	b8 cc cc cc cc	 mov	 eax, -858993460		; ccccccccH
  00020	f3 ab		 rep stosd
  00022	48 8b 8c 24 28
	01 00 00	 mov	 rcx, QWORD PTR [rsp+296]
; Line 250
  0002a	e8 00 00 00 00	 call	 ?GetClockCount@Cy@@YA_JXZ ; Cy::GetClockCount
  0002f	48 8b 8d 00 01
	00 00		 mov	 rcx, QWORD PTR timerInfo$[rbp]
  00036	48 89 41 48	 mov	 QWORD PTR [rcx+72], rax
; Line 251
  0003a	48 8b 85 00 01
	00 00		 mov	 rax, QWORD PTR timerInfo$[rbp]
  00041	48 8b 8d 00 01
	00 00		 mov	 rcx, QWORD PTR timerInfo$[rbp]
  00048	48 8b 49 40	 mov	 rcx, QWORD PTR [rcx+64]
  0004c	48 8b 40 48	 mov	 rax, QWORD PTR [rax+72]
  00050	48 2b c1	 sub	 rax, rcx
  00053	48 89 45 08	 mov	 QWORD PTR frameClocks$[rbp], rax
; Line 252
  00057	48 69 45 08 e8
	03 00 00	 imul	 rax, QWORD PTR frameClocks$[rbp], 1000 ; 000003e8H
  0005f	33 d2		 xor	 edx, edx
  00061	48 8b 8d 00 01
	00 00		 mov	 rcx, QWORD PTR timerInfo$[rbp]
  00068	48 f7 31	 div	 QWORD PTR [rcx]
  0006b	48 8b 8d 00 01
	00 00		 mov	 rcx, QWORD PTR timerInfo$[rbp]
  00072	48 89 41 50	 mov	 QWORD PTR [rcx+80], rax
; Line 253
  00076	48 8b 85 00 01
	00 00		 mov	 rax, QWORD PTR timerInfo$[rbp]
  0007d	48 8b 00	 mov	 rax, QWORD PTR [rax]
  00080	f3 48 0f 2a c0	 cvtsi2ss xmm0, rax
  00085	48 85 c0	 test	 rax, rax
  00088	7d 08		 jge	 SHORT $LN3@Tock
  0008a	f3 0f 58 05 00
	00 00 00	 addss	 xmm0, DWORD PTR __real@5f800000
$LN3@Tock:
  00092	f3 48 0f 2a 4d
	08		 cvtsi2ss xmm1, QWORD PTR frameClocks$[rbp]
  00098	f3 0f 5e c1	 divss	 xmm0, xmm1
  0009c	33 d2		 xor	 edx, edx
  0009e	48 8b 85 00 01
	00 00		 mov	 rax, QWORD PTR timerInfo$[rbp]
  000a5	48 8b 40 38	 mov	 rax, QWORD PTR [rax+56]
  000a9	b9 0a 00 00 00	 mov	 ecx, 10
  000ae	48 f7 f1	 div	 rcx
  000b1	48 8b c2	 mov	 rax, rdx
  000b4	48 8b 8d 00 01
	00 00		 mov	 rcx, QWORD PTR timerInfo$[rbp]
  000bb	f3 0f 11 44 81
	0c		 movss	 DWORD PTR [rcx+rax*4+12], xmm0
; Line 254
  000c1	48 8d a5 e8 00
	00 00		 lea	 rsp, QWORD PTR [rbp+232]
  000c8	5f		 pop	 rdi
  000c9	5d		 pop	 rbp
  000ca	c3		 ret	 0
?Tock@Cy@@YAXPEAUTimerInfo@1@@Z ENDP			; Cy::Tock
_TEXT	ENDS
; Function compile flags: /Odtp /RTCsu /ZI
;	COMDAT ?Tick@Cy@@YAXPEAUTimerInfo@1@@Z
_TEXT	SEGMENT
timerInfo$ = 224
?Tick@Cy@@YAXPEAUTimerInfo@1@@Z PROC			; Cy::Tick, COMDAT
; File d:\scottsdocs\sourcecode\vulkanengine\vulkanengine\code\commonwindows.cpp
; Line 242
$LN3:
  00000	48 89 4c 24 08	 mov	 QWORD PTR [rsp+8], rcx
  00005	55		 push	 rbp
  00006	57		 push	 rdi
  00007	48 81 ec e8 00
	00 00		 sub	 rsp, 232		; 000000e8H
  0000e	48 8d 6c 24 20	 lea	 rbp, QWORD PTR [rsp+32]
  00013	48 8b fc	 mov	 rdi, rsp
  00016	b9 3a 00 00 00	 mov	 ecx, 58			; 0000003aH
  0001b	b8 cc cc cc cc	 mov	 eax, -858993460		; ccccccccH
  00020	f3 ab		 rep stosd
  00022	48 8b 8c 24 08
	01 00 00	 mov	 rcx, QWORD PTR [rsp+264]
; Line 243
  0002a	e8 00 00 00 00	 call	 ?GetClockCount@Cy@@YA_JXZ ; Cy::GetClockCount
  0002f	48 8b 8d e0 00
	00 00		 mov	 rcx, QWORD PTR timerInfo$[rbp]
  00036	48 89 41 40	 mov	 QWORD PTR [rcx+64], rax
; Line 244
  0003a	48 8b 85 e0 00
	00 00		 mov	 rax, QWORD PTR timerInfo$[rbp]
  00041	48 8b 40 38	 mov	 rax, QWORD PTR [rax+56]
  00045	48 ff c0	 inc	 rax
  00048	48 8b 8d e0 00
	00 00		 mov	 rcx, QWORD PTR timerInfo$[rbp]
  0004f	48 89 41 38	 mov	 QWORD PTR [rcx+56], rax
; Line 245
  00053	48 8d a5 c8 00
	00 00		 lea	 rsp, QWORD PTR [rbp+200]
  0005a	5f		 pop	 rdi
  0005b	5d		 pop	 rbp
  0005c	c3		 ret	 0
?Tick@Cy@@YAXPEAUTimerInfo@1@@Z ENDP			; Cy::Tick
_TEXT	ENDS
; Function compile flags: /Odtp /RTCsu /ZI
;	COMDAT ?Sleep@Cy@@YAXPEAUTimerInfo@1@H@Z
_TEXT	SEGMENT
desiredFrameDurationMilliSec$ = 4
frameTimeRemainingMilliSec$ = 36
sleepTimeMilliSec$1 = 72
timerInfo$ = 320
desiredFps$ = 328
?Sleep@Cy@@YAXPEAUTimerInfo@1@H@Z PROC			; Cy::Sleep, COMDAT
; File d:\scottsdocs\sourcecode\vulkanengine\vulkanengine\code\commonwindows.cpp
; Line 258
$LN7:
  00000	89 54 24 10	 mov	 DWORD PTR [rsp+16], edx
  00004	48 89 4c 24 08	 mov	 QWORD PTR [rsp+8], rcx
  00009	55		 push	 rbp
  0000a	57		 push	 rdi
  0000b	48 81 ec 48 01
	00 00		 sub	 rsp, 328		; 00000148H
  00012	48 8d 6c 24 20	 lea	 rbp, QWORD PTR [rsp+32]
  00017	48 8b fc	 mov	 rdi, rsp
  0001a	b9 52 00 00 00	 mov	 ecx, 82			; 00000052H
  0001f	b8 cc cc cc cc	 mov	 eax, -858993460		; ccccccccH
  00024	f3 ab		 rep stosd
  00026	48 8b 8c 24 68
	01 00 00	 mov	 rcx, QWORD PTR [rsp+360]
; Line 259
  0002e	b8 e8 03 00 00	 mov	 eax, 1000		; 000003e8H
  00033	99		 cdq
  00034	f7 bd 48 01 00
	00		 idiv	 DWORD PTR desiredFps$[rbp]
  0003a	89 45 04	 mov	 DWORD PTR desiredFrameDurationMilliSec$[rbp], eax
; Line 260
  0003d	48 8b 85 40 01
	00 00		 mov	 rax, QWORD PTR timerInfo$[rbp]
  00044	48 8b 48 50	 mov	 rcx, QWORD PTR [rax+80]
  00048	e8 00 00 00 00	 call	 ?SafeTruncate@Cy@@YAH_J@Z ; Cy::SafeTruncate
  0004d	8b 4d 04	 mov	 ecx, DWORD PTR desiredFrameDurationMilliSec$[rbp]
  00050	2b c8		 sub	 ecx, eax
  00052	8b c1		 mov	 eax, ecx
  00054	89 45 24	 mov	 DWORD PTR frameTimeRemainingMilliSec$[rbp], eax
; Line 261
  00057	83 7d 24 01	 cmp	 DWORD PTR frameTimeRemainingMilliSec$[rbp], 1
  0005b	7e 3a		 jle	 SHORT $LN2@Sleep
  0005d	8b 45 04	 mov	 eax, DWORD PTR desiredFrameDurationMilliSec$[rbp]
  00060	39 45 24	 cmp	 DWORD PTR frameTimeRemainingMilliSec$[rbp], eax
  00063	7d 32		 jge	 SHORT $LN2@Sleep
; Line 266
  00065	33 d2		 xor	 edx, edx
  00067	8b 45 24	 mov	 eax, DWORD PTR frameTimeRemainingMilliSec$[rbp]
  0006a	48 8b 8d 40 01
	00 00		 mov	 rcx, QWORD PTR timerInfo$[rbp]
  00071	f7 71 08	 div	 DWORD PTR [rcx+8]
  00074	8b c2		 mov	 eax, edx
  00076	8b 4d 24	 mov	 ecx, DWORD PTR frameTimeRemainingMilliSec$[rbp]
  00079	2b c8		 sub	 ecx, eax
  0007b	8b c1		 mov	 eax, ecx
  0007d	8b c0		 mov	 eax, eax
  0007f	48 89 45 48	 mov	 QWORD PTR sleepTimeMilliSec$1[rbp], rax
; Line 267
  00083	8b 4d 48	 mov	 ecx, DWORD PTR sleepTimeMilliSec$1[rbp]
  00086	e8 00 00 00 00	 call	 ?WindowsSleep@Windows@@YAXI@Z ; Windows::WindowsSleep
; Line 269
  0008b	48 8b 8d 40 01
	00 00		 mov	 rcx, QWORD PTR timerInfo$[rbp]
  00092	e8 00 00 00 00	 call	 ?Tock@Cy@@YAXPEAUTimerInfo@1@@Z ; Cy::Tock
$LN2@Sleep:
; Line 280
  00097	48 8d a5 28 01
	00 00		 lea	 rsp, QWORD PTR [rbp+296]
  0009e	5f		 pop	 rdi
  0009f	5d		 pop	 rbp
  000a0	c3		 ret	 0
?Sleep@Cy@@YAXPEAUTimerInfo@1@H@Z ENDP			; Cy::Sleep
_TEXT	ENDS
; Function compile flags: /Odtp /RTCsu /ZI
;	COMDAT ?GetClockCount@Cy@@YA_JXZ
_TEXT	SEGMENT
clockCount$ = 8
__$ArrayPad$ = 216
?GetClockCount@Cy@@YA_JXZ PROC				; Cy::GetClockCount, COMDAT
; File d:\scottsdocs\sourcecode\vulkanengine\vulkanengine\code\commonwindows.cpp
; Line 210
$LN3:
  00000	40 55		 push	 rbp
  00002	57		 push	 rdi
  00003	48 81 ec 08 01
	00 00		 sub	 rsp, 264		; 00000108H
  0000a	48 8d 6c 24 20	 lea	 rbp, QWORD PTR [rsp+32]
  0000f	48 8b fc	 mov	 rdi, rsp
  00012	b9 42 00 00 00	 mov	 ecx, 66			; 00000042H
  00017	b8 cc cc cc cc	 mov	 eax, -858993460		; ccccccccH
  0001c	f3 ab		 rep stosd
  0001e	48 8b 05 00 00
	00 00		 mov	 rax, QWORD PTR __security_cookie
  00025	48 33 c5	 xor	 rax, rbp
  00028	48 89 85 d8 00
	00 00		 mov	 QWORD PTR __$ArrayPad$[rbp], rax
; Line 212
  0002f	48 8d 4d 08	 lea	 rcx, QWORD PTR clockCount$[rbp]
  00033	ff 15 00 00 00
	00		 call	 QWORD PTR __imp_QueryPerformanceCounter
; Line 213
  00039	48 8b 45 08	 mov	 rax, QWORD PTR clockCount$[rbp]
; Line 214
  0003d	48 8b f8	 mov	 rdi, rax
  00040	48 8d 4d e0	 lea	 rcx, QWORD PTR [rbp-32]
  00044	48 8d 15 00 00
	00 00		 lea	 rdx, OFFSET FLAT:?GetClockCount@Cy@@YA_JXZ$rtcFrameData
  0004b	e8 00 00 00 00	 call	 _RTC_CheckStackVars
  00050	48 8b c7	 mov	 rax, rdi
  00053	48 8b 8d d8 00
	00 00		 mov	 rcx, QWORD PTR __$ArrayPad$[rbp]
  0005a	48 33 cd	 xor	 rcx, rbp
  0005d	e8 00 00 00 00	 call	 __security_check_cookie
  00062	48 8d a5 e8 00
	00 00		 lea	 rsp, QWORD PTR [rbp+232]
  00069	5f		 pop	 rdi
  0006a	5d		 pop	 rbp
  0006b	c3		 ret	 0
?GetClockCount@Cy@@YA_JXZ ENDP				; Cy::GetClockCount
_TEXT	ENDS
; Function compile flags: /Odtp /RTCsu /ZI
;	COMDAT ?GetAvgFps@Cy@@YA_KPEBUTimerInfo@1@@Z
_TEXT	SEGMENT
avgFps$ = 8
i$1 = 36
timerInfo$ = 288
?GetAvgFps@Cy@@YA_KPEBUTimerInfo@1@@Z PROC		; Cy::GetAvgFps, COMDAT
; File d:\scottsdocs\sourcecode\vulkanengine\vulkanengine\code\commonwindows.cpp
; Line 219
$LN6:
  00000	48 89 4c 24 08	 mov	 QWORD PTR [rsp+8], rcx
  00005	55		 push	 rbp
  00006	57		 push	 rdi
  00007	48 81 ec 08 01
	00 00		 sub	 rsp, 264		; 00000108H
  0000e	48 8b ec	 mov	 rbp, rsp
  00011	48 8b fc	 mov	 rdi, rsp
  00014	b9 42 00 00 00	 mov	 ecx, 66			; 00000042H
  00019	b8 cc cc cc cc	 mov	 eax, -858993460		; ccccccccH
  0001e	f3 ab		 rep stosd
  00020	48 8b 8c 24 28
	01 00 00	 mov	 rcx, QWORD PTR [rsp+296]
; Line 220
  00028	48 c7 45 08 00
	00 00 00	 mov	 QWORD PTR avgFps$[rbp], 0
; Line 221
  00030	c7 45 24 00 00
	00 00		 mov	 DWORD PTR i$1[rbp], 0
  00037	eb 08		 jmp	 SHORT $LN4@GetAvgFps
$LN2@GetAvgFps:
  00039	8b 45 24	 mov	 eax, DWORD PTR i$1[rbp]
  0003c	ff c0		 inc	 eax
  0003e	89 45 24	 mov	 DWORD PTR i$1[rbp], eax
$LN4@GetAvgFps:
  00041	83 7d 24 0a	 cmp	 DWORD PTR i$1[rbp], 10
  00045	73 23		 jae	 SHORT $LN3@GetAvgFps
; Line 223
  00047	8b 45 24	 mov	 eax, DWORD PTR i$1[rbp]
  0004a	48 8b 8d 20 01
	00 00		 mov	 rcx, QWORD PTR timerInfo$[rbp]
  00051	f3 48 0f 2c 44
	81 0c		 cvttss2si rax, DWORD PTR [rcx+rax*4+12]
  00058	8b c0		 mov	 eax, eax
  0005a	48 8b 4d 08	 mov	 rcx, QWORD PTR avgFps$[rbp]
  0005e	48 03 c8	 add	 rcx, rax
  00061	48 8b c1	 mov	 rax, rcx
  00064	48 89 45 08	 mov	 QWORD PTR avgFps$[rbp], rax
; Line 224
  00068	eb cf		 jmp	 SHORT $LN2@GetAvgFps
$LN3@GetAvgFps:
; Line 225
  0006a	33 d2		 xor	 edx, edx
  0006c	48 8b 45 08	 mov	 rax, QWORD PTR avgFps$[rbp]
  00070	b9 0a 00 00 00	 mov	 ecx, 10
  00075	48 f7 f1	 div	 rcx
  00078	48 89 45 08	 mov	 QWORD PTR avgFps$[rbp], rax
; Line 227
  0007c	48 8b 45 08	 mov	 rax, QWORD PTR avgFps$[rbp]
; Line 228
  00080	48 8d a5 08 01
	00 00		 lea	 rsp, QWORD PTR [rbp+264]
  00087	5f		 pop	 rdi
  00088	5d		 pop	 rbp
  00089	c3		 ret	 0
?GetAvgFps@Cy@@YA_KPEBUTimerInfo@1@@Z ENDP		; Cy::GetAvgFps
_TEXT	ENDS
; Function compile flags: /Odtp /RTCsu /ZI
;	COMDAT ?NewTimerInfo@Cy@@YA?AUTimerInfo@1@XZ
_TEXT	SEGMENT
timerInfo$ = 16
clocksPerSec$ = 136
timeCaps$ = 168
__$ArrayPad$ = 376
$T6 = 416
?NewTimerInfo@Cy@@YA?AUTimerInfo@1@XZ PROC		; Cy::NewTimerInfo, COMDAT
; File d:\scottsdocs\sourcecode\vulkanengine\vulkanengine\code\commonwindows.cpp
; Line 194
$LN3:
  00000	48 89 4c 24 08	 mov	 QWORD PTR [rsp+8], rcx
  00005	55		 push	 rbp
  00006	56		 push	 rsi
  00007	57		 push	 rdi
  00008	48 81 ec a0 01
	00 00		 sub	 rsp, 416		; 000001a0H
  0000f	48 8d 6c 24 20	 lea	 rbp, QWORD PTR [rsp+32]
  00014	48 8b fc	 mov	 rdi, rsp
  00017	b9 68 00 00 00	 mov	 ecx, 104		; 00000068H
  0001c	b8 cc cc cc cc	 mov	 eax, -858993460		; ccccccccH
  00021	f3 ab		 rep stosd
  00023	48 8b 8c 24 c8
	01 00 00	 mov	 rcx, QWORD PTR [rsp+456]
  0002b	48 8b 05 00 00
	00 00		 mov	 rax, QWORD PTR __security_cookie
  00032	48 33 c5	 xor	 rax, rbp
  00035	48 89 85 78 01
	00 00		 mov	 QWORD PTR __$ArrayPad$[rbp], rax
; Line 195
  0003c	48 8d 45 10	 lea	 rax, QWORD PTR timerInfo$[rbp]
  00040	48 8b f8	 mov	 rdi, rax
  00043	33 c0		 xor	 eax, eax
  00045	b9 58 00 00 00	 mov	 ecx, 88			; 00000058H
  0004a	f3 aa		 rep stosb
; Line 197
  0004c	48 8d 8d 88 00
	00 00		 lea	 rcx, QWORD PTR clocksPerSec$[rbp]
  00053	ff 15 00 00 00
	00		 call	 QWORD PTR __imp_QueryPerformanceFrequency
; Line 198
  00059	48 8b 85 88 00
	00 00		 mov	 rax, QWORD PTR clocksPerSec$[rbp]
  00060	48 89 45 10	 mov	 QWORD PTR timerInfo$[rbp], rax
; Line 201
  00064	ba 08 00 00 00	 mov	 edx, 8
  00069	48 8d 8d a8 00
	00 00		 lea	 rcx, QWORD PTR timeCaps$[rbp]
  00070	ff 15 00 00 00
	00		 call	 QWORD PTR __imp_timeGetDevCaps
; Line 203
  00076	8b 8d a8 00 00
	00		 mov	 ecx, DWORD PTR timeCaps$[rbp]
  0007c	ff 15 00 00 00
	00		 call	 QWORD PTR __imp_timeBeginPeriod
; Line 204
  00082	8b 85 a8 00 00
	00		 mov	 eax, DWORD PTR timeCaps$[rbp]
  00088	89 45 18	 mov	 DWORD PTR timerInfo$[rbp+8], eax
; Line 205
  0008b	48 8d 45 10	 lea	 rax, QWORD PTR timerInfo$[rbp]
  0008f	48 8b bd a0 01
	00 00		 mov	 rdi, QWORD PTR $T6[rbp]
  00096	48 8b f0	 mov	 rsi, rax
  00099	b9 58 00 00 00	 mov	 ecx, 88			; 00000058H
  0009e	f3 a4		 rep movsb
  000a0	48 8b 85 a0 01
	00 00		 mov	 rax, QWORD PTR $T6[rbp]
; Line 206
  000a7	48 8b f8	 mov	 rdi, rax
  000aa	48 8d 4d e0	 lea	 rcx, QWORD PTR [rbp-32]
  000ae	48 8d 15 00 00
	00 00		 lea	 rdx, OFFSET FLAT:?NewTimerInfo@Cy@@YA?AUTimerInfo@1@XZ$rtcFrameData
  000b5	e8 00 00 00 00	 call	 _RTC_CheckStackVars
  000ba	48 8b c7	 mov	 rax, rdi
  000bd	48 8b 8d 78 01
	00 00		 mov	 rcx, QWORD PTR __$ArrayPad$[rbp]
  000c4	48 33 cd	 xor	 rcx, rbp
  000c7	e8 00 00 00 00	 call	 __security_check_cookie
  000cc	48 8d a5 80 01
	00 00		 lea	 rsp, QWORD PTR [rbp+384]
  000d3	5f		 pop	 rdi
  000d4	5e		 pop	 rsi
  000d5	5d		 pop	 rbp
  000d6	c3		 ret	 0
?NewTimerInfo@Cy@@YA?AUTimerInfo@1@XZ ENDP		; Cy::NewTimerInfo
_TEXT	ENDS
; Function compile flags: /Odtp /RTCsu /ZI
;	COMDAT ?DestroyWindowInfo@Cy@@YAXPEAUWindowInfo@1@@Z
_TEXT	SEGMENT
windowInfo$ = 224
?DestroyWindowInfo@Cy@@YAXPEAUWindowInfo@1@@Z PROC	; Cy::DestroyWindowInfo, COMDAT
; File d:\scottsdocs\sourcecode\vulkanengine\vulkanengine\code\commonwindows.cpp
; Line 154
$LN3:
  00000	48 89 4c 24 08	 mov	 QWORD PTR [rsp+8], rcx
  00005	55		 push	 rbp
  00006	57		 push	 rdi
  00007	48 81 ec e8 00
	00 00		 sub	 rsp, 232		; 000000e8H
  0000e	48 8d 6c 24 20	 lea	 rbp, QWORD PTR [rsp+32]
  00013	48 8b fc	 mov	 rdi, rsp
  00016	b9 3a 00 00 00	 mov	 ecx, 58			; 0000003aH
  0001b	b8 cc cc cc cc	 mov	 eax, -858993460		; ccccccccH
  00020	f3 ab		 rep stosd
  00022	48 8b 8c 24 08
	01 00 00	 mov	 rcx, QWORD PTR [rsp+264]
; Line 155
  0002a	48 8b 85 e0 00
	00 00		 mov	 rax, QWORD PTR windowInfo$[rbp]
  00031	48 8b 48 08	 mov	 rcx, QWORD PTR [rax+8]
  00035	ff 15 00 00 00
	00		 call	 QWORD PTR __imp_DestroyWindow
; Line 156
  0003b	48 8d a5 c8 00
	00 00		 lea	 rsp, QWORD PTR [rbp+200]
  00042	5f		 pop	 rdi
  00043	5d		 pop	 rbp
  00044	c3		 ret	 0
?DestroyWindowInfo@Cy@@YAXPEAUWindowInfo@1@@Z ENDP	; Cy::DestroyWindowInfo
_TEXT	ENDS
; Function compile flags: /Odtp /RTCsu /ZI
;	COMDAT ?OpenFile@Cy@@YA?AUFile@1@V?$basic_string@DU?$char_traits@D@std@@V?$allocator@D@2@@std@@@Z
_TEXT	SEGMENT
file$ = 8
fileHandle$ = 56
fileSize$6 = 88
fileSize32$7 = 116
bytesRead$8 = 148
$T9 = 376
$T10 = 440
$T11 = 472
$T12 = 536
$T13 = 568
$T14 = 616
tv165 = 628
tv130 = 628
tv170 = 632
tv168 = 632
__$ArrayPad$ = 640
$T15 = 688
fileName$ = 696
?OpenFile@Cy@@YA?AUFile@1@V?$basic_string@DU?$char_traits@D@std@@V?$allocator@D@2@@std@@@Z PROC ; Cy::OpenFile, COMDAT
; File d:\scottsdocs\sourcecode\vulkanengine\vulkanengine\code\commonwindows.cpp
; Line 160
$LN15:
  00000	48 89 54 24 10	 mov	 QWORD PTR [rsp+16], rdx
  00005	48 89 4c 24 08	 mov	 QWORD PTR [rsp+8], rcx
  0000a	55		 push	 rbp
  0000b	56		 push	 rsi
  0000c	57		 push	 rdi
  0000d	48 81 ec d0 02
	00 00		 sub	 rsp, 720		; 000002d0H
  00014	48 8d 6c 24 40	 lea	 rbp, QWORD PTR [rsp+64]
  00019	48 8b fc	 mov	 rdi, rsp
  0001c	b9 b4 00 00 00	 mov	 ecx, 180		; 000000b4H
  00021	b8 cc cc cc cc	 mov	 eax, -858993460		; ccccccccH
  00026	f3 ab		 rep stosd
  00028	48 8b 8c 24 f8
	02 00 00	 mov	 rcx, QWORD PTR [rsp+760]
  00030	48 c7 85 68 02
	00 00 fe ff ff
	ff		 mov	 QWORD PTR $T14[rbp], -2
  0003b	48 8b 05 00 00
	00 00		 mov	 rax, QWORD PTR __security_cookie
  00042	48 33 c5	 xor	 rax, rbp
  00045	48 89 85 80 02
	00 00		 mov	 QWORD PTR __$ArrayPad$[rbp], rax
; Line 161
  0004c	48 8d 45 08	 lea	 rax, QWORD PTR file$[rbp]
  00050	48 8b f8	 mov	 rdi, rax
  00053	33 c0		 xor	 eax, eax
  00055	b9 10 00 00 00	 mov	 ecx, 16
  0005a	f3 aa		 rep stosb
; Line 163
  0005c	48 8b 8d b8 02
	00 00		 mov	 rcx, QWORD PTR fileName$[rbp]
  00063	e8 00 00 00 00	 call	 ?c_str@?$basic_string@DU?$char_traits@D@std@@V?$allocator@D@2@@std@@QEBAPEBDXZ ; std::basic_string<char,std::char_traits<char>,std::allocator<char> >::c_str
  00068	48 c7 44 24 30
	00 00 00 00	 mov	 QWORD PTR [rsp+48], 0
  00071	c7 44 24 28 00
	00 00 00	 mov	 DWORD PTR [rsp+40], 0
  00079	c7 44 24 20 03
	00 00 00	 mov	 DWORD PTR [rsp+32], 3
  00081	45 33 c9	 xor	 r9d, r9d
  00084	41 b8 01 00 00
	00		 mov	 r8d, 1
  0008a	ba 00 00 00 80	 mov	 edx, -2147483648	; 80000000H
  0008f	48 8b c8	 mov	 rcx, rax
  00092	ff 15 00 00 00
	00		 call	 QWORD PTR __imp_CreateFileA
  00098	48 89 45 38	 mov	 QWORD PTR fileHandle$[rbp], rax
; Line 164
  0009c	48 83 7d 38 ff	 cmp	 QWORD PTR fileHandle$[rbp], -1
  000a1	0f 84 fe 00 00
	00		 je	 $LN2@OpenFile
; Line 167
  000a7	48 8d 55 58	 lea	 rdx, QWORD PTR fileSize$6[rbp]
  000ab	48 8b 4d 38	 mov	 rcx, QWORD PTR fileHandle$[rbp]
  000af	ff 15 00 00 00
	00		 call	 QWORD PTR __imp_GetFileSizeEx
  000b5	85 c0		 test	 eax, eax
  000b7	0f 84 e8 00 00
	00		 je	 $LN2@OpenFile
; Line 169
  000bd	48 8d 85 78 01
	00 00		 lea	 rax, QWORD PTR $T9[rbp]
  000c4	48 89 85 b8 01
	00 00		 mov	 QWORD PTR $T10[rbp], rax
  000cb	ba 20 00 00 00	 mov	 edx, 32			; 00000020H
  000d0	b9 02 00 00 00	 mov	 ecx, 2
  000d5	e8 00 00 00 00	 call	 ??$pow@HH@@YANHH@Z	; pow<int,int>
  000da	f2 48 0f 2c c0	 cvttsd2si rax, xmm0
  000df	48 39 45 58	 cmp	 QWORD PTR fileSize$6[rbp], rax
  000e3	7d 09		 jge	 SHORT $LN8@OpenFile
  000e5	c6 85 74 02 00
	00 01		 mov	 BYTE PTR tv130[rbp], 1
  000ec	eb 07		 jmp	 SHORT $LN9@OpenFile
$LN8@OpenFile:
  000ee	c6 85 74 02 00
	00 00		 mov	 BYTE PTR tv130[rbp], 0
$LN9@OpenFile:
  000f5	48 8d 15 00 00
	00 00		 lea	 rdx, OFFSET FLAT:??_C@_0N@JFIFKAKF@file?5too?5big?$AA@
  000fc	48 8b 8d b8 01
	00 00		 mov	 rcx, QWORD PTR $T10[rbp]
  00103	e8 00 00 00 00	 call	 ??0?$basic_string@DU?$char_traits@D@std@@V?$allocator@D@2@@std@@QEAA@PEBD@Z ; std::basic_string<char,std::char_traits<char>,std::allocator<char> >::basic_string<char,std::char_traits<char>,std::allocator<char> >
  00108	48 89 85 78 02
	00 00		 mov	 QWORD PTR tv168[rbp], rax
  0010f	48 8b 95 78 02
	00 00		 mov	 rdx, QWORD PTR tv168[rbp]
  00116	0f b6 8d 74 02
	00 00		 movzx	 ecx, BYTE PTR tv130[rbp]
  0011d	e8 00 00 00 00	 call	 ?Assert@Cy@@YAX_NV?$basic_string@DU?$char_traits@D@std@@V?$allocator@D@2@@std@@@Z ; Cy::Assert
; Line 170
  00122	48 8b 4d 58	 mov	 rcx, QWORD PTR fileSize$6[rbp]
  00126	e8 00 00 00 00	 call	 ?SafeTruncate@Cy@@YAI_K@Z ; Cy::SafeTruncate
  0012b	89 45 74	 mov	 DWORD PTR fileSize32$7[rbp], eax
; Line 171
  0012e	8b 45 74	 mov	 eax, DWORD PTR fileSize32$7[rbp]
  00131	41 b9 04 00 00
	00		 mov	 r9d, 4
  00137	41 b8 00 30 00
	00		 mov	 r8d, 12288		; 00003000H
  0013d	8b d0		 mov	 edx, eax
  0013f	33 c9		 xor	 ecx, ecx
  00141	ff 15 00 00 00
	00		 call	 QWORD PTR __imp_VirtualAlloc
  00147	48 89 45 08	 mov	 QWORD PTR file$[rbp], rax
; Line 172
  0014b	48 83 7d 08 00	 cmp	 QWORD PTR file$[rbp], 0
  00150	74 53		 je	 SHORT $LN2@OpenFile
; Line 175
  00152	48 c7 44 24 20
	00 00 00 00	 mov	 QWORD PTR [rsp+32], 0
  0015b	4c 8d 8d 94 00
	00 00		 lea	 r9, QWORD PTR bytesRead$8[rbp]
  00162	44 8b 45 74	 mov	 r8d, DWORD PTR fileSize32$7[rbp]
  00166	48 8b 55 08	 mov	 rdx, QWORD PTR file$[rbp]
  0016a	48 8b 4d 38	 mov	 rcx, QWORD PTR fileHandle$[rbp]
  0016e	ff 15 00 00 00
	00		 call	 QWORD PTR __imp_ReadFile
  00174	85 c0		 test	 eax, eax
  00176	74 13		 je	 SHORT $LN5@OpenFile
  00178	8b 85 94 00 00
	00		 mov	 eax, DWORD PTR bytesRead$8[rbp]
  0017e	39 45 74	 cmp	 DWORD PTR fileSize32$7[rbp], eax
  00181	75 08		 jne	 SHORT $LN5@OpenFile
; Line 177
  00183	8b 45 74	 mov	 eax, DWORD PTR fileSize32$7[rbp]
  00186	89 45 10	 mov	 DWORD PTR file$[rbp+8], eax
; Line 179
  00189	eb 1a		 jmp	 SHORT $LN2@OpenFile
$LN5@OpenFile:
; Line 181
  0018b	41 b8 00 80 00
	00		 mov	 r8d, 32768		; 00008000H
  00191	33 d2		 xor	 edx, edx
  00193	48 8b 4d 08	 mov	 rcx, QWORD PTR file$[rbp]
  00197	ff 15 00 00 00
	00		 call	 QWORD PTR __imp_VirtualFree
; Line 182
  0019d	48 c7 45 08 00
	00 00 00	 mov	 QWORD PTR file$[rbp], 0
$LN2@OpenFile:
; Line 188
  001a5	48 8d 85 d8 01
	00 00		 lea	 rax, QWORD PTR $T11[rbp]
  001ac	48 89 85 18 02
	00 00		 mov	 QWORD PTR $T12[rbp], rax
  001b3	48 83 7d 08 00	 cmp	 QWORD PTR file$[rbp], 0
  001b8	74 09		 je	 SHORT $LN10@OpenFile
  001ba	c6 85 74 02 00
	00 01		 mov	 BYTE PTR tv165[rbp], 1
  001c1	eb 07		 jmp	 SHORT $LN11@OpenFile
$LN10@OpenFile:
  001c3	c6 85 74 02 00
	00 00		 mov	 BYTE PTR tv165[rbp], 0
$LN11@OpenFile:
  001ca	48 8d 15 00 00
	00 00		 lea	 rdx, OFFSET FLAT:??_C@_0BE@LABMMLMO@could?5not?5read?5file?$AA@
  001d1	48 8b 8d 18 02
	00 00		 mov	 rcx, QWORD PTR $T12[rbp]
  001d8	e8 00 00 00 00	 call	 ??0?$basic_string@DU?$char_traits@D@std@@V?$allocator@D@2@@std@@QEAA@PEBD@Z ; std::basic_string<char,std::char_traits<char>,std::allocator<char> >::basic_string<char,std::char_traits<char>,std::allocator<char> >
  001dd	48 89 85 78 02
	00 00		 mov	 QWORD PTR tv170[rbp], rax
  001e4	48 8b 95 78 02
	00 00		 mov	 rdx, QWORD PTR tv170[rbp]
  001eb	0f b6 8d 74 02
	00 00		 movzx	 ecx, BYTE PTR tv165[rbp]
  001f2	e8 00 00 00 00	 call	 ?Assert@Cy@@YAX_NV?$basic_string@DU?$char_traits@D@std@@V?$allocator@D@2@@std@@@Z ; Cy::Assert
; Line 189
  001f7	48 8d 85 38 02
	00 00		 lea	 rax, QWORD PTR $T13[rbp]
  001fe	48 8d 4d 08	 lea	 rcx, QWORD PTR file$[rbp]
  00202	48 8b f8	 mov	 rdi, rax
  00205	48 8b f1	 mov	 rsi, rcx
  00208	b9 10 00 00 00	 mov	 ecx, 16
  0020d	f3 a4		 rep movsb
  0020f	48 8b 8d b8 02
	00 00		 mov	 rcx, QWORD PTR fileName$[rbp]
  00216	e8 00 00 00 00	 call	 ??1?$basic_string@DU?$char_traits@D@std@@V?$allocator@D@2@@std@@QEAA@XZ ; std::basic_string<char,std::char_traits<char>,std::allocator<char> >::~basic_string<char,std::char_traits<char>,std::allocator<char> >
  0021b	48 8d 85 38 02
	00 00		 lea	 rax, QWORD PTR $T13[rbp]
  00222	48 8b bd b0 02
	00 00		 mov	 rdi, QWORD PTR $T15[rbp]
  00229	48 8b f0	 mov	 rsi, rax
  0022c	b9 10 00 00 00	 mov	 ecx, 16
  00231	f3 a4		 rep movsb
  00233	48 8b 85 b0 02
	00 00		 mov	 rax, QWORD PTR $T15[rbp]
; Line 190
  0023a	48 8b f8	 mov	 rdi, rax
  0023d	48 8d 4d c0	 lea	 rcx, QWORD PTR [rbp-64]
  00241	48 8d 15 00 00
	00 00		 lea	 rdx, OFFSET FLAT:?OpenFile@Cy@@YA?AUFile@1@V?$basic_string@DU?$char_traits@D@std@@V?$allocator@D@2@@std@@@Z$rtcFrameData
  00248	e8 00 00 00 00	 call	 _RTC_CheckStackVars
  0024d	48 8b c7	 mov	 rax, rdi
  00250	48 8b 8d 80 02
	00 00		 mov	 rcx, QWORD PTR __$ArrayPad$[rbp]
  00257	48 33 cd	 xor	 rcx, rbp
  0025a	e8 00 00 00 00	 call	 __security_check_cookie
  0025f	48 8d a5 90 02
	00 00		 lea	 rsp, QWORD PTR [rbp+656]
  00266	5f		 pop	 rdi
  00267	5e		 pop	 rsi
  00268	5d		 pop	 rbp
  00269	c3		 ret	 0
?OpenFile@Cy@@YA?AUFile@1@V?$basic_string@DU?$char_traits@D@std@@V?$allocator@D@2@@std@@@Z ENDP ; Cy::OpenFile
_TEXT	ENDS
;	COMDAT text$x
text$x	SEGMENT
file$ = 8
fileHandle$ = 56
fileSize$6 = 88
fileSize32$7 = 116
bytesRead$8 = 148
$T9 = 376
$T10 = 440
$T11 = 472
$T12 = 536
$T13 = 568
$T14 = 616
tv165 = 628
tv130 = 628
tv170 = 632
tv168 = 632
__$ArrayPad$ = 640
$T15 = 688
fileName$ = 696
?dtor$0@?0??OpenFile@Cy@@YA?AUFile@1@V?$basic_string@DU?$char_traits@D@std@@V?$allocator@D@2@@std@@@Z@4HA PROC ; `Cy::OpenFile'::`1'::dtor$0
  00000	48 89 4c 24 08	 mov	 QWORD PTR [rsp+8], rcx
  00005	48 89 54 24 10	 mov	 QWORD PTR [rsp+16], rdx
  0000a	55		 push	 rbp
  0000b	57		 push	 rdi
  0000c	48 83 ec 28	 sub	 rsp, 40			; 00000028H
  00010	48 8d 6a 40	 lea	 rbp, QWORD PTR [rdx+64]
  00014	48 8b 8d b8 02
	00 00		 mov	 rcx, QWORD PTR fileName$[rbp]
  0001b	e8 00 00 00 00	 call	 ??1?$basic_string@DU?$char_traits@D@std@@V?$allocator@D@2@@std@@QEAA@XZ ; std::basic_string<char,std::char_traits<char>,std::allocator<char> >::~basic_string<char,std::char_traits<char>,std::allocator<char> >
  00020	48 83 c4 28	 add	 rsp, 40			; 00000028H
  00024	5f		 pop	 rdi
  00025	5d		 pop	 rbp
  00026	c3		 ret	 0
?dtor$0@?0??OpenFile@Cy@@YA?AUFile@1@V?$basic_string@DU?$char_traits@D@std@@V?$allocator@D@2@@std@@@Z@4HA ENDP ; `Cy::OpenFile'::`1'::dtor$0
text$x	ENDS
; Function compile flags: /Odtp /RTCsu /ZI
;	COMDAT text$x
text$x	SEGMENT
file$ = 8
fileHandle$ = 56
fileSize$6 = 88
fileSize32$7 = 116
bytesRead$8 = 148
$T9 = 376
$T10 = 440
$T11 = 472
$T12 = 536
$T13 = 568
$T14 = 616
tv165 = 628
tv130 = 628
tv170 = 632
tv168 = 632
__$ArrayPad$ = 640
$T15 = 688
fileName$ = 696
?dtor$0@?0??OpenFile@Cy@@YA?AUFile@1@V?$basic_string@DU?$char_traits@D@std@@V?$allocator@D@2@@std@@@Z@4HA PROC ; `Cy::OpenFile'::`1'::dtor$0
  00000	48 89 4c 24 08	 mov	 QWORD PTR [rsp+8], rcx
  00005	48 89 54 24 10	 mov	 QWORD PTR [rsp+16], rdx
  0000a	55		 push	 rbp
  0000b	57		 push	 rdi
  0000c	48 83 ec 28	 sub	 rsp, 40			; 00000028H
  00010	48 8d 6a 40	 lea	 rbp, QWORD PTR [rdx+64]
  00014	48 8b 8d b8 02
	00 00		 mov	 rcx, QWORD PTR fileName$[rbp]
  0001b	e8 00 00 00 00	 call	 ??1?$basic_string@DU?$char_traits@D@std@@V?$allocator@D@2@@std@@QEAA@XZ ; std::basic_string<char,std::char_traits<char>,std::allocator<char> >::~basic_string<char,std::char_traits<char>,std::allocator<char> >
  00020	48 83 c4 28	 add	 rsp, 40			; 00000028H
  00024	5f		 pop	 rdi
  00025	5d		 pop	 rbp
  00026	c3		 ret	 0
?dtor$0@?0??OpenFile@Cy@@YA?AUFile@1@V?$basic_string@DU?$char_traits@D@std@@V?$allocator@D@2@@std@@@Z@4HA ENDP ; `Cy::OpenFile'::`1'::dtor$0
text$x	ENDS
; Function compile flags: /Odtp /RTCsu /ZI
;	COMDAT ?NewWindowInfo@Cy@@YA?AUWindowInfo@1@PEBDPEAXII@Z
_TEXT	SEGMENT
windowInfo$ = 8
wc$ = 80
result$ = 180
windowWidth$ = 212
windowHeight$ = 244
windowHandle$ = 280
$T5 = 504
$T6 = 568
$T7 = 600
$T8 = 664
tv143 = 676
tv72 = 676
tv151 = 680
tv149 = 680
__$ArrayPad$ = 688
$T9 = 736
appName$ = 744
pointer$ = 752
clientWidth$ = 760
clientHeight$ = 768
?NewWindowInfo@Cy@@YA?AUWindowInfo@1@PEBDPEAXII@Z PROC	; Cy::NewWindowInfo, COMDAT
; File d:\scottsdocs\sourcecode\vulkanengine\vulkanengine\code\commonwindows.cpp
; Line 100
$LN9:
  00000	44 89 4c 24 20	 mov	 DWORD PTR [rsp+32], r9d
  00005	4c 89 44 24 18	 mov	 QWORD PTR [rsp+24], r8
  0000a	48 89 54 24 10	 mov	 QWORD PTR [rsp+16], rdx
  0000f	48 89 4c 24 08	 mov	 QWORD PTR [rsp+8], rcx
  00014	55		 push	 rbp
  00015	56		 push	 rsi
  00016	57		 push	 rdi
  00017	48 81 ec 20 03
	00 00		 sub	 rsp, 800		; 00000320H
  0001e	48 8d 6c 24 60	 lea	 rbp, QWORD PTR [rsp+96]
  00023	48 8b fc	 mov	 rdi, rsp
  00026	b9 c8 00 00 00	 mov	 ecx, 200		; 000000c8H
  0002b	b8 cc cc cc cc	 mov	 eax, -858993460		; ccccccccH
  00030	f3 ab		 rep stosd
  00032	48 8b 8c 24 48
	03 00 00	 mov	 rcx, QWORD PTR [rsp+840]
  0003a	48 8b 05 00 00
	00 00		 mov	 rax, QWORD PTR __security_cookie
  00041	48 33 c5	 xor	 rax, rbp
  00044	48 89 85 b0 02
	00 00		 mov	 QWORD PTR __$ArrayPad$[rbp], rax
; Line 104
  0004b	48 8d 45 50	 lea	 rax, QWORD PTR wc$[rbp]
  0004f	48 8b f8	 mov	 rdi, rax
  00052	33 c0		 xor	 eax, eax
  00054	b9 48 00 00 00	 mov	 ecx, 72			; 00000048H
  00059	f3 aa		 rep stosb
; Line 106
  0005b	c7 45 50 23 00
	00 00		 mov	 DWORD PTR wc$[rbp], 35	; 00000023H
; Line 107
  00062	48 8d 05 00 00
	00 00		 lea	 rax, OFFSET FLAT:?MessageHandler@Cy@@YA_JPEAUHWND__@@I_K_J@Z ; Cy::MessageHandler
  00069	48 89 45 58	 mov	 QWORD PTR wc$[rbp+8], rax
; Line 108
  0006d	33 c9		 xor	 ecx, ecx
  0006f	ff 15 00 00 00
	00		 call	 QWORD PTR __imp_GetModuleHandleW
  00075	48 89 45 68	 mov	 QWORD PTR wc$[rbp+24], rax
; Line 113
  00079	48 8b 85 e8 02
	00 00		 mov	 rax, QWORD PTR appName$[rbp]
  00080	48 89 85 90 00
	00 00		 mov	 QWORD PTR wc$[rbp+64], rax
; Line 114
  00087	48 8b 85 e8 02
	00 00		 mov	 rax, QWORD PTR appName$[rbp]
  0008e	48 89 85 88 00
	00 00		 mov	 QWORD PTR wc$[rbp+56], rax
; Line 115
  00095	c7 45 64 08 00
	00 00		 mov	 DWORD PTR wc$[rbp+20], 8
; Line 118
  0009c	48 8d 4d 50	 lea	 rcx, QWORD PTR wc$[rbp]
  000a0	ff 15 00 00 00
	00		 call	 QWORD PTR __imp_RegisterClassA
  000a6	66 89 85 b4 00
	00 00		 mov	 WORD PTR result$[rbp], ax
; Line 120
  000ad	48 8d 85 f8 01
	00 00		 lea	 rax, QWORD PTR $T5[rbp]
  000b4	48 89 85 38 02
	00 00		 mov	 QWORD PTR $T6[rbp], rax
  000bb	0f b7 85 b4 00
	00 00		 movzx	 eax, WORD PTR result$[rbp]
  000c2	85 c0		 test	 eax, eax
  000c4	74 09		 je	 SHORT $LN3@NewWindowI
  000c6	c6 85 a4 02 00
	00 01		 mov	 BYTE PTR tv72[rbp], 1
  000cd	eb 07		 jmp	 SHORT $LN4@NewWindowI
$LN3@NewWindowI:
  000cf	c6 85 a4 02 00
	00 00		 mov	 BYTE PTR tv72[rbp], 0
$LN4@NewWindowI:
  000d6	48 8d 15 00 00
	00 00		 lea	 rdx, OFFSET FLAT:??_C@_0BP@CHPCPMKH@could?5not?5register?5windowclass?$AA@
  000dd	48 8b 8d 38 02
	00 00		 mov	 rcx, QWORD PTR $T6[rbp]
  000e4	e8 00 00 00 00	 call	 ??0?$basic_string@DU?$char_traits@D@std@@V?$allocator@D@2@@std@@QEAA@PEBD@Z ; std::basic_string<char,std::char_traits<char>,std::allocator<char> >::basic_string<char,std::char_traits<char>,std::allocator<char> >
  000e9	48 89 85 a8 02
	00 00		 mov	 QWORD PTR tv149[rbp], rax
  000f0	48 8b 95 a8 02
	00 00		 mov	 rdx, QWORD PTR tv149[rbp]
  000f7	0f b6 8d a4 02
	00 00		 movzx	 ecx, BYTE PTR tv72[rbp]
  000fe	e8 00 00 00 00	 call	 ?Assert@Cy@@YAX_NV?$basic_string@DU?$char_traits@D@std@@V?$allocator@D@2@@std@@@Z ; Cy::Assert
; Line 124
  00103	8b 85 f8 02 00
	00		 mov	 eax, DWORD PTR clientWidth$[rbp]
  00109	89 85 d4 00 00
	00		 mov	 DWORD PTR windowWidth$[rbp], eax
; Line 125
  0010f	8b 85 00 03 00
	00		 mov	 eax, DWORD PTR clientHeight$[rbp]
  00115	89 85 f4 00 00
	00		 mov	 DWORD PTR windowHeight$[rbp], eax
; Line 127
  0011b	48 8b 85 f0 02
	00 00		 mov	 rax, QWORD PTR pointer$[rbp]
  00122	48 89 44 24 58	 mov	 QWORD PTR [rsp+88], rax
  00127	48 8b 45 68	 mov	 rax, QWORD PTR wc$[rbp+24]
  0012b	48 89 44 24 50	 mov	 QWORD PTR [rsp+80], rax
  00130	48 c7 44 24 48
	00 00 00 00	 mov	 QWORD PTR [rsp+72], 0
  00139	48 c7 44 24 40
	00 00 00 00	 mov	 QWORD PTR [rsp+64], 0
  00142	8b 85 f4 00 00
	00		 mov	 eax, DWORD PTR windowHeight$[rbp]
  00148	89 44 24 38	 mov	 DWORD PTR [rsp+56], eax
  0014c	8b 85 d4 00 00
	00		 mov	 eax, DWORD PTR windowWidth$[rbp]
  00152	89 44 24 30	 mov	 DWORD PTR [rsp+48], eax
  00156	c7 44 24 28 00
	00 00 80	 mov	 DWORD PTR [rsp+40], -2147483648 ; ffffffff80000000H
  0015e	c7 44 24 20 00
	00 00 80	 mov	 DWORD PTR [rsp+32], -2147483648 ; ffffffff80000000H
  00166	41 b9 00 00 cf
	00		 mov	 r9d, 13565952		; 00cf0000H
  0016c	4c 8b 85 e8 02
	00 00		 mov	 r8, QWORD PTR appName$[rbp]
  00173	48 8b 95 e8 02
	00 00		 mov	 rdx, QWORD PTR appName$[rbp]
  0017a	33 c9		 xor	 ecx, ecx
  0017c	ff 15 00 00 00
	00		 call	 QWORD PTR __imp_CreateWindowExA
  00182	48 89 85 18 01
	00 00		 mov	 QWORD PTR windowHandle$[rbp], rax
; Line 139
  00189	48 8d 85 58 02
	00 00		 lea	 rax, QWORD PTR $T7[rbp]
  00190	48 89 85 98 02
	00 00		 mov	 QWORD PTR $T8[rbp], rax
  00197	48 83 bd 18 01
	00 00 00	 cmp	 QWORD PTR windowHandle$[rbp], 0
  0019f	74 09		 je	 SHORT $LN5@NewWindowI
  001a1	c6 85 a4 02 00
	00 01		 mov	 BYTE PTR tv143[rbp], 1
  001a8	eb 07		 jmp	 SHORT $LN6@NewWindowI
$LN5@NewWindowI:
  001aa	c6 85 a4 02 00
	00 00		 mov	 BYTE PTR tv143[rbp], 0
$LN6@NewWindowI:
  001b1	48 8d 15 00 00
	00 00		 lea	 rdx, OFFSET FLAT:??_C@_0CC@PBICDBGD@could?5not?5create?5a?5windows?5windo@
  001b8	48 8b 8d 98 02
	00 00		 mov	 rcx, QWORD PTR $T8[rbp]
  001bf	e8 00 00 00 00	 call	 ??0?$basic_string@DU?$char_traits@D@std@@V?$allocator@D@2@@std@@QEAA@PEBD@Z ; std::basic_string<char,std::char_traits<char>,std::allocator<char> >::basic_string<char,std::char_traits<char>,std::allocator<char> >
  001c4	48 89 85 a8 02
	00 00		 mov	 QWORD PTR tv151[rbp], rax
  001cb	48 8b 95 a8 02
	00 00		 mov	 rdx, QWORD PTR tv151[rbp]
  001d2	0f b6 8d a4 02
	00 00		 movzx	 ecx, BYTE PTR tv143[rbp]
  001d9	e8 00 00 00 00	 call	 ?Assert@Cy@@YAX_NV?$basic_string@DU?$char_traits@D@std@@V?$allocator@D@2@@std@@@Z ; Cy::Assert
; Line 141
  001de	ba 05 00 00 00	 mov	 edx, 5
  001e3	48 8b 8d 18 01
	00 00		 mov	 rcx, QWORD PTR windowHandle$[rbp]
  001ea	ff 15 00 00 00
	00		 call	 QWORD PTR __imp_ShowWindow
; Line 143
  001f0	48 8b 85 e8 02
	00 00		 mov	 rax, QWORD PTR appName$[rbp]
  001f7	48 89 45 08	 mov	 QWORD PTR windowInfo$[rbp], rax
; Line 144
  001fb	48 8b 85 18 01
	00 00		 mov	 rax, QWORD PTR windowHandle$[rbp]
  00202	48 89 45 10	 mov	 QWORD PTR windowInfo$[rbp+8], rax
; Line 145
  00206	8b 85 f8 02 00
	00		 mov	 eax, DWORD PTR clientWidth$[rbp]
  0020c	89 45 20	 mov	 DWORD PTR windowInfo$[rbp+24], eax
; Line 146
  0020f	8b 85 00 03 00
	00		 mov	 eax, DWORD PTR clientHeight$[rbp]
  00215	89 45 24	 mov	 DWORD PTR windowInfo$[rbp+28], eax
; Line 147
  00218	33 c9		 xor	 ecx, ecx
  0021a	ff 15 00 00 00
	00		 call	 QWORD PTR __imp_GetModuleHandleW
  00220	48 89 45 18	 mov	 QWORD PTR windowInfo$[rbp+16], rax
; Line 149
  00224	48 8d 45 08	 lea	 rax, QWORD PTR windowInfo$[rbp]
  00228	48 8b bd e0 02
	00 00		 mov	 rdi, QWORD PTR $T9[rbp]
  0022f	48 8b f0	 mov	 rsi, rax
  00232	b9 20 00 00 00	 mov	 ecx, 32			; 00000020H
  00237	f3 a4		 rep movsb
  00239	48 8b 85 e0 02
	00 00		 mov	 rax, QWORD PTR $T9[rbp]
; Line 150
  00240	48 8b f8	 mov	 rdi, rax
  00243	48 8d 4d a0	 lea	 rcx, QWORD PTR [rbp-96]
  00247	48 8d 15 00 00
	00 00		 lea	 rdx, OFFSET FLAT:?NewWindowInfo@Cy@@YA?AUWindowInfo@1@PEBDPEAXII@Z$rtcFrameData
  0024e	e8 00 00 00 00	 call	 _RTC_CheckStackVars
  00253	48 8b c7	 mov	 rax, rdi
  00256	48 8b 8d b0 02
	00 00		 mov	 rcx, QWORD PTR __$ArrayPad$[rbp]
  0025d	48 33 cd	 xor	 rcx, rbp
  00260	e8 00 00 00 00	 call	 __security_check_cookie
  00265	48 8d a5 c0 02
	00 00		 lea	 rsp, QWORD PTR [rbp+704]
  0026c	5f		 pop	 rdi
  0026d	5e		 pop	 rsi
  0026e	5d		 pop	 rbp
  0026f	c3		 ret	 0
?NewWindowInfo@Cy@@YA?AUWindowInfo@1@PEBDPEAXII@Z ENDP	; Cy::NewWindowInfo
_TEXT	ENDS
; Function compile flags: /Odtp /RTCsu /ZI
;	COMDAT ?NewInputInfo@Cy@@YA?AUInputInfo@1@PEBUWindowInfo@1@@Z
_TEXT	SEGMENT
iInfo$ = 16
$T4 = 384
__$ArrayPad$ = 536
$T5 = 576
windowInfo$ = 584
?NewInputInfo@Cy@@YA?AUInputInfo@1@PEBUWindowInfo@1@@Z PROC ; Cy::NewInputInfo, COMDAT
; File d:\scottsdocs\sourcecode\vulkanengine\vulkanengine\code\commonwindows.cpp
; Line 231
$LN3:
  00000	48 89 54 24 10	 mov	 QWORD PTR [rsp+16], rdx
  00005	48 89 4c 24 08	 mov	 QWORD PTR [rsp+8], rcx
  0000a	55		 push	 rbp
  0000b	56		 push	 rsi
  0000c	57		 push	 rdi
  0000d	48 81 ec 40 02
	00 00		 sub	 rsp, 576		; 00000240H
  00014	48 8d 6c 24 20	 lea	 rbp, QWORD PTR [rsp+32]
  00019	48 8b fc	 mov	 rdi, rsp
  0001c	b9 90 00 00 00	 mov	 ecx, 144		; 00000090H
  00021	b8 cc cc cc cc	 mov	 eax, -858993460		; ccccccccH
  00026	f3 ab		 rep stosd
  00028	48 8b 8c 24 68
	02 00 00	 mov	 rcx, QWORD PTR [rsp+616]
  00030	48 8b 05 00 00
	00 00		 mov	 rax, QWORD PTR __security_cookie
  00037	48 33 c5	 xor	 rax, rbp
  0003a	48 89 85 18 02
	00 00		 mov	 QWORD PTR __$ArrayPad$[rbp], rax
; Line 232
  00041	48 8d 45 10	 lea	 rax, QWORD PTR iInfo$[rbp]
  00045	48 8b f8	 mov	 rdi, rax
  00048	33 c0		 xor	 eax, eax
  0004a	b9 01 00 00 00	 mov	 ecx, 1
  0004f	f3 aa		 rep stosb
  00051	48 8d 45 11	 lea	 rax, QWORD PTR iInfo$[rbp+1]
  00055	48 8b f8	 mov	 rdi, rax
  00058	33 c0		 xor	 eax, eax
  0005a	b9 5b 00 00 00	 mov	 ecx, 91			; 0000005bH
  0005f	f3 aa		 rep stosb
; File d:\scottsdocs\sourcecode\vulkanengine\vulkanengine\code\cymath.h
; Line 9
  00061	48 8d 4d 6c	 lea	 rcx, QWORD PTR iInfo$[rbp+92]
  00065	e8 00 00 00 00	 call	 ??0v2@Cy@@QEAA@XZ	; Cy::v2::v2
  0006a	48 8d 4d 74	 lea	 rcx, QWORD PTR iInfo$[rbp+100]
  0006e	e8 00 00 00 00	 call	 ??0v2@Cy@@QEAA@XZ	; Cy::v2::v2
  00073	48 8d 45 7c	 lea	 rax, QWORD PTR iInfo$[rbp+108]
  00077	48 8b f8	 mov	 rdi, rax
  0007a	33 c0		 xor	 eax, eax
  0007c	b9 1c 00 00 00	 mov	 ecx, 28
  00081	f3 aa		 rep stosb
; File d:\scottsdocs\sourcecode\vulkanengine\vulkanengine\code\commonwindows.cpp
; Line 233
  00083	c6 45 10 01	 mov	 BYTE PTR iInfo$[rbp], 1
; Line 234
  00087	c7 85 80 00 00
	00 18 00 00 00	 mov	 DWORD PTR iInfo$[rbp+112], 24
; Line 235
  00091	c7 85 84 00 00
	00 03 00 00 00	 mov	 DWORD PTR iInfo$[rbp+116], 3
; Line 236
  0009b	48 8b 85 48 02
	00 00		 mov	 rax, QWORD PTR windowInfo$[rbp]
  000a2	48 8b 40 08	 mov	 rax, QWORD PTR [rax+8]
  000a6	48 89 85 88 00
	00 00		 mov	 QWORD PTR iInfo$[rbp+120], rax
; Line 237
  000ad	c7 85 90 00 00
	00 ff ff ff ff	 mov	 DWORD PTR iInfo$[rbp+128], -1 ; ffffffffH
; Line 238
  000b7	48 8d 55 10	 lea	 rdx, QWORD PTR iInfo$[rbp]
  000bb	48 8d 8d 80 01
	00 00		 lea	 rcx, QWORD PTR $T4[rbp]
  000c2	e8 00 00 00 00	 call	 ??0InputInfo@Cy@@QEAA@$$QEAU01@@Z
  000c7	48 8b bd 40 02
	00 00		 mov	 rdi, QWORD PTR $T5[rbp]
  000ce	48 8b f0	 mov	 rsi, rax
  000d1	b9 88 00 00 00	 mov	 ecx, 136		; 00000088H
  000d6	f3 a4		 rep movsb
  000d8	48 8b 85 40 02
	00 00		 mov	 rax, QWORD PTR $T5[rbp]
; Line 239
  000df	48 8b f8	 mov	 rdi, rax
  000e2	48 8d 4d e0	 lea	 rcx, QWORD PTR [rbp-32]
  000e6	48 8d 15 00 00
	00 00		 lea	 rdx, OFFSET FLAT:?NewInputInfo@Cy@@YA?AUInputInfo@1@PEBUWindowInfo@1@@Z$rtcFrameData
  000ed	e8 00 00 00 00	 call	 _RTC_CheckStackVars
  000f2	48 8b c7	 mov	 rax, rdi
  000f5	48 8b 8d 18 02
	00 00		 mov	 rcx, QWORD PTR __$ArrayPad$[rbp]
  000fc	48 33 cd	 xor	 rcx, rbp
  000ff	e8 00 00 00 00	 call	 __security_check_cookie
  00104	48 8d a5 20 02
	00 00		 lea	 rsp, QWORD PTR [rbp+544]
  0010b	5f		 pop	 rdi
  0010c	5e		 pop	 rsi
  0010d	5d		 pop	 rbp
  0010e	c3		 ret	 0
?NewInputInfo@Cy@@YA?AUInputInfo@1@PEBUWindowInfo@1@@Z ENDP ; Cy::NewInputInfo
_TEXT	ENDS
; Function compile flags: /Odtp /RTCsu /ZI
;	COMDAT ??0InputInfo@Cy@@QEAA@$$QEAU01@@Z
_TEXT	SEGMENT
this$ = 224
__that$ = 232
??0InputInfo@Cy@@QEAA@$$QEAU01@@Z PROC			; Cy::InputInfo::InputInfo, COMDAT
$LN3:
  00000	48 89 54 24 10	 mov	 QWORD PTR [rsp+16], rdx
  00005	48 89 4c 24 08	 mov	 QWORD PTR [rsp+8], rcx
  0000a	55		 push	 rbp
  0000b	56		 push	 rsi
  0000c	57		 push	 rdi
  0000d	48 81 ec e0 00
	00 00		 sub	 rsp, 224		; 000000e0H
  00014	48 8d 6c 24 20	 lea	 rbp, QWORD PTR [rsp+32]
  00019	48 8b fc	 mov	 rdi, rsp
  0001c	b9 38 00 00 00	 mov	 ecx, 56			; 00000038H
  00021	b8 cc cc cc cc	 mov	 eax, -858993460		; ccccccccH
  00026	f3 ab		 rep stosd
  00028	48 8b 8c 24 08
	01 00 00	 mov	 rcx, QWORD PTR [rsp+264]
  00030	48 8b 85 e0 00
	00 00		 mov	 rax, QWORD PTR this$[rbp]
  00037	48 8b 8d e8 00
	00 00		 mov	 rcx, QWORD PTR __that$[rbp]
  0003e	0f b6 09	 movzx	 ecx, BYTE PTR [rcx]
  00041	88 08		 mov	 BYTE PTR [rax], cl
  00043	48 8b 85 e0 00
	00 00		 mov	 rax, QWORD PTR this$[rbp]
  0004a	48 8b 8d e8 00
	00 00		 mov	 rcx, QWORD PTR __that$[rbp]
  00051	48 8d 78 01	 lea	 rdi, QWORD PTR [rax+1]
  00055	48 8d 71 01	 lea	 rsi, QWORD PTR [rcx+1]
  00059	b9 5b 00 00 00	 mov	 ecx, 91			; 0000005bH
  0005e	f3 a4		 rep movsb
  00060	48 8b 85 e8 00
	00 00		 mov	 rax, QWORD PTR __that$[rbp]
  00067	48 83 c0 5c	 add	 rax, 92			; 0000005cH
  0006b	48 8b 8d e0 00
	00 00		 mov	 rcx, QWORD PTR this$[rbp]
  00072	48 83 c1 5c	 add	 rcx, 92			; 0000005cH
  00076	48 8b d0	 mov	 rdx, rax
  00079	e8 00 00 00 00	 call	 ??0v2@Cy@@QEAA@AEBU01@@Z ; Cy::v2::v2
  0007e	48 8b 85 e8 00
	00 00		 mov	 rax, QWORD PTR __that$[rbp]
  00085	48 83 c0 64	 add	 rax, 100		; 00000064H
  00089	48 8b 8d e0 00
	00 00		 mov	 rcx, QWORD PTR this$[rbp]
  00090	48 83 c1 64	 add	 rcx, 100		; 00000064H
  00094	48 8b d0	 mov	 rdx, rax
  00097	e8 00 00 00 00	 call	 ??0v2@Cy@@QEAA@AEBU01@@Z ; Cy::v2::v2
  0009c	48 8b 85 e0 00
	00 00		 mov	 rax, QWORD PTR this$[rbp]
  000a3	48 8b 8d e8 00
	00 00		 mov	 rcx, QWORD PTR __that$[rbp]
  000aa	0f b6 49 6c	 movzx	 ecx, BYTE PTR [rcx+108]
  000ae	88 48 6c	 mov	 BYTE PTR [rax+108], cl
  000b1	48 8b 85 e0 00
	00 00		 mov	 rax, QWORD PTR this$[rbp]
  000b8	48 8b 8d e8 00
	00 00		 mov	 rcx, QWORD PTR __that$[rbp]
  000bf	48 8d 78 70	 lea	 rdi, QWORD PTR [rax+112]
  000c3	48 8d 71 70	 lea	 rsi, QWORD PTR [rcx+112]
  000c7	b9 18 00 00 00	 mov	 ecx, 24
  000cc	f3 a4		 rep movsb
  000ce	48 8b 85 e0 00
	00 00		 mov	 rax, QWORD PTR this$[rbp]
  000d5	48 8d a5 c0 00
	00 00		 lea	 rsp, QWORD PTR [rbp+192]
  000dc	5f		 pop	 rdi
  000dd	5e		 pop	 rsi
  000de	5d		 pop	 rbp
  000df	c3		 ret	 0
??0InputInfo@Cy@@QEAA@$$QEAU01@@Z ENDP			; Cy::InputInfo::InputInfo
_TEXT	ENDS
; Function compile flags: /Odtp /RTCsu /ZI
;	COMDAT ?_Xran@?$basic_string@DU?$char_traits@D@std@@V?$allocator@D@2@@std@@QEBAXXZ
_TEXT	SEGMENT
this$ = 224
?_Xran@?$basic_string@DU?$char_traits@D@std@@V?$allocator@D@2@@std@@QEBAXXZ PROC ; std::basic_string<char,std::char_traits<char>,std::allocator<char> >::_Xran, COMDAT
; File d:\appdata\vsp\vc\include\xstring
; Line 2251
$LN3:
  00000	48 89 4c 24 08	 mov	 QWORD PTR [rsp+8], rcx
  00005	55		 push	 rbp
  00006	57		 push	 rdi
  00007	48 81 ec e8 00
	00 00		 sub	 rsp, 232		; 000000e8H
  0000e	48 8d 6c 24 20	 lea	 rbp, QWORD PTR [rsp+32]
  00013	48 8b fc	 mov	 rdi, rsp
  00016	b9 3a 00 00 00	 mov	 ecx, 58			; 0000003aH
  0001b	b8 cc cc cc cc	 mov	 eax, -858993460		; ccccccccH
  00020	f3 ab		 rep stosd
  00022	48 8b 8c 24 08
	01 00 00	 mov	 rcx, QWORD PTR [rsp+264]
; Line 2252
  0002a	48 8d 0d 00 00
	00 00		 lea	 rcx, OFFSET FLAT:??_C@_0BI@CFPLBAOH@invalid?5string?5position?$AA@
  00031	ff 15 00 00 00
	00		 call	 QWORD PTR __imp_?_Xout_of_range@std@@YAXPEBD@Z
$LN2@Xran:
; Line 2253
  00037	48 8d a5 c8 00
	00 00		 lea	 rsp, QWORD PTR [rbp+200]
  0003e	5f		 pop	 rdi
  0003f	5d		 pop	 rbp
  00040	c3		 ret	 0
?_Xran@?$basic_string@DU?$char_traits@D@std@@V?$allocator@D@2@@std@@QEBAXXZ ENDP ; std::basic_string<char,std::char_traits<char>,std::allocator<char> >::_Xran
_TEXT	ENDS
; Function compile flags: /Odtp /RTCsu /ZI
;	COMDAT ?_Xlen@?$basic_string@DU?$char_traits@D@std@@V?$allocator@D@2@@std@@QEBAXXZ
_TEXT	SEGMENT
this$ = 224
?_Xlen@?$basic_string@DU?$char_traits@D@std@@V?$allocator@D@2@@std@@QEBAXXZ PROC ; std::basic_string<char,std::char_traits<char>,std::allocator<char> >::_Xlen, COMDAT
; File d:\appdata\vsp\vc\include\xstring
; Line 2246
$LN3:
  00000	48 89 4c 24 08	 mov	 QWORD PTR [rsp+8], rcx
  00005	55		 push	 rbp
  00006	57		 push	 rdi
  00007	48 81 ec e8 00
	00 00		 sub	 rsp, 232		; 000000e8H
  0000e	48 8d 6c 24 20	 lea	 rbp, QWORD PTR [rsp+32]
  00013	48 8b fc	 mov	 rdi, rsp
  00016	b9 3a 00 00 00	 mov	 ecx, 58			; 0000003aH
  0001b	b8 cc cc cc cc	 mov	 eax, -858993460		; ccccccccH
  00020	f3 ab		 rep stosd
  00022	48 8b 8c 24 08
	01 00 00	 mov	 rcx, QWORD PTR [rsp+264]
; Line 2247
  0002a	48 8d 0d 00 00
	00 00		 lea	 rcx, OFFSET FLAT:??_C@_0BA@JFNIOLAK@string?5too?5long?$AA@
  00031	ff 15 00 00 00
	00		 call	 QWORD PTR __imp_?_Xlength_error@std@@YAXPEBD@Z
$LN2@Xlen:
; Line 2248
  00037	48 8d a5 c8 00
	00 00		 lea	 rsp, QWORD PTR [rbp+200]
  0003e	5f		 pop	 rdi
  0003f	5d		 pop	 rbp
  00040	c3		 ret	 0
?_Xlen@?$basic_string@DU?$char_traits@D@std@@V?$allocator@D@2@@std@@QEBAXXZ ENDP ; std::basic_string<char,std::char_traits<char>,std::allocator<char> >::_Xlen
_TEXT	ENDS
; Function compile flags: /Odtp /RTCsu /ZI
;	COMDAT ?_Tidy@?$basic_string@DU?$char_traits@D@std@@V?$allocator@D@2@@std@@QEAAX_N_K@Z
_TEXT	SEGMENT
_Ptr$1 = 8
tv153 = 216
tv130 = 216
tv93 = 216
this$ = 256
_Built$ = 264
_Newsize$ = 272
?_Tidy@?$basic_string@DU?$char_traits@D@std@@V?$allocator@D@2@@std@@QEAAX_N_K@Z PROC ; std::basic_string<char,std::char_traits<char>,std::allocator<char> >::_Tidy, COMDAT
; File d:\appdata\vsp\vc\include\xstring
; Line 2229
$LN7:
  00000	4c 89 44 24 18	 mov	 QWORD PTR [rsp+24], r8
  00005	88 54 24 10	 mov	 BYTE PTR [rsp+16], dl
  00009	48 89 4c 24 08	 mov	 QWORD PTR [rsp+8], rcx
  0000e	55		 push	 rbp
  0000f	57		 push	 rdi
  00010	48 81 ec 08 01
	00 00		 sub	 rsp, 264		; 00000108H
  00017	48 8d 6c 24 20	 lea	 rbp, QWORD PTR [rsp+32]
  0001c	48 8b fc	 mov	 rdi, rsp
  0001f	b9 42 00 00 00	 mov	 ecx, 66			; 00000042H
  00024	b8 cc cc cc cc	 mov	 eax, -858993460		; ccccccccH
  00029	f3 ab		 rep stosd
  0002b	48 8b 8c 24 28
	01 00 00	 mov	 rcx, QWORD PTR [rsp+296]
; Line 2230
  00033	0f b6 85 08 01
	00 00		 movzx	 eax, BYTE PTR _Built$[rbp]
  0003a	85 c0		 test	 eax, eax
  0003c	75 05		 jne	 SHORT $LN2@Tidy
  0003e	e9 d4 00 00 00	 jmp	 $LN3@Tidy
$LN2@Tidy:
; Line 2232
  00043	48 8b 8d 00 01
	00 00		 mov	 rcx, QWORD PTR this$[rbp]
  0004a	e8 00 00 00 00	 call	 ?_Myres@?$_String_alloc@U?$_String_base_types@DV?$allocator@D@std@@@std@@@std@@QEAAAEA_KXZ ; std::_String_alloc<std::_String_base_types<char,std::allocator<char> > >::_Myres
  0004f	48 83 38 10	 cmp	 QWORD PTR [rax], 16
  00053	0f 82 be 00 00
	00		 jb	 $LN4@Tidy
; Line 2234
  00059	48 8b 8d 00 01
	00 00		 mov	 rcx, QWORD PTR this$[rbp]
  00060	e8 00 00 00 00	 call	 ?_Bx@?$_String_alloc@U?$_String_base_types@DV?$allocator@D@std@@@std@@@std@@QEAAAEAT_Bxty@?$_String_val@U?$_Simple_types@D@std@@@2@XZ ; std::_String_alloc<std::_String_base_types<char,std::allocator<char> > >::_Bx
  00065	48 8b 00	 mov	 rax, QWORD PTR [rax]
  00068	48 89 45 08	 mov	 QWORD PTR _Ptr$1[rbp], rax
; Line 2235
  0006c	48 8b 8d 00 01
	00 00		 mov	 rcx, QWORD PTR this$[rbp]
  00073	e8 00 00 00 00	 call	 ?_Bx@?$_String_alloc@U?$_String_base_types@DV?$allocator@D@std@@@std@@@std@@QEAAAEAT_Bxty@?$_String_val@U?$_Simple_types@D@std@@@2@XZ ; std::_String_alloc<std::_String_base_types<char,std::allocator<char> > >::_Bx
  00078	48 89 85 d8 00
	00 00		 mov	 QWORD PTR tv93[rbp], rax
  0007f	48 8b 8d 00 01
	00 00		 mov	 rcx, QWORD PTR this$[rbp]
  00086	e8 00 00 00 00	 call	 ?_Getal@?$_String_alloc@U?$_String_base_types@DV?$allocator@D@std@@@std@@@std@@QEAAAEAU?$_Wrap_alloc@V?$allocator@D@std@@@2@XZ ; std::_String_alloc<std::_String_base_types<char,std::allocator<char> > >::_Getal
  0008b	48 8b 8d d8 00
	00 00		 mov	 rcx, QWORD PTR tv93[rbp]
  00092	48 8b d1	 mov	 rdx, rcx
  00095	48 8b c8	 mov	 rcx, rax
  00098	e8 00 00 00 00	 call	 ??$destroy@PEAD@?$_Wrap_alloc@V?$allocator@D@std@@@std@@QEAAXPEAPEAD@Z ; std::_Wrap_alloc<std::allocator<char> >::destroy<char * __ptr64>
; Line 2236
  0009d	48 83 bd 10 01
	00 00 00	 cmp	 QWORD PTR _Newsize$[rbp], 0
  000a5	76 35		 jbe	 SHORT $LN5@Tidy
; Line 2237
  000a7	48 8b 4d 08	 mov	 rcx, QWORD PTR _Ptr$1[rbp]
  000ab	e8 00 00 00 00	 call	 ??$addressof@D@std@@YAPEADAEAD@Z ; std::addressof<char>
  000b0	48 89 85 d8 00
	00 00		 mov	 QWORD PTR tv130[rbp], rax
  000b7	48 8b 8d 00 01
	00 00		 mov	 rcx, QWORD PTR this$[rbp]
  000be	e8 00 00 00 00	 call	 ?_Bx@?$_String_alloc@U?$_String_base_types@DV?$allocator@D@std@@@std@@@std@@QEAAAEAT_Bxty@?$_String_val@U?$_Simple_types@D@std@@@2@XZ ; std::_String_alloc<std::_String_base_types<char,std::allocator<char> > >::_Bx
  000c3	4c 8b 85 10 01
	00 00		 mov	 r8, QWORD PTR _Newsize$[rbp]
  000ca	48 8b 8d d8 00
	00 00		 mov	 rcx, QWORD PTR tv130[rbp]
  000d1	48 8b d1	 mov	 rdx, rcx
  000d4	48 8b c8	 mov	 rcx, rax
  000d7	e8 00 00 00 00	 call	 ?copy@?$char_traits@D@std@@SAPEADPEADPEBD_K@Z ; std::char_traits<char>::copy
$LN5@Tidy:
; Line 2239
  000dc	48 8b 8d 00 01
	00 00		 mov	 rcx, QWORD PTR this$[rbp]
  000e3	e8 00 00 00 00	 call	 ?_Myres@?$_String_alloc@U?$_String_base_types@DV?$allocator@D@std@@@std@@@std@@QEAAAEA_KXZ ; std::_String_alloc<std::_String_base_types<char,std::allocator<char> > >::_Myres
  000e8	48 8b 00	 mov	 rax, QWORD PTR [rax]
  000eb	48 ff c0	 inc	 rax
  000ee	48 89 85 d8 00
	00 00		 mov	 QWORD PTR tv153[rbp], rax
  000f5	48 8b 8d 00 01
	00 00		 mov	 rcx, QWORD PTR this$[rbp]
  000fc	e8 00 00 00 00	 call	 ?_Getal@?$_String_alloc@U?$_String_base_types@DV?$allocator@D@std@@@std@@@std@@QEAAAEAU?$_Wrap_alloc@V?$allocator@D@std@@@2@XZ ; std::_String_alloc<std::_String_base_types<char,std::allocator<char> > >::_Getal
  00101	48 8b 8d d8 00
	00 00		 mov	 rcx, QWORD PTR tv153[rbp]
  00108	4c 8b c1	 mov	 r8, rcx
  0010b	48 8b 55 08	 mov	 rdx, QWORD PTR _Ptr$1[rbp]
  0010f	48 8b c8	 mov	 rcx, rax
  00112	e8 00 00 00 00	 call	 ?deallocate@?$_Wrap_alloc@V?$allocator@D@std@@@std@@QEAAXPEAD_K@Z ; std::_Wrap_alloc<std::allocator<char> >::deallocate
$LN4@Tidy:
$LN3@Tidy:
; Line 2241
  00117	48 8b 8d 00 01
	00 00		 mov	 rcx, QWORD PTR this$[rbp]
  0011e	e8 00 00 00 00	 call	 ?_Myres@?$_String_alloc@U?$_String_base_types@DV?$allocator@D@std@@@std@@@std@@QEAAAEA_KXZ ; std::_String_alloc<std::_String_base_types<char,std::allocator<char> > >::_Myres
  00123	48 c7 00 0f 00
	00 00		 mov	 QWORD PTR [rax], 15
; Line 2242
  0012a	48 8b 95 10 01
	00 00		 mov	 rdx, QWORD PTR _Newsize$[rbp]
  00131	48 8b 8d 00 01
	00 00		 mov	 rcx, QWORD PTR this$[rbp]
  00138	e8 00 00 00 00	 call	 ?_Eos@?$basic_string@DU?$char_traits@D@std@@V?$allocator@D@2@@std@@QEAAX_K@Z ; std::basic_string<char,std::char_traits<char>,std::allocator<char> >::_Eos
; Line 2243
  0013d	48 8d a5 e8 00
	00 00		 lea	 rsp, QWORD PTR [rbp+232]
  00144	5f		 pop	 rdi
  00145	5d		 pop	 rbp
  00146	c3		 ret	 0
?_Tidy@?$basic_string@DU?$char_traits@D@std@@V?$allocator@D@2@@std@@QEAAX_N_K@Z ENDP ; std::basic_string<char,std::char_traits<char>,std::allocator<char> >::_Tidy
_TEXT	ENDS
; Function compile flags: /Odtp /RTCsu /ZI
;	COMDAT ?_Inside@?$basic_string@DU?$char_traits@D@std@@V?$allocator@D@2@@std@@QEAA_NPEBD@Z
_TEXT	SEGMENT
tv77 = 192
this$ = 240
_Ptr$ = 248
?_Inside@?$basic_string@DU?$char_traits@D@std@@V?$allocator@D@2@@std@@QEAA_NPEBD@Z PROC ; std::basic_string<char,std::char_traits<char>,std::allocator<char> >::_Inside, COMDAT
; File d:\appdata\vsp\vc\include\xstring
; Line 2219
$LN6:
  00000	48 89 54 24 10	 mov	 QWORD PTR [rsp+16], rdx
  00005	48 89 4c 24 08	 mov	 QWORD PTR [rsp+8], rcx
  0000a	55		 push	 rbp
  0000b	57		 push	 rdi
  0000c	48 81 ec f8 00
	00 00		 sub	 rsp, 248		; 000000f8H
  00013	48 8d 6c 24 20	 lea	 rbp, QWORD PTR [rsp+32]
  00018	48 8b fc	 mov	 rdi, rsp
  0001b	b9 3e 00 00 00	 mov	 ecx, 62			; 0000003eH
  00020	b8 cc cc cc cc	 mov	 eax, -858993460		; ccccccccH
  00025	f3 ab		 rep stosd
  00027	48 8b 8c 24 18
	01 00 00	 mov	 rcx, QWORD PTR [rsp+280]
; Line 2221
  0002f	48 83 bd f8 00
	00 00 00	 cmp	 QWORD PTR _Ptr$[rbp], 0
  00037	74 4a		 je	 SHORT $LN4@Inside
  00039	48 8b 8d f0 00
	00 00		 mov	 rcx, QWORD PTR this$[rbp]
  00040	e8 00 00 00 00	 call	 ?_Myptr@?$_String_alloc@U?$_String_base_types@DV?$allocator@D@std@@@std@@@std@@QEAAPEADXZ ; std::_String_alloc<std::_String_base_types<char,std::allocator<char> > >::_Myptr
  00045	48 39 85 f8 00
	00 00		 cmp	 QWORD PTR _Ptr$[rbp], rax
  0004c	72 35		 jb	 SHORT $LN4@Inside
  0004e	48 8b 8d f0 00
	00 00		 mov	 rcx, QWORD PTR this$[rbp]
  00055	e8 00 00 00 00	 call	 ?_Myptr@?$_String_alloc@U?$_String_base_types@DV?$allocator@D@std@@@std@@@std@@QEAAPEADXZ ; std::_String_alloc<std::_String_base_types<char,std::allocator<char> > >::_Myptr
  0005a	48 89 85 c0 00
	00 00		 mov	 QWORD PTR tv77[rbp], rax
  00061	48 8b 8d f0 00
	00 00		 mov	 rcx, QWORD PTR this$[rbp]
  00068	e8 00 00 00 00	 call	 ?_Mysize@?$_String_alloc@U?$_String_base_types@DV?$allocator@D@std@@@std@@@std@@QEAAAEA_KXZ ; std::_String_alloc<std::_String_base_types<char,std::allocator<char> > >::_Mysize
  0006d	48 8b 8d c0 00
	00 00		 mov	 rcx, QWORD PTR tv77[rbp]
  00074	48 03 08	 add	 rcx, QWORD PTR [rax]
  00077	48 8b c1	 mov	 rax, rcx
  0007a	48 3b 85 f8 00
	00 00		 cmp	 rax, QWORD PTR _Ptr$[rbp]
  00081	77 06		 ja	 SHORT $LN2@Inside
$LN4@Inside:
; Line 2222
  00083	32 c0		 xor	 al, al
  00085	eb 04		 jmp	 SHORT $LN1@Inside
; Line 2223
  00087	eb 02		 jmp	 SHORT $LN3@Inside
$LN2@Inside:
; Line 2224
  00089	b0 01		 mov	 al, 1
$LN3@Inside:
$LN1@Inside:
; Line 2225
  0008b	48 8d a5 d8 00
	00 00		 lea	 rsp, QWORD PTR [rbp+216]
  00092	5f		 pop	 rdi
  00093	5d		 pop	 rbp
  00094	c3		 ret	 0
?_Inside@?$basic_string@DU?$char_traits@D@std@@V?$allocator@D@2@@std@@QEAA_NPEBD@Z ENDP ; std::basic_string<char,std::char_traits<char>,std::allocator<char> >::_Inside
_TEXT	ENDS
; Function compile flags: /Odtp /RTCsu /ZI
;	COMDAT ?_Grow@?$basic_string@DU?$char_traits@D@std@@V?$allocator@D@2@@std@@QEAA_N_K_N@Z
_TEXT	SEGMENT
tv140 = 192
tv133 = 192
this$ = 240
_Newsize$ = 248
_Trim$ = 256
?_Grow@?$basic_string@DU?$char_traits@D@std@@V?$allocator@D@2@@std@@QEAA_N_K_N@Z PROC ; std::basic_string<char,std::char_traits<char>,std::allocator<char> >::_Grow, COMDAT
; File d:\appdata\vsp\vc\include\xstring
; Line 2205
$LN13:
  00000	44 88 44 24 18	 mov	 BYTE PTR [rsp+24], r8b
  00005	48 89 54 24 10	 mov	 QWORD PTR [rsp+16], rdx
  0000a	48 89 4c 24 08	 mov	 QWORD PTR [rsp+8], rcx
  0000f	55		 push	 rbp
  00010	57		 push	 rdi
  00011	48 81 ec f8 00
	00 00		 sub	 rsp, 248		; 000000f8H
  00018	48 8d 6c 24 20	 lea	 rbp, QWORD PTR [rsp+32]
  0001d	48 8b fc	 mov	 rdi, rsp
  00020	b9 3e 00 00 00	 mov	 ecx, 62			; 0000003eH
  00025	b8 cc cc cc cc	 mov	 eax, -858993460		; ccccccccH
  0002a	f3 ab		 rep stosd
  0002c	48 8b 8c 24 18
	01 00 00	 mov	 rcx, QWORD PTR [rsp+280]
; Line 2206
  00034	48 8b 8d f0 00
	00 00		 mov	 rcx, QWORD PTR this$[rbp]
  0003b	e8 00 00 00 00	 call	 ?max_size@?$basic_string@DU?$char_traits@D@std@@V?$allocator@D@2@@std@@QEBA_KXZ ; std::basic_string<char,std::char_traits<char>,std::allocator<char> >::max_size
  00040	48 3b 85 f8 00
	00 00		 cmp	 rax, QWORD PTR _Newsize$[rbp]
  00047	73 0c		 jae	 SHORT $LN2@Grow
; Line 2207
  00049	48 8b 8d f0 00
	00 00		 mov	 rcx, QWORD PTR this$[rbp]
  00050	e8 00 00 00 00	 call	 ?_Xlen@?$basic_string@DU?$char_traits@D@std@@V?$allocator@D@2@@std@@QEBAXXZ ; std::basic_string<char,std::char_traits<char>,std::allocator<char> >::_Xlen
$LN2@Grow:
; Line 2208
  00055	48 8b 8d f0 00
	00 00		 mov	 rcx, QWORD PTR this$[rbp]
  0005c	e8 00 00 00 00	 call	 ?_Myres@?$_String_alloc@U?$_String_base_types@DV?$allocator@D@std@@@std@@@std@@QEAAAEA_KXZ ; std::_String_alloc<std::_String_base_types<char,std::allocator<char> > >::_Myres
  00061	48 8b 8d f8 00
	00 00		 mov	 rcx, QWORD PTR _Newsize$[rbp]
  00068	48 39 08	 cmp	 QWORD PTR [rax], rcx
  0006b	73 27		 jae	 SHORT $LN3@Grow
; Line 2209
  0006d	48 8b 8d f0 00
	00 00		 mov	 rcx, QWORD PTR this$[rbp]
  00074	e8 00 00 00 00	 call	 ?_Mysize@?$_String_alloc@U?$_String_base_types@DV?$allocator@D@std@@@std@@@std@@QEAAAEA_KXZ ; std::_String_alloc<std::_String_base_types<char,std::allocator<char> > >::_Mysize
  00079	4c 8b 00	 mov	 r8, QWORD PTR [rax]
  0007c	48 8b 95 f8 00
	00 00		 mov	 rdx, QWORD PTR _Newsize$[rbp]
  00083	48 8b 8d f0 00
	00 00		 mov	 rcx, QWORD PTR this$[rbp]
  0008a	e8 00 00 00 00	 call	 ?_Copy@?$basic_string@DU?$char_traits@D@std@@V?$allocator@D@2@@std@@QEAAX_K0@Z ; std::basic_string<char,std::char_traits<char>,std::allocator<char> >::_Copy
  0008f	e9 82 00 00 00	 jmp	 $LN4@Grow
$LN3@Grow:
; Line 2210
  00094	0f b6 85 00 01
	00 00		 movzx	 eax, BYTE PTR _Trim$[rbp]
  0009b	85 c0		 test	 eax, eax
  0009d	74 5f		 je	 SHORT $LN5@Grow
  0009f	48 83 bd f8 00
	00 00 10	 cmp	 QWORD PTR _Newsize$[rbp], 16
  000a7	73 55		 jae	 SHORT $LN5@Grow
; Line 2211
  000a9	48 8b 8d f0 00
	00 00		 mov	 rcx, QWORD PTR this$[rbp]
  000b0	e8 00 00 00 00	 call	 ?_Mysize@?$_String_alloc@U?$_String_base_types@DV?$allocator@D@std@@@std@@@std@@QEAAAEA_KXZ ; std::_String_alloc<std::_String_base_types<char,std::allocator<char> > >::_Mysize
  000b5	48 8b 00	 mov	 rax, QWORD PTR [rax]
  000b8	48 39 85 f8 00
	00 00		 cmp	 QWORD PTR _Newsize$[rbp], rax
  000bf	73 10		 jae	 SHORT $LN9@Grow
  000c1	48 8b 85 f8 00
	00 00		 mov	 rax, QWORD PTR _Newsize$[rbp]
  000c8	48 89 85 c0 00
	00 00		 mov	 QWORD PTR tv133[rbp], rax
  000cf	eb 16		 jmp	 SHORT $LN10@Grow
$LN9@Grow:
  000d1	48 8b 8d f0 00
	00 00		 mov	 rcx, QWORD PTR this$[rbp]
  000d8	e8 00 00 00 00	 call	 ?_Mysize@?$_String_alloc@U?$_String_base_types@DV?$allocator@D@std@@@std@@@std@@QEAAAEA_KXZ ; std::_String_alloc<std::_String_base_types<char,std::allocator<char> > >::_Mysize
  000dd	48 8b 00	 mov	 rax, QWORD PTR [rax]
  000e0	48 89 85 c0 00
	00 00		 mov	 QWORD PTR tv133[rbp], rax
$LN10@Grow:
  000e7	4c 8b 85 c0 00
	00 00		 mov	 r8, QWORD PTR tv133[rbp]
  000ee	b2 01		 mov	 dl, 1
  000f0	48 8b 8d f0 00
	00 00		 mov	 rcx, QWORD PTR this$[rbp]
  000f7	e8 00 00 00 00	 call	 ?_Tidy@?$basic_string@DU?$char_traits@D@std@@V?$allocator@D@2@@std@@QEAAX_N_K@Z ; std::basic_string<char,std::char_traits<char>,std::allocator<char> >::_Tidy
  000fc	eb 18		 jmp	 SHORT $LN6@Grow
$LN5@Grow:
; Line 2213
  000fe	48 83 bd f8 00
	00 00 00	 cmp	 QWORD PTR _Newsize$[rbp], 0
  00106	75 0e		 jne	 SHORT $LN7@Grow
; Line 2214
  00108	33 d2		 xor	 edx, edx
  0010a	48 8b 8d f0 00
	00 00		 mov	 rcx, QWORD PTR this$[rbp]
  00111	e8 00 00 00 00	 call	 ?_Eos@?$basic_string@DU?$char_traits@D@std@@V?$allocator@D@2@@std@@QEAAX_K@Z ; std::basic_string<char,std::char_traits<char>,std::allocator<char> >::_Eos
$LN7@Grow:
$LN6@Grow:
$LN4@Grow:
; Line 2215
  00116	48 83 bd f8 00
	00 00 00	 cmp	 QWORD PTR _Newsize$[rbp], 0
  0011e	76 0c		 jbe	 SHORT $LN11@Grow
  00120	c7 85 c0 00 00
	00 01 00 00 00	 mov	 DWORD PTR tv140[rbp], 1
  0012a	eb 0a		 jmp	 SHORT $LN12@Grow
$LN11@Grow:
  0012c	c7 85 c0 00 00
	00 00 00 00 00	 mov	 DWORD PTR tv140[rbp], 0
$LN12@Grow:
  00136	0f b6 85 c0 00
	00 00		 movzx	 eax, BYTE PTR tv140[rbp]
$LN8@Grow:
; Line 2216
  0013d	48 8d a5 d8 00
	00 00		 lea	 rsp, QWORD PTR [rbp+216]
  00144	5f		 pop	 rdi
  00145	5d		 pop	 rbp
  00146	c3		 ret	 0
?_Grow@?$basic_string@DU?$char_traits@D@std@@V?$allocator@D@2@@std@@QEAA_N_K_N@Z ENDP ; std::basic_string<char,std::char_traits<char>,std::allocator<char> >::_Grow
_TEXT	ENDS
; Function compile flags: /Odtp /RTCsu /ZI
;	COMDAT ?_Eos@?$basic_string@DU?$char_traits@D@std@@V?$allocator@D@2@@std@@QEAAX_K@Z
_TEXT	SEGMENT
$T1 = 196
this$ = 256
_Newsize$ = 264
?_Eos@?$basic_string@DU?$char_traits@D@std@@V?$allocator@D@2@@std@@QEAAX_K@Z PROC ; std::basic_string<char,std::char_traits<char>,std::allocator<char> >::_Eos, COMDAT
; File d:\appdata\vsp\vc\include\xstring
; Line 2199
$LN3:
  00000	48 89 54 24 10	 mov	 QWORD PTR [rsp+16], rdx
  00005	48 89 4c 24 08	 mov	 QWORD PTR [rsp+8], rcx
  0000a	55		 push	 rbp
  0000b	57		 push	 rdi
  0000c	48 81 ec 08 01
	00 00		 sub	 rsp, 264		; 00000108H
  00013	48 8d 6c 24 20	 lea	 rbp, QWORD PTR [rsp+32]
  00018	48 8b fc	 mov	 rdi, rsp
  0001b	b9 42 00 00 00	 mov	 ecx, 66			; 00000042H
  00020	b8 cc cc cc cc	 mov	 eax, -858993460		; ccccccccH
  00025	f3 ab		 rep stosd
  00027	48 8b 8c 24 28
	01 00 00	 mov	 rcx, QWORD PTR [rsp+296]
; Line 2200
  0002f	c6 85 c4 00 00
	00 00		 mov	 BYTE PTR $T1[rbp], 0
  00036	48 8b 85 00 01
	00 00		 mov	 rax, QWORD PTR this$[rbp]
  0003d	48 8b c8	 mov	 rcx, rax
  00040	e8 00 00 00 00	 call	 ?_Mysize@?$_String_alloc@U?$_String_base_types@DV?$allocator@D@std@@@std@@@std@@QEAAAEA_KXZ ; std::_String_alloc<std::_String_base_types<char,std::allocator<char> > >::_Mysize
  00045	48 8b 8d 08 01
	00 00		 mov	 rcx, QWORD PTR _Newsize$[rbp]
  0004c	48 89 08	 mov	 QWORD PTR [rax], rcx
  0004f	48 8b 8d 00 01
	00 00		 mov	 rcx, QWORD PTR this$[rbp]
  00056	e8 00 00 00 00	 call	 ?_Myptr@?$_String_alloc@U?$_String_base_types@DV?$allocator@D@std@@@std@@@std@@QEAAPEADXZ ; std::_String_alloc<std::_String_base_types<char,std::allocator<char> > >::_Myptr
  0005b	48 03 85 08 01
	00 00		 add	 rax, QWORD PTR _Newsize$[rbp]
  00062	48 8d 95 c4 00
	00 00		 lea	 rdx, QWORD PTR $T1[rbp]
  00069	48 8b c8	 mov	 rcx, rax
  0006c	e8 00 00 00 00	 call	 ?assign@?$char_traits@D@std@@SAXAEADAEBD@Z ; std::char_traits<char>::assign
; Line 2201
  00071	48 8d a5 e8 00
	00 00		 lea	 rsp, QWORD PTR [rbp+232]
  00078	5f		 pop	 rdi
  00079	5d		 pop	 rbp
  0007a	c3		 ret	 0
?_Eos@?$basic_string@DU?$char_traits@D@std@@V?$allocator@D@2@@std@@QEAAX_K@Z ENDP ; std::basic_string<char,std::char_traits<char>,std::allocator<char> >::_Eos
_TEXT	ENDS
; Function compile flags: /Odtp /RTCsu /ZI
;	COMDAT ?_Copy@?$basic_string@DU?$char_traits@D@std@@V?$allocator@D@2@@std@@QEAAX_K0@Z
_TEXT	SEGMENT
_Newres$ = 8
_Ptr$ = 40
$T4 = 264
tv200 = 280
tv165 = 280
tv152 = 280
tv138 = 280
tv91 = 280
tv75 = 280
tv213 = 288
tv212 = 288
tv92 = 288
__$ArrayPad$ = 296
this$ = 336
_Newsize$ = 344
_Oldlen$ = 352
?_Copy@?$basic_string@DU?$char_traits@D@std@@V?$allocator@D@2@@std@@QEAAX_K0@Z PROC ; std::basic_string<char,std::char_traits<char>,std::allocator<char> >::_Copy, COMDAT
; File d:\appdata\vsp\vc\include\xstring
; Line 2164
$LN23:
  00000	4c 89 44 24 18	 mov	 QWORD PTR [rsp+24], r8
  00005	48 89 54 24 10	 mov	 QWORD PTR [rsp+16], rdx
  0000a	48 89 4c 24 08	 mov	 QWORD PTR [rsp+8], rcx
  0000f	55		 push	 rbp
  00010	57		 push	 rdi
  00011	48 81 ec 58 01
	00 00		 sub	 rsp, 344		; 00000158H
  00018	48 8d 6c 24 20	 lea	 rbp, QWORD PTR [rsp+32]
  0001d	48 8b fc	 mov	 rdi, rsp
  00020	b9 56 00 00 00	 mov	 ecx, 86			; 00000056H
  00025	b8 cc cc cc cc	 mov	 eax, -858993460		; ccccccccH
  0002a	f3 ab		 rep stosd
  0002c	48 8b 8c 24 78
	01 00 00	 mov	 rcx, QWORD PTR [rsp+376]
  00034	48 c7 85 08 01
	00 00 fe ff ff
	ff		 mov	 QWORD PTR $T4[rbp], -2
  0003f	48 8b 05 00 00
	00 00		 mov	 rax, QWORD PTR __security_cookie
  00046	48 33 c5	 xor	 rax, rbp
  00049	48 89 85 28 01
	00 00		 mov	 QWORD PTR __$ArrayPad$[rbp], rax
; Line 2165
  00050	48 8b 85 58 01
	00 00		 mov	 rax, QWORD PTR _Newsize$[rbp]
  00057	48 83 c8 0f	 or	 rax, 15
  0005b	48 89 45 08	 mov	 QWORD PTR _Newres$[rbp], rax
; Line 2166
  0005f	48 8b 8d 50 01
	00 00		 mov	 rcx, QWORD PTR this$[rbp]
  00066	e8 00 00 00 00	 call	 ?max_size@?$basic_string@DU?$char_traits@D@std@@V?$allocator@D@2@@std@@QEBA_KXZ ; std::basic_string<char,std::char_traits<char>,std::allocator<char> >::max_size
  0006b	48 3b 45 08	 cmp	 rax, QWORD PTR _Newres$[rbp]
  0006f	73 10		 jae	 SHORT $LN2@Copy
; Line 2167
  00071	48 8b 85 58 01
	00 00		 mov	 rax, QWORD PTR _Newsize$[rbp]
  00078	48 89 45 08	 mov	 QWORD PTR _Newres$[rbp], rax
  0007c	e9 e3 00 00 00	 jmp	 $LN3@Copy
$LN2@Copy:
; Line 2168
  00081	33 d2		 xor	 edx, edx
  00083	48 8b 45 08	 mov	 rax, QWORD PTR _Newres$[rbp]
  00087	b9 03 00 00 00	 mov	 ecx, 3
  0008c	48 f7 f1	 div	 rcx
  0008f	48 89 85 18 01
	00 00		 mov	 QWORD PTR tv75[rbp], rax
  00096	48 8b 8d 50 01
	00 00		 mov	 rcx, QWORD PTR this$[rbp]
  0009d	e8 00 00 00 00	 call	 ?_Myres@?$_String_alloc@U?$_String_base_types@DV?$allocator@D@std@@@std@@@std@@QEAAAEA_KXZ ; std::_String_alloc<std::_String_base_types<char,std::allocator<char> > >::_Myres
  000a2	33 d2		 xor	 edx, edx
  000a4	48 8b 00	 mov	 rax, QWORD PTR [rax]
  000a7	b9 02 00 00 00	 mov	 ecx, 2
  000ac	48 f7 f1	 div	 rcx
  000af	48 8b 8d 18 01
	00 00		 mov	 rcx, QWORD PTR tv75[rbp]
  000b6	48 3b c1	 cmp	 rax, rcx
  000b9	77 05		 ja	 SHORT $LN4@Copy
  000bb	e9 a4 00 00 00	 jmp	 $LN3@Copy
$LN4@Copy:
; Line 2170
  000c0	48 8b 8d 50 01
	00 00		 mov	 rcx, QWORD PTR this$[rbp]
  000c7	e8 00 00 00 00	 call	 ?_Myres@?$_String_alloc@U?$_String_base_types@DV?$allocator@D@std@@@std@@@std@@QEAAAEA_KXZ ; std::_String_alloc<std::_String_base_types<char,std::allocator<char> > >::_Myres
  000cc	33 d2		 xor	 edx, edx
  000ce	48 8b 00	 mov	 rax, QWORD PTR [rax]
  000d1	b9 02 00 00 00	 mov	 ecx, 2
  000d6	48 f7 f1	 div	 rcx
  000d9	48 89 85 18 01
	00 00		 mov	 QWORD PTR tv91[rbp], rax
  000e0	48 8b 8d 50 01
	00 00		 mov	 rcx, QWORD PTR this$[rbp]
  000e7	e8 00 00 00 00	 call	 ?max_size@?$basic_string@DU?$char_traits@D@std@@V?$allocator@D@2@@std@@QEBA_KXZ ; std::basic_string<char,std::char_traits<char>,std::allocator<char> >::max_size
  000ec	48 8b 8d 18 01
	00 00		 mov	 rcx, QWORD PTR tv91[rbp]
  000f3	48 2b c1	 sub	 rax, rcx
  000f6	48 89 85 20 01
	00 00		 mov	 QWORD PTR tv92[rbp], rax
  000fd	48 8b 8d 50 01
	00 00		 mov	 rcx, QWORD PTR this$[rbp]
  00104	e8 00 00 00 00	 call	 ?_Myres@?$_String_alloc@U?$_String_base_types@DV?$allocator@D@std@@@std@@@std@@QEAAAEA_KXZ ; std::_String_alloc<std::_String_base_types<char,std::allocator<char> > >::_Myres
  00109	48 8b 8d 20 01
	00 00		 mov	 rcx, QWORD PTR tv92[rbp]
  00110	48 39 08	 cmp	 QWORD PTR [rax], rcx
  00113	77 3f		 ja	 SHORT $LN6@Copy
; Line 2171
  00115	48 8b 8d 50 01
	00 00		 mov	 rcx, QWORD PTR this$[rbp]
  0011c	e8 00 00 00 00	 call	 ?_Myres@?$_String_alloc@U?$_String_base_types@DV?$allocator@D@std@@@std@@@std@@QEAAAEA_KXZ ; std::_String_alloc<std::_String_base_types<char,std::allocator<char> > >::_Myres
  00121	33 d2		 xor	 edx, edx
  00123	48 8b 00	 mov	 rax, QWORD PTR [rax]
  00126	b9 02 00 00 00	 mov	 ecx, 2
  0012b	48 f7 f1	 div	 rcx
  0012e	48 89 85 18 01
	00 00		 mov	 QWORD PTR tv138[rbp], rax
  00135	48 8b 8d 50 01
	00 00		 mov	 rcx, QWORD PTR this$[rbp]
  0013c	e8 00 00 00 00	 call	 ?_Myres@?$_String_alloc@U?$_String_base_types@DV?$allocator@D@std@@@std@@@std@@QEAAAEA_KXZ ; std::_String_alloc<std::_String_base_types<char,std::allocator<char> > >::_Myres
  00141	48 8b 8d 18 01
	00 00		 mov	 rcx, QWORD PTR tv138[rbp]
  00148	48 03 08	 add	 rcx, QWORD PTR [rax]
  0014b	48 8b c1	 mov	 rax, rcx
  0014e	48 89 45 08	 mov	 QWORD PTR _Newres$[rbp], rax
; Line 2173
  00152	eb 10		 jmp	 SHORT $LN3@Copy
$LN6@Copy:
; Line 2174
  00154	48 8b 8d 50 01
	00 00		 mov	 rcx, QWORD PTR this$[rbp]
  0015b	e8 00 00 00 00	 call	 ?max_size@?$basic_string@DU?$char_traits@D@std@@V?$allocator@D@2@@std@@QEBA_KXZ ; std::basic_string<char,std::char_traits<char>,std::allocator<char> >::max_size
  00160	48 89 45 08	 mov	 QWORD PTR _Newres$[rbp], rax
$LN3@Copy:
; Line 2178
  00164	48 8b 45 08	 mov	 rax, QWORD PTR _Newres$[rbp]
  00168	48 ff c0	 inc	 rax
  0016b	48 89 85 18 01
	00 00		 mov	 QWORD PTR tv152[rbp], rax
  00172	48 8b 8d 50 01
	00 00		 mov	 rcx, QWORD PTR this$[rbp]
  00179	e8 00 00 00 00	 call	 ?_Getal@?$_String_alloc@U?$_String_base_types@DV?$allocator@D@std@@@std@@@std@@QEAAAEAU?$_Wrap_alloc@V?$allocator@D@std@@@2@XZ ; std::_String_alloc<std::_String_base_types<char,std::allocator<char> > >::_Getal
  0017e	48 8b 8d 18 01
	00 00		 mov	 rcx, QWORD PTR tv152[rbp]
  00185	48 8b d1	 mov	 rdx, rcx
  00188	48 8b c8	 mov	 rcx, rax
  0018b	e8 00 00 00 00	 call	 ?allocate@?$_Wrap_alloc@V?$allocator@D@std@@@std@@QEAAPEAD_K@Z ; std::_Wrap_alloc<std::allocator<char> >::allocate
  00190	48 89 85 20 01
	00 00		 mov	 QWORD PTR tv212[rbp], rax
  00197	48 8b 85 20 01
	00 00		 mov	 rax, QWORD PTR tv212[rbp]
  0019e	48 89 45 28	 mov	 QWORD PTR _Ptr$[rbp], rax
  001a2	eb 00		 jmp	 SHORT $LN18@Copy
$LN19@Copy:
$LN18@Copy:
; Line 2189
  001a4	48 83 bd 60 01
	00 00 00	 cmp	 QWORD PTR _Oldlen$[rbp], 0
  001ac	76 1f		 jbe	 SHORT $LN10@Copy
; Line 2190
  001ae	48 8b 8d 50 01
	00 00		 mov	 rcx, QWORD PTR this$[rbp]
  001b5	e8 00 00 00 00	 call	 ?_Myptr@?$_String_alloc@U?$_String_base_types@DV?$allocator@D@std@@@std@@@std@@QEAAPEADXZ ; std::_String_alloc<std::_String_base_types<char,std::allocator<char> > >::_Myptr
  001ba	4c 8b 85 60 01
	00 00		 mov	 r8, QWORD PTR _Oldlen$[rbp]
  001c1	48 8b d0	 mov	 rdx, rax
  001c4	48 8b 4d 28	 mov	 rcx, QWORD PTR _Ptr$[rbp]
  001c8	e8 00 00 00 00	 call	 ?copy@?$char_traits@D@std@@SAPEADPEADPEBD_K@Z ; std::char_traits<char>::copy
$LN10@Copy:
; Line 2192
  001cd	45 33 c0	 xor	 r8d, r8d
  001d0	b2 01		 mov	 dl, 1
  001d2	48 8b 8d 50 01
	00 00		 mov	 rcx, QWORD PTR this$[rbp]
  001d9	e8 00 00 00 00	 call	 ?_Tidy@?$basic_string@DU?$char_traits@D@std@@V?$allocator@D@2@@std@@QEAAX_N_K@Z ; std::basic_string<char,std::char_traits<char>,std::allocator<char> >::_Tidy
; Line 2193
  001de	48 8b 8d 50 01
	00 00		 mov	 rcx, QWORD PTR this$[rbp]
  001e5	e8 00 00 00 00	 call	 ?_Bx@?$_String_alloc@U?$_String_base_types@DV?$allocator@D@std@@@std@@@std@@QEAAAEAT_Bxty@?$_String_val@U?$_Simple_types@D@std@@@2@XZ ; std::_String_alloc<std::_String_base_types<char,std::allocator<char> > >::_Bx
  001ea	48 89 85 18 01
	00 00		 mov	 QWORD PTR tv200[rbp], rax
  001f1	48 8b 8d 50 01
	00 00		 mov	 rcx, QWORD PTR this$[rbp]
  001f8	e8 00 00 00 00	 call	 ?_Getal@?$_String_alloc@U?$_String_base_types@DV?$allocator@D@std@@@std@@@std@@QEAAAEAU?$_Wrap_alloc@V?$allocator@D@std@@@2@XZ ; std::_String_alloc<std::_String_base_types<char,std::allocator<char> > >::_Getal
  001fd	4c 8d 45 28	 lea	 r8, QWORD PTR _Ptr$[rbp]
  00201	48 8b 8d 18 01
	00 00		 mov	 rcx, QWORD PTR tv200[rbp]
  00208	48 8b d1	 mov	 rdx, rcx
  0020b	48 8b c8	 mov	 rcx, rax
  0020e	e8 00 00 00 00	 call	 ??$construct@PEADAEAPEAD@?$_Wrap_alloc@V?$allocator@D@std@@@std@@QEAAXPEAPEADAEAPEAD@Z ; std::_Wrap_alloc<std::allocator<char> >::construct<char * __ptr64,char * __ptr64 & __ptr64>
; Line 2194
  00213	48 8b 8d 50 01
	00 00		 mov	 rcx, QWORD PTR this$[rbp]
  0021a	e8 00 00 00 00	 call	 ?_Myres@?$_String_alloc@U?$_String_base_types@DV?$allocator@D@std@@@std@@@std@@QEAAAEA_KXZ ; std::_String_alloc<std::_String_base_types<char,std::allocator<char> > >::_Myres
  0021f	48 8b 4d 08	 mov	 rcx, QWORD PTR _Newres$[rbp]
  00223	48 89 08	 mov	 QWORD PTR [rax], rcx
; Line 2195
  00226	48 8b 95 60 01
	00 00		 mov	 rdx, QWORD PTR _Oldlen$[rbp]
  0022d	48 8b 8d 50 01
	00 00		 mov	 rcx, QWORD PTR this$[rbp]
  00234	e8 00 00 00 00	 call	 ?_Eos@?$basic_string@DU?$char_traits@D@std@@V?$allocator@D@2@@std@@QEAAX_K@Z ; std::basic_string<char,std::char_traits<char>,std::allocator<char> >::_Eos
; Line 2196
  00239	48 8d 4d e0	 lea	 rcx, QWORD PTR [rbp-32]
  0023d	48 8d 15 00 00
	00 00		 lea	 rdx, OFFSET FLAT:?_Copy@?$basic_string@DU?$char_traits@D@std@@V?$allocator@D@2@@std@@QEAAX_K0@Z$rtcFrameData
  00244	e8 00 00 00 00	 call	 _RTC_CheckStackVars
  00249	48 8b 8d 28 01
	00 00		 mov	 rcx, QWORD PTR __$ArrayPad$[rbp]
  00250	48 33 cd	 xor	 rcx, rbp
  00253	e8 00 00 00 00	 call	 __security_check_cookie
  00258	48 8d a5 38 01
	00 00		 lea	 rsp, QWORD PTR [rbp+312]
  0025f	5f		 pop	 rdi
  00260	5d		 pop	 rbp
  00261	c3		 ret	 0
$LN20@Copy:
?_Copy@?$basic_string@DU?$char_traits@D@std@@V?$allocator@D@2@@std@@QEAAX_K0@Z ENDP ; std::basic_string<char,std::char_traits<char>,std::allocator<char> >::_Copy
_TEXT	ENDS
;	COMDAT text$x
text$x	SEGMENT
_Newres$ = 8
_Ptr$ = 40
$T4 = 264
tv200 = 280
tv165 = 280
tv152 = 280
tv138 = 280
tv91 = 280
tv75 = 280
tv213 = 288
tv212 = 288
tv92 = 288
__$ArrayPad$ = 296
this$ = 336
_Newsize$ = 344
_Oldlen$ = 352
?catch$1@?0??_Copy@?$basic_string@DU?$char_traits@D@std@@V?$allocator@D@2@@std@@QEAAX_K0@Z@4HA PROC ; `std::basic_string<char,std::char_traits<char>,std::allocator<char> >::_Copy'::`1'::catch$1
; Line 2179
  00000	48 89 4c 24 08	 mov	 QWORD PTR [rsp+8], rcx
  00005	48 89 54 24 10	 mov	 QWORD PTR [rsp+16], rdx
  0000a	55		 push	 rbp
  0000b	57		 push	 rdi
  0000c	48 83 ec 28	 sub	 rsp, 40			; 00000028H
  00010	48 8d 6a 20	 lea	 rbp, QWORD PTR [rdx+32]
__catch$?_Copy@?$basic_string@DU?$char_traits@D@std@@V?$allocator@D@2@@std@@QEAAX_K0@Z$0:
; Line 2180
  00014	48 8b 85 58 01
	00 00		 mov	 rax, QWORD PTR _Newsize$[rbp]
  0001b	48 89 45 08	 mov	 QWORD PTR _Newres$[rbp], rax
; Line 2182
  0001f	48 8b 45 08	 mov	 rax, QWORD PTR _Newres$[rbp]
  00023	48 ff c0	 inc	 rax
  00026	48 89 85 18 01
	00 00		 mov	 QWORD PTR tv165[rbp], rax
  0002d	48 8b 8d 50 01
	00 00		 mov	 rcx, QWORD PTR this$[rbp]
  00034	e8 00 00 00 00	 call	 ?_Getal@?$_String_alloc@U?$_String_base_types@DV?$allocator@D@std@@@std@@@std@@QEAAAEAU?$_Wrap_alloc@V?$allocator@D@std@@@2@XZ ; std::_String_alloc<std::_String_base_types<char,std::allocator<char> > >::_Getal
  00039	48 8b 8d 18 01
	00 00		 mov	 rcx, QWORD PTR tv165[rbp]
  00040	48 8b d1	 mov	 rdx, rcx
  00043	48 8b c8	 mov	 rcx, rax
  00046	e8 00 00 00 00	 call	 ?allocate@?$_Wrap_alloc@V?$allocator@D@std@@@std@@QEAAPEAD_K@Z ; std::_Wrap_alloc<std::allocator<char> >::allocate
  0004b	48 89 85 20 01
	00 00		 mov	 QWORD PTR tv213[rbp], rax
  00052	48 8b 85 20 01
	00 00		 mov	 rax, QWORD PTR tv213[rbp]
  00059	48 89 45 28	 mov	 QWORD PTR _Ptr$[rbp], rax
  0005d	eb 00		 jmp	 SHORT $LN16@catch$1
$LN17@catch$1:
$LN16@catch$1:
; Line 2187
  0005f	48 8d 05 00 00
	00 00		 lea	 rax, $LN19@catch$1
  00066	48 83 c4 28	 add	 rsp, 40			; 00000028H
  0006a	5f		 pop	 rdi
  0006b	5d		 pop	 rbp
  0006c	c3		 ret	 0
  0006d	cc		 int	 3
?catch$1@?0??_Copy@?$basic_string@DU?$char_traits@D@std@@V?$allocator@D@2@@std@@QEAAX_K0@Z@4HA ENDP ; `std::basic_string<char,std::char_traits<char>,std::allocator<char> >::_Copy'::`1'::catch$1
_Newres$ = 8
_Ptr$ = 40
$T4 = 264
tv200 = 280
tv165 = 280
tv152 = 280
tv138 = 280
tv91 = 280
tv75 = 280
tv213 = 288
tv212 = 288
tv92 = 288
__$ArrayPad$ = 296
this$ = 336
_Newsize$ = 344
_Oldlen$ = 352
?catch$0@?0??_Copy@?$basic_string@DU?$char_traits@D@std@@V?$allocator@D@2@@std@@QEAAX_K0@Z@4HA PROC ; `std::basic_string<char,std::char_traits<char>,std::allocator<char> >::_Copy'::`1'::catch$0
; Line 2183
  0006e	48 89 4c 24 08	 mov	 QWORD PTR [rsp+8], rcx
  00073	48 89 54 24 10	 mov	 QWORD PTR [rsp+16], rdx
  00078	55		 push	 rbp
  00079	57		 push	 rdi
  0007a	48 83 ec 28	 sub	 rsp, 40			; 00000028H
  0007e	48 8d 6a 20	 lea	 rbp, QWORD PTR [rdx+32]
__catch$?_Copy@?$basic_string@DU?$char_traits@D@std@@V?$allocator@D@2@@std@@QEAAX_K0@Z$1:
; Line 2184
  00082	45 33 c0	 xor	 r8d, r8d
  00085	b2 01		 mov	 dl, 1
  00087	48 8b 8d 50 01
	00 00		 mov	 rcx, QWORD PTR this$[rbp]
  0008e	e8 00 00 00 00	 call	 ?_Tidy@?$basic_string@DU?$char_traits@D@std@@V?$allocator@D@2@@std@@QEAAX_N_K@Z ; std::basic_string<char,std::char_traits<char>,std::allocator<char> >::_Tidy
; Line 2185
  00093	33 d2		 xor	 edx, edx
  00095	33 c9		 xor	 ecx, ecx
  00097	e8 00 00 00 00	 call	 _CxxThrowException
  0009c	90		 npad	 1
; Line 2186
  0009d	48 8d 05 00 00
	00 00		 lea	 rax, $LN17@catch$0
  000a4	48 83 c4 28	 add	 rsp, 40			; 00000028H
  000a8	5f		 pop	 rdi
  000a9	5d		 pop	 rbp
  000aa	c3		 ret	 0
  000ab	cc		 int	 3
?catch$0@?0??_Copy@?$basic_string@DU?$char_traits@D@std@@V?$allocator@D@2@@std@@QEAAX_K0@Z@4HA ENDP ; `std::basic_string<char,std::char_traits<char>,std::allocator<char> >::_Copy'::`1'::catch$0
text$x	ENDS
; Function compile flags: /Odtp /RTCsu /ZI
;	COMDAT text$x
text$x	SEGMENT
_Newres$ = 8
_Ptr$ = 40
$T4 = 264
tv200 = 280
tv165 = 280
tv152 = 280
tv138 = 280
tv91 = 280
tv75 = 280
tv213 = 288
tv212 = 288
tv92 = 288
__$ArrayPad$ = 296
this$ = 336
_Newsize$ = 344
_Oldlen$ = 352
?catch$1@?0??_Copy@?$basic_string@DU?$char_traits@D@std@@V?$allocator@D@2@@std@@QEAAX_K0@Z@4HA PROC ; `std::basic_string<char,std::char_traits<char>,std::allocator<char> >::_Copy'::`1'::catch$1
; Line 2179
  00000	48 89 4c 24 08	 mov	 QWORD PTR [rsp+8], rcx
  00005	48 89 54 24 10	 mov	 QWORD PTR [rsp+16], rdx
  0000a	55		 push	 rbp
  0000b	57		 push	 rdi
  0000c	48 83 ec 28	 sub	 rsp, 40			; 00000028H
  00010	48 8d 6a 20	 lea	 rbp, QWORD PTR [rdx+32]
__catch$?_Copy@?$basic_string@DU?$char_traits@D@std@@V?$allocator@D@2@@std@@QEAAX_K0@Z$0:
; Line 2180
  00014	48 8b 85 58 01
	00 00		 mov	 rax, QWORD PTR _Newsize$[rbp]
  0001b	48 89 45 08	 mov	 QWORD PTR _Newres$[rbp], rax
; Line 2182
  0001f	48 8b 45 08	 mov	 rax, QWORD PTR _Newres$[rbp]
  00023	48 ff c0	 inc	 rax
  00026	48 89 85 18 01
	00 00		 mov	 QWORD PTR tv165[rbp], rax
  0002d	48 8b 8d 50 01
	00 00		 mov	 rcx, QWORD PTR this$[rbp]
  00034	e8 00 00 00 00	 call	 ?_Getal@?$_String_alloc@U?$_String_base_types@DV?$allocator@D@std@@@std@@@std@@QEAAAEAU?$_Wrap_alloc@V?$allocator@D@std@@@2@XZ ; std::_String_alloc<std::_String_base_types<char,std::allocator<char> > >::_Getal
  00039	48 8b 8d 18 01
	00 00		 mov	 rcx, QWORD PTR tv165[rbp]
  00040	48 8b d1	 mov	 rdx, rcx
  00043	48 8b c8	 mov	 rcx, rax
  00046	e8 00 00 00 00	 call	 ?allocate@?$_Wrap_alloc@V?$allocator@D@std@@@std@@QEAAPEAD_K@Z ; std::_Wrap_alloc<std::allocator<char> >::allocate
  0004b	48 89 85 20 01
	00 00		 mov	 QWORD PTR tv213[rbp], rax
  00052	48 8b 85 20 01
	00 00		 mov	 rax, QWORD PTR tv213[rbp]
  00059	48 89 45 28	 mov	 QWORD PTR _Ptr$[rbp], rax
  0005d	eb 00		 jmp	 SHORT $LN16@catch$1
$LN17@catch$1:
$LN16@catch$1:
; Line 2187
  0005f	48 8d 05 00 00
	00 00		 lea	 rax, $LN19@catch$1
  00066	48 83 c4 28	 add	 rsp, 40			; 00000028H
  0006a	5f		 pop	 rdi
  0006b	5d		 pop	 rbp
  0006c	c3		 ret	 0
  0006d	cc		 int	 3
?catch$1@?0??_Copy@?$basic_string@DU?$char_traits@D@std@@V?$allocator@D@2@@std@@QEAAX_K0@Z@4HA ENDP ; `std::basic_string<char,std::char_traits<char>,std::allocator<char> >::_Copy'::`1'::catch$1
text$x	ENDS
; Function compile flags: /Odtp /RTCsu /ZI
;	COMDAT text$x
text$x	SEGMENT
_Newres$ = 8
_Ptr$ = 40
$T4 = 264
tv200 = 280
tv165 = 280
tv152 = 280
tv138 = 280
tv91 = 280
tv75 = 280
tv213 = 288
tv212 = 288
tv92 = 288
__$ArrayPad$ = 296
this$ = 336
_Newsize$ = 344
_Oldlen$ = 352
?catch$0@?0??_Copy@?$basic_string@DU?$char_traits@D@std@@V?$allocator@D@2@@std@@QEAAX_K0@Z@4HA PROC ; `std::basic_string<char,std::char_traits<char>,std::allocator<char> >::_Copy'::`1'::catch$0
; Line 2183
  0006e	48 89 4c 24 08	 mov	 QWORD PTR [rsp+8], rcx
  00073	48 89 54 24 10	 mov	 QWORD PTR [rsp+16], rdx
  00078	55		 push	 rbp
  00079	57		 push	 rdi
  0007a	48 83 ec 28	 sub	 rsp, 40			; 00000028H
  0007e	48 8d 6a 20	 lea	 rbp, QWORD PTR [rdx+32]
__catch$?_Copy@?$basic_string@DU?$char_traits@D@std@@V?$allocator@D@2@@std@@QEAAX_K0@Z$1:
; Line 2184
  00082	45 33 c0	 xor	 r8d, r8d
  00085	b2 01		 mov	 dl, 1
  00087	48 8b 8d 50 01
	00 00		 mov	 rcx, QWORD PTR this$[rbp]
  0008e	e8 00 00 00 00	 call	 ?_Tidy@?$basic_string@DU?$char_traits@D@std@@V?$allocator@D@2@@std@@QEAAX_N_K@Z ; std::basic_string<char,std::char_traits<char>,std::allocator<char> >::_Tidy
; Line 2185
  00093	33 d2		 xor	 edx, edx
  00095	33 c9		 xor	 ecx, ecx
  00097	e8 00 00 00 00	 call	 _CxxThrowException
  0009c	90		 npad	 1
; Line 2186
  0009d	48 8d 05 00 00
	00 00		 lea	 rax, $LN17@catch$0
  000a4	48 83 c4 28	 add	 rsp, 40			; 00000028H
  000a8	5f		 pop	 rdi
  000a9	5d		 pop	 rbp
  000aa	c3		 ret	 0
  000ab	cc		 int	 3
?catch$0@?0??_Copy@?$basic_string@DU?$char_traits@D@std@@V?$allocator@D@2@@std@@QEAAX_K0@Z@4HA ENDP ; `std::basic_string<char,std::char_traits<char>,std::allocator<char> >::_Copy'::`1'::catch$0
text$x	ENDS
; Function compile flags: /Odtp /RTCsu /ZI
;	COMDAT ?max_size@?$basic_string@DU?$char_traits@D@std@@V?$allocator@D@2@@std@@QEBA_KXZ
_TEXT	SEGMENT
_Num$ = 8
$T1 = 228
tv75 = 248
this$ = 288
?max_size@?$basic_string@DU?$char_traits@D@std@@V?$allocator@D@2@@std@@QEBA_KXZ PROC ; std::basic_string<char,std::char_traits<char>,std::allocator<char> >::max_size, COMDAT
; File d:\appdata\vsp\vc\include\xstring
; Line 1754
$LN5:
  00000	48 89 4c 24 08	 mov	 QWORD PTR [rsp+8], rcx
  00005	55		 push	 rbp
  00006	57		 push	 rdi
  00007	48 81 ec 28 01
	00 00		 sub	 rsp, 296		; 00000128H
  0000e	48 8d 6c 24 20	 lea	 rbp, QWORD PTR [rsp+32]
  00013	48 8b fc	 mov	 rdi, rsp
  00016	b9 4a 00 00 00	 mov	 ecx, 74			; 0000004aH
  0001b	b8 cc cc cc cc	 mov	 eax, -858993460		; ccccccccH
  00020	f3 ab		 rep stosd
  00022	48 8b 8c 24 48
	01 00 00	 mov	 rcx, QWORD PTR [rsp+328]
; Line 1755
  0002a	48 8b 8d 20 01
	00 00		 mov	 rcx, QWORD PTR this$[rbp]
  00031	e8 00 00 00 00	 call	 ?_Getal@?$_String_alloc@U?$_String_base_types@DV?$allocator@D@std@@@std@@@std@@QEBAAEBU?$_Wrap_alloc@V?$allocator@D@std@@@2@XZ ; std::_String_alloc<std::_String_base_types<char,std::allocator<char> > >::_Getal
  00036	0f b6 95 e4 00
	00 00		 movzx	 edx, BYTE PTR $T1[rbp]
  0003d	48 8b c8	 mov	 rcx, rax
  00040	e8 00 00 00 00	 call	 ?max_size@?$_Wrap_alloc@V?$allocator@D@std@@@std@@QEBA_KU_Nil@2@@Z ; std::_Wrap_alloc<std::allocator<char> >::max_size
  00045	48 89 45 08	 mov	 QWORD PTR _Num$[rbp], rax
; Line 1756
  00049	48 83 7d 08 01	 cmp	 QWORD PTR _Num$[rbp], 1
  0004e	77 0d		 ja	 SHORT $LN3@max_size
  00050	48 c7 85 f8 00
	00 00 01 00 00
	00		 mov	 QWORD PTR tv75[rbp], 1
  0005b	eb 0e		 jmp	 SHORT $LN4@max_size
$LN3@max_size:
  0005d	48 8b 45 08	 mov	 rax, QWORD PTR _Num$[rbp]
  00061	48 ff c8	 dec	 rax
  00064	48 89 85 f8 00
	00 00		 mov	 QWORD PTR tv75[rbp], rax
$LN4@max_size:
  0006b	48 8b 85 f8 00
	00 00		 mov	 rax, QWORD PTR tv75[rbp]
; Line 1757
  00072	48 8d a5 08 01
	00 00		 lea	 rsp, QWORD PTR [rbp+264]
  00079	5f		 pop	 rdi
  0007a	5d		 pop	 rbp
  0007b	c3		 ret	 0
?max_size@?$basic_string@DU?$char_traits@D@std@@V?$allocator@D@2@@std@@QEBA_KXZ ENDP ; std::basic_string<char,std::char_traits<char>,std::allocator<char> >::max_size
_TEXT	ENDS
; Function compile flags: /Odtp /RTCsu /ZI
;	COMDAT ?size@?$basic_string@DU?$char_traits@D@std@@V?$allocator@D@2@@std@@QEBA_KXZ
_TEXT	SEGMENT
this$ = 224
?size@?$basic_string@DU?$char_traits@D@std@@V?$allocator@D@2@@std@@QEBA_KXZ PROC ; std::basic_string<char,std::char_traits<char>,std::allocator<char> >::size, COMDAT
; File d:\appdata\vsp\vc\include\xstring
; Line 1749
$LN3:
  00000	48 89 4c 24 08	 mov	 QWORD PTR [rsp+8], rcx
  00005	55		 push	 rbp
  00006	57		 push	 rdi
  00007	48 81 ec e8 00
	00 00		 sub	 rsp, 232		; 000000e8H
  0000e	48 8d 6c 24 20	 lea	 rbp, QWORD PTR [rsp+32]
  00013	48 8b fc	 mov	 rdi, rsp
  00016	b9 3a 00 00 00	 mov	 ecx, 58			; 0000003aH
  0001b	b8 cc cc cc cc	 mov	 eax, -858993460		; ccccccccH
  00020	f3 ab		 rep stosd
  00022	48 8b 8c 24 08
	01 00 00	 mov	 rcx, QWORD PTR [rsp+264]
; Line 1750
  0002a	48 8b 8d e0 00
	00 00		 mov	 rcx, QWORD PTR this$[rbp]
  00031	e8 00 00 00 00	 call	 ?_Mysize@?$_String_alloc@U?$_String_base_types@DV?$allocator@D@std@@@std@@@std@@QEBAAEB_KXZ ; std::_String_alloc<std::_String_base_types<char,std::allocator<char> > >::_Mysize
  00036	48 8b 00	 mov	 rax, QWORD PTR [rax]
; Line 1751
  00039	48 8d a5 c8 00
	00 00		 lea	 rsp, QWORD PTR [rbp+200]
  00040	5f		 pop	 rdi
  00041	5d		 pop	 rbp
  00042	c3		 ret	 0
?size@?$basic_string@DU?$char_traits@D@std@@V?$allocator@D@2@@std@@QEBA_KXZ ENDP ; std::basic_string<char,std::char_traits<char>,std::allocator<char> >::size
_TEXT	ENDS
; Function compile flags: /Odtp /RTCsu /ZI
;	COMDAT ?c_str@?$basic_string@DU?$char_traits@D@std@@V?$allocator@D@2@@std@@QEBAPEBDXZ
_TEXT	SEGMENT
$T1 = 200
this$ = 256
?c_str@?$basic_string@DU?$char_traits@D@std@@V?$allocator@D@2@@std@@QEBAPEBDXZ PROC ; std::basic_string<char,std::char_traits<char>,std::allocator<char> >::c_str, COMDAT
; File d:\appdata\vsp\vc\include\xstring
; Line 1734
$LN3:
  00000	48 89 4c 24 08	 mov	 QWORD PTR [rsp+8], rcx
  00005	55		 push	 rbp
  00006	57		 push	 rdi
  00007	48 81 ec 08 01
	00 00		 sub	 rsp, 264		; 00000108H
  0000e	48 8d 6c 24 20	 lea	 rbp, QWORD PTR [rsp+32]
  00013	48 8b fc	 mov	 rdi, rsp
  00016	b9 42 00 00 00	 mov	 ecx, 66			; 00000042H
  0001b	b8 cc cc cc cc	 mov	 eax, -858993460		; ccccccccH
  00020	f3 ab		 rep stosd
  00022	48 8b 8c 24 28
	01 00 00	 mov	 rcx, QWORD PTR [rsp+296]
  0002a	48 c7 85 c8 00
	00 00 fe ff ff
	ff		 mov	 QWORD PTR $T1[rbp], -2
; Line 1735
  00035	48 8b 8d 00 01
	00 00		 mov	 rcx, QWORD PTR this$[rbp]
  0003c	e8 00 00 00 00	 call	 ?_Myptr@?$_String_alloc@U?$_String_base_types@DV?$allocator@D@std@@@std@@@std@@QEBAPEBDXZ ; std::_String_alloc<std::_String_base_types<char,std::allocator<char> > >::_Myptr
  00041	90		 npad	 1
; Line 1736
  00042	48 8d a5 e8 00
	00 00		 lea	 rsp, QWORD PTR [rbp+232]
  00049	5f		 pop	 rdi
  0004a	5d		 pop	 rbp
  0004b	c3		 ret	 0
?c_str@?$basic_string@DU?$char_traits@D@std@@V?$allocator@D@2@@std@@QEBAPEBDXZ ENDP ; std::basic_string<char,std::char_traits<char>,std::allocator<char> >::c_str
_TEXT	ENDS
; Function compile flags: /Odtp /RTCsu /ZI
;	COMDAT ?erase@?$basic_string@DU?$char_traits@D@std@@V?$allocator@D@2@@std@@QEAAAEAV12@_K0@Z
_TEXT	SEGMENT
_Ptr$1 = 8
_Newsize$2 = 40
this$ = 288
_Off$ = 296
_Count$ = 304
?erase@?$basic_string@DU?$char_traits@D@std@@V?$allocator@D@2@@std@@QEAAAEAV12@_K0@Z PROC ; std::basic_string<char,std::char_traits<char>,std::allocator<char> >::erase, COMDAT
; File d:\appdata\vsp\vc\include\xstring
; Line 1345
$LN7:
  00000	4c 89 44 24 18	 mov	 QWORD PTR [rsp+24], r8
  00005	48 89 54 24 10	 mov	 QWORD PTR [rsp+16], rdx
  0000a	48 89 4c 24 08	 mov	 QWORD PTR [rsp+8], rcx
  0000f	55		 push	 rbp
  00010	57		 push	 rdi
  00011	48 81 ec 28 01
	00 00		 sub	 rsp, 296		; 00000128H
  00018	48 8d 6c 24 20	 lea	 rbp, QWORD PTR [rsp+32]
  0001d	48 8b fc	 mov	 rdi, rsp
  00020	b9 4a 00 00 00	 mov	 ecx, 74			; 0000004aH
  00025	b8 cc cc cc cc	 mov	 eax, -858993460		; ccccccccH
  0002a	f3 ab		 rep stosd
  0002c	48 8b 8c 24 48
	01 00 00	 mov	 rcx, QWORD PTR [rsp+328]
; Line 1346
  00034	48 8b 8d 20 01
	00 00		 mov	 rcx, QWORD PTR this$[rbp]
  0003b	e8 00 00 00 00	 call	 ?_Mysize@?$_String_alloc@U?$_String_base_types@DV?$allocator@D@std@@@std@@@std@@QEAAAEA_KXZ ; std::_String_alloc<std::_String_base_types<char,std::allocator<char> > >::_Mysize
  00040	48 8b 8d 28 01
	00 00		 mov	 rcx, QWORD PTR _Off$[rbp]
  00047	48 39 08	 cmp	 QWORD PTR [rax], rcx
  0004a	73 0c		 jae	 SHORT $LN2@erase
; Line 1347
  0004c	48 8b 8d 20 01
	00 00		 mov	 rcx, QWORD PTR this$[rbp]
  00053	e8 00 00 00 00	 call	 ?_Xran@?$basic_string@DU?$char_traits@D@std@@V?$allocator@D@2@@std@@QEBAXXZ ; std::basic_string<char,std::char_traits<char>,std::allocator<char> >::_Xran
$LN2@erase:
; Line 1348
  00058	48 8b 8d 20 01
	00 00		 mov	 rcx, QWORD PTR this$[rbp]
  0005f	e8 00 00 00 00	 call	 ?_Mysize@?$_String_alloc@U?$_String_base_types@DV?$allocator@D@std@@@std@@@std@@QEAAAEA_KXZ ; std::_String_alloc<std::_String_base_types<char,std::allocator<char> > >::_Mysize
  00064	48 8b 8d 28 01
	00 00		 mov	 rcx, QWORD PTR _Off$[rbp]
  0006b	48 8b 00	 mov	 rax, QWORD PTR [rax]
  0006e	48 2b c1	 sub	 rax, rcx
  00071	48 3b 85 30 01
	00 00		 cmp	 rax, QWORD PTR _Count$[rbp]
  00078	77 15		 ja	 SHORT $LN3@erase
; Line 1349
  0007a	48 8b 95 28 01
	00 00		 mov	 rdx, QWORD PTR _Off$[rbp]
  00081	48 8b 8d 20 01
	00 00		 mov	 rcx, QWORD PTR this$[rbp]
  00088	e8 00 00 00 00	 call	 ?_Eos@?$basic_string@DU?$char_traits@D@std@@V?$allocator@D@2@@std@@QEAAX_K@Z ; std::basic_string<char,std::char_traits<char>,std::allocator<char> >::_Eos
  0008d	eb 7f		 jmp	 SHORT $LN4@erase
$LN3@erase:
; Line 1350
  0008f	48 83 bd 30 01
	00 00 00	 cmp	 QWORD PTR _Count$[rbp], 0
  00097	76 75		 jbe	 SHORT $LN5@erase
; Line 1352
  00099	48 8b 8d 20 01
	00 00		 mov	 rcx, QWORD PTR this$[rbp]
  000a0	e8 00 00 00 00	 call	 ?_Myptr@?$_String_alloc@U?$_String_base_types@DV?$allocator@D@std@@@std@@@std@@QEAAPEADXZ ; std::_String_alloc<std::_String_base_types<char,std::allocator<char> > >::_Myptr
  000a5	48 03 85 28 01
	00 00		 add	 rax, QWORD PTR _Off$[rbp]
  000ac	48 89 45 08	 mov	 QWORD PTR _Ptr$1[rbp], rax
; Line 1353
  000b0	48 8b 8d 20 01
	00 00		 mov	 rcx, QWORD PTR this$[rbp]
  000b7	e8 00 00 00 00	 call	 ?_Mysize@?$_String_alloc@U?$_String_base_types@DV?$allocator@D@std@@@std@@@std@@QEAAAEA_KXZ ; std::_String_alloc<std::_String_base_types<char,std::allocator<char> > >::_Mysize
  000bc	48 8b 8d 30 01
	00 00		 mov	 rcx, QWORD PTR _Count$[rbp]
  000c3	48 8b 00	 mov	 rax, QWORD PTR [rax]
  000c6	48 2b c1	 sub	 rax, rcx
  000c9	48 89 45 28	 mov	 QWORD PTR _Newsize$2[rbp], rax
; Line 1354
  000cd	48 8b 85 28 01
	00 00		 mov	 rax, QWORD PTR _Off$[rbp]
  000d4	48 8b 4d 28	 mov	 rcx, QWORD PTR _Newsize$2[rbp]
  000d8	48 2b c8	 sub	 rcx, rax
  000db	48 8b c1	 mov	 rax, rcx
  000de	48 8b 8d 30 01
	00 00		 mov	 rcx, QWORD PTR _Count$[rbp]
  000e5	48 8b 55 08	 mov	 rdx, QWORD PTR _Ptr$1[rbp]
  000e9	48 03 d1	 add	 rdx, rcx
  000ec	48 8b ca	 mov	 rcx, rdx
  000ef	4c 8b c0	 mov	 r8, rax
  000f2	48 8b d1	 mov	 rdx, rcx
  000f5	48 8b 4d 08	 mov	 rcx, QWORD PTR _Ptr$1[rbp]
  000f9	e8 00 00 00 00	 call	 ?move@?$char_traits@D@std@@SAPEADPEADPEBD_K@Z ; std::char_traits<char>::move
; Line 1355
  000fe	48 8b 55 28	 mov	 rdx, QWORD PTR _Newsize$2[rbp]
  00102	48 8b 8d 20 01
	00 00		 mov	 rcx, QWORD PTR this$[rbp]
  00109	e8 00 00 00 00	 call	 ?_Eos@?$basic_string@DU?$char_traits@D@std@@V?$allocator@D@2@@std@@QEAAX_K@Z ; std::basic_string<char,std::char_traits<char>,std::allocator<char> >::_Eos
$LN5@erase:
$LN4@erase:
; Line 1357
  0010e	48 8b 85 20 01
	00 00		 mov	 rax, QWORD PTR this$[rbp]
$LN6@erase:
; Line 1358
  00115	48 8d a5 08 01
	00 00		 lea	 rsp, QWORD PTR [rbp+264]
  0011c	5f		 pop	 rdi
  0011d	5d		 pop	 rbp
  0011e	c3		 ret	 0
?erase@?$basic_string@DU?$char_traits@D@std@@V?$allocator@D@2@@std@@QEAAAEAV12@_K0@Z ENDP ; std::basic_string<char,std::char_traits<char>,std::allocator<char> >::erase
_TEXT	ENDS
; Function compile flags: /Odtp /RTCsu /ZI
;	COMDAT ?erase@?$basic_string@DU?$char_traits@D@std@@V?$allocator@D@2@@std@@QEAAAEAV12@_K@Z
_TEXT	SEGMENT
this$ = 224
_Off$ = 232
?erase@?$basic_string@DU?$char_traits@D@std@@V?$allocator@D@2@@std@@QEAAAEAV12@_K@Z PROC ; std::basic_string<char,std::char_traits<char>,std::allocator<char> >::erase, COMDAT
; File d:\appdata\vsp\vc\include\xstring
; Line 1337
$LN4:
  00000	48 89 54 24 10	 mov	 QWORD PTR [rsp+16], rdx
  00005	48 89 4c 24 08	 mov	 QWORD PTR [rsp+8], rcx
  0000a	55		 push	 rbp
  0000b	57		 push	 rdi
  0000c	48 81 ec e8 00
	00 00		 sub	 rsp, 232		; 000000e8H
  00013	48 8d 6c 24 20	 lea	 rbp, QWORD PTR [rsp+32]
  00018	48 8b fc	 mov	 rdi, rsp
  0001b	b9 3a 00 00 00	 mov	 ecx, 58			; 0000003aH
  00020	b8 cc cc cc cc	 mov	 eax, -858993460		; ccccccccH
  00025	f3 ab		 rep stosd
  00027	48 8b 8c 24 08
	01 00 00	 mov	 rcx, QWORD PTR [rsp+264]
; Line 1338
  0002f	48 8b 8d e0 00
	00 00		 mov	 rcx, QWORD PTR this$[rbp]
  00036	e8 00 00 00 00	 call	 ?_Mysize@?$_String_alloc@U?$_String_base_types@DV?$allocator@D@std@@@std@@@std@@QEAAAEA_KXZ ; std::_String_alloc<std::_String_base_types<char,std::allocator<char> > >::_Mysize
  0003b	48 8b 8d e8 00
	00 00		 mov	 rcx, QWORD PTR _Off$[rbp]
  00042	48 39 08	 cmp	 QWORD PTR [rax], rcx
  00045	73 0c		 jae	 SHORT $LN2@erase
; Line 1339
  00047	48 8b 8d e0 00
	00 00		 mov	 rcx, QWORD PTR this$[rbp]
  0004e	e8 00 00 00 00	 call	 ?_Xran@?$basic_string@DU?$char_traits@D@std@@V?$allocator@D@2@@std@@QEBAXXZ ; std::basic_string<char,std::char_traits<char>,std::allocator<char> >::_Xran
$LN2@erase:
; Line 1340
  00053	48 8b 95 e8 00
	00 00		 mov	 rdx, QWORD PTR _Off$[rbp]
  0005a	48 8b 8d e0 00
	00 00		 mov	 rcx, QWORD PTR this$[rbp]
  00061	e8 00 00 00 00	 call	 ?_Eos@?$basic_string@DU?$char_traits@D@std@@V?$allocator@D@2@@std@@QEAAX_K@Z ; std::basic_string<char,std::char_traits<char>,std::allocator<char> >::_Eos
; Line 1341
  00066	48 8b 85 e0 00
	00 00		 mov	 rax, QWORD PTR this$[rbp]
$LN3@erase:
; Line 1342
  0006d	48 8d a5 c8 00
	00 00		 lea	 rsp, QWORD PTR [rbp+200]
  00074	5f		 pop	 rdi
  00075	5d		 pop	 rbp
  00076	c3		 ret	 0
?erase@?$basic_string@DU?$char_traits@D@std@@V?$allocator@D@2@@std@@QEAAAEAV12@_K@Z ENDP ; std::basic_string<char,std::char_traits<char>,std::allocator<char> >::erase
_TEXT	ENDS
; Function compile flags: /Odtp /RTCsu /ZI
;	COMDAT ?assign@?$basic_string@DU?$char_traits@D@std@@V?$allocator@D@2@@std@@QEAAAEAV12@PEBD@Z
_TEXT	SEGMENT
this$ = 224
_Ptr$ = 232
?assign@?$basic_string@DU?$char_traits@D@std@@V?$allocator@D@2@@std@@QEAAAEAV12@PEBD@Z PROC ; std::basic_string<char,std::char_traits<char>,std::allocator<char> >::assign, COMDAT
; File d:\appdata\vsp\vc\include\xstring
; Line 1174
$LN3:
  00000	48 89 54 24 10	 mov	 QWORD PTR [rsp+16], rdx
  00005	48 89 4c 24 08	 mov	 QWORD PTR [rsp+8], rcx
  0000a	55		 push	 rbp
  0000b	57		 push	 rdi
  0000c	48 81 ec e8 00
	00 00		 sub	 rsp, 232		; 000000e8H
  00013	48 8d 6c 24 20	 lea	 rbp, QWORD PTR [rsp+32]
  00018	48 8b fc	 mov	 rdi, rsp
  0001b	b9 3a 00 00 00	 mov	 ecx, 58			; 0000003aH
  00020	b8 cc cc cc cc	 mov	 eax, -858993460		; ccccccccH
  00025	f3 ab		 rep stosd
  00027	48 8b 8c 24 08
	01 00 00	 mov	 rcx, QWORD PTR [rsp+264]
; Line 1175
  0002f	41 b8 97 04 00
	00		 mov	 r8d, 1175		; 00000497H
  00035	48 8d 15 00 00
	00 00		 lea	 rdx, OFFSET FLAT:??_C@_1EE@PIAPABGP@?$AAd?$AA?3?$AA?2?$AAa?$AAp?$AAp?$AAd?$AAa?$AAt?$AAa?$AA?2?$AAv?$AAs?$AAp?$AA?2?$AAv?$AAc?$AA?2?$AAi?$AAn?$AAc?$AAl?$AAu?$AAd?$AAe?$AA?2?$AAx?$AAs?$AAt?$AAr?$AAi?$AAn@
  0003c	48 8b 8d e8 00
	00 00		 mov	 rcx, QWORD PTR _Ptr$[rbp]
  00043	e8 00 00 00 00	 call	 ??$_Debug_pointer@$$CBD@std@@YAXPEBDPEBGI@Z ; std::_Debug_pointer<char const >
; Line 1176
  00048	48 8b 8d e8 00
	00 00		 mov	 rcx, QWORD PTR _Ptr$[rbp]
  0004f	e8 00 00 00 00	 call	 ?length@?$char_traits@D@std@@SA_KPEBD@Z ; std::char_traits<char>::length
  00054	4c 8b c0	 mov	 r8, rax
  00057	48 8b 95 e8 00
	00 00		 mov	 rdx, QWORD PTR _Ptr$[rbp]
  0005e	48 8b 8d e0 00
	00 00		 mov	 rcx, QWORD PTR this$[rbp]
  00065	e8 00 00 00 00	 call	 ?assign@?$basic_string@DU?$char_traits@D@std@@V?$allocator@D@2@@std@@QEAAAEAV12@PEBD_K@Z ; std::basic_string<char,std::char_traits<char>,std::allocator<char> >::assign
; Line 1177
  0006a	48 8d a5 c8 00
	00 00		 lea	 rsp, QWORD PTR [rbp+200]
  00071	5f		 pop	 rdi
  00072	5d		 pop	 rbp
  00073	c3		 ret	 0
?assign@?$basic_string@DU?$char_traits@D@std@@V?$allocator@D@2@@std@@QEAAAEAV12@PEBD@Z ENDP ; std::basic_string<char,std::char_traits<char>,std::allocator<char> >::assign
_TEXT	ENDS
; Function compile flags: /Odtp /RTCsu /ZI
;	COMDAT ?assign@?$basic_string@DU?$char_traits@D@std@@V?$allocator@D@2@@std@@QEAAAEAV12@PEBD_K@Z
_TEXT	SEGMENT
tv68 = 192
this$ = 240
_Ptr$ = 248
_Count$ = 256
?assign@?$basic_string@DU?$char_traits@D@std@@V?$allocator@D@2@@std@@QEAAAEAV12@PEBD_K@Z PROC ; std::basic_string<char,std::char_traits<char>,std::allocator<char> >::assign, COMDAT
; File d:\appdata\vsp\vc\include\xstring
; Line 1159
$LN7:
  00000	4c 89 44 24 18	 mov	 QWORD PTR [rsp+24], r8
  00005	48 89 54 24 10	 mov	 QWORD PTR [rsp+16], rdx
  0000a	48 89 4c 24 08	 mov	 QWORD PTR [rsp+8], rcx
  0000f	55		 push	 rbp
  00010	57		 push	 rdi
  00011	48 81 ec f8 00
	00 00		 sub	 rsp, 248		; 000000f8H
  00018	48 8d 6c 24 20	 lea	 rbp, QWORD PTR [rsp+32]
  0001d	48 8b fc	 mov	 rdi, rsp
  00020	b9 3e 00 00 00	 mov	 ecx, 62			; 0000003eH
  00025	b8 cc cc cc cc	 mov	 eax, -858993460		; ccccccccH
  0002a	f3 ab		 rep stosd
  0002c	48 8b 8c 24 18
	01 00 00	 mov	 rcx, QWORD PTR [rsp+280]
; Line 1160
  00034	48 83 bd 00 01
	00 00 00	 cmp	 QWORD PTR _Count$[rbp], 0
  0003c	74 09		 je	 SHORT $LN5@assign
  0003e	c6 85 c0 00 00
	00 01		 mov	 BYTE PTR tv68[rbp], 1
  00045	eb 07		 jmp	 SHORT $LN6@assign
$LN5@assign:
  00047	c6 85 c0 00 00
	00 00		 mov	 BYTE PTR tv68[rbp], 0
$LN6@assign:
  0004e	41 b9 88 04 00
	00		 mov	 r9d, 1160		; 00000488H
  00054	4c 8d 05 00 00
	00 00		 lea	 r8, OFFSET FLAT:??_C@_1EE@PIAPABGP@?$AAd?$AA?3?$AA?2?$AAa?$AAp?$AAp?$AAd?$AAa?$AAt?$AAa?$AA?2?$AAv?$AAs?$AAp?$AA?2?$AAv?$AAc?$AA?2?$AAi?$AAn?$AAc?$AAl?$AAu?$AAd?$AAe?$AA?2?$AAx?$AAs?$AAt?$AAr?$AAi?$AAn@
  0005b	48 8b 95 f8 00
	00 00		 mov	 rdx, QWORD PTR _Ptr$[rbp]
  00062	0f b6 8d c0 00
	00 00		 movzx	 ecx, BYTE PTR tv68[rbp]
  00069	e8 00 00 00 00	 call	 ??$_Debug_pointer_if@$$CBD@std@@YAX_NPEBDPEBGI@Z ; std::_Debug_pointer_if<char const >
; Line 1161
  0006e	48 8b 95 f8 00
	00 00		 mov	 rdx, QWORD PTR _Ptr$[rbp]
  00075	48 8b 8d f0 00
	00 00		 mov	 rcx, QWORD PTR this$[rbp]
  0007c	e8 00 00 00 00	 call	 ?_Inside@?$basic_string@DU?$char_traits@D@std@@V?$allocator@D@2@@std@@QEAA_NPEBD@Z ; std::basic_string<char,std::char_traits<char>,std::allocator<char> >::_Inside
  00081	0f b6 c0	 movzx	 eax, al
  00084	85 c0		 test	 eax, eax
  00086	74 38		 je	 SHORT $LN2@assign
; Line 1162
  00088	48 8b 8d f0 00
	00 00		 mov	 rcx, QWORD PTR this$[rbp]
  0008f	e8 00 00 00 00	 call	 ?_Myptr@?$_String_alloc@U?$_String_base_types@DV?$allocator@D@std@@@std@@@std@@QEAAPEADXZ ; std::_String_alloc<std::_String_base_types<char,std::allocator<char> > >::_Myptr
  00094	48 8b 8d f8 00
	00 00		 mov	 rcx, QWORD PTR _Ptr$[rbp]
  0009b	48 2b c8	 sub	 rcx, rax
  0009e	48 8b c1	 mov	 rax, rcx
  000a1	4c 8b 8d 00 01
	00 00		 mov	 r9, QWORD PTR _Count$[rbp]
  000a8	4c 8b c0	 mov	 r8, rax
  000ab	48 8b 95 f0 00
	00 00		 mov	 rdx, QWORD PTR this$[rbp]
  000b2	48 8b 8d f0 00
	00 00		 mov	 rcx, QWORD PTR this$[rbp]
  000b9	e8 00 00 00 00	 call	 ?assign@?$basic_string@DU?$char_traits@D@std@@V?$allocator@D@2@@std@@QEAAAEAV12@AEBV12@_K1@Z ; std::basic_string<char,std::char_traits<char>,std::allocator<char> >::assign
  000be	eb 59		 jmp	 SHORT $LN1@assign
$LN2@assign:
; Line 1165
  000c0	45 33 c0	 xor	 r8d, r8d
  000c3	48 8b 95 00 01
	00 00		 mov	 rdx, QWORD PTR _Count$[rbp]
  000ca	48 8b 8d f0 00
	00 00		 mov	 rcx, QWORD PTR this$[rbp]
  000d1	e8 00 00 00 00	 call	 ?_Grow@?$basic_string@DU?$char_traits@D@std@@V?$allocator@D@2@@std@@QEAA_N_K_N@Z ; std::basic_string<char,std::char_traits<char>,std::allocator<char> >::_Grow
  000d6	0f b6 c0	 movzx	 eax, al
  000d9	85 c0		 test	 eax, eax
  000db	74 35		 je	 SHORT $LN3@assign
; Line 1167
  000dd	48 8b 8d f0 00
	00 00		 mov	 rcx, QWORD PTR this$[rbp]
  000e4	e8 00 00 00 00	 call	 ?_Myptr@?$_String_alloc@U?$_String_base_types@DV?$allocator@D@std@@@std@@@std@@QEAAPEADXZ ; std::_String_alloc<std::_String_base_types<char,std::allocator<char> > >::_Myptr
  000e9	4c 8b 85 00 01
	00 00		 mov	 r8, QWORD PTR _Count$[rbp]
  000f0	48 8b 95 f8 00
	00 00		 mov	 rdx, QWORD PTR _Ptr$[rbp]
  000f7	48 8b c8	 mov	 rcx, rax
  000fa	e8 00 00 00 00	 call	 ?copy@?$char_traits@D@std@@SAPEADPEADPEBD_K@Z ; std::char_traits<char>::copy
; Line 1168
  000ff	48 8b 95 00 01
	00 00		 mov	 rdx, QWORD PTR _Count$[rbp]
  00106	48 8b 8d f0 00
	00 00		 mov	 rcx, QWORD PTR this$[rbp]
  0010d	e8 00 00 00 00	 call	 ?_Eos@?$basic_string@DU?$char_traits@D@std@@V?$allocator@D@2@@std@@QEAAX_K@Z ; std::basic_string<char,std::char_traits<char>,std::allocator<char> >::_Eos
$LN3@assign:
; Line 1170
  00112	48 8b 85 f0 00
	00 00		 mov	 rax, QWORD PTR this$[rbp]
$LN1@assign:
; Line 1171
  00119	48 8d a5 d8 00
	00 00		 lea	 rsp, QWORD PTR [rbp+216]
  00120	5f		 pop	 rdi
  00121	5d		 pop	 rbp
  00122	c3		 ret	 0
?assign@?$basic_string@DU?$char_traits@D@std@@V?$allocator@D@2@@std@@QEAAAEAV12@PEBD_K@Z ENDP ; std::basic_string<char,std::char_traits<char>,std::allocator<char> >::assign
_TEXT	ENDS
; Function compile flags: /Odtp /RTCsu /ZI
;	COMDAT ?assign@?$basic_string@DU?$char_traits@D@std@@V?$allocator@D@2@@std@@QEAAAEAV12@AEBV12@_K1@Z
_TEXT	SEGMENT
_Num$ = 8
tv93 = 216
this$ = 256
_Right$ = 264
_Roff$ = 272
_Count$ = 280
?assign@?$basic_string@DU?$char_traits@D@std@@V?$allocator@D@2@@std@@QEAAAEAV12@AEBV12@_K1@Z PROC ; std::basic_string<char,std::char_traits<char>,std::allocator<char> >::assign, COMDAT
; File d:\appdata\vsp\vc\include\xstring
; Line 1140
$LN8:
  00000	4c 89 4c 24 20	 mov	 QWORD PTR [rsp+32], r9
  00005	4c 89 44 24 18	 mov	 QWORD PTR [rsp+24], r8
  0000a	48 89 54 24 10	 mov	 QWORD PTR [rsp+16], rdx
  0000f	48 89 4c 24 08	 mov	 QWORD PTR [rsp+8], rcx
  00014	55		 push	 rbp
  00015	57		 push	 rdi
  00016	48 81 ec 08 01
	00 00		 sub	 rsp, 264		; 00000108H
  0001d	48 8d 6c 24 20	 lea	 rbp, QWORD PTR [rsp+32]
  00022	48 8b fc	 mov	 rdi, rsp
  00025	b9 42 00 00 00	 mov	 ecx, 66			; 00000042H
  0002a	b8 cc cc cc cc	 mov	 eax, -858993460		; ccccccccH
  0002f	f3 ab		 rep stosd
  00031	48 8b 8c 24 28
	01 00 00	 mov	 rcx, QWORD PTR [rsp+296]
; Line 1141
  00039	48 8b 8d 08 01
	00 00		 mov	 rcx, QWORD PTR _Right$[rbp]
  00040	e8 00 00 00 00	 call	 ?size@?$basic_string@DU?$char_traits@D@std@@V?$allocator@D@2@@std@@QEBA_KXZ ; std::basic_string<char,std::char_traits<char>,std::allocator<char> >::size
  00045	48 3b 85 10 01
	00 00		 cmp	 rax, QWORD PTR _Roff$[rbp]
  0004c	73 0c		 jae	 SHORT $LN2@assign
; Line 1142
  0004e	48 8b 8d 00 01
	00 00		 mov	 rcx, QWORD PTR this$[rbp]
  00055	e8 00 00 00 00	 call	 ?_Xran@?$basic_string@DU?$char_traits@D@std@@V?$allocator@D@2@@std@@QEBAXXZ ; std::basic_string<char,std::char_traits<char>,std::allocator<char> >::_Xran
$LN2@assign:
; Line 1143
  0005a	48 8b 8d 08 01
	00 00		 mov	 rcx, QWORD PTR _Right$[rbp]
  00061	e8 00 00 00 00	 call	 ?size@?$basic_string@DU?$char_traits@D@std@@V?$allocator@D@2@@std@@QEBA_KXZ ; std::basic_string<char,std::char_traits<char>,std::allocator<char> >::size
  00066	48 2b 85 10 01
	00 00		 sub	 rax, QWORD PTR _Roff$[rbp]
  0006d	48 89 45 08	 mov	 QWORD PTR _Num$[rbp], rax
; Line 1144
  00071	48 8b 45 08	 mov	 rax, QWORD PTR _Num$[rbp]
  00075	48 39 85 18 01
	00 00		 cmp	 QWORD PTR _Count$[rbp], rax
  0007c	73 0b		 jae	 SHORT $LN3@assign
; Line 1145
  0007e	48 8b 85 18 01
	00 00		 mov	 rax, QWORD PTR _Count$[rbp]
  00085	48 89 45 08	 mov	 QWORD PTR _Num$[rbp], rax
$LN3@assign:
; Line 1147
  00089	48 8b 85 08 01
	00 00		 mov	 rax, QWORD PTR _Right$[rbp]
  00090	48 39 85 00 01
	00 00		 cmp	 QWORD PTR this$[rbp], rax
  00097	75 37		 jne	 SHORT $LN4@assign
; Line 1148
  00099	48 8b 45 08	 mov	 rax, QWORD PTR _Num$[rbp]
  0009d	48 8b 8d 10 01
	00 00		 mov	 rcx, QWORD PTR _Roff$[rbp]
  000a4	48 03 c8	 add	 rcx, rax
  000a7	48 8b c1	 mov	 rax, rcx
  000aa	48 8b d0	 mov	 rdx, rax
  000ad	48 8b 8d 00 01
	00 00		 mov	 rcx, QWORD PTR this$[rbp]
  000b4	e8 00 00 00 00	 call	 ?erase@?$basic_string@DU?$char_traits@D@std@@V?$allocator@D@2@@std@@QEAAAEAV12@_K@Z ; std::basic_string<char,std::char_traits<char>,std::allocator<char> >::erase
  000b9	4c 8b 85 10 01
	00 00		 mov	 r8, QWORD PTR _Roff$[rbp]
  000c0	33 d2		 xor	 edx, edx
  000c2	48 8b 8d 00 01
	00 00		 mov	 rcx, QWORD PTR this$[rbp]
  000c9	e8 00 00 00 00	 call	 ?erase@?$basic_string@DU?$char_traits@D@std@@V?$allocator@D@2@@std@@QEAAAEAV12@_K0@Z ; std::basic_string<char,std::char_traits<char>,std::allocator<char> >::erase
  000ce	eb 66		 jmp	 SHORT $LN5@assign
$LN4@assign:
; Line 1149
  000d0	45 33 c0	 xor	 r8d, r8d
  000d3	48 8b 55 08	 mov	 rdx, QWORD PTR _Num$[rbp]
  000d7	48 8b 8d 00 01
	00 00		 mov	 rcx, QWORD PTR this$[rbp]
  000de	e8 00 00 00 00	 call	 ?_Grow@?$basic_string@DU?$char_traits@D@std@@V?$allocator@D@2@@std@@QEAA_N_K_N@Z ; std::basic_string<char,std::char_traits<char>,std::allocator<char> >::_Grow
  000e3	0f b6 c0	 movzx	 eax, al
  000e6	85 c0		 test	 eax, eax
  000e8	74 4c		 je	 SHORT $LN6@assign
; Line 1151
  000ea	48 8b 8d 08 01
	00 00		 mov	 rcx, QWORD PTR _Right$[rbp]
  000f1	e8 00 00 00 00	 call	 ?_Myptr@?$_String_alloc@U?$_String_base_types@DV?$allocator@D@std@@@std@@@std@@QEBAPEBDXZ ; std::_String_alloc<std::_String_base_types<char,std::allocator<char> > >::_Myptr
  000f6	48 03 85 10 01
	00 00		 add	 rax, QWORD PTR _Roff$[rbp]
  000fd	48 89 85 d8 00
	00 00		 mov	 QWORD PTR tv93[rbp], rax
  00104	48 8b 8d 00 01
	00 00		 mov	 rcx, QWORD PTR this$[rbp]
  0010b	e8 00 00 00 00	 call	 ?_Myptr@?$_String_alloc@U?$_String_base_types@DV?$allocator@D@std@@@std@@@std@@QEAAPEADXZ ; std::_String_alloc<std::_String_base_types<char,std::allocator<char> > >::_Myptr
  00110	4c 8b 45 08	 mov	 r8, QWORD PTR _Num$[rbp]
  00114	48 8b 8d d8 00
	00 00		 mov	 rcx, QWORD PTR tv93[rbp]
  0011b	48 8b d1	 mov	 rdx, rcx
  0011e	48 8b c8	 mov	 rcx, rax
  00121	e8 00 00 00 00	 call	 ?copy@?$char_traits@D@std@@SAPEADPEADPEBD_K@Z ; std::char_traits<char>::copy
; Line 1153
  00126	48 8b 55 08	 mov	 rdx, QWORD PTR _Num$[rbp]
  0012a	48 8b 8d 00 01
	00 00		 mov	 rcx, QWORD PTR this$[rbp]
  00131	e8 00 00 00 00	 call	 ?_Eos@?$basic_string@DU?$char_traits@D@std@@V?$allocator@D@2@@std@@QEAAX_K@Z ; std::basic_string<char,std::char_traits<char>,std::allocator<char> >::_Eos
$LN6@assign:
$LN5@assign:
; Line 1155
  00136	48 8b 85 00 01
	00 00		 mov	 rax, QWORD PTR this$[rbp]
$LN7@assign:
; Line 1156
  0013d	48 8d a5 e8 00
	00 00		 lea	 rsp, QWORD PTR [rbp+232]
  00144	5f		 pop	 rdi
  00145	5d		 pop	 rbp
  00146	c3		 ret	 0
?assign@?$basic_string@DU?$char_traits@D@std@@V?$allocator@D@2@@std@@QEAAAEAV12@AEBV12@_K1@Z ENDP ; std::basic_string<char,std::char_traits<char>,std::allocator<char> >::assign
_TEXT	ENDS
; Function compile flags: /Odtp /RTCsu /ZI
;	COMDAT ?append@?$basic_string@DU?$char_traits@D@std@@V?$allocator@D@2@@std@@QEAAAEAV12@PEBD@Z
_TEXT	SEGMENT
this$ = 224
_Ptr$ = 232
?append@?$basic_string@DU?$char_traits@D@std@@V?$allocator@D@2@@std@@QEAAAEAV12@PEBD@Z PROC ; std::basic_string<char,std::char_traits<char>,std::allocator<char> >::append, COMDAT
; File d:\appdata\vsp\vc\include\xstring
; Line 1096
$LN3:
  00000	48 89 54 24 10	 mov	 QWORD PTR [rsp+16], rdx
  00005	48 89 4c 24 08	 mov	 QWORD PTR [rsp+8], rcx
  0000a	55		 push	 rbp
  0000b	57		 push	 rdi
  0000c	48 81 ec e8 00
	00 00		 sub	 rsp, 232		; 000000e8H
  00013	48 8d 6c 24 20	 lea	 rbp, QWORD PTR [rsp+32]
  00018	48 8b fc	 mov	 rdi, rsp
  0001b	b9 3a 00 00 00	 mov	 ecx, 58			; 0000003aH
  00020	b8 cc cc cc cc	 mov	 eax, -858993460		; ccccccccH
  00025	f3 ab		 rep stosd
  00027	48 8b 8c 24 08
	01 00 00	 mov	 rcx, QWORD PTR [rsp+264]
; Line 1097
  0002f	41 b8 49 04 00
	00		 mov	 r8d, 1097		; 00000449H
  00035	48 8d 15 00 00
	00 00		 lea	 rdx, OFFSET FLAT:??_C@_1EE@PIAPABGP@?$AAd?$AA?3?$AA?2?$AAa?$AAp?$AAp?$AAd?$AAa?$AAt?$AAa?$AA?2?$AAv?$AAs?$AAp?$AA?2?$AAv?$AAc?$AA?2?$AAi?$AAn?$AAc?$AAl?$AAu?$AAd?$AAe?$AA?2?$AAx?$AAs?$AAt?$AAr?$AAi?$AAn@
  0003c	48 8b 8d e8 00
	00 00		 mov	 rcx, QWORD PTR _Ptr$[rbp]
  00043	e8 00 00 00 00	 call	 ??$_Debug_pointer@$$CBD@std@@YAXPEBDPEBGI@Z ; std::_Debug_pointer<char const >
; Line 1098
  00048	48 8b 8d e8 00
	00 00		 mov	 rcx, QWORD PTR _Ptr$[rbp]
  0004f	e8 00 00 00 00	 call	 ?length@?$char_traits@D@std@@SA_KPEBD@Z ; std::char_traits<char>::length
  00054	4c 8b c0	 mov	 r8, rax
  00057	48 8b 95 e8 00
	00 00		 mov	 rdx, QWORD PTR _Ptr$[rbp]
  0005e	48 8b 8d e0 00
	00 00		 mov	 rcx, QWORD PTR this$[rbp]
  00065	e8 00 00 00 00	 call	 ?append@?$basic_string@DU?$char_traits@D@std@@V?$allocator@D@2@@std@@QEAAAEAV12@PEBD_K@Z ; std::basic_string<char,std::char_traits<char>,std::allocator<char> >::append
; Line 1099
  0006a	48 8d a5 c8 00
	00 00		 lea	 rsp, QWORD PTR [rbp+200]
  00071	5f		 pop	 rdi
  00072	5d		 pop	 rbp
  00073	c3		 ret	 0
?append@?$basic_string@DU?$char_traits@D@std@@V?$allocator@D@2@@std@@QEAAAEAV12@PEBD@Z ENDP ; std::basic_string<char,std::char_traits<char>,std::allocator<char> >::append
_TEXT	ENDS
; Function compile flags: /Odtp /RTCsu /ZI
;	COMDAT ?append@?$basic_string@DU?$char_traits@D@std@@V?$allocator@D@2@@std@@QEAAAEAV12@PEBD_K@Z
_TEXT	SEGMENT
_Num$ = 8
tv68 = 212
tv150 = 216
this$ = 256
_Ptr$ = 264
_Count$ = 272
?append@?$basic_string@DU?$char_traits@D@std@@V?$allocator@D@2@@std@@QEAAAEAV12@PEBD_K@Z PROC ; std::basic_string<char,std::char_traits<char>,std::allocator<char> >::append, COMDAT
; File d:\appdata\vsp\vc\include\xstring
; Line 1078
$LN8:
  00000	4c 89 44 24 18	 mov	 QWORD PTR [rsp+24], r8
  00005	48 89 54 24 10	 mov	 QWORD PTR [rsp+16], rdx
  0000a	48 89 4c 24 08	 mov	 QWORD PTR [rsp+8], rcx
  0000f	55		 push	 rbp
  00010	57		 push	 rdi
  00011	48 81 ec 08 01
	00 00		 sub	 rsp, 264		; 00000108H
  00018	48 8d 6c 24 20	 lea	 rbp, QWORD PTR [rsp+32]
  0001d	48 8b fc	 mov	 rdi, rsp
  00020	b9 42 00 00 00	 mov	 ecx, 66			; 00000042H
  00025	b8 cc cc cc cc	 mov	 eax, -858993460		; ccccccccH
  0002a	f3 ab		 rep stosd
  0002c	48 8b 8c 24 28
	01 00 00	 mov	 rcx, QWORD PTR [rsp+296]
; Line 1079
  00034	48 83 bd 10 01
	00 00 00	 cmp	 QWORD PTR _Count$[rbp], 0
  0003c	74 09		 je	 SHORT $LN6@append
  0003e	c6 85 d4 00 00
	00 01		 mov	 BYTE PTR tv68[rbp], 1
  00045	eb 07		 jmp	 SHORT $LN7@append
$LN6@append:
  00047	c6 85 d4 00 00
	00 00		 mov	 BYTE PTR tv68[rbp], 0
$LN7@append:
  0004e	41 b9 37 04 00
	00		 mov	 r9d, 1079		; 00000437H
  00054	4c 8d 05 00 00
	00 00		 lea	 r8, OFFSET FLAT:??_C@_1EE@PIAPABGP@?$AAd?$AA?3?$AA?2?$AAa?$AAp?$AAp?$AAd?$AAa?$AAt?$AAa?$AA?2?$AAv?$AAs?$AAp?$AA?2?$AAv?$AAc?$AA?2?$AAi?$AAn?$AAc?$AAl?$AAu?$AAd?$AAe?$AA?2?$AAx?$AAs?$AAt?$AAr?$AAi?$AAn@
  0005b	48 8b 95 08 01
	00 00		 mov	 rdx, QWORD PTR _Ptr$[rbp]
  00062	0f b6 8d d4 00
	00 00		 movzx	 ecx, BYTE PTR tv68[rbp]
  00069	e8 00 00 00 00	 call	 ??$_Debug_pointer_if@$$CBD@std@@YAX_NPEBDPEBGI@Z ; std::_Debug_pointer_if<char const >
; Line 1080
  0006e	48 8b 95 08 01
	00 00		 mov	 rdx, QWORD PTR _Ptr$[rbp]
  00075	48 8b 8d 00 01
	00 00		 mov	 rcx, QWORD PTR this$[rbp]
  0007c	e8 00 00 00 00	 call	 ?_Inside@?$basic_string@DU?$char_traits@D@std@@V?$allocator@D@2@@std@@QEAA_NPEBD@Z ; std::basic_string<char,std::char_traits<char>,std::allocator<char> >::_Inside
  00081	0f b6 c0	 movzx	 eax, al
  00084	85 c0		 test	 eax, eax
  00086	74 3b		 je	 SHORT $LN2@append
; Line 1081
  00088	48 8b 8d 00 01
	00 00		 mov	 rcx, QWORD PTR this$[rbp]
  0008f	e8 00 00 00 00	 call	 ?_Myptr@?$_String_alloc@U?$_String_base_types@DV?$allocator@D@std@@@std@@@std@@QEAAPEADXZ ; std::_String_alloc<std::_String_base_types<char,std::allocator<char> > >::_Myptr
  00094	48 8b 8d 08 01
	00 00		 mov	 rcx, QWORD PTR _Ptr$[rbp]
  0009b	48 2b c8	 sub	 rcx, rax
  0009e	48 8b c1	 mov	 rax, rcx
  000a1	4c 8b 8d 10 01
	00 00		 mov	 r9, QWORD PTR _Count$[rbp]
  000a8	4c 8b c0	 mov	 r8, rax
  000ab	48 8b 95 00 01
	00 00		 mov	 rdx, QWORD PTR this$[rbp]
  000b2	48 8b 8d 00 01
	00 00		 mov	 rcx, QWORD PTR this$[rbp]
  000b9	e8 00 00 00 00	 call	 ?append@?$basic_string@DU?$char_traits@D@std@@V?$allocator@D@2@@std@@QEAAAEAV12@AEBV12@_K1@Z ; std::basic_string<char,std::char_traits<char>,std::allocator<char> >::append
  000be	e9 cc 00 00 00	 jmp	 $LN1@append
$LN2@append:
; Line 1083
  000c3	48 8b 8d 00 01
	00 00		 mov	 rcx, QWORD PTR this$[rbp]
  000ca	e8 00 00 00 00	 call	 ?_Mysize@?$_String_alloc@U?$_String_base_types@DV?$allocator@D@std@@@std@@@std@@QEAAAEA_KXZ ; std::_String_alloc<std::_String_base_types<char,std::allocator<char> > >::_Mysize
  000cf	48 8b 00	 mov	 rax, QWORD PTR [rax]
  000d2	48 8b 0d 00 00
	00 00		 mov	 rcx, QWORD PTR ?npos@?$basic_string@DU?$char_traits@D@std@@V?$allocator@D@2@@std@@2_KB ; std::basic_string<char,std::char_traits<char>,std::allocator<char> >::npos
  000d9	48 2b c8	 sub	 rcx, rax
  000dc	48 8b c1	 mov	 rax, rcx
  000df	48 3b 85 10 01
	00 00		 cmp	 rax, QWORD PTR _Count$[rbp]
  000e6	77 0c		 ja	 SHORT $LN3@append
; Line 1084
  000e8	48 8b 8d 00 01
	00 00		 mov	 rcx, QWORD PTR this$[rbp]
  000ef	e8 00 00 00 00	 call	 ?_Xlen@?$basic_string@DU?$char_traits@D@std@@V?$allocator@D@2@@std@@QEBAXXZ ; std::basic_string<char,std::char_traits<char>,std::allocator<char> >::_Xlen
$LN3@append:
; Line 1087
  000f4	48 83 bd 10 01
	00 00 00	 cmp	 QWORD PTR _Count$[rbp], 0
  000fc	0f 86 86 00 00
	00		 jbe	 $LN4@append
  00102	48 8b 8d 00 01
	00 00		 mov	 rcx, QWORD PTR this$[rbp]
  00109	e8 00 00 00 00	 call	 ?_Mysize@?$_String_alloc@U?$_String_base_types@DV?$allocator@D@std@@@std@@@std@@QEAAAEA_KXZ ; std::_String_alloc<std::_String_base_types<char,std::allocator<char> > >::_Mysize
  0010e	48 8b 00	 mov	 rax, QWORD PTR [rax]
  00111	48 03 85 10 01
	00 00		 add	 rax, QWORD PTR _Count$[rbp]
  00118	48 89 45 08	 mov	 QWORD PTR _Num$[rbp], rax
  0011c	45 33 c0	 xor	 r8d, r8d
  0011f	48 8b 55 08	 mov	 rdx, QWORD PTR _Num$[rbp]
  00123	48 8b 8d 00 01
	00 00		 mov	 rcx, QWORD PTR this$[rbp]
  0012a	e8 00 00 00 00	 call	 ?_Grow@?$basic_string@DU?$char_traits@D@std@@V?$allocator@D@2@@std@@QEAA_N_K_N@Z ; std::basic_string<char,std::char_traits<char>,std::allocator<char> >::_Grow
  0012f	0f b6 c0	 movzx	 eax, al
  00132	85 c0		 test	 eax, eax
  00134	74 52		 je	 SHORT $LN4@append
; Line 1089
  00136	48 8b 8d 00 01
	00 00		 mov	 rcx, QWORD PTR this$[rbp]
  0013d	e8 00 00 00 00	 call	 ?_Myptr@?$_String_alloc@U?$_String_base_types@DV?$allocator@D@std@@@std@@@std@@QEAAPEADXZ ; std::_String_alloc<std::_String_base_types<char,std::allocator<char> > >::_Myptr
  00142	48 89 85 d8 00
	00 00		 mov	 QWORD PTR tv150[rbp], rax
  00149	48 8b 8d 00 01
	00 00		 mov	 rcx, QWORD PTR this$[rbp]
  00150	e8 00 00 00 00	 call	 ?_Mysize@?$_String_alloc@U?$_String_base_types@DV?$allocator@D@std@@@std@@@std@@QEAAAEA_KXZ ; std::_String_alloc<std::_String_base_types<char,std::allocator<char> > >::_Mysize
  00155	48 8b 8d d8 00
	00 00		 mov	 rcx, QWORD PTR tv150[rbp]
  0015c	48 03 08	 add	 rcx, QWORD PTR [rax]
  0015f	48 8b c1	 mov	 rax, rcx
  00162	4c 8b 85 10 01
	00 00		 mov	 r8, QWORD PTR _Count$[rbp]
  00169	48 8b 95 08 01
	00 00		 mov	 rdx, QWORD PTR _Ptr$[rbp]
  00170	48 8b c8	 mov	 rcx, rax
  00173	e8 00 00 00 00	 call	 ?copy@?$char_traits@D@std@@SAPEADPEADPEBD_K@Z ; std::char_traits<char>::copy
; Line 1090
  00178	48 8b 55 08	 mov	 rdx, QWORD PTR _Num$[rbp]
  0017c	48 8b 8d 00 01
	00 00		 mov	 rcx, QWORD PTR this$[rbp]
  00183	e8 00 00 00 00	 call	 ?_Eos@?$basic_string@DU?$char_traits@D@std@@V?$allocator@D@2@@std@@QEAAX_K@Z ; std::basic_string<char,std::char_traits<char>,std::allocator<char> >::_Eos
$LN4@append:
; Line 1092
  00188	48 8b 85 00 01
	00 00		 mov	 rax, QWORD PTR this$[rbp]
$LN1@append:
$LN5@append:
; Line 1093
  0018f	48 8d a5 e8 00
	00 00		 lea	 rsp, QWORD PTR [rbp+232]
  00196	5f		 pop	 rdi
  00197	5d		 pop	 rbp
  00198	c3		 ret	 0
?append@?$basic_string@DU?$char_traits@D@std@@V?$allocator@D@2@@std@@QEAAAEAV12@PEBD_K@Z ENDP ; std::basic_string<char,std::char_traits<char>,std::allocator<char> >::append
_TEXT	ENDS
; Function compile flags: /Odtp /RTCsu /ZI
;	COMDAT ?append@?$basic_string@DU?$char_traits@D@std@@V?$allocator@D@2@@std@@QEAAAEAV12@AEBV12@_K1@Z
_TEXT	SEGMENT
_Num$ = 8
tv135 = 216
tv142 = 224
this$ = 272
_Right$ = 280
_Roff$ = 288
_Count$ = 296
?append@?$basic_string@DU?$char_traits@D@std@@V?$allocator@D@2@@std@@QEAAAEAV12@AEBV12@_K1@Z PROC ; std::basic_string<char,std::char_traits<char>,std::allocator<char> >::append, COMDAT
; File d:\appdata\vsp\vc\include\xstring
; Line 1059
$LN7:
  00000	4c 89 4c 24 20	 mov	 QWORD PTR [rsp+32], r9
  00005	4c 89 44 24 18	 mov	 QWORD PTR [rsp+24], r8
  0000a	48 89 54 24 10	 mov	 QWORD PTR [rsp+16], rdx
  0000f	48 89 4c 24 08	 mov	 QWORD PTR [rsp+8], rcx
  00014	55		 push	 rbp
  00015	57		 push	 rdi
  00016	48 81 ec 18 01
	00 00		 sub	 rsp, 280		; 00000118H
  0001d	48 8d 6c 24 20	 lea	 rbp, QWORD PTR [rsp+32]
  00022	48 8b fc	 mov	 rdi, rsp
  00025	b9 46 00 00 00	 mov	 ecx, 70			; 00000046H
  0002a	b8 cc cc cc cc	 mov	 eax, -858993460		; ccccccccH
  0002f	f3 ab		 rep stosd
  00031	48 8b 8c 24 38
	01 00 00	 mov	 rcx, QWORD PTR [rsp+312]
; Line 1060
  00039	48 8b 8d 18 01
	00 00		 mov	 rcx, QWORD PTR _Right$[rbp]
  00040	e8 00 00 00 00	 call	 ?size@?$basic_string@DU?$char_traits@D@std@@V?$allocator@D@2@@std@@QEBA_KXZ ; std::basic_string<char,std::char_traits<char>,std::allocator<char> >::size
  00045	48 3b 85 20 01
	00 00		 cmp	 rax, QWORD PTR _Roff$[rbp]
  0004c	73 0c		 jae	 SHORT $LN2@append
; Line 1061
  0004e	48 8b 8d 10 01
	00 00		 mov	 rcx, QWORD PTR this$[rbp]
  00055	e8 00 00 00 00	 call	 ?_Xran@?$basic_string@DU?$char_traits@D@std@@V?$allocator@D@2@@std@@QEBAXXZ ; std::basic_string<char,std::char_traits<char>,std::allocator<char> >::_Xran
$LN2@append:
; Line 1062
  0005a	48 8b 8d 18 01
	00 00		 mov	 rcx, QWORD PTR _Right$[rbp]
  00061	e8 00 00 00 00	 call	 ?size@?$basic_string@DU?$char_traits@D@std@@V?$allocator@D@2@@std@@QEBA_KXZ ; std::basic_string<char,std::char_traits<char>,std::allocator<char> >::size
  00066	48 2b 85 20 01
	00 00		 sub	 rax, QWORD PTR _Roff$[rbp]
  0006d	48 89 45 08	 mov	 QWORD PTR _Num$[rbp], rax
; Line 1063
  00071	48 8b 85 28 01
	00 00		 mov	 rax, QWORD PTR _Count$[rbp]
  00078	48 39 45 08	 cmp	 QWORD PTR _Num$[rbp], rax
  0007c	73 0b		 jae	 SHORT $LN3@append
; Line 1064
  0007e	48 8b 45 08	 mov	 rax, QWORD PTR _Num$[rbp]
  00082	48 89 85 28 01
	00 00		 mov	 QWORD PTR _Count$[rbp], rax
$LN3@append:
; Line 1065
  00089	48 8b 8d 10 01
	00 00		 mov	 rcx, QWORD PTR this$[rbp]
  00090	e8 00 00 00 00	 call	 ?_Mysize@?$_String_alloc@U?$_String_base_types@DV?$allocator@D@std@@@std@@@std@@QEAAAEA_KXZ ; std::_String_alloc<std::_String_base_types<char,std::allocator<char> > >::_Mysize
  00095	48 8b 00	 mov	 rax, QWORD PTR [rax]
  00098	48 8b 0d 00 00
	00 00		 mov	 rcx, QWORD PTR ?npos@?$basic_string@DU?$char_traits@D@std@@V?$allocator@D@2@@std@@2_KB ; std::basic_string<char,std::char_traits<char>,std::allocator<char> >::npos
  0009f	48 2b c8	 sub	 rcx, rax
  000a2	48 8b c1	 mov	 rax, rcx
  000a5	48 3b 85 28 01
	00 00		 cmp	 rax, QWORD PTR _Count$[rbp]
  000ac	77 0c		 ja	 SHORT $LN4@append
; Line 1066
  000ae	48 8b 8d 10 01
	00 00		 mov	 rcx, QWORD PTR this$[rbp]
  000b5	e8 00 00 00 00	 call	 ?_Xlen@?$basic_string@DU?$char_traits@D@std@@V?$allocator@D@2@@std@@QEBAXXZ ; std::basic_string<char,std::char_traits<char>,std::allocator<char> >::_Xlen
$LN4@append:
; Line 1068
  000ba	48 83 bd 28 01
	00 00 00	 cmp	 QWORD PTR _Count$[rbp], 0
  000c2	0f 86 a3 00 00
	00		 jbe	 $LN5@append
  000c8	48 8b 8d 10 01
	00 00		 mov	 rcx, QWORD PTR this$[rbp]
  000cf	e8 00 00 00 00	 call	 ?_Mysize@?$_String_alloc@U?$_String_base_types@DV?$allocator@D@std@@@std@@@std@@QEAAAEA_KXZ ; std::_String_alloc<std::_String_base_types<char,std::allocator<char> > >::_Mysize
  000d4	48 8b 00	 mov	 rax, QWORD PTR [rax]
  000d7	48 03 85 28 01
	00 00		 add	 rax, QWORD PTR _Count$[rbp]
  000de	48 89 45 08	 mov	 QWORD PTR _Num$[rbp], rax
  000e2	45 33 c0	 xor	 r8d, r8d
  000e5	48 8b 55 08	 mov	 rdx, QWORD PTR _Num$[rbp]
  000e9	48 8b 8d 10 01
	00 00		 mov	 rcx, QWORD PTR this$[rbp]
  000f0	e8 00 00 00 00	 call	 ?_Grow@?$basic_string@DU?$char_traits@D@std@@V?$allocator@D@2@@std@@QEAA_N_K_N@Z ; std::basic_string<char,std::char_traits<char>,std::allocator<char> >::_Grow
  000f5	0f b6 c0	 movzx	 eax, al
  000f8	85 c0		 test	 eax, eax
  000fa	74 6f		 je	 SHORT $LN5@append
; Line 1070
  000fc	48 8b 8d 18 01
	00 00		 mov	 rcx, QWORD PTR _Right$[rbp]
  00103	e8 00 00 00 00	 call	 ?_Myptr@?$_String_alloc@U?$_String_base_types@DV?$allocator@D@std@@@std@@@std@@QEBAPEBDXZ ; std::_String_alloc<std::_String_base_types<char,std::allocator<char> > >::_Myptr
  00108	48 03 85 20 01
	00 00		 add	 rax, QWORD PTR _Roff$[rbp]
  0010f	48 89 85 d8 00
	00 00		 mov	 QWORD PTR tv135[rbp], rax
  00116	48 8b 8d 10 01
	00 00		 mov	 rcx, QWORD PTR this$[rbp]
  0011d	e8 00 00 00 00	 call	 ?_Myptr@?$_String_alloc@U?$_String_base_types@DV?$allocator@D@std@@@std@@@std@@QEAAPEADXZ ; std::_String_alloc<std::_String_base_types<char,std::allocator<char> > >::_Myptr
  00122	48 89 85 e0 00
	00 00		 mov	 QWORD PTR tv142[rbp], rax
  00129	48 8b 8d 10 01
	00 00		 mov	 rcx, QWORD PTR this$[rbp]
  00130	e8 00 00 00 00	 call	 ?_Mysize@?$_String_alloc@U?$_String_base_types@DV?$allocator@D@std@@@std@@@std@@QEAAAEA_KXZ ; std::_String_alloc<std::_String_base_types<char,std::allocator<char> > >::_Mysize
  00135	48 8b 8d e0 00
	00 00		 mov	 rcx, QWORD PTR tv142[rbp]
  0013c	48 03 08	 add	 rcx, QWORD PTR [rax]
  0013f	48 8b c1	 mov	 rax, rcx
  00142	4c 8b 85 28 01
	00 00		 mov	 r8, QWORD PTR _Count$[rbp]
  00149	48 8b 8d d8 00
	00 00		 mov	 rcx, QWORD PTR tv135[rbp]
  00150	48 8b d1	 mov	 rdx, rcx
  00153	48 8b c8	 mov	 rcx, rax
  00156	e8 00 00 00 00	 call	 ?copy@?$char_traits@D@std@@SAPEADPEADPEBD_K@Z ; std::char_traits<char>::copy
; Line 1072
  0015b	48 8b 55 08	 mov	 rdx, QWORD PTR _Num$[rbp]
  0015f	48 8b 8d 10 01
	00 00		 mov	 rcx, QWORD PTR this$[rbp]
  00166	e8 00 00 00 00	 call	 ?_Eos@?$basic_string@DU?$char_traits@D@std@@V?$allocator@D@2@@std@@QEAAX_K@Z ; std::basic_string<char,std::char_traits<char>,std::allocator<char> >::_Eos
$LN5@append:
; Line 1074
  0016b	48 8b 85 10 01
	00 00		 mov	 rax, QWORD PTR this$[rbp]
$LN6@append:
; Line 1075
  00172	48 8d a5 f8 00
	00 00		 lea	 rsp, QWORD PTR [rbp+248]
  00179	5f		 pop	 rdi
  0017a	5d		 pop	 rbp
  0017b	c3		 ret	 0
?append@?$basic_string@DU?$char_traits@D@std@@V?$allocator@D@2@@std@@QEAAAEAV12@AEBV12@_K1@Z ENDP ; std::basic_string<char,std::char_traits<char>,std::allocator<char> >::append
_TEXT	ENDS
; Function compile flags: /Odtp /RTCsu /ZI
;	COMDAT ??Y?$basic_string@DU?$char_traits@D@std@@V?$allocator@D@2@@std@@QEAAAEAV01@PEBD@Z
_TEXT	SEGMENT
this$ = 224
_Ptr$ = 232
??Y?$basic_string@DU?$char_traits@D@std@@V?$allocator@D@2@@std@@QEAAAEAV01@PEBD@Z PROC ; std::basic_string<char,std::char_traits<char>,std::allocator<char> >::operator+=, COMDAT
; File d:\appdata\vsp\vc\include\xstring
; Line 1043
$LN3:
  00000	48 89 54 24 10	 mov	 QWORD PTR [rsp+16], rdx
  00005	48 89 4c 24 08	 mov	 QWORD PTR [rsp+8], rcx
  0000a	55		 push	 rbp
  0000b	57		 push	 rdi
  0000c	48 81 ec e8 00
	00 00		 sub	 rsp, 232		; 000000e8H
  00013	48 8d 6c 24 20	 lea	 rbp, QWORD PTR [rsp+32]
  00018	48 8b fc	 mov	 rdi, rsp
  0001b	b9 3a 00 00 00	 mov	 ecx, 58			; 0000003aH
  00020	b8 cc cc cc cc	 mov	 eax, -858993460		; ccccccccH
  00025	f3 ab		 rep stosd
  00027	48 8b 8c 24 08
	01 00 00	 mov	 rcx, QWORD PTR [rsp+264]
; Line 1044
  0002f	48 8b 95 e8 00
	00 00		 mov	 rdx, QWORD PTR _Ptr$[rbp]
  00036	48 8b 8d e0 00
	00 00		 mov	 rcx, QWORD PTR this$[rbp]
  0003d	e8 00 00 00 00	 call	 ?append@?$basic_string@DU?$char_traits@D@std@@V?$allocator@D@2@@std@@QEAAAEAV12@PEBD@Z ; std::basic_string<char,std::char_traits<char>,std::allocator<char> >::append
; Line 1045
  00042	48 8d a5 c8 00
	00 00		 lea	 rsp, QWORD PTR [rbp+200]
  00049	5f		 pop	 rdi
  0004a	5d		 pop	 rbp
  0004b	c3		 ret	 0
??Y?$basic_string@DU?$char_traits@D@std@@V?$allocator@D@2@@std@@QEAAAEAV01@PEBD@Z ENDP ; std::basic_string<char,std::char_traits<char>,std::allocator<char> >::operator+=
_TEXT	ENDS
; Function compile flags: /Odtp /RTCsu /ZI
;	COMDAT ??1?$basic_string@DU?$char_traits@D@std@@V?$allocator@D@2@@std@@QEAA@XZ
_TEXT	SEGMENT
$T1 = 200
this$ = 256
??1?$basic_string@DU?$char_traits@D@std@@V?$allocator@D@2@@std@@QEAA@XZ PROC ; std::basic_string<char,std::char_traits<char>,std::allocator<char> >::~basic_string<char,std::char_traits<char>,std::allocator<char> >, COMDAT
; File d:\appdata\vsp\vc\include\xstring
; Line 1005
$LN3:
  00000	48 89 4c 24 08	 mov	 QWORD PTR [rsp+8], rcx
  00005	55		 push	 rbp
  00006	57		 push	 rdi
  00007	48 81 ec 08 01
	00 00		 sub	 rsp, 264		; 00000108H
  0000e	48 8d 6c 24 20	 lea	 rbp, QWORD PTR [rsp+32]
  00013	48 8b fc	 mov	 rdi, rsp
  00016	b9 42 00 00 00	 mov	 ecx, 66			; 00000042H
  0001b	b8 cc cc cc cc	 mov	 eax, -858993460		; ccccccccH
  00020	f3 ab		 rep stosd
  00022	48 8b 8c 24 28
	01 00 00	 mov	 rcx, QWORD PTR [rsp+296]
  0002a	48 c7 85 c8 00
	00 00 fe ff ff
	ff		 mov	 QWORD PTR $T1[rbp], -2
; Line 1006
  00035	45 33 c0	 xor	 r8d, r8d
  00038	b2 01		 mov	 dl, 1
  0003a	48 8b 8d 00 01
	00 00		 mov	 rcx, QWORD PTR this$[rbp]
  00041	e8 00 00 00 00	 call	 ?_Tidy@?$basic_string@DU?$char_traits@D@std@@V?$allocator@D@2@@std@@QEAAX_N_K@Z ; std::basic_string<char,std::char_traits<char>,std::allocator<char> >::_Tidy
  00046	90		 npad	 1
; Line 1007
  00047	48 8b 8d 00 01
	00 00		 mov	 rcx, QWORD PTR this$[rbp]
  0004e	e8 00 00 00 00	 call	 ??1?$_String_alloc@U?$_String_base_types@DV?$allocator@D@std@@@std@@@std@@QEAA@XZ ; std::_String_alloc<std::_String_base_types<char,std::allocator<char> > >::~_String_alloc<std::_String_base_types<char,std::allocator<char> > >
  00053	90		 npad	 1
  00054	48 8d a5 e8 00
	00 00		 lea	 rsp, QWORD PTR [rbp+232]
  0005b	5f		 pop	 rdi
  0005c	5d		 pop	 rbp
  0005d	c3		 ret	 0
??1?$basic_string@DU?$char_traits@D@std@@V?$allocator@D@2@@std@@QEAA@XZ ENDP ; std::basic_string<char,std::char_traits<char>,std::allocator<char> >::~basic_string<char,std::char_traits<char>,std::allocator<char> >
_TEXT	ENDS
; Function compile flags: /Odtp /RTCsu /ZI
;	COMDAT ??0?$basic_string@DU?$char_traits@D@std@@V?$allocator@D@2@@std@@QEAA@PEBD@Z
_TEXT	SEGMENT
$T1 = 196
$T2 = 232
this$ = 288
_Ptr$ = 296
??0?$basic_string@DU?$char_traits@D@std@@V?$allocator@D@2@@std@@QEAA@PEBD@Z PROC ; std::basic_string<char,std::char_traits<char>,std::allocator<char> >::basic_string<char,std::char_traits<char>,std::allocator<char> >, COMDAT
; File d:\appdata\vsp\vc\include\xstring
; Line 824
$LN4:
  00000	48 89 54 24 10	 mov	 QWORD PTR [rsp+16], rdx
  00005	48 89 4c 24 08	 mov	 QWORD PTR [rsp+8], rcx
  0000a	55		 push	 rbp
  0000b	57		 push	 rdi
  0000c	48 81 ec 28 01
	00 00		 sub	 rsp, 296		; 00000128H
  00013	48 8d 6c 24 20	 lea	 rbp, QWORD PTR [rsp+32]
  00018	48 8b fc	 mov	 rdi, rsp
  0001b	b9 4a 00 00 00	 mov	 ecx, 74			; 0000004aH
  00020	b8 cc cc cc cc	 mov	 eax, -858993460		; ccccccccH
  00025	f3 ab		 rep stosd
  00027	48 8b 8c 24 48
	01 00 00	 mov	 rcx, QWORD PTR [rsp+328]
  0002f	48 c7 85 e8 00
	00 00 fe ff ff
	ff		 mov	 QWORD PTR $T2[rbp], -2
; Line 823
  0003a	48 8d 8d c4 00
	00 00		 lea	 rcx, QWORD PTR $T1[rbp]
  00041	e8 00 00 00 00	 call	 ??0?$allocator@D@std@@QEAA@XZ ; std::allocator<char>::allocator<char>
  00046	48 8b d0	 mov	 rdx, rax
  00049	48 8b 8d 20 01
	00 00		 mov	 rcx, QWORD PTR this$[rbp]
  00050	e8 00 00 00 00	 call	 ??0?$_String_alloc@U?$_String_base_types@DV?$allocator@D@std@@@std@@@std@@QEAA@AEBV?$allocator@D@1@@Z ; std::_String_alloc<std::_String_base_types<char,std::allocator<char> > >::_String_alloc<std::_String_base_types<char,std::allocator<char> > >
  00055	90		 npad	 1
; Line 825
  00056	45 33 c0	 xor	 r8d, r8d
  00059	33 d2		 xor	 edx, edx
  0005b	48 8b 8d 20 01
	00 00		 mov	 rcx, QWORD PTR this$[rbp]
  00062	e8 00 00 00 00	 call	 ?_Tidy@?$basic_string@DU?$char_traits@D@std@@V?$allocator@D@2@@std@@QEAAX_N_K@Z ; std::basic_string<char,std::char_traits<char>,std::allocator<char> >::_Tidy
; Line 826
  00067	48 8b 95 28 01
	00 00		 mov	 rdx, QWORD PTR _Ptr$[rbp]
  0006e	48 8b 8d 20 01
	00 00		 mov	 rcx, QWORD PTR this$[rbp]
  00075	e8 00 00 00 00	 call	 ?assign@?$basic_string@DU?$char_traits@D@std@@V?$allocator@D@2@@std@@QEAAAEAV12@PEBD@Z ; std::basic_string<char,std::char_traits<char>,std::allocator<char> >::assign
  0007a	90		 npad	 1
; Line 827
  0007b	48 8b 85 20 01
	00 00		 mov	 rax, QWORD PTR this$[rbp]
  00082	48 8d a5 08 01
	00 00		 lea	 rsp, QWORD PTR [rbp+264]
  00089	5f		 pop	 rdi
  0008a	5d		 pop	 rbp
  0008b	c3		 ret	 0
??0?$basic_string@DU?$char_traits@D@std@@V?$allocator@D@2@@std@@QEAA@PEBD@Z ENDP ; std::basic_string<char,std::char_traits<char>,std::allocator<char> >::basic_string<char,std::char_traits<char>,std::allocator<char> >
_TEXT	ENDS
;	COMDAT text$x
text$x	SEGMENT
$T1 = 196
$T2 = 232
this$ = 288
_Ptr$ = 296
?dtor$0@?0???0?$basic_string@DU?$char_traits@D@std@@V?$allocator@D@2@@std@@QEAA@PEBD@Z@4HA PROC ; `std::basic_string<char,std::char_traits<char>,std::allocator<char> >::basic_string<char,std::char_traits<char>,std::allocator<char> >'::`1'::dtor$0
  00000	48 89 4c 24 08	 mov	 QWORD PTR [rsp+8], rcx
  00005	48 89 54 24 10	 mov	 QWORD PTR [rsp+16], rdx
  0000a	55		 push	 rbp
  0000b	57		 push	 rdi
  0000c	48 83 ec 28	 sub	 rsp, 40			; 00000028H
  00010	48 8d 6a 20	 lea	 rbp, QWORD PTR [rdx+32]
  00014	48 8b 8d 20 01
	00 00		 mov	 rcx, QWORD PTR this$[rbp]
  0001b	e8 00 00 00 00	 call	 ??1?$_String_alloc@U?$_String_base_types@DV?$allocator@D@std@@@std@@@std@@QEAA@XZ ; std::_String_alloc<std::_String_base_types<char,std::allocator<char> > >::~_String_alloc<std::_String_base_types<char,std::allocator<char> > >
  00020	48 83 c4 28	 add	 rsp, 40			; 00000028H
  00024	5f		 pop	 rdi
  00025	5d		 pop	 rbp
  00026	c3		 ret	 0
?dtor$0@?0???0?$basic_string@DU?$char_traits@D@std@@V?$allocator@D@2@@std@@QEAA@PEBD@Z@4HA ENDP ; `std::basic_string<char,std::char_traits<char>,std::allocator<char> >::basic_string<char,std::char_traits<char>,std::allocator<char> >'::`1'::dtor$0
text$x	ENDS
; Function compile flags: /Odtp /RTCsu /ZI
;	COMDAT text$x
text$x	SEGMENT
$T1 = 196
$T2 = 232
this$ = 288
_Ptr$ = 296
?dtor$0@?0???0?$basic_string@DU?$char_traits@D@std@@V?$allocator@D@2@@std@@QEAA@PEBD@Z@4HA PROC ; `std::basic_string<char,std::char_traits<char>,std::allocator<char> >::basic_string<char,std::char_traits<char>,std::allocator<char> >'::`1'::dtor$0
  00000	48 89 4c 24 08	 mov	 QWORD PTR [rsp+8], rcx
  00005	48 89 54 24 10	 mov	 QWORD PTR [rsp+16], rdx
  0000a	55		 push	 rbp
  0000b	57		 push	 rdi
  0000c	48 83 ec 28	 sub	 rsp, 40			; 00000028H
  00010	48 8d 6a 20	 lea	 rbp, QWORD PTR [rdx+32]
  00014	48 8b 8d 20 01
	00 00		 mov	 rcx, QWORD PTR this$[rbp]
  0001b	e8 00 00 00 00	 call	 ??1?$_String_alloc@U?$_String_base_types@DV?$allocator@D@std@@@std@@@std@@QEAA@XZ ; std::_String_alloc<std::_String_base_types<char,std::allocator<char> > >::~_String_alloc<std::_String_base_types<char,std::allocator<char> > >
  00020	48 83 c4 28	 add	 rsp, 40			; 00000028H
  00024	5f		 pop	 rdi
  00025	5d		 pop	 rbp
  00026	c3		 ret	 0
?dtor$0@?0???0?$basic_string@DU?$char_traits@D@std@@V?$allocator@D@2@@std@@QEAA@PEBD@Z@4HA ENDP ; `std::basic_string<char,std::char_traits<char>,std::allocator<char> >::basic_string<char,std::char_traits<char>,std::allocator<char> >'::`1'::dtor$0
text$x	ENDS
; Function compile flags: /Odtp /RTCsu /ZI
;	COMDAT ??0?$basic_string@DU?$char_traits@D@std@@V?$allocator@D@2@@std@@QEAA@AEBV01@@Z
_TEXT	SEGMENT
$T1 = 196
$T2 = 228
$T3 = 264
this$ = 320
_Right$ = 328
??0?$basic_string@DU?$char_traits@D@std@@V?$allocator@D@2@@std@@QEAA@AEBV01@@Z PROC ; std::basic_string<char,std::char_traits<char>,std::allocator<char> >::basic_string<char,std::char_traits<char>,std::allocator<char> >, COMDAT
; File d:\appdata\vsp\vc\include\xstring
; Line 768
$LN4:
  00000	48 89 54 24 10	 mov	 QWORD PTR [rsp+16], rdx
  00005	48 89 4c 24 08	 mov	 QWORD PTR [rsp+8], rcx
  0000a	55		 push	 rbp
  0000b	57		 push	 rdi
  0000c	48 81 ec 48 01
	00 00		 sub	 rsp, 328		; 00000148H
  00013	48 8d 6c 24 20	 lea	 rbp, QWORD PTR [rsp+32]
  00018	48 8b fc	 mov	 rdi, rsp
  0001b	b9 52 00 00 00	 mov	 ecx, 82			; 00000052H
  00020	b8 cc cc cc cc	 mov	 eax, -858993460		; ccccccccH
  00025	f3 ab		 rep stosd
  00027	48 8b 8c 24 68
	01 00 00	 mov	 rcx, QWORD PTR [rsp+360]
  0002f	48 c7 85 08 01
	00 00 fe ff ff
	ff		 mov	 QWORD PTR $T3[rbp], -2
; Line 765
  0003a	48 8b 8d 48 01
	00 00		 mov	 rcx, QWORD PTR _Right$[rbp]
  00041	e8 00 00 00 00	 call	 ?_Getal@?$_String_alloc@U?$_String_base_types@DV?$allocator@D@std@@@std@@@std@@QEBAAEBU?$_Wrap_alloc@V?$allocator@D@std@@@2@XZ ; std::_String_alloc<std::_String_base_types<char,std::allocator<char> > >::_Getal
  00046	44 0f b6 85 c4
	00 00 00	 movzx	 r8d, BYTE PTR $T1[rbp]
  0004e	48 8d 95 e4 00
	00 00		 lea	 rdx, QWORD PTR $T2[rbp]
  00055	48 8b c8	 mov	 rcx, rax
  00058	e8 00 00 00 00	 call	 ?select_on_container_copy_construction@?$_Wrap_alloc@V?$allocator@D@std@@@std@@QEBA?AU12@U_Nil@2@@Z ; std::_Wrap_alloc<std::allocator<char> >::select_on_container_copy_construction
  0005d	48 8b d0	 mov	 rdx, rax
  00060	48 8b 8d 40 01
	00 00		 mov	 rcx, QWORD PTR this$[rbp]
  00067	e8 00 00 00 00	 call	 ??0?$_String_alloc@U?$_String_base_types@DV?$allocator@D@std@@@std@@@std@@QEAA@$$QEAV?$allocator@D@1@@Z ; std::_String_alloc<std::_String_base_types<char,std::allocator<char> > >::_String_alloc<std::_String_base_types<char,std::allocator<char> > >
  0006c	90		 npad	 1
; Line 769
  0006d	45 33 c0	 xor	 r8d, r8d
  00070	33 d2		 xor	 edx, edx
  00072	48 8b 8d 40 01
	00 00		 mov	 rcx, QWORD PTR this$[rbp]
  00079	e8 00 00 00 00	 call	 ?_Tidy@?$basic_string@DU?$char_traits@D@std@@V?$allocator@D@2@@std@@QEAAX_N_K@Z ; std::basic_string<char,std::char_traits<char>,std::allocator<char> >::_Tidy
; Line 770
  0007e	4c 8b 0d 00 00
	00 00		 mov	 r9, QWORD PTR ?npos@?$basic_string@DU?$char_traits@D@std@@V?$allocator@D@2@@std@@2_KB ; std::basic_string<char,std::char_traits<char>,std::allocator<char> >::npos
  00085	45 33 c0	 xor	 r8d, r8d
  00088	48 8b 95 48 01
	00 00		 mov	 rdx, QWORD PTR _Right$[rbp]
  0008f	48 8b 8d 40 01
	00 00		 mov	 rcx, QWORD PTR this$[rbp]
  00096	e8 00 00 00 00	 call	 ?assign@?$basic_string@DU?$char_traits@D@std@@V?$allocator@D@2@@std@@QEAAAEAV12@AEBV12@_K1@Z ; std::basic_string<char,std::char_traits<char>,std::allocator<char> >::assign
  0009b	90		 npad	 1
; Line 771
  0009c	48 8b 85 40 01
	00 00		 mov	 rax, QWORD PTR this$[rbp]
  000a3	48 8d a5 28 01
	00 00		 lea	 rsp, QWORD PTR [rbp+296]
  000aa	5f		 pop	 rdi
  000ab	5d		 pop	 rbp
  000ac	c3		 ret	 0
??0?$basic_string@DU?$char_traits@D@std@@V?$allocator@D@2@@std@@QEAA@AEBV01@@Z ENDP ; std::basic_string<char,std::char_traits<char>,std::allocator<char> >::basic_string<char,std::char_traits<char>,std::allocator<char> >
_TEXT	ENDS
;	COMDAT text$x
text$x	SEGMENT
$T1 = 196
$T2 = 228
$T3 = 264
this$ = 320
_Right$ = 328
?dtor$0@?0???0?$basic_string@DU?$char_traits@D@std@@V?$allocator@D@2@@std@@QEAA@AEBV01@@Z@4HA PROC ; `std::basic_string<char,std::char_traits<char>,std::allocator<char> >::basic_string<char,std::char_traits<char>,std::allocator<char> >'::`1'::dtor$0
  00000	48 89 4c 24 08	 mov	 QWORD PTR [rsp+8], rcx
  00005	48 89 54 24 10	 mov	 QWORD PTR [rsp+16], rdx
  0000a	55		 push	 rbp
  0000b	57		 push	 rdi
  0000c	48 83 ec 28	 sub	 rsp, 40			; 00000028H
  00010	48 8d 6a 20	 lea	 rbp, QWORD PTR [rdx+32]
  00014	48 8b 8d 40 01
	00 00		 mov	 rcx, QWORD PTR this$[rbp]
  0001b	e8 00 00 00 00	 call	 ??1?$_String_alloc@U?$_String_base_types@DV?$allocator@D@std@@@std@@@std@@QEAA@XZ ; std::_String_alloc<std::_String_base_types<char,std::allocator<char> > >::~_String_alloc<std::_String_base_types<char,std::allocator<char> > >
  00020	48 83 c4 28	 add	 rsp, 40			; 00000028H
  00024	5f		 pop	 rdi
  00025	5d		 pop	 rbp
  00026	c3		 ret	 0
?dtor$0@?0???0?$basic_string@DU?$char_traits@D@std@@V?$allocator@D@2@@std@@QEAA@AEBV01@@Z@4HA ENDP ; `std::basic_string<char,std::char_traits<char>,std::allocator<char> >::basic_string<char,std::char_traits<char>,std::allocator<char> >'::`1'::dtor$0
text$x	ENDS
; Function compile flags: /Odtp /RTCsu /ZI
;	COMDAT text$x
text$x	SEGMENT
$T1 = 196
$T2 = 228
$T3 = 264
this$ = 320
_Right$ = 328
?dtor$0@?0???0?$basic_string@DU?$char_traits@D@std@@V?$allocator@D@2@@std@@QEAA@AEBV01@@Z@4HA PROC ; `std::basic_string<char,std::char_traits<char>,std::allocator<char> >::basic_string<char,std::char_traits<char>,std::allocator<char> >'::`1'::dtor$0
  00000	48 89 4c 24 08	 mov	 QWORD PTR [rsp+8], rcx
  00005	48 89 54 24 10	 mov	 QWORD PTR [rsp+16], rdx
  0000a	55		 push	 rbp
  0000b	57		 push	 rdi
  0000c	48 83 ec 28	 sub	 rsp, 40			; 00000028H
  00010	48 8d 6a 20	 lea	 rbp, QWORD PTR [rdx+32]
  00014	48 8b 8d 40 01
	00 00		 mov	 rcx, QWORD PTR this$[rbp]
  0001b	e8 00 00 00 00	 call	 ??1?$_String_alloc@U?$_String_base_types@DV?$allocator@D@std@@@std@@@std@@QEAA@XZ ; std::_String_alloc<std::_String_base_types<char,std::allocator<char> > >::~_String_alloc<std::_String_base_types<char,std::allocator<char> > >
  00020	48 83 c4 28	 add	 rsp, 40			; 00000028H
  00024	5f		 pop	 rdi
  00025	5d		 pop	 rbp
  00026	c3		 ret	 0
?dtor$0@?0???0?$basic_string@DU?$char_traits@D@std@@V?$allocator@D@2@@std@@QEAA@AEBV01@@Z@4HA ENDP ; `std::basic_string<char,std::char_traits<char>,std::allocator<char> >::basic_string<char,std::char_traits<char>,std::allocator<char> >'::`1'::dtor$0
text$x	ENDS
; Function compile flags: /Odtp /RTCsu /ZI
;	COMDAT ??1?$_Compressed_pair@U?$_Wrap_alloc@V?$allocator@D@std@@@std@@V?$_String_val@U?$_Simple_types@D@std@@@2@$00@std@@QEAA@XZ
_TEXT	SEGMENT
this$ = 224
??1?$_Compressed_pair@U?$_Wrap_alloc@V?$allocator@D@std@@@std@@V?$_String_val@U?$_Simple_types@D@std@@@2@$00@std@@QEAA@XZ PROC ; std::_Compressed_pair<std::_Wrap_alloc<std::allocator<char> >,std::_String_val<std::_Simple_types<char> >,1>::~_Compressed_pair<std::_Wrap_alloc<std::allocator<char> >,std::_String_val<std::_Simple_types<char> >,1>, COMDAT
$LN3:
  00000	48 89 4c 24 08	 mov	 QWORD PTR [rsp+8], rcx
  00005	55		 push	 rbp
  00006	57		 push	 rdi
  00007	48 81 ec e8 00
	00 00		 sub	 rsp, 232		; 000000e8H
  0000e	48 8d 6c 24 20	 lea	 rbp, QWORD PTR [rsp+32]
  00013	48 8b fc	 mov	 rdi, rsp
  00016	b9 3a 00 00 00	 mov	 ecx, 58			; 0000003aH
  0001b	b8 cc cc cc cc	 mov	 eax, -858993460		; ccccccccH
  00020	f3 ab		 rep stosd
  00022	48 8b 8c 24 08
	01 00 00	 mov	 rcx, QWORD PTR [rsp+264]
  0002a	48 8b 85 e0 00
	00 00		 mov	 rax, QWORD PTR this$[rbp]
  00031	48 8b c8	 mov	 rcx, rax
  00034	e8 00 00 00 00	 call	 ??1?$_String_val@U?$_Simple_types@D@std@@@std@@QEAA@XZ
  00039	48 8d a5 c8 00
	00 00		 lea	 rsp, QWORD PTR [rbp+200]
  00040	5f		 pop	 rdi
  00041	5d		 pop	 rbp
  00042	c3		 ret	 0
??1?$_Compressed_pair@U?$_Wrap_alloc@V?$allocator@D@std@@@std@@V?$_String_val@U?$_Simple_types@D@std@@@2@$00@std@@QEAA@XZ ENDP ; std::_Compressed_pair<std::_Wrap_alloc<std::allocator<char> >,std::_String_val<std::_Simple_types<char> >,1>::~_Compressed_pair<std::_Wrap_alloc<std::allocator<char> >,std::_String_val<std::_Simple_types<char> >,1>
_TEXT	ENDS
; Function compile flags: /Odtp /RTCsu /ZI
;	COMDAT ?_Get_second@?$_Compressed_pair@U?$_Wrap_alloc@V?$allocator@D@std@@@std@@V?$_String_val@U?$_Simple_types@D@std@@@2@$00@std@@QEBAAEBV?$_String_val@U?$_Simple_types@D@std@@@2@XZ
_TEXT	SEGMENT
this$ = 224
?_Get_second@?$_Compressed_pair@U?$_Wrap_alloc@V?$allocator@D@std@@@std@@V?$_String_val@U?$_Simple_types@D@std@@@2@$00@std@@QEBAAEBV?$_String_val@U?$_Simple_types@D@std@@@2@XZ PROC ; std::_Compressed_pair<std::_Wrap_alloc<std::allocator<char> >,std::_String_val<std::_Simple_types<char> >,1>::_Get_second, COMDAT
; File d:\appdata\vsp\vc\include\xutility
; Line 318
$LN3:
  00000	48 89 4c 24 08	 mov	 QWORD PTR [rsp+8], rcx
  00005	55		 push	 rbp
  00006	57		 push	 rdi
  00007	48 81 ec c8 00
	00 00		 sub	 rsp, 200		; 000000c8H
  0000e	48 8b ec	 mov	 rbp, rsp
  00011	48 8b fc	 mov	 rdi, rsp
  00014	b9 32 00 00 00	 mov	 ecx, 50			; 00000032H
  00019	b8 cc cc cc cc	 mov	 eax, -858993460		; ccccccccH
  0001e	f3 ab		 rep stosd
  00020	48 8b 8c 24 e8
	00 00 00	 mov	 rcx, QWORD PTR [rsp+232]
; Line 319
  00028	48 8b 85 e0 00
	00 00		 mov	 rax, QWORD PTR this$[rbp]
; Line 320
  0002f	48 8d a5 c8 00
	00 00		 lea	 rsp, QWORD PTR [rbp+200]
  00036	5f		 pop	 rdi
  00037	5d		 pop	 rbp
  00038	c3		 ret	 0
?_Get_second@?$_Compressed_pair@U?$_Wrap_alloc@V?$allocator@D@std@@@std@@V?$_String_val@U?$_Simple_types@D@std@@@2@$00@std@@QEBAAEBV?$_String_val@U?$_Simple_types@D@std@@@2@XZ ENDP ; std::_Compressed_pair<std::_Wrap_alloc<std::allocator<char> >,std::_String_val<std::_Simple_types<char> >,1>::_Get_second
_TEXT	ENDS
; Function compile flags: /Odtp /RTCsu /ZI
;	COMDAT ?_Get_second@?$_Compressed_pair@U?$_Wrap_alloc@V?$allocator@D@std@@@std@@V?$_String_val@U?$_Simple_types@D@std@@@2@$00@std@@QEAAAEAV?$_String_val@U?$_Simple_types@D@std@@@2@XZ
_TEXT	SEGMENT
this$ = 224
?_Get_second@?$_Compressed_pair@U?$_Wrap_alloc@V?$allocator@D@std@@@std@@V?$_String_val@U?$_Simple_types@D@std@@@2@$00@std@@QEAAAEAV?$_String_val@U?$_Simple_types@D@std@@@2@XZ PROC ; std::_Compressed_pair<std::_Wrap_alloc<std::allocator<char> >,std::_String_val<std::_Simple_types<char> >,1>::_Get_second, COMDAT
; File d:\appdata\vsp\vc\include\xutility
; Line 313
$LN3:
  00000	48 89 4c 24 08	 mov	 QWORD PTR [rsp+8], rcx
  00005	55		 push	 rbp
  00006	57		 push	 rdi
  00007	48 81 ec c8 00
	00 00		 sub	 rsp, 200		; 000000c8H
  0000e	48 8b ec	 mov	 rbp, rsp
  00011	48 8b fc	 mov	 rdi, rsp
  00014	b9 32 00 00 00	 mov	 ecx, 50			; 00000032H
  00019	b8 cc cc cc cc	 mov	 eax, -858993460		; ccccccccH
  0001e	f3 ab		 rep stosd
  00020	48 8b 8c 24 e8
	00 00 00	 mov	 rcx, QWORD PTR [rsp+232]
; Line 314
  00028	48 8b 85 e0 00
	00 00		 mov	 rax, QWORD PTR this$[rbp]
; Line 315
  0002f	48 8d a5 c8 00
	00 00		 lea	 rsp, QWORD PTR [rbp+200]
  00036	5f		 pop	 rdi
  00037	5d		 pop	 rbp
  00038	c3		 ret	 0
?_Get_second@?$_Compressed_pair@U?$_Wrap_alloc@V?$allocator@D@std@@@std@@V?$_String_val@U?$_Simple_types@D@std@@@2@$00@std@@QEAAAEAV?$_String_val@U?$_Simple_types@D@std@@@2@XZ ENDP ; std::_Compressed_pair<std::_Wrap_alloc<std::allocator<char> >,std::_String_val<std::_Simple_types<char> >,1>::_Get_second
_TEXT	ENDS
; Function compile flags: /Odtp /RTCsu /ZI
;	COMDAT ?_Get_first@?$_Compressed_pair@U?$_Wrap_alloc@V?$allocator@D@std@@@std@@V?$_String_val@U?$_Simple_types@D@std@@@2@$00@std@@QEBAAEBU?$_Wrap_alloc@V?$allocator@D@std@@@2@XZ
_TEXT	SEGMENT
this$ = 224
?_Get_first@?$_Compressed_pair@U?$_Wrap_alloc@V?$allocator@D@std@@@std@@V?$_String_val@U?$_Simple_types@D@std@@@2@$00@std@@QEBAAEBU?$_Wrap_alloc@V?$allocator@D@std@@@2@XZ PROC ; std::_Compressed_pair<std::_Wrap_alloc<std::allocator<char> >,std::_String_val<std::_Simple_types<char> >,1>::_Get_first, COMDAT
; File d:\appdata\vsp\vc\include\xutility
; Line 298
$LN3:
  00000	48 89 4c 24 08	 mov	 QWORD PTR [rsp+8], rcx
  00005	55		 push	 rbp
  00006	57		 push	 rdi
  00007	48 81 ec c8 00
	00 00		 sub	 rsp, 200		; 000000c8H
  0000e	48 8b ec	 mov	 rbp, rsp
  00011	48 8b fc	 mov	 rdi, rsp
  00014	b9 32 00 00 00	 mov	 ecx, 50			; 00000032H
  00019	b8 cc cc cc cc	 mov	 eax, -858993460		; ccccccccH
  0001e	f3 ab		 rep stosd
  00020	48 8b 8c 24 e8
	00 00 00	 mov	 rcx, QWORD PTR [rsp+232]
; Line 299
  00028	48 8b 85 e0 00
	00 00		 mov	 rax, QWORD PTR this$[rbp]
; Line 300
  0002f	48 8d a5 c8 00
	00 00		 lea	 rsp, QWORD PTR [rbp+200]
  00036	5f		 pop	 rdi
  00037	5d		 pop	 rbp
  00038	c3		 ret	 0
?_Get_first@?$_Compressed_pair@U?$_Wrap_alloc@V?$allocator@D@std@@@std@@V?$_String_val@U?$_Simple_types@D@std@@@2@$00@std@@QEBAAEBU?$_Wrap_alloc@V?$allocator@D@std@@@2@XZ ENDP ; std::_Compressed_pair<std::_Wrap_alloc<std::allocator<char> >,std::_String_val<std::_Simple_types<char> >,1>::_Get_first
_TEXT	ENDS
; Function compile flags: /Odtp /RTCsu /ZI
;	COMDAT ?_Get_first@?$_Compressed_pair@U?$_Wrap_alloc@V?$allocator@D@std@@@std@@V?$_String_val@U?$_Simple_types@D@std@@@2@$00@std@@QEAAAEAU?$_Wrap_alloc@V?$allocator@D@std@@@2@XZ
_TEXT	SEGMENT
this$ = 224
?_Get_first@?$_Compressed_pair@U?$_Wrap_alloc@V?$allocator@D@std@@@std@@V?$_String_val@U?$_Simple_types@D@std@@@2@$00@std@@QEAAAEAU?$_Wrap_alloc@V?$allocator@D@std@@@2@XZ PROC ; std::_Compressed_pair<std::_Wrap_alloc<std::allocator<char> >,std::_String_val<std::_Simple_types<char> >,1>::_Get_first, COMDAT
; File d:\appdata\vsp\vc\include\xutility
; Line 293
$LN3:
  00000	48 89 4c 24 08	 mov	 QWORD PTR [rsp+8], rcx
  00005	55		 push	 rbp
  00006	57		 push	 rdi
  00007	48 81 ec c8 00
	00 00		 sub	 rsp, 200		; 000000c8H
  0000e	48 8b ec	 mov	 rbp, rsp
  00011	48 8b fc	 mov	 rdi, rsp
  00014	b9 32 00 00 00	 mov	 ecx, 50			; 00000032H
  00019	b8 cc cc cc cc	 mov	 eax, -858993460		; ccccccccH
  0001e	f3 ab		 rep stosd
  00020	48 8b 8c 24 e8
	00 00 00	 mov	 rcx, QWORD PTR [rsp+232]
; Line 294
  00028	48 8b 85 e0 00
	00 00		 mov	 rax, QWORD PTR this$[rbp]
; Line 295
  0002f	48 8d a5 c8 00
	00 00		 lea	 rsp, QWORD PTR [rbp+200]
  00036	5f		 pop	 rdi
  00037	5d		 pop	 rbp
  00038	c3		 ret	 0
?_Get_first@?$_Compressed_pair@U?$_Wrap_alloc@V?$allocator@D@std@@@std@@V?$_String_val@U?$_Simple_types@D@std@@@2@$00@std@@QEAAAEAU?$_Wrap_alloc@V?$allocator@D@std@@@2@XZ ENDP ; std::_Compressed_pair<std::_Wrap_alloc<std::allocator<char> >,std::_String_val<std::_Simple_types<char> >,1>::_Get_first
_TEXT	ENDS
; Function compile flags: /Odtp /RTCsu /ZI
;	COMDAT ?_Myres@?$_String_alloc@U?$_String_base_types@DV?$allocator@D@std@@@std@@@std@@QEAAAEA_KXZ
_TEXT	SEGMENT
this$ = 224
?_Myres@?$_String_alloc@U?$_String_base_types@DV?$allocator@D@std@@@std@@@std@@QEAAAEA_KXZ PROC ; std::_String_alloc<std::_String_base_types<char,std::allocator<char> > >::_Myres, COMDAT
; File d:\appdata\vsp\vc\include\xstring
; Line 721
$LN3:
  00000	48 89 4c 24 08	 mov	 QWORD PTR [rsp+8], rcx
  00005	55		 push	 rbp
  00006	57		 push	 rdi
  00007	48 81 ec e8 00
	00 00		 sub	 rsp, 232		; 000000e8H
  0000e	48 8d 6c 24 20	 lea	 rbp, QWORD PTR [rsp+32]
  00013	48 8b fc	 mov	 rdi, rsp
  00016	b9 3a 00 00 00	 mov	 ecx, 58			; 0000003aH
  0001b	b8 cc cc cc cc	 mov	 eax, -858993460		; ccccccccH
  00020	f3 ab		 rep stosd
  00022	48 8b 8c 24 08
	01 00 00	 mov	 rcx, QWORD PTR [rsp+264]
; Line 722
  0002a	48 8b 8d e0 00
	00 00		 mov	 rcx, QWORD PTR this$[rbp]
  00031	e8 00 00 00 00	 call	 ?_Get_data@?$_String_alloc@U?$_String_base_types@DV?$allocator@D@std@@@std@@@std@@QEAAAEAV?$_String_val@U?$_Simple_types@D@std@@@2@XZ ; std::_String_alloc<std::_String_base_types<char,std::allocator<char> > >::_Get_data
  00036	48 83 c0 20	 add	 rax, 32			; 00000020H
; Line 723
  0003a	48 8d a5 c8 00
	00 00		 lea	 rsp, QWORD PTR [rbp+200]
  00041	5f		 pop	 rdi
  00042	5d		 pop	 rbp
  00043	c3		 ret	 0
?_Myres@?$_String_alloc@U?$_String_base_types@DV?$allocator@D@std@@@std@@@std@@QEAAAEA_KXZ ENDP ; std::_String_alloc<std::_String_base_types<char,std::allocator<char> > >::_Myres
_TEXT	ENDS
; Function compile flags: /Odtp /RTCsu /ZI
;	COMDAT ?_Mysize@?$_String_alloc@U?$_String_base_types@DV?$allocator@D@std@@@std@@@std@@QEBAAEB_KXZ
_TEXT	SEGMENT
this$ = 224
?_Mysize@?$_String_alloc@U?$_String_base_types@DV?$allocator@D@std@@@std@@@std@@QEBAAEB_KXZ PROC ; std::_String_alloc<std::_String_base_types<char,std::allocator<char> > >::_Mysize, COMDAT
; File d:\appdata\vsp\vc\include\xstring
; Line 716
$LN3:
  00000	48 89 4c 24 08	 mov	 QWORD PTR [rsp+8], rcx
  00005	55		 push	 rbp
  00006	57		 push	 rdi
  00007	48 81 ec e8 00
	00 00		 sub	 rsp, 232		; 000000e8H
  0000e	48 8d 6c 24 20	 lea	 rbp, QWORD PTR [rsp+32]
  00013	48 8b fc	 mov	 rdi, rsp
  00016	b9 3a 00 00 00	 mov	 ecx, 58			; 0000003aH
  0001b	b8 cc cc cc cc	 mov	 eax, -858993460		; ccccccccH
  00020	f3 ab		 rep stosd
  00022	48 8b 8c 24 08
	01 00 00	 mov	 rcx, QWORD PTR [rsp+264]
; Line 717
  0002a	48 8b 8d e0 00
	00 00		 mov	 rcx, QWORD PTR this$[rbp]
  00031	e8 00 00 00 00	 call	 ?_Get_data@?$_String_alloc@U?$_String_base_types@DV?$allocator@D@std@@@std@@@std@@QEBAAEBV?$_String_val@U?$_Simple_types@D@std@@@2@XZ ; std::_String_alloc<std::_String_base_types<char,std::allocator<char> > >::_Get_data
  00036	48 83 c0 18	 add	 rax, 24
; Line 718
  0003a	48 8d a5 c8 00
	00 00		 lea	 rsp, QWORD PTR [rbp+200]
  00041	5f		 pop	 rdi
  00042	5d		 pop	 rbp
  00043	c3		 ret	 0
?_Mysize@?$_String_alloc@U?$_String_base_types@DV?$allocator@D@std@@@std@@@std@@QEBAAEB_KXZ ENDP ; std::_String_alloc<std::_String_base_types<char,std::allocator<char> > >::_Mysize
_TEXT	ENDS
; Function compile flags: /Odtp /RTCsu /ZI
;	COMDAT ?_Mysize@?$_String_alloc@U?$_String_base_types@DV?$allocator@D@std@@@std@@@std@@QEAAAEA_KXZ
_TEXT	SEGMENT
this$ = 224
?_Mysize@?$_String_alloc@U?$_String_base_types@DV?$allocator@D@std@@@std@@@std@@QEAAAEA_KXZ PROC ; std::_String_alloc<std::_String_base_types<char,std::allocator<char> > >::_Mysize, COMDAT
; File d:\appdata\vsp\vc\include\xstring
; Line 711
$LN3:
  00000	48 89 4c 24 08	 mov	 QWORD PTR [rsp+8], rcx
  00005	55		 push	 rbp
  00006	57		 push	 rdi
  00007	48 81 ec e8 00
	00 00		 sub	 rsp, 232		; 000000e8H
  0000e	48 8d 6c 24 20	 lea	 rbp, QWORD PTR [rsp+32]
  00013	48 8b fc	 mov	 rdi, rsp
  00016	b9 3a 00 00 00	 mov	 ecx, 58			; 0000003aH
  0001b	b8 cc cc cc cc	 mov	 eax, -858993460		; ccccccccH
  00020	f3 ab		 rep stosd
  00022	48 8b 8c 24 08
	01 00 00	 mov	 rcx, QWORD PTR [rsp+264]
; Line 712
  0002a	48 8b 8d e0 00
	00 00		 mov	 rcx, QWORD PTR this$[rbp]
  00031	e8 00 00 00 00	 call	 ?_Get_data@?$_String_alloc@U?$_String_base_types@DV?$allocator@D@std@@@std@@@std@@QEAAAEAV?$_String_val@U?$_Simple_types@D@std@@@2@XZ ; std::_String_alloc<std::_String_base_types<char,std::allocator<char> > >::_Get_data
  00036	48 83 c0 18	 add	 rax, 24
; Line 713
  0003a	48 8d a5 c8 00
	00 00		 lea	 rsp, QWORD PTR [rbp+200]
  00041	5f		 pop	 rdi
  00042	5d		 pop	 rbp
  00043	c3		 ret	 0
?_Mysize@?$_String_alloc@U?$_String_base_types@DV?$allocator@D@std@@@std@@@std@@QEAAAEA_KXZ ENDP ; std::_String_alloc<std::_String_base_types<char,std::allocator<char> > >::_Mysize
_TEXT	ENDS
; Function compile flags: /Odtp /RTCsu /ZI
;	COMDAT ?_Bx@?$_String_alloc@U?$_String_base_types@DV?$allocator@D@std@@@std@@@std@@QEAAAEAT_Bxty@?$_String_val@U?$_Simple_types@D@std@@@2@XZ
_TEXT	SEGMENT
this$ = 224
?_Bx@?$_String_alloc@U?$_String_base_types@DV?$allocator@D@std@@@std@@@std@@QEAAAEAT_Bxty@?$_String_val@U?$_Simple_types@D@std@@@2@XZ PROC ; std::_String_alloc<std::_String_base_types<char,std::allocator<char> > >::_Bx, COMDAT
; File d:\appdata\vsp\vc\include\xstring
; Line 701
$LN3:
  00000	48 89 4c 24 08	 mov	 QWORD PTR [rsp+8], rcx
  00005	55		 push	 rbp
  00006	57		 push	 rdi
  00007	48 81 ec e8 00
	00 00		 sub	 rsp, 232		; 000000e8H
  0000e	48 8d 6c 24 20	 lea	 rbp, QWORD PTR [rsp+32]
  00013	48 8b fc	 mov	 rdi, rsp
  00016	b9 3a 00 00 00	 mov	 ecx, 58			; 0000003aH
  0001b	b8 cc cc cc cc	 mov	 eax, -858993460		; ccccccccH
  00020	f3 ab		 rep stosd
  00022	48 8b 8c 24 08
	01 00 00	 mov	 rcx, QWORD PTR [rsp+264]
; Line 702
  0002a	48 8b 8d e0 00
	00 00		 mov	 rcx, QWORD PTR this$[rbp]
  00031	e8 00 00 00 00	 call	 ?_Get_data@?$_String_alloc@U?$_String_base_types@DV?$allocator@D@std@@@std@@@std@@QEAAAEAV?$_String_val@U?$_Simple_types@D@std@@@2@XZ ; std::_String_alloc<std::_String_base_types<char,std::allocator<char> > >::_Get_data
  00036	48 83 c0 08	 add	 rax, 8
; Line 703
  0003a	48 8d a5 c8 00
	00 00		 lea	 rsp, QWORD PTR [rbp+200]
  00041	5f		 pop	 rdi
  00042	5d		 pop	 rbp
  00043	c3		 ret	 0
?_Bx@?$_String_alloc@U?$_String_base_types@DV?$allocator@D@std@@@std@@@std@@QEAAAEAT_Bxty@?$_String_val@U?$_Simple_types@D@std@@@2@XZ ENDP ; std::_String_alloc<std::_String_base_types<char,std::allocator<char> > >::_Bx
_TEXT	ENDS
; Function compile flags: /Odtp /RTCsu /ZI
;	COMDAT ?_Get_data@?$_String_alloc@U?$_String_base_types@DV?$allocator@D@std@@@std@@@std@@QEBAAEBV?$_String_val@U?$_Simple_types@D@std@@@2@XZ
_TEXT	SEGMENT
this$ = 224
?_Get_data@?$_String_alloc@U?$_String_base_types@DV?$allocator@D@std@@@std@@@std@@QEBAAEBV?$_String_val@U?$_Simple_types@D@std@@@2@XZ PROC ; std::_String_alloc<std::_String_base_types<char,std::allocator<char> > >::_Get_data, COMDAT
; File d:\appdata\vsp\vc\include\xstring
; Line 694
$LN3:
  00000	48 89 4c 24 08	 mov	 QWORD PTR [rsp+8], rcx
  00005	55		 push	 rbp
  00006	57		 push	 rdi
  00007	48 81 ec e8 00
	00 00		 sub	 rsp, 232		; 000000e8H
  0000e	48 8d 6c 24 20	 lea	 rbp, QWORD PTR [rsp+32]
  00013	48 8b fc	 mov	 rdi, rsp
  00016	b9 3a 00 00 00	 mov	 ecx, 58			; 0000003aH
  0001b	b8 cc cc cc cc	 mov	 eax, -858993460		; ccccccccH
  00020	f3 ab		 rep stosd
  00022	48 8b 8c 24 08
	01 00 00	 mov	 rcx, QWORD PTR [rsp+264]
; Line 695
  0002a	48 8b 85 e0 00
	00 00		 mov	 rax, QWORD PTR this$[rbp]
  00031	48 8b c8	 mov	 rcx, rax
  00034	e8 00 00 00 00	 call	 ?_Get_second@?$_Compressed_pair@U?$_Wrap_alloc@V?$allocator@D@std@@@std@@V?$_String_val@U?$_Simple_types@D@std@@@2@$00@std@@QEBAAEBV?$_String_val@U?$_Simple_types@D@std@@@2@XZ ; std::_Compressed_pair<std::_Wrap_alloc<std::allocator<char> >,std::_String_val<std::_Simple_types<char> >,1>::_Get_second
; Line 696
  00039	48 8d a5 c8 00
	00 00		 lea	 rsp, QWORD PTR [rbp+200]
  00040	5f		 pop	 rdi
  00041	5d		 pop	 rbp
  00042	c3		 ret	 0
?_Get_data@?$_String_alloc@U?$_String_base_types@DV?$allocator@D@std@@@std@@@std@@QEBAAEBV?$_String_val@U?$_Simple_types@D@std@@@2@XZ ENDP ; std::_String_alloc<std::_String_base_types<char,std::allocator<char> > >::_Get_data
_TEXT	ENDS
; Function compile flags: /Odtp /RTCsu /ZI
;	COMDAT ?_Get_data@?$_String_alloc@U?$_String_base_types@DV?$allocator@D@std@@@std@@@std@@QEAAAEAV?$_String_val@U?$_Simple_types@D@std@@@2@XZ
_TEXT	SEGMENT
this$ = 224
?_Get_data@?$_String_alloc@U?$_String_base_types@DV?$allocator@D@std@@@std@@@std@@QEAAAEAV?$_String_val@U?$_Simple_types@D@std@@@2@XZ PROC ; std::_String_alloc<std::_String_base_types<char,std::allocator<char> > >::_Get_data, COMDAT
; File d:\appdata\vsp\vc\include\xstring
; Line 689
$LN3:
  00000	48 89 4c 24 08	 mov	 QWORD PTR [rsp+8], rcx
  00005	55		 push	 rbp
  00006	57		 push	 rdi
  00007	48 81 ec e8 00
	00 00		 sub	 rsp, 232		; 000000e8H
  0000e	48 8d 6c 24 20	 lea	 rbp, QWORD PTR [rsp+32]
  00013	48 8b fc	 mov	 rdi, rsp
  00016	b9 3a 00 00 00	 mov	 ecx, 58			; 0000003aH
  0001b	b8 cc cc cc cc	 mov	 eax, -858993460		; ccccccccH
  00020	f3 ab		 rep stosd
  00022	48 8b 8c 24 08
	01 00 00	 mov	 rcx, QWORD PTR [rsp+264]
; Line 690
  0002a	48 8b 85 e0 00
	00 00		 mov	 rax, QWORD PTR this$[rbp]
  00031	48 8b c8	 mov	 rcx, rax
  00034	e8 00 00 00 00	 call	 ?_Get_second@?$_Compressed_pair@U?$_Wrap_alloc@V?$allocator@D@std@@@std@@V?$_String_val@U?$_Simple_types@D@std@@@2@$00@std@@QEAAAEAV?$_String_val@U?$_Simple_types@D@std@@@2@XZ ; std::_Compressed_pair<std::_Wrap_alloc<std::allocator<char> >,std::_String_val<std::_Simple_types<char> >,1>::_Get_second
; Line 691
  00039	48 8d a5 c8 00
	00 00		 lea	 rsp, QWORD PTR [rbp+200]
  00040	5f		 pop	 rdi
  00041	5d		 pop	 rbp
  00042	c3		 ret	 0
?_Get_data@?$_String_alloc@U?$_String_base_types@DV?$allocator@D@std@@@std@@@std@@QEAAAEAV?$_String_val@U?$_Simple_types@D@std@@@2@XZ ENDP ; std::_String_alloc<std::_String_base_types<char,std::allocator<char> > >::_Get_data
_TEXT	ENDS
; Function compile flags: /Odtp /RTCsu /ZI
;	COMDAT ?_Getal@?$_String_alloc@U?$_String_base_types@DV?$allocator@D@std@@@std@@@std@@QEBAAEBU?$_Wrap_alloc@V?$allocator@D@std@@@2@XZ
_TEXT	SEGMENT
this$ = 224
?_Getal@?$_String_alloc@U?$_String_base_types@DV?$allocator@D@std@@@std@@@std@@QEBAAEBU?$_Wrap_alloc@V?$allocator@D@std@@@2@XZ PROC ; std::_String_alloc<std::_String_base_types<char,std::allocator<char> > >::_Getal, COMDAT
; File d:\appdata\vsp\vc\include\xstring
; Line 684
$LN3:
  00000	48 89 4c 24 08	 mov	 QWORD PTR [rsp+8], rcx
  00005	55		 push	 rbp
  00006	57		 push	 rdi
  00007	48 81 ec e8 00
	00 00		 sub	 rsp, 232		; 000000e8H
  0000e	48 8d 6c 24 20	 lea	 rbp, QWORD PTR [rsp+32]
  00013	48 8b fc	 mov	 rdi, rsp
  00016	b9 3a 00 00 00	 mov	 ecx, 58			; 0000003aH
  0001b	b8 cc cc cc cc	 mov	 eax, -858993460		; ccccccccH
  00020	f3 ab		 rep stosd
  00022	48 8b 8c 24 08
	01 00 00	 mov	 rcx, QWORD PTR [rsp+264]
; Line 685
  0002a	48 8b 85 e0 00
	00 00		 mov	 rax, QWORD PTR this$[rbp]
  00031	48 8b c8	 mov	 rcx, rax
  00034	e8 00 00 00 00	 call	 ?_Get_first@?$_Compressed_pair@U?$_Wrap_alloc@V?$allocator@D@std@@@std@@V?$_String_val@U?$_Simple_types@D@std@@@2@$00@std@@QEBAAEBU?$_Wrap_alloc@V?$allocator@D@std@@@2@XZ ; std::_Compressed_pair<std::_Wrap_alloc<std::allocator<char> >,std::_String_val<std::_Simple_types<char> >,1>::_Get_first
; Line 686
  00039	48 8d a5 c8 00
	00 00		 lea	 rsp, QWORD PTR [rbp+200]
  00040	5f		 pop	 rdi
  00041	5d		 pop	 rbp
  00042	c3		 ret	 0
?_Getal@?$_String_alloc@U?$_String_base_types@DV?$allocator@D@std@@@std@@@std@@QEBAAEBU?$_Wrap_alloc@V?$allocator@D@std@@@2@XZ ENDP ; std::_String_alloc<std::_String_base_types<char,std::allocator<char> > >::_Getal
_TEXT	ENDS
; Function compile flags: /Odtp /RTCsu /ZI
;	COMDAT ?_Getal@?$_String_alloc@U?$_String_base_types@DV?$allocator@D@std@@@std@@@std@@QEAAAEAU?$_Wrap_alloc@V?$allocator@D@std@@@2@XZ
_TEXT	SEGMENT
this$ = 224
?_Getal@?$_String_alloc@U?$_String_base_types@DV?$allocator@D@std@@@std@@@std@@QEAAAEAU?$_Wrap_alloc@V?$allocator@D@std@@@2@XZ PROC ; std::_String_alloc<std::_String_base_types<char,std::allocator<char> > >::_Getal, COMDAT
; File d:\appdata\vsp\vc\include\xstring
; Line 679
$LN3:
  00000	48 89 4c 24 08	 mov	 QWORD PTR [rsp+8], rcx
  00005	55		 push	 rbp
  00006	57		 push	 rdi
  00007	48 81 ec e8 00
	00 00		 sub	 rsp, 232		; 000000e8H
  0000e	48 8d 6c 24 20	 lea	 rbp, QWORD PTR [rsp+32]
  00013	48 8b fc	 mov	 rdi, rsp
  00016	b9 3a 00 00 00	 mov	 ecx, 58			; 0000003aH
  0001b	b8 cc cc cc cc	 mov	 eax, -858993460		; ccccccccH
  00020	f3 ab		 rep stosd
  00022	48 8b 8c 24 08
	01 00 00	 mov	 rcx, QWORD PTR [rsp+264]
; Line 680
  0002a	48 8b 85 e0 00
	00 00		 mov	 rax, QWORD PTR this$[rbp]
  00031	48 8b c8	 mov	 rcx, rax
  00034	e8 00 00 00 00	 call	 ?_Get_first@?$_Compressed_pair@U?$_Wrap_alloc@V?$allocator@D@std@@@std@@V?$_String_val@U?$_Simple_types@D@std@@@2@$00@std@@QEAAAEAU?$_Wrap_alloc@V?$allocator@D@std@@@2@XZ ; std::_Compressed_pair<std::_Wrap_alloc<std::allocator<char> >,std::_String_val<std::_Simple_types<char> >,1>::_Get_first
; Line 681
  00039	48 8d a5 c8 00
	00 00		 lea	 rsp, QWORD PTR [rbp+200]
  00040	5f		 pop	 rdi
  00041	5d		 pop	 rbp
  00042	c3		 ret	 0
?_Getal@?$_String_alloc@U?$_String_base_types@DV?$allocator@D@std@@@std@@@std@@QEAAAEAU?$_Wrap_alloc@V?$allocator@D@std@@@2@XZ ENDP ; std::_String_alloc<std::_String_base_types<char,std::allocator<char> > >::_Getal
_TEXT	ENDS
; Function compile flags: /Odtp /RTCsu /ZI
;	COMDAT ?_Orphan_all@?$_String_alloc@U?$_String_base_types@DV?$allocator@D@std@@@std@@@std@@QEAAXXZ
_TEXT	SEGMENT
this$ = 224
?_Orphan_all@?$_String_alloc@U?$_String_base_types@DV?$allocator@D@std@@@std@@@std@@QEAAXXZ PROC ; std::_String_alloc<std::_String_base_types<char,std::allocator<char> > >::_Orphan_all, COMDAT
; File d:\appdata\vsp\vc\include\xstring
; Line 669
$LN3:
  00000	48 89 4c 24 08	 mov	 QWORD PTR [rsp+8], rcx
  00005	55		 push	 rbp
  00006	57		 push	 rdi
  00007	48 81 ec e8 00
	00 00		 sub	 rsp, 232		; 000000e8H
  0000e	48 8d 6c 24 20	 lea	 rbp, QWORD PTR [rsp+32]
  00013	48 8b fc	 mov	 rdi, rsp
  00016	b9 3a 00 00 00	 mov	 ecx, 58			; 0000003aH
  0001b	b8 cc cc cc cc	 mov	 eax, -858993460		; ccccccccH
  00020	f3 ab		 rep stosd
  00022	48 8b 8c 24 08
	01 00 00	 mov	 rcx, QWORD PTR [rsp+264]
; Line 670
  0002a	48 8b 8d e0 00
	00 00		 mov	 rcx, QWORD PTR this$[rbp]
  00031	e8 00 00 00 00	 call	 ?_Get_data@?$_String_alloc@U?$_String_base_types@DV?$allocator@D@std@@@std@@@std@@QEAAAEAV?$_String_val@U?$_Simple_types@D@std@@@2@XZ ; std::_String_alloc<std::_String_base_types<char,std::allocator<char> > >::_Get_data
  00036	48 8b c8	 mov	 rcx, rax
  00039	e8 00 00 00 00	 call	 ?_Orphan_all@_Container_base12@std@@QEAAXXZ ; std::_Container_base12::_Orphan_all
; Line 671
  0003e	48 8d a5 c8 00
	00 00		 lea	 rsp, QWORD PTR [rbp+200]
  00045	5f		 pop	 rdi
  00046	5d		 pop	 rbp
  00047	c3		 ret	 0
?_Orphan_all@?$_String_alloc@U?$_String_base_types@DV?$allocator@D@std@@@std@@@std@@QEAAXXZ ENDP ; std::_String_alloc<std::_String_base_types<char,std::allocator<char> > >::_Orphan_all
_TEXT	ENDS
; Function compile flags: /Odtp /RTCsu /ZI
;	COMDAT ?_Myproxy@?$_String_alloc@U?$_String_base_types@DV?$allocator@D@std@@@std@@@std@@QEAAAEAPEAU_Container_proxy@2@XZ
_TEXT	SEGMENT
this$ = 224
?_Myproxy@?$_String_alloc@U?$_String_base_types@DV?$allocator@D@std@@@std@@@std@@QEAAAEAPEAU_Container_proxy@2@XZ PROC ; std::_String_alloc<std::_String_base_types<char,std::allocator<char> > >::_Myproxy, COMDAT
; File d:\appdata\vsp\vc\include\xstring
; Line 658
$LN3:
  00000	48 89 4c 24 08	 mov	 QWORD PTR [rsp+8], rcx
  00005	55		 push	 rbp
  00006	57		 push	 rdi
  00007	48 81 ec e8 00
	00 00		 sub	 rsp, 232		; 000000e8H
  0000e	48 8d 6c 24 20	 lea	 rbp, QWORD PTR [rsp+32]
  00013	48 8b fc	 mov	 rdi, rsp
  00016	b9 3a 00 00 00	 mov	 ecx, 58			; 0000003aH
  0001b	b8 cc cc cc cc	 mov	 eax, -858993460		; ccccccccH
  00020	f3 ab		 rep stosd
  00022	48 8b 8c 24 08
	01 00 00	 mov	 rcx, QWORD PTR [rsp+264]
; Line 659
  0002a	48 8b 8d e0 00
	00 00		 mov	 rcx, QWORD PTR this$[rbp]
  00031	e8 00 00 00 00	 call	 ?_Get_data@?$_String_alloc@U?$_String_base_types@DV?$allocator@D@std@@@std@@@std@@QEAAAEAV?$_String_val@U?$_Simple_types@D@std@@@2@XZ ; std::_String_alloc<std::_String_base_types<char,std::allocator<char> > >::_Get_data
; Line 660
  00036	48 8d a5 c8 00
	00 00		 lea	 rsp, QWORD PTR [rbp+200]
  0003d	5f		 pop	 rdi
  0003e	5d		 pop	 rbp
  0003f	c3		 ret	 0
?_Myproxy@?$_String_alloc@U?$_String_base_types@DV?$allocator@D@std@@@std@@@std@@QEAAAEAPEAU_Container_proxy@2@XZ ENDP ; std::_String_alloc<std::_String_base_types<char,std::allocator<char> > >::_Myproxy
_TEXT	ENDS
; Function compile flags: /Odtp /RTCsu /ZI
;	COMDAT ?_Free_proxy@?$_String_alloc@U?$_String_base_types@DV?$allocator@D@std@@@std@@@std@@QEAAXXZ
_TEXT	SEGMENT
_Alproxy$ = 4
__$ArrayPad$ = 216
this$ = 256
?_Free_proxy@?$_String_alloc@U?$_String_base_types@DV?$allocator@D@std@@@std@@@std@@QEAAXXZ PROC ; std::_String_alloc<std::_String_base_types<char,std::allocator<char> > >::_Free_proxy, COMDAT
; File d:\appdata\vsp\vc\include\xstring
; Line 643
$LN3:
  00000	48 89 4c 24 08	 mov	 QWORD PTR [rsp+8], rcx
  00005	55		 push	 rbp
  00006	57		 push	 rdi
  00007	48 81 ec 08 01
	00 00		 sub	 rsp, 264		; 00000108H
  0000e	48 8d 6c 24 20	 lea	 rbp, QWORD PTR [rsp+32]
  00013	48 8b fc	 mov	 rdi, rsp
  00016	b9 42 00 00 00	 mov	 ecx, 66			; 00000042H
  0001b	b8 cc cc cc cc	 mov	 eax, -858993460		; ccccccccH
  00020	f3 ab		 rep stosd
  00022	48 8b 8c 24 28
	01 00 00	 mov	 rcx, QWORD PTR [rsp+296]
  0002a	48 8b 05 00 00
	00 00		 mov	 rax, QWORD PTR __security_cookie
  00031	48 33 c5	 xor	 rax, rbp
  00034	48 89 85 d8 00
	00 00		 mov	 QWORD PTR __$ArrayPad$[rbp], rax
; Line 645
  0003b	48 8b 8d 00 01
	00 00		 mov	 rcx, QWORD PTR this$[rbp]
  00042	e8 00 00 00 00	 call	 ?_Getal@?$_String_alloc@U?$_String_base_types@DV?$allocator@D@std@@@std@@@std@@QEAAAEAU?$_Wrap_alloc@V?$allocator@D@std@@@2@XZ ; std::_String_alloc<std::_String_base_types<char,std::allocator<char> > >::_Getal
  00047	48 8b d0	 mov	 rdx, rax
  0004a	48 8d 4d 04	 lea	 rcx, QWORD PTR _Alproxy$[rbp]
  0004e	e8 00 00 00 00	 call	 ??$?0U?$_Wrap_alloc@V?$allocator@D@std@@@std@@@?$_Wrap_alloc@V?$allocator@U_Container_proxy@std@@@std@@@std@@QEAA@AEAU?$_Wrap_alloc@V?$allocator@D@std@@@1@@Z ; std::_Wrap_alloc<std::allocator<std::_Container_proxy> >::_Wrap_alloc<std::allocator<std::_Container_proxy> ><std::_Wrap_alloc<std::allocator<char> > >
; Line 646
  00053	48 8b 8d 00 01
	00 00		 mov	 rcx, QWORD PTR this$[rbp]
  0005a	e8 00 00 00 00	 call	 ?_Orphan_all@?$_String_alloc@U?$_String_base_types@DV?$allocator@D@std@@@std@@@std@@QEAAXXZ ; std::_String_alloc<std::_String_base_types<char,std::allocator<char> > >::_Orphan_all
; Line 647
  0005f	48 8b 8d 00 01
	00 00		 mov	 rcx, QWORD PTR this$[rbp]
  00066	e8 00 00 00 00	 call	 ?_Myproxy@?$_String_alloc@U?$_String_base_types@DV?$allocator@D@std@@@std@@@std@@QEAAAEAPEAU_Container_proxy@2@XZ ; std::_String_alloc<std::_String_base_types<char,std::allocator<char> > >::_Myproxy
  0006b	48 8b 10	 mov	 rdx, QWORD PTR [rax]
  0006e	48 8d 4d 04	 lea	 rcx, QWORD PTR _Alproxy$[rbp]
  00072	e8 00 00 00 00	 call	 ??$destroy@U_Container_proxy@std@@@?$_Wrap_alloc@V?$allocator@U_Container_proxy@std@@@std@@@std@@QEAAXPEAU_Container_proxy@1@@Z ; std::_Wrap_alloc<std::allocator<std::_Container_proxy> >::destroy<std::_Container_proxy>
; Line 648
  00077	48 8b 8d 00 01
	00 00		 mov	 rcx, QWORD PTR this$[rbp]
  0007e	e8 00 00 00 00	 call	 ?_Myproxy@?$_String_alloc@U?$_String_base_types@DV?$allocator@D@std@@@std@@@std@@QEAAAEAPEAU_Container_proxy@2@XZ ; std::_String_alloc<std::_String_base_types<char,std::allocator<char> > >::_Myproxy
  00083	41 b8 01 00 00
	00		 mov	 r8d, 1
  00089	48 8b 10	 mov	 rdx, QWORD PTR [rax]
  0008c	48 8d 4d 04	 lea	 rcx, QWORD PTR _Alproxy$[rbp]
  00090	e8 00 00 00 00	 call	 ?deallocate@?$_Wrap_alloc@V?$allocator@U_Container_proxy@std@@@std@@@std@@QEAAXPEAU_Container_proxy@2@_K@Z ; std::_Wrap_alloc<std::allocator<std::_Container_proxy> >::deallocate
; Line 649
  00095	48 8b 8d 00 01
	00 00		 mov	 rcx, QWORD PTR this$[rbp]
  0009c	e8 00 00 00 00	 call	 ?_Myproxy@?$_String_alloc@U?$_String_base_types@DV?$allocator@D@std@@@std@@@std@@QEAAAEAPEAU_Container_proxy@2@XZ ; std::_String_alloc<std::_String_base_types<char,std::allocator<char> > >::_Myproxy
  000a1	48 c7 00 00 00
	00 00		 mov	 QWORD PTR [rax], 0
; Line 650
  000a8	48 8d 4d e0	 lea	 rcx, QWORD PTR [rbp-32]
  000ac	48 8d 15 00 00
	00 00		 lea	 rdx, OFFSET FLAT:?_Free_proxy@?$_String_alloc@U?$_String_base_types@DV?$allocator@D@std@@@std@@@std@@QEAAXXZ$rtcFrameData
  000b3	e8 00 00 00 00	 call	 _RTC_CheckStackVars
  000b8	48 8b 8d d8 00
	00 00		 mov	 rcx, QWORD PTR __$ArrayPad$[rbp]
  000bf	48 33 cd	 xor	 rcx, rbp
  000c2	e8 00 00 00 00	 call	 __security_check_cookie
  000c7	48 8d a5 e8 00
	00 00		 lea	 rsp, QWORD PTR [rbp+232]
  000ce	5f		 pop	 rdi
  000cf	5d		 pop	 rbp
  000d0	c3		 ret	 0
?_Free_proxy@?$_String_alloc@U?$_String_base_types@DV?$allocator@D@std@@@std@@@std@@QEAAXXZ ENDP ; std::_String_alloc<std::_String_base_types<char,std::allocator<char> > >::_Free_proxy
_TEXT	ENDS
; Function compile flags: /Odtp /RTCsu /ZI
;	COMDAT ?_Alloc_proxy@?$_String_alloc@U?$_String_base_types@DV?$allocator@D@std@@@std@@@std@@QEAAXXZ
_TEXT	SEGMENT
_Alproxy$ = 4
$T4 = 232
tv90 = 264
tv78 = 264
tv70 = 264
__$ArrayPad$ = 272
this$ = 320
?_Alloc_proxy@?$_String_alloc@U?$_String_base_types@DV?$allocator@D@std@@@std@@@std@@QEAAXXZ PROC ; std::_String_alloc<std::_String_base_types<char,std::allocator<char> > >::_Alloc_proxy, COMDAT
; File d:\appdata\vsp\vc\include\xstring
; Line 634
$LN3:
  00000	48 89 4c 24 08	 mov	 QWORD PTR [rsp+8], rcx
  00005	55		 push	 rbp
  00006	57		 push	 rdi
  00007	48 81 ec 48 01
	00 00		 sub	 rsp, 328		; 00000148H
  0000e	48 8d 6c 24 20	 lea	 rbp, QWORD PTR [rsp+32]
  00013	48 8b fc	 mov	 rdi, rsp
  00016	b9 52 00 00 00	 mov	 ecx, 82			; 00000052H
  0001b	b8 cc cc cc cc	 mov	 eax, -858993460		; ccccccccH
  00020	f3 ab		 rep stosd
  00022	48 8b 8c 24 68
	01 00 00	 mov	 rcx, QWORD PTR [rsp+360]
  0002a	48 8b 05 00 00
	00 00		 mov	 rax, QWORD PTR __security_cookie
  00031	48 33 c5	 xor	 rax, rbp
  00034	48 89 85 10 01
	00 00		 mov	 QWORD PTR __$ArrayPad$[rbp], rax
; Line 636
  0003b	48 8b 8d 40 01
	00 00		 mov	 rcx, QWORD PTR this$[rbp]
  00042	e8 00 00 00 00	 call	 ?_Getal@?$_String_alloc@U?$_String_base_types@DV?$allocator@D@std@@@std@@@std@@QEAAAEAU?$_Wrap_alloc@V?$allocator@D@std@@@2@XZ ; std::_String_alloc<std::_String_base_types<char,std::allocator<char> > >::_Getal
  00047	48 8b d0	 mov	 rdx, rax
  0004a	48 8d 4d 04	 lea	 rcx, QWORD PTR _Alproxy$[rbp]
  0004e	e8 00 00 00 00	 call	 ??$?0U?$_Wrap_alloc@V?$allocator@D@std@@@std@@@?$_Wrap_alloc@V?$allocator@U_Container_proxy@std@@@std@@@std@@QEAA@AEAU?$_Wrap_alloc@V?$allocator@D@std@@@1@@Z ; std::_Wrap_alloc<std::allocator<std::_Container_proxy> >::_Wrap_alloc<std::allocator<std::_Container_proxy> ><std::_Wrap_alloc<std::allocator<char> > >
; Line 637
  00053	ba 01 00 00 00	 mov	 edx, 1
  00058	48 8d 4d 04	 lea	 rcx, QWORD PTR _Alproxy$[rbp]
  0005c	e8 00 00 00 00	 call	 ?allocate@?$_Wrap_alloc@V?$allocator@U_Container_proxy@std@@@std@@@std@@QEAAPEAU_Container_proxy@2@_K@Z ; std::_Wrap_alloc<std::allocator<std::_Container_proxy> >::allocate
  00061	48 89 85 08 01
	00 00		 mov	 QWORD PTR tv70[rbp], rax
  00068	48 8b 8d 40 01
	00 00		 mov	 rcx, QWORD PTR this$[rbp]
  0006f	e8 00 00 00 00	 call	 ?_Myproxy@?$_String_alloc@U?$_String_base_types@DV?$allocator@D@std@@@std@@@std@@QEAAAEAPEAU_Container_proxy@2@XZ ; std::_String_alloc<std::_String_base_types<char,std::allocator<char> > >::_Myproxy
  00074	48 8b 8d 08 01
	00 00		 mov	 rcx, QWORD PTR tv70[rbp]
  0007b	48 89 08	 mov	 QWORD PTR [rax], rcx
; Line 638
  0007e	48 8d 8d e8 00
	00 00		 lea	 rcx, QWORD PTR $T4[rbp]
  00085	e8 00 00 00 00	 call	 ??0_Container_proxy@std@@QEAA@XZ ; std::_Container_proxy::_Container_proxy
  0008a	48 89 85 08 01
	00 00		 mov	 QWORD PTR tv78[rbp], rax
  00091	48 8b 8d 40 01
	00 00		 mov	 rcx, QWORD PTR this$[rbp]
  00098	e8 00 00 00 00	 call	 ?_Myproxy@?$_String_alloc@U?$_String_base_types@DV?$allocator@D@std@@@std@@@std@@QEAAAEAPEAU_Container_proxy@2@XZ ; std::_String_alloc<std::_String_base_types<char,std::allocator<char> > >::_Myproxy
  0009d	48 8b 8d 08 01
	00 00		 mov	 rcx, QWORD PTR tv78[rbp]
  000a4	4c 8b c1	 mov	 r8, rcx
  000a7	48 8b 10	 mov	 rdx, QWORD PTR [rax]
  000aa	48 8d 4d 04	 lea	 rcx, QWORD PTR _Alproxy$[rbp]
  000ae	e8 00 00 00 00	 call	 ??$construct@U_Container_proxy@std@@U12@@?$_Wrap_alloc@V?$allocator@U_Container_proxy@std@@@std@@@std@@QEAAXPEAU_Container_proxy@1@$$QEAU21@@Z ; std::_Wrap_alloc<std::allocator<std::_Container_proxy> >::construct<std::_Container_proxy,std::_Container_proxy>
; Line 639
  000b3	48 8b 8d 40 01
	00 00		 mov	 rcx, QWORD PTR this$[rbp]
  000ba	e8 00 00 00 00	 call	 ?_Get_data@?$_String_alloc@U?$_String_base_types@DV?$allocator@D@std@@@std@@@std@@QEAAAEAV?$_String_val@U?$_Simple_types@D@std@@@2@XZ ; std::_String_alloc<std::_String_base_types<char,std::allocator<char> > >::_Get_data
  000bf	48 89 85 08 01
	00 00		 mov	 QWORD PTR tv90[rbp], rax
  000c6	48 8b 8d 40 01
	00 00		 mov	 rcx, QWORD PTR this$[rbp]
  000cd	e8 00 00 00 00	 call	 ?_Myproxy@?$_String_alloc@U?$_String_base_types@DV?$allocator@D@std@@@std@@@std@@QEAAAEAPEAU_Container_proxy@2@XZ ; std::_String_alloc<std::_String_base_types<char,std::allocator<char> > >::_Myproxy
  000d2	48 8b 00	 mov	 rax, QWORD PTR [rax]
  000d5	48 8b 8d 08 01
	00 00		 mov	 rcx, QWORD PTR tv90[rbp]
  000dc	48 89 08	 mov	 QWORD PTR [rax], rcx
; Line 640
  000df	48 8d 4d e0	 lea	 rcx, QWORD PTR [rbp-32]
  000e3	48 8d 15 00 00
	00 00		 lea	 rdx, OFFSET FLAT:?_Alloc_proxy@?$_String_alloc@U?$_String_base_types@DV?$allocator@D@std@@@std@@@std@@QEAAXXZ$rtcFrameData
  000ea	e8 00 00 00 00	 call	 _RTC_CheckStackVars
  000ef	48 8b 8d 10 01
	00 00		 mov	 rcx, QWORD PTR __$ArrayPad$[rbp]
  000f6	48 33 cd	 xor	 rcx, rbp
  000f9	e8 00 00 00 00	 call	 __security_check_cookie
  000fe	48 8d a5 28 01
	00 00		 lea	 rsp, QWORD PTR [rbp+296]
  00105	5f		 pop	 rdi
  00106	5d		 pop	 rbp
  00107	c3		 ret	 0
?_Alloc_proxy@?$_String_alloc@U?$_String_base_types@DV?$allocator@D@std@@@std@@@std@@QEAAXXZ ENDP ; std::_String_alloc<std::_String_base_types<char,std::allocator<char> > >::_Alloc_proxy
_TEXT	ENDS
; Function compile flags: /Odtp /RTCsu /ZI
;	COMDAT ??1?$_String_alloc@U?$_String_base_types@DV?$allocator@D@std@@@std@@@std@@QEAA@XZ
_TEXT	SEGMENT
$T1 = 200
this$ = 256
??1?$_String_alloc@U?$_String_base_types@DV?$allocator@D@std@@@std@@@std@@QEAA@XZ PROC ; std::_String_alloc<std::_String_base_types<char,std::allocator<char> > >::~_String_alloc<std::_String_base_types<char,std::allocator<char> > >, COMDAT
; File d:\appdata\vsp\vc\include\xstring
; Line 609
$LN3:
  00000	48 89 4c 24 08	 mov	 QWORD PTR [rsp+8], rcx
  00005	55		 push	 rbp
  00006	57		 push	 rdi
  00007	48 81 ec 08 01
	00 00		 sub	 rsp, 264		; 00000108H
  0000e	48 8d 6c 24 20	 lea	 rbp, QWORD PTR [rsp+32]
  00013	48 8b fc	 mov	 rdi, rsp
  00016	b9 42 00 00 00	 mov	 ecx, 66			; 00000042H
  0001b	b8 cc cc cc cc	 mov	 eax, -858993460		; ccccccccH
  00020	f3 ab		 rep stosd
  00022	48 8b 8c 24 28
	01 00 00	 mov	 rcx, QWORD PTR [rsp+296]
  0002a	48 c7 85 c8 00
	00 00 fe ff ff
	ff		 mov	 QWORD PTR $T1[rbp], -2
; Line 610
  00035	48 8b 8d 00 01
	00 00		 mov	 rcx, QWORD PTR this$[rbp]
  0003c	e8 00 00 00 00	 call	 ?_Free_proxy@?$_String_alloc@U?$_String_base_types@DV?$allocator@D@std@@@std@@@std@@QEAAXXZ ; std::_String_alloc<std::_String_base_types<char,std::allocator<char> > >::_Free_proxy
  00041	90		 npad	 1
; Line 611
  00042	48 8b 85 00 01
	00 00		 mov	 rax, QWORD PTR this$[rbp]
  00049	48 8b c8	 mov	 rcx, rax
  0004c	e8 00 00 00 00	 call	 ??1?$_Compressed_pair@U?$_Wrap_alloc@V?$allocator@D@std@@@std@@V?$_String_val@U?$_Simple_types@D@std@@@2@$00@std@@QEAA@XZ
  00051	90		 npad	 1
  00052	48 8d a5 e8 00
	00 00		 lea	 rsp, QWORD PTR [rbp+232]
  00059	5f		 pop	 rdi
  0005a	5d		 pop	 rbp
  0005b	c3		 ret	 0
??1?$_String_alloc@U?$_String_base_types@DV?$allocator@D@std@@@std@@@std@@QEAA@XZ ENDP ; std::_String_alloc<std::_String_base_types<char,std::allocator<char> > >::~_String_alloc<std::_String_base_types<char,std::allocator<char> > >
_TEXT	ENDS
; Function compile flags: /Odtp /RTCsu /ZI
;	COMDAT ??0?$_String_alloc@U?$_String_base_types@DV?$allocator@D@std@@@std@@@std@@QEAA@$$QEAV?$allocator@D@1@@Z
_TEXT	SEGMENT
$T1 = 196
$T2 = 232
this$ = 288
_Al$ = 296
??0?$_String_alloc@U?$_String_base_types@DV?$allocator@D@std@@@std@@@std@@QEAA@$$QEAV?$allocator@D@1@@Z PROC ; std::_String_alloc<std::_String_base_types<char,std::allocator<char> > >::_String_alloc<std::_String_base_types<char,std::allocator<char> > >, COMDAT
; File d:\appdata\vsp\vc\include\xstring
; Line 604
$LN4:
  00000	48 89 54 24 10	 mov	 QWORD PTR [rsp+16], rdx
  00005	48 89 4c 24 08	 mov	 QWORD PTR [rsp+8], rcx
  0000a	55		 push	 rbp
  0000b	57		 push	 rdi
  0000c	48 81 ec 28 01
	00 00		 sub	 rsp, 296		; 00000128H
  00013	48 8d 6c 24 20	 lea	 rbp, QWORD PTR [rsp+32]
  00018	48 8b fc	 mov	 rdi, rsp
  0001b	b9 4a 00 00 00	 mov	 ecx, 74			; 0000004aH
  00020	b8 cc cc cc cc	 mov	 eax, -858993460		; ccccccccH
  00025	f3 ab		 rep stosd
  00027	48 8b 8c 24 48
	01 00 00	 mov	 rcx, QWORD PTR [rsp+328]
  0002f	48 c7 85 e8 00
	00 00 fe ff ff
	ff		 mov	 QWORD PTR $T2[rbp], -2
; Line 603
  0003a	48 8b 8d 28 01
	00 00		 mov	 rcx, QWORD PTR _Al$[rbp]
  00041	e8 00 00 00 00	 call	 ??$move@AEAV?$allocator@D@std@@@std@@YA$$QEAV?$allocator@D@0@AEAV10@@Z ; std::move<std::allocator<char> & __ptr64>
  00046	48 8b 8d 20 01
	00 00		 mov	 rcx, QWORD PTR this$[rbp]
  0004d	4c 8b c0	 mov	 r8, rax
  00050	0f b6 95 c4 00
	00 00		 movzx	 edx, BYTE PTR $T1[rbp]
  00057	e8 00 00 00 00	 call	 ??$?0V?$allocator@D@std@@$$V@?$_Compressed_pair@U?$_Wrap_alloc@V?$allocator@D@std@@@std@@V?$_String_val@U?$_Simple_types@D@std@@@2@$00@std@@QEAA@U_One_then_variadic_args_t@1@$$QEAV?$allocator@D@1@@Z ; std::_Compressed_pair<std::_Wrap_alloc<std::allocator<char> >,std::_String_val<std::_Simple_types<char> >,1>::_Compressed_pair<std::_Wrap_alloc<std::allocator<char> >,std::_String_val<std::_Simple_types<char> >,1><std::allocator<char> >
  0005c	90		 npad	 1
; Line 605
  0005d	48 8b 8d 20 01
	00 00		 mov	 rcx, QWORD PTR this$[rbp]
  00064	e8 00 00 00 00	 call	 ?_Alloc_proxy@?$_String_alloc@U?$_String_base_types@DV?$allocator@D@std@@@std@@@std@@QEAAXXZ ; std::_String_alloc<std::_String_base_types<char,std::allocator<char> > >::_Alloc_proxy
  00069	90		 npad	 1
; Line 606
  0006a	48 8b 85 20 01
	00 00		 mov	 rax, QWORD PTR this$[rbp]
  00071	48 8d a5 08 01
	00 00		 lea	 rsp, QWORD PTR [rbp+264]
  00078	5f		 pop	 rdi
  00079	5d		 pop	 rbp
  0007a	c3		 ret	 0
??0?$_String_alloc@U?$_String_base_types@DV?$allocator@D@std@@@std@@@std@@QEAA@$$QEAV?$allocator@D@1@@Z ENDP ; std::_String_alloc<std::_String_base_types<char,std::allocator<char> > >::_String_alloc<std::_String_base_types<char,std::allocator<char> > >
_TEXT	ENDS
;	COMDAT text$x
text$x	SEGMENT
$T1 = 196
$T2 = 232
this$ = 288
_Al$ = 296
?dtor$0@?0???0?$_String_alloc@U?$_String_base_types@DV?$allocator@D@std@@@std@@@std@@QEAA@$$QEAV?$allocator@D@1@@Z@4HA PROC ; `std::_String_alloc<std::_String_base_types<char,std::allocator<char> > >::_String_alloc<std::_String_base_types<char,std::allocator<char> > >'::`1'::dtor$0
  00000	48 89 4c 24 08	 mov	 QWORD PTR [rsp+8], rcx
  00005	48 89 54 24 10	 mov	 QWORD PTR [rsp+16], rdx
  0000a	55		 push	 rbp
  0000b	57		 push	 rdi
  0000c	48 83 ec 28	 sub	 rsp, 40			; 00000028H
  00010	48 8d 6a 20	 lea	 rbp, QWORD PTR [rdx+32]
  00014	48 8b 8d 20 01
	00 00		 mov	 rcx, QWORD PTR this$[rbp]
  0001b	e8 00 00 00 00	 call	 ??1?$_Compressed_pair@U?$_Wrap_alloc@V?$allocator@D@std@@@std@@V?$_String_val@U?$_Simple_types@D@std@@@2@$00@std@@QEAA@XZ
  00020	48 83 c4 28	 add	 rsp, 40			; 00000028H
  00024	5f		 pop	 rdi
  00025	5d		 pop	 rbp
  00026	c3		 ret	 0
?dtor$0@?0???0?$_String_alloc@U?$_String_base_types@DV?$allocator@D@std@@@std@@@std@@QEAA@$$QEAV?$allocator@D@1@@Z@4HA ENDP ; `std::_String_alloc<std::_String_base_types<char,std::allocator<char> > >::_String_alloc<std::_String_base_types<char,std::allocator<char> > >'::`1'::dtor$0
text$x	ENDS
; Function compile flags: /Odtp /RTCsu /ZI
;	COMDAT text$x
text$x	SEGMENT
$T1 = 196
$T2 = 232
this$ = 288
_Al$ = 296
?dtor$0@?0???0?$_String_alloc@U?$_String_base_types@DV?$allocator@D@std@@@std@@@std@@QEAA@$$QEAV?$allocator@D@1@@Z@4HA PROC ; `std::_String_alloc<std::_String_base_types<char,std::allocator<char> > >::_String_alloc<std::_String_base_types<char,std::allocator<char> > >'::`1'::dtor$0
  00000	48 89 4c 24 08	 mov	 QWORD PTR [rsp+8], rcx
  00005	48 89 54 24 10	 mov	 QWORD PTR [rsp+16], rdx
  0000a	55		 push	 rbp
  0000b	57		 push	 rdi
  0000c	48 83 ec 28	 sub	 rsp, 40			; 00000028H
  00010	48 8d 6a 20	 lea	 rbp, QWORD PTR [rdx+32]
  00014	48 8b 8d 20 01
	00 00		 mov	 rcx, QWORD PTR this$[rbp]
  0001b	e8 00 00 00 00	 call	 ??1?$_Compressed_pair@U?$_Wrap_alloc@V?$allocator@D@std@@@std@@V?$_String_val@U?$_Simple_types@D@std@@@2@$00@std@@QEAA@XZ
  00020	48 83 c4 28	 add	 rsp, 40			; 00000028H
  00024	5f		 pop	 rdi
  00025	5d		 pop	 rbp
  00026	c3		 ret	 0
?dtor$0@?0???0?$_String_alloc@U?$_String_base_types@DV?$allocator@D@std@@@std@@@std@@QEAA@$$QEAV?$allocator@D@1@@Z@4HA ENDP ; `std::_String_alloc<std::_String_base_types<char,std::allocator<char> > >::_String_alloc<std::_String_base_types<char,std::allocator<char> > >'::`1'::dtor$0
text$x	ENDS
; Function compile flags: /Odtp /RTCsu /ZI
;	COMDAT ??0?$_String_alloc@U?$_String_base_types@DV?$allocator@D@std@@@std@@@std@@QEAA@AEBV?$allocator@D@1@@Z
_TEXT	SEGMENT
$T1 = 196
$T2 = 232
this$ = 288
_Al$ = 296
??0?$_String_alloc@U?$_String_base_types@DV?$allocator@D@std@@@std@@@std@@QEAA@AEBV?$allocator@D@1@@Z PROC ; std::_String_alloc<std::_String_base_types<char,std::allocator<char> > >::_String_alloc<std::_String_base_types<char,std::allocator<char> > >, COMDAT
; File d:\appdata\vsp\vc\include\xstring
; Line 598
$LN4:
  00000	48 89 54 24 10	 mov	 QWORD PTR [rsp+16], rdx
  00005	48 89 4c 24 08	 mov	 QWORD PTR [rsp+8], rcx
  0000a	55		 push	 rbp
  0000b	57		 push	 rdi
  0000c	48 81 ec 28 01
	00 00		 sub	 rsp, 296		; 00000128H
  00013	48 8d 6c 24 20	 lea	 rbp, QWORD PTR [rsp+32]
  00018	48 8b fc	 mov	 rdi, rsp
  0001b	b9 4a 00 00 00	 mov	 ecx, 74			; 0000004aH
  00020	b8 cc cc cc cc	 mov	 eax, -858993460		; ccccccccH
  00025	f3 ab		 rep stosd
  00027	48 8b 8c 24 48
	01 00 00	 mov	 rcx, QWORD PTR [rsp+328]
  0002f	48 c7 85 e8 00
	00 00 fe ff ff
	ff		 mov	 QWORD PTR $T2[rbp], -2
; Line 597
  0003a	48 8b 85 20 01
	00 00		 mov	 rax, QWORD PTR this$[rbp]
  00041	4c 8b 85 28 01
	00 00		 mov	 r8, QWORD PTR _Al$[rbp]
  00048	0f b6 95 c4 00
	00 00		 movzx	 edx, BYTE PTR $T1[rbp]
  0004f	48 8b c8	 mov	 rcx, rax
  00052	e8 00 00 00 00	 call	 ??$?0AEBV?$allocator@D@std@@$$V@?$_Compressed_pair@U?$_Wrap_alloc@V?$allocator@D@std@@@std@@V?$_String_val@U?$_Simple_types@D@std@@@2@$00@std@@QEAA@U_One_then_variadic_args_t@1@AEBV?$allocator@D@1@@Z ; std::_Compressed_pair<std::_Wrap_alloc<std::allocator<char> >,std::_String_val<std::_Simple_types<char> >,1>::_Compressed_pair<std::_Wrap_alloc<std::allocator<char> >,std::_String_val<std::_Simple_types<char> >,1><std::allocator<char> const & __ptr64>
  00057	90		 npad	 1
; Line 599
  00058	48 8b 8d 20 01
	00 00		 mov	 rcx, QWORD PTR this$[rbp]
  0005f	e8 00 00 00 00	 call	 ?_Alloc_proxy@?$_String_alloc@U?$_String_base_types@DV?$allocator@D@std@@@std@@@std@@QEAAXXZ ; std::_String_alloc<std::_String_base_types<char,std::allocator<char> > >::_Alloc_proxy
  00064	90		 npad	 1
; Line 600
  00065	48 8b 85 20 01
	00 00		 mov	 rax, QWORD PTR this$[rbp]
  0006c	48 8d a5 08 01
	00 00		 lea	 rsp, QWORD PTR [rbp+264]
  00073	5f		 pop	 rdi
  00074	5d		 pop	 rbp
  00075	c3		 ret	 0
??0?$_String_alloc@U?$_String_base_types@DV?$allocator@D@std@@@std@@@std@@QEAA@AEBV?$allocator@D@1@@Z ENDP ; std::_String_alloc<std::_String_base_types<char,std::allocator<char> > >::_String_alloc<std::_String_base_types<char,std::allocator<char> > >
_TEXT	ENDS
;	COMDAT text$x
text$x	SEGMENT
$T1 = 196
$T2 = 232
this$ = 288
_Al$ = 296
?dtor$0@?0???0?$_String_alloc@U?$_String_base_types@DV?$allocator@D@std@@@std@@@std@@QEAA@AEBV?$allocator@D@1@@Z@4HA PROC ; `std::_String_alloc<std::_String_base_types<char,std::allocator<char> > >::_String_alloc<std::_String_base_types<char,std::allocator<char> > >'::`1'::dtor$0
  00000	48 89 4c 24 08	 mov	 QWORD PTR [rsp+8], rcx
  00005	48 89 54 24 10	 mov	 QWORD PTR [rsp+16], rdx
  0000a	55		 push	 rbp
  0000b	57		 push	 rdi
  0000c	48 83 ec 28	 sub	 rsp, 40			; 00000028H
  00010	48 8d 6a 20	 lea	 rbp, QWORD PTR [rdx+32]
  00014	48 8b 8d 20 01
	00 00		 mov	 rcx, QWORD PTR this$[rbp]
  0001b	e8 00 00 00 00	 call	 ??1?$_Compressed_pair@U?$_Wrap_alloc@V?$allocator@D@std@@@std@@V?$_String_val@U?$_Simple_types@D@std@@@2@$00@std@@QEAA@XZ
  00020	48 83 c4 28	 add	 rsp, 40			; 00000028H
  00024	5f		 pop	 rdi
  00025	5d		 pop	 rbp
  00026	c3		 ret	 0
?dtor$0@?0???0?$_String_alloc@U?$_String_base_types@DV?$allocator@D@std@@@std@@@std@@QEAA@AEBV?$allocator@D@1@@Z@4HA ENDP ; `std::_String_alloc<std::_String_base_types<char,std::allocator<char> > >::_String_alloc<std::_String_base_types<char,std::allocator<char> > >'::`1'::dtor$0
text$x	ENDS
; Function compile flags: /Odtp /RTCsu /ZI
;	COMDAT text$x
text$x	SEGMENT
$T1 = 196
$T2 = 232
this$ = 288
_Al$ = 296
?dtor$0@?0???0?$_String_alloc@U?$_String_base_types@DV?$allocator@D@std@@@std@@@std@@QEAA@AEBV?$allocator@D@1@@Z@4HA PROC ; `std::_String_alloc<std::_String_base_types<char,std::allocator<char> > >::_String_alloc<std::_String_base_types<char,std::allocator<char> > >'::`1'::dtor$0
  00000	48 89 4c 24 08	 mov	 QWORD PTR [rsp+8], rcx
  00005	48 89 54 24 10	 mov	 QWORD PTR [rsp+16], rdx
  0000a	55		 push	 rbp
  0000b	57		 push	 rdi
  0000c	48 83 ec 28	 sub	 rsp, 40			; 00000028H
  00010	48 8d 6a 20	 lea	 rbp, QWORD PTR [rdx+32]
  00014	48 8b 8d 20 01
	00 00		 mov	 rcx, QWORD PTR this$[rbp]
  0001b	e8 00 00 00 00	 call	 ??1?$_Compressed_pair@U?$_Wrap_alloc@V?$allocator@D@std@@@std@@V?$_String_val@U?$_Simple_types@D@std@@@2@$00@std@@QEAA@XZ
  00020	48 83 c4 28	 add	 rsp, 40			; 00000028H
  00024	5f		 pop	 rdi
  00025	5d		 pop	 rbp
  00026	c3		 ret	 0
?dtor$0@?0???0?$_String_alloc@U?$_String_base_types@DV?$allocator@D@std@@@std@@@std@@QEAA@AEBV?$allocator@D@1@@Z@4HA ENDP ; `std::_String_alloc<std::_String_base_types<char,std::allocator<char> > >::_String_alloc<std::_String_base_types<char,std::allocator<char> > >'::`1'::dtor$0
text$x	ENDS
; Function compile flags: /Odtp /RTCsu /ZI
;	COMDAT ?_Myptr@?$_String_alloc@U?$_String_base_types@DV?$allocator@D@std@@@std@@@std@@QEBAPEBDXZ
_TEXT	SEGMENT
this$ = 224
?_Myptr@?$_String_alloc@U?$_String_base_types@DV?$allocator@D@std@@@std@@@std@@QEBAPEBDXZ PROC ; std::_String_alloc<std::_String_base_types<char,std::allocator<char> > >::_Myptr, COMDAT
; File d:\appdata\vsp\vc\include\xstring
; Line 565
$LN3:
  00000	48 89 4c 24 08	 mov	 QWORD PTR [rsp+8], rcx
  00005	55		 push	 rbp
  00006	57		 push	 rdi
  00007	48 81 ec e8 00
	00 00		 sub	 rsp, 232		; 000000e8H
  0000e	48 8d 6c 24 20	 lea	 rbp, QWORD PTR [rsp+32]
  00013	48 8b fc	 mov	 rdi, rsp
  00016	b9 3a 00 00 00	 mov	 ecx, 58			; 0000003aH
  0001b	b8 cc cc cc cc	 mov	 eax, -858993460		; ccccccccH
  00020	f3 ab		 rep stosd
  00022	48 8b 8c 24 08
	01 00 00	 mov	 rcx, QWORD PTR [rsp+264]
; Line 566
  0002a	48 8b 8d e0 00
	00 00		 mov	 rcx, QWORD PTR this$[rbp]
  00031	e8 00 00 00 00	 call	 ?_Get_data@?$_String_alloc@U?$_String_base_types@DV?$allocator@D@std@@@std@@@std@@QEBAAEBV?$_String_val@U?$_Simple_types@D@std@@@2@XZ ; std::_String_alloc<std::_String_base_types<char,std::allocator<char> > >::_Get_data
  00036	48 8b c8	 mov	 rcx, rax
  00039	e8 00 00 00 00	 call	 ?_Myptr@?$_String_val@U?$_Simple_types@D@std@@@std@@QEBAPEBDXZ ; std::_String_val<std::_Simple_types<char> >::_Myptr
; Line 567
  0003e	48 8d a5 c8 00
	00 00		 lea	 rsp, QWORD PTR [rbp+200]
  00045	5f		 pop	 rdi
  00046	5d		 pop	 rbp
  00047	c3		 ret	 0
?_Myptr@?$_String_alloc@U?$_String_base_types@DV?$allocator@D@std@@@std@@@std@@QEBAPEBDXZ ENDP ; std::_String_alloc<std::_String_base_types<char,std::allocator<char> > >::_Myptr
_TEXT	ENDS
; Function compile flags: /Odtp /RTCsu /ZI
;	COMDAT ?_Myptr@?$_String_alloc@U?$_String_base_types@DV?$allocator@D@std@@@std@@@std@@QEAAPEADXZ
_TEXT	SEGMENT
this$ = 224
?_Myptr@?$_String_alloc@U?$_String_base_types@DV?$allocator@D@std@@@std@@@std@@QEAAPEADXZ PROC ; std::_String_alloc<std::_String_base_types<char,std::allocator<char> > >::_Myptr, COMDAT
; File d:\appdata\vsp\vc\include\xstring
; Line 560
$LN3:
  00000	48 89 4c 24 08	 mov	 QWORD PTR [rsp+8], rcx
  00005	55		 push	 rbp
  00006	57		 push	 rdi
  00007	48 81 ec e8 00
	00 00		 sub	 rsp, 232		; 000000e8H
  0000e	48 8d 6c 24 20	 lea	 rbp, QWORD PTR [rsp+32]
  00013	48 8b fc	 mov	 rdi, rsp
  00016	b9 3a 00 00 00	 mov	 ecx, 58			; 0000003aH
  0001b	b8 cc cc cc cc	 mov	 eax, -858993460		; ccccccccH
  00020	f3 ab		 rep stosd
  00022	48 8b 8c 24 08
	01 00 00	 mov	 rcx, QWORD PTR [rsp+264]
; Line 561
  0002a	48 8b 8d e0 00
	00 00		 mov	 rcx, QWORD PTR this$[rbp]
  00031	e8 00 00 00 00	 call	 ?_Get_data@?$_String_alloc@U?$_String_base_types@DV?$allocator@D@std@@@std@@@std@@QEAAAEAV?$_String_val@U?$_Simple_types@D@std@@@2@XZ ; std::_String_alloc<std::_String_base_types<char,std::allocator<char> > >::_Get_data
  00036	48 8b c8	 mov	 rcx, rax
  00039	e8 00 00 00 00	 call	 ?_Myptr@?$_String_val@U?$_Simple_types@D@std@@@std@@QEAAPEADXZ ; std::_String_val<std::_Simple_types<char> >::_Myptr
; Line 562
  0003e	48 8d a5 c8 00
	00 00		 lea	 rsp, QWORD PTR [rbp+200]
  00045	5f		 pop	 rdi
  00046	5d		 pop	 rbp
  00047	c3		 ret	 0
?_Myptr@?$_String_alloc@U?$_String_base_types@DV?$allocator@D@std@@@std@@@std@@QEAAPEADXZ ENDP ; std::_String_alloc<std::_String_base_types<char,std::allocator<char> > >::_Myptr
_TEXT	ENDS
; Function compile flags: /Odtp /RTCsu /ZI
;	COMDAT ??1?$_String_val@U?$_Simple_types@D@std@@@std@@QEAA@XZ
_TEXT	SEGMENT
this$ = 224
??1?$_String_val@U?$_Simple_types@D@std@@@std@@QEAA@XZ PROC ; std::_String_val<std::_Simple_types<char> >::~_String_val<std::_Simple_types<char> >, COMDAT
$LN3:
  00000	48 89 4c 24 08	 mov	 QWORD PTR [rsp+8], rcx
  00005	55		 push	 rbp
  00006	57		 push	 rdi
  00007	48 81 ec e8 00
	00 00		 sub	 rsp, 232		; 000000e8H
  0000e	48 8d 6c 24 20	 lea	 rbp, QWORD PTR [rsp+32]
  00013	48 8b fc	 mov	 rdi, rsp
  00016	b9 3a 00 00 00	 mov	 ecx, 58			; 0000003aH
  0001b	b8 cc cc cc cc	 mov	 eax, -858993460		; ccccccccH
  00020	f3 ab		 rep stosd
  00022	48 8b 8c 24 08
	01 00 00	 mov	 rcx, QWORD PTR [rsp+264]
  0002a	48 8b 8d e0 00
	00 00		 mov	 rcx, QWORD PTR this$[rbp]
  00031	e8 00 00 00 00	 call	 ??1_Container_base12@std@@QEAA@XZ ; std::_Container_base12::~_Container_base12
  00036	48 8d a5 c8 00
	00 00		 lea	 rsp, QWORD PTR [rbp+200]
  0003d	5f		 pop	 rdi
  0003e	5d		 pop	 rbp
  0003f	c3		 ret	 0
??1?$_String_val@U?$_Simple_types@D@std@@@std@@QEAA@XZ ENDP ; std::_String_val<std::_Simple_types<char> >::~_String_val<std::_Simple_types<char> >
_TEXT	ENDS
; Function compile flags: /Odtp /RTCsu /ZI
;	COMDAT ?_Myptr@?$_String_val@U?$_Simple_types@D@std@@@std@@QEBAPEBDXZ
_TEXT	SEGMENT
tv72 = 192
this$ = 240
?_Myptr@?$_String_val@U?$_Simple_types@D@std@@@std@@QEBAPEBDXZ PROC ; std::_String_val<std::_Simple_types<char> >::_Myptr, COMDAT
; File d:\appdata\vsp\vc\include\xstring
; Line 511
$LN5:
  00000	48 89 4c 24 08	 mov	 QWORD PTR [rsp+8], rcx
  00005	55		 push	 rbp
  00006	57		 push	 rdi
  00007	48 81 ec f8 00
	00 00		 sub	 rsp, 248		; 000000f8H
  0000e	48 8d 6c 24 20	 lea	 rbp, QWORD PTR [rsp+32]
  00013	48 8b fc	 mov	 rdi, rsp
  00016	b9 3e 00 00 00	 mov	 ecx, 62			; 0000003eH
  0001b	b8 cc cc cc cc	 mov	 eax, -858993460		; ccccccccH
  00020	f3 ab		 rep stosd
  00022	48 8b 8c 24 18
	01 00 00	 mov	 rcx, QWORD PTR [rsp+280]
; Line 512
  0002a	48 8b 85 f0 00
	00 00		 mov	 rax, QWORD PTR this$[rbp]
  00031	48 83 78 20 10	 cmp	 QWORD PTR [rax+32], 16
  00036	72 19		 jb	 SHORT $LN3@Myptr
  00038	48 8b 85 f0 00
	00 00		 mov	 rax, QWORD PTR this$[rbp]
  0003f	48 8b 48 08	 mov	 rcx, QWORD PTR [rax+8]
  00043	e8 00 00 00 00	 call	 ??$addressof@D@std@@YAPEADAEAD@Z ; std::addressof<char>
  00048	48 89 85 c0 00
	00 00		 mov	 QWORD PTR tv72[rbp], rax
  0004f	eb 12		 jmp	 SHORT $LN4@Myptr
$LN3@Myptr:
  00051	48 8b 85 f0 00
	00 00		 mov	 rax, QWORD PTR this$[rbp]
  00058	48 83 c0 08	 add	 rax, 8
  0005c	48 89 85 c0 00
	00 00		 mov	 QWORD PTR tv72[rbp], rax
$LN4@Myptr:
  00063	48 8b 85 c0 00
	00 00		 mov	 rax, QWORD PTR tv72[rbp]
; Line 515
  0006a	48 8d a5 d8 00
	00 00		 lea	 rsp, QWORD PTR [rbp+216]
  00071	5f		 pop	 rdi
  00072	5d		 pop	 rbp
  00073	c3		 ret	 0
?_Myptr@?$_String_val@U?$_Simple_types@D@std@@@std@@QEBAPEBDXZ ENDP ; std::_String_val<std::_Simple_types<char> >::_Myptr
_TEXT	ENDS
; Function compile flags: /Odtp /RTCsu /ZI
;	COMDAT ?_Myptr@?$_String_val@U?$_Simple_types@D@std@@@std@@QEAAPEADXZ
_TEXT	SEGMENT
tv72 = 192
this$ = 240
?_Myptr@?$_String_val@U?$_Simple_types@D@std@@@std@@QEAAPEADXZ PROC ; std::_String_val<std::_Simple_types<char> >::_Myptr, COMDAT
; File d:\appdata\vsp\vc\include\xstring
; Line 504
$LN5:
  00000	48 89 4c 24 08	 mov	 QWORD PTR [rsp+8], rcx
  00005	55		 push	 rbp
  00006	57		 push	 rdi
  00007	48 81 ec f8 00
	00 00		 sub	 rsp, 248		; 000000f8H
  0000e	48 8d 6c 24 20	 lea	 rbp, QWORD PTR [rsp+32]
  00013	48 8b fc	 mov	 rdi, rsp
  00016	b9 3e 00 00 00	 mov	 ecx, 62			; 0000003eH
  0001b	b8 cc cc cc cc	 mov	 eax, -858993460		; ccccccccH
  00020	f3 ab		 rep stosd
  00022	48 8b 8c 24 18
	01 00 00	 mov	 rcx, QWORD PTR [rsp+280]
; Line 505
  0002a	48 8b 85 f0 00
	00 00		 mov	 rax, QWORD PTR this$[rbp]
  00031	48 83 78 20 10	 cmp	 QWORD PTR [rax+32], 16
  00036	72 19		 jb	 SHORT $LN3@Myptr
  00038	48 8b 85 f0 00
	00 00		 mov	 rax, QWORD PTR this$[rbp]
  0003f	48 8b 48 08	 mov	 rcx, QWORD PTR [rax+8]
  00043	e8 00 00 00 00	 call	 ??$addressof@D@std@@YAPEADAEAD@Z ; std::addressof<char>
  00048	48 89 85 c0 00
	00 00		 mov	 QWORD PTR tv72[rbp], rax
  0004f	eb 12		 jmp	 SHORT $LN4@Myptr
$LN3@Myptr:
  00051	48 8b 85 f0 00
	00 00		 mov	 rax, QWORD PTR this$[rbp]
  00058	48 83 c0 08	 add	 rax, 8
  0005c	48 89 85 c0 00
	00 00		 mov	 QWORD PTR tv72[rbp], rax
$LN4@Myptr:
  00063	48 8b 85 c0 00
	00 00		 mov	 rax, QWORD PTR tv72[rbp]
; Line 508
  0006a	48 8d a5 d8 00
	00 00		 lea	 rsp, QWORD PTR [rbp+216]
  00071	5f		 pop	 rdi
  00072	5d		 pop	 rbp
  00073	c3		 ret	 0
?_Myptr@?$_String_val@U?$_Simple_types@D@std@@@std@@QEAAPEADXZ ENDP ; std::_String_val<std::_Simple_types<char> >::_Myptr
_TEXT	ENDS
; Function compile flags: /Odtp /RTCsu /ZI
;	COMDAT ??0?$_String_val@U?$_Simple_types@D@std@@@std@@QEAA@XZ
_TEXT	SEGMENT
this$ = 224
??0?$_String_val@U?$_Simple_types@D@std@@@std@@QEAA@XZ PROC ; std::_String_val<std::_Simple_types<char> >::_String_val<std::_Simple_types<char> >, COMDAT
; File d:\appdata\vsp\vc\include\xstring
; Line 486
$LN4:
  00000	48 89 4c 24 08	 mov	 QWORD PTR [rsp+8], rcx
  00005	55		 push	 rbp
  00006	57		 push	 rdi
  00007	48 81 ec e8 00
	00 00		 sub	 rsp, 232		; 000000e8H
  0000e	48 8d 6c 24 20	 lea	 rbp, QWORD PTR [rsp+32]
  00013	48 8b fc	 mov	 rdi, rsp
  00016	b9 3a 00 00 00	 mov	 ecx, 58			; 0000003aH
  0001b	b8 cc cc cc cc	 mov	 eax, -858993460		; ccccccccH
  00020	f3 ab		 rep stosd
  00022	48 8b 8c 24 08
	01 00 00	 mov	 rcx, QWORD PTR [rsp+264]
; Line 487
  0002a	48 8b 8d e0 00
	00 00		 mov	 rcx, QWORD PTR this$[rbp]
  00031	e8 00 00 00 00	 call	 ??0_Container_base12@std@@QEAA@XZ ; std::_Container_base12::_Container_base12
; Line 488
  00036	48 8b 85 e0 00
	00 00		 mov	 rax, QWORD PTR this$[rbp]
  0003d	48 c7 40 18 00
	00 00 00	 mov	 QWORD PTR [rax+24], 0
; Line 489
  00045	48 8b 85 e0 00
	00 00		 mov	 rax, QWORD PTR this$[rbp]
  0004c	48 c7 40 20 00
	00 00 00	 mov	 QWORD PTR [rax+32], 0
; Line 490
  00054	48 8b 85 e0 00
	00 00		 mov	 rax, QWORD PTR this$[rbp]
  0005b	48 8d a5 c8 00
	00 00		 lea	 rsp, QWORD PTR [rbp+200]
  00062	5f		 pop	 rdi
  00063	5d		 pop	 rbp
  00064	c3		 ret	 0
??0?$_String_val@U?$_Simple_types@D@std@@@std@@QEAA@XZ ENDP ; std::_String_val<std::_Simple_types<char> >::_String_val<std::_Simple_types<char> >
_TEXT	ENDS
; Function compile flags: /Odtp /RTCsu /ZI
;	COMDAT ?max_size@?$_Wrap_alloc@V?$allocator@D@std@@@std@@QEBA_KU_Nil@2@@Z
_TEXT	SEGMENT
this$ = 224
__formal$ = 232
?max_size@?$_Wrap_alloc@V?$allocator@D@std@@@std@@QEBA_KU_Nil@2@@Z PROC ; std::_Wrap_alloc<std::allocator<char> >::max_size, COMDAT
; File d:\appdata\vsp\vc\include\xmemory0
; Line 929
$LN3:
  00000	88 54 24 10	 mov	 BYTE PTR [rsp+16], dl
  00004	48 89 4c 24 08	 mov	 QWORD PTR [rsp+8], rcx
  00009	55		 push	 rbp
  0000a	57		 push	 rdi
  0000b	48 81 ec e8 00
	00 00		 sub	 rsp, 232		; 000000e8H
  00012	48 8d 6c 24 20	 lea	 rbp, QWORD PTR [rsp+32]
  00017	48 8b fc	 mov	 rdi, rsp
  0001a	b9 3a 00 00 00	 mov	 ecx, 58			; 0000003aH
  0001f	b8 cc cc cc cc	 mov	 eax, -858993460		; ccccccccH
  00024	f3 ab		 rep stosd
  00026	48 8b 8c 24 08
	01 00 00	 mov	 rcx, QWORD PTR [rsp+264]
; Line 930
  0002e	48 8b 8d e0 00
	00 00		 mov	 rcx, QWORD PTR this$[rbp]
  00035	e8 00 00 00 00	 call	 ?max_size@?$allocator_traits@V?$allocator@D@std@@@std@@SA_KAEBV?$allocator@D@2@@Z ; std::allocator_traits<std::allocator<char> >::max_size
; Line 931
  0003a	48 8d a5 c8 00
	00 00		 lea	 rsp, QWORD PTR [rbp+200]
  00041	5f		 pop	 rdi
  00042	5d		 pop	 rbp
  00043	c3		 ret	 0
?max_size@?$_Wrap_alloc@V?$allocator@D@std@@@std@@QEBA_KU_Nil@2@@Z ENDP ; std::_Wrap_alloc<std::allocator<char> >::max_size
_TEXT	ENDS
; Function compile flags: /Odtp /RTCsu /ZI
;	COMDAT ?deallocate@?$_Wrap_alloc@V?$allocator@D@std@@@std@@QEAAXPEAD_K@Z
_TEXT	SEGMENT
this$ = 224
_Ptr$ = 232
_Count$ = 240
?deallocate@?$_Wrap_alloc@V?$allocator@D@std@@@std@@QEAAXPEAD_K@Z PROC ; std::_Wrap_alloc<std::allocator<char> >::deallocate, COMDAT
; File d:\appdata\vsp\vc\include\xmemory0
; Line 908
$LN3:
  00000	4c 89 44 24 18	 mov	 QWORD PTR [rsp+24], r8
  00005	48 89 54 24 10	 mov	 QWORD PTR [rsp+16], rdx
  0000a	48 89 4c 24 08	 mov	 QWORD PTR [rsp+8], rcx
  0000f	55		 push	 rbp
  00010	57		 push	 rdi
  00011	48 81 ec e8 00
	00 00		 sub	 rsp, 232		; 000000e8H
  00018	48 8d 6c 24 20	 lea	 rbp, QWORD PTR [rsp+32]
  0001d	48 8b fc	 mov	 rdi, rsp
  00020	b9 3a 00 00 00	 mov	 ecx, 58			; 0000003aH
  00025	b8 cc cc cc cc	 mov	 eax, -858993460		; ccccccccH
  0002a	f3 ab		 rep stosd
  0002c	48 8b 8c 24 08
	01 00 00	 mov	 rcx, QWORD PTR [rsp+264]
; Line 909
  00034	4c 8b 85 f0 00
	00 00		 mov	 r8, QWORD PTR _Count$[rbp]
  0003b	48 8b 95 e8 00
	00 00		 mov	 rdx, QWORD PTR _Ptr$[rbp]
  00042	48 8b 8d e0 00
	00 00		 mov	 rcx, QWORD PTR this$[rbp]
  00049	e8 00 00 00 00	 call	 ?deallocate@?$allocator@D@std@@QEAAXPEAD_K@Z ; std::allocator<char>::deallocate
; Line 910
  0004e	48 8d a5 c8 00
	00 00		 lea	 rsp, QWORD PTR [rbp+200]
  00055	5f		 pop	 rdi
  00056	5d		 pop	 rbp
  00057	c3		 ret	 0
?deallocate@?$_Wrap_alloc@V?$allocator@D@std@@@std@@QEAAXPEAD_K@Z ENDP ; std::_Wrap_alloc<std::allocator<char> >::deallocate
_TEXT	ENDS
; Function compile flags: /Odtp /RTCsu /ZI
;	COMDAT ?allocate@?$_Wrap_alloc@V?$allocator@D@std@@@std@@QEAAPEAD_K@Z
_TEXT	SEGMENT
this$ = 224
_Count$ = 232
?allocate@?$_Wrap_alloc@V?$allocator@D@std@@@std@@QEAAPEAD_K@Z PROC ; std::_Wrap_alloc<std::allocator<char> >::allocate, COMDAT
; File d:\appdata\vsp\vc\include\xmemory0
; Line 897
$LN3:
  00000	48 89 54 24 10	 mov	 QWORD PTR [rsp+16], rdx
  00005	48 89 4c 24 08	 mov	 QWORD PTR [rsp+8], rcx
  0000a	55		 push	 rbp
  0000b	57		 push	 rdi
  0000c	48 81 ec e8 00
	00 00		 sub	 rsp, 232		; 000000e8H
  00013	48 8d 6c 24 20	 lea	 rbp, QWORD PTR [rsp+32]
  00018	48 8b fc	 mov	 rdi, rsp
  0001b	b9 3a 00 00 00	 mov	 ecx, 58			; 0000003aH
  00020	b8 cc cc cc cc	 mov	 eax, -858993460		; ccccccccH
  00025	f3 ab		 rep stosd
  00027	48 8b 8c 24 08
	01 00 00	 mov	 rcx, QWORD PTR [rsp+264]
; Line 898
  0002f	48 8b 95 e8 00
	00 00		 mov	 rdx, QWORD PTR _Count$[rbp]
  00036	48 8b 8d e0 00
	00 00		 mov	 rcx, QWORD PTR this$[rbp]
  0003d	e8 00 00 00 00	 call	 ?allocate@?$allocator@D@std@@QEAAPEAD_K@Z ; std::allocator<char>::allocate
; Line 899
  00042	48 8d a5 c8 00
	00 00		 lea	 rsp, QWORD PTR [rbp+200]
  00049	5f		 pop	 rdi
  0004a	5d		 pop	 rbp
  0004b	c3		 ret	 0
?allocate@?$_Wrap_alloc@V?$allocator@D@std@@@std@@QEAAPEAD_K@Z ENDP ; std::_Wrap_alloc<std::allocator<char> >::allocate
_TEXT	ENDS
; Function compile flags: /Odtp /RTCsu /ZI
;	COMDAT ??0?$_Wrap_alloc@V?$allocator@D@std@@@std@@QEAA@AEBV?$allocator@D@1@@Z
_TEXT	SEGMENT
this$ = 224
_Right$ = 232
??0?$_Wrap_alloc@V?$allocator@D@std@@@std@@QEAA@AEBV?$allocator@D@1@@Z PROC ; std::_Wrap_alloc<std::allocator<char> >::_Wrap_alloc<std::allocator<char> >, COMDAT
; File d:\appdata\vsp\vc\include\xmemory0
; Line 857
$LN3:
  00000	48 89 54 24 10	 mov	 QWORD PTR [rsp+16], rdx
  00005	48 89 4c 24 08	 mov	 QWORD PTR [rsp+8], rcx
  0000a	55		 push	 rbp
  0000b	57		 push	 rdi
  0000c	48 81 ec e8 00
	00 00		 sub	 rsp, 232		; 000000e8H
  00013	48 8d 6c 24 20	 lea	 rbp, QWORD PTR [rsp+32]
  00018	48 8b fc	 mov	 rdi, rsp
  0001b	b9 3a 00 00 00	 mov	 ecx, 58			; 0000003aH
  00020	b8 cc cc cc cc	 mov	 eax, -858993460		; ccccccccH
  00025	f3 ab		 rep stosd
  00027	48 8b 8c 24 08
	01 00 00	 mov	 rcx, QWORD PTR [rsp+264]
; Line 856
  0002f	48 8b 95 e8 00
	00 00		 mov	 rdx, QWORD PTR _Right$[rbp]
  00036	48 8b 8d e0 00
	00 00		 mov	 rcx, QWORD PTR this$[rbp]
  0003d	e8 00 00 00 00	 call	 ??0?$allocator@D@std@@QEAA@AEBV01@@Z ; std::allocator<char>::allocator<char>
; Line 858
  00042	48 8b 85 e0 00
	00 00		 mov	 rax, QWORD PTR this$[rbp]
  00049	48 8d a5 c8 00
	00 00		 lea	 rsp, QWORD PTR [rbp+200]
  00050	5f		 pop	 rdi
  00051	5d		 pop	 rbp
  00052	c3		 ret	 0
??0?$_Wrap_alloc@V?$allocator@D@std@@@std@@QEAA@AEBV?$allocator@D@1@@Z ENDP ; std::_Wrap_alloc<std::allocator<char> >::_Wrap_alloc<std::allocator<char> >
_TEXT	ENDS
; Function compile flags: /Odtp /RTCsu /ZI
;	COMDAT ?select_on_container_copy_construction@?$_Wrap_alloc@V?$allocator@D@std@@@std@@QEBA?AU12@U_Nil@2@@Z
_TEXT	SEGMENT
$T1 = 196
this$ = 256
__$ReturnUdt$ = 264
__formal$ = 272
?select_on_container_copy_construction@?$_Wrap_alloc@V?$allocator@D@std@@@std@@QEBA?AU12@U_Nil@2@@Z PROC ; std::_Wrap_alloc<std::allocator<char> >::select_on_container_copy_construction, COMDAT
; File d:\appdata\vsp\vc\include\xmemory0
; Line 828
$LN3:
  00000	44 88 44 24 18	 mov	 BYTE PTR [rsp+24], r8b
  00005	48 89 54 24 10	 mov	 QWORD PTR [rsp+16], rdx
  0000a	48 89 4c 24 08	 mov	 QWORD PTR [rsp+8], rcx
  0000f	55		 push	 rbp
  00010	57		 push	 rdi
  00011	48 81 ec 08 01
	00 00		 sub	 rsp, 264		; 00000108H
  00018	48 8d 6c 24 20	 lea	 rbp, QWORD PTR [rsp+32]
  0001d	48 8b fc	 mov	 rdi, rsp
  00020	b9 42 00 00 00	 mov	 ecx, 66			; 00000042H
  00025	b8 cc cc cc cc	 mov	 eax, -858993460		; ccccccccH
  0002a	f3 ab		 rep stosd
  0002c	48 8b 8c 24 28
	01 00 00	 mov	 rcx, QWORD PTR [rsp+296]
; Line 829
  00034	48 8b 95 00 01
	00 00		 mov	 rdx, QWORD PTR this$[rbp]
  0003b	48 8d 8d c4 00
	00 00		 lea	 rcx, QWORD PTR $T1[rbp]
  00042	e8 00 00 00 00	 call	 ?select_on_container_copy_construction@?$allocator_traits@V?$allocator@D@std@@@std@@SA?AV?$allocator@D@2@AEBV32@@Z ; std::allocator_traits<std::allocator<char> >::select_on_container_copy_construction
  00047	48 8b d0	 mov	 rdx, rax
  0004a	48 8b 8d 08 01
	00 00		 mov	 rcx, QWORD PTR __$ReturnUdt$[rbp]
  00051	e8 00 00 00 00	 call	 ??0?$_Wrap_alloc@V?$allocator@D@std@@@std@@QEAA@AEBV?$allocator@D@1@@Z ; std::_Wrap_alloc<std::allocator<char> >::_Wrap_alloc<std::allocator<char> >
  00056	48 8b 85 08 01
	00 00		 mov	 rax, QWORD PTR __$ReturnUdt$[rbp]
; Line 830
  0005d	48 8d a5 e8 00
	00 00		 lea	 rsp, QWORD PTR [rbp+232]
  00064	5f		 pop	 rdi
  00065	5d		 pop	 rbp
  00066	c3		 ret	 0
?select_on_container_copy_construction@?$_Wrap_alloc@V?$allocator@D@std@@@std@@QEBA?AU12@U_Nil@2@@Z ENDP ; std::_Wrap_alloc<std::allocator<char> >::select_on_container_copy_construction
_TEXT	ENDS
; Function compile flags: /Odtp /RTCsu /ZI
;	COMDAT ?select_on_container_copy_construction@?$allocator_traits@V?$allocator@D@std@@@std@@SA?AV?$allocator@D@2@AEBV32@@Z
_TEXT	SEGMENT
__$ReturnUdt$ = 224
_Al$ = 232
?select_on_container_copy_construction@?$allocator_traits@V?$allocator@D@std@@@std@@SA?AV?$allocator@D@2@AEBV32@@Z PROC ; std::allocator_traits<std::allocator<char> >::select_on_container_copy_construction, COMDAT
; File d:\appdata\vsp\vc\include\xmemory0
; Line 790
$LN3:
  00000	48 89 54 24 10	 mov	 QWORD PTR [rsp+16], rdx
  00005	48 89 4c 24 08	 mov	 QWORD PTR [rsp+8], rcx
  0000a	55		 push	 rbp
  0000b	57		 push	 rdi
  0000c	48 81 ec e8 00
	00 00		 sub	 rsp, 232		; 000000e8H
  00013	48 8d 6c 24 20	 lea	 rbp, QWORD PTR [rsp+32]
  00018	48 8b fc	 mov	 rdi, rsp
  0001b	b9 3a 00 00 00	 mov	 ecx, 58			; 0000003aH
  00020	b8 cc cc cc cc	 mov	 eax, -858993460		; ccccccccH
  00025	f3 ab		 rep stosd
  00027	48 8b 8c 24 08
	01 00 00	 mov	 rcx, QWORD PTR [rsp+264]
; Line 791
  0002f	48 8b 95 e8 00
	00 00		 mov	 rdx, QWORD PTR _Al$[rbp]
  00036	48 8b 8d e0 00
	00 00		 mov	 rcx, QWORD PTR __$ReturnUdt$[rbp]
  0003d	e8 00 00 00 00	 call	 ??0?$allocator@D@std@@QEAA@AEBV01@@Z ; std::allocator<char>::allocator<char>
  00042	48 8b 85 e0 00
	00 00		 mov	 rax, QWORD PTR __$ReturnUdt$[rbp]
; Line 792
  00049	48 8d a5 c8 00
	00 00		 lea	 rsp, QWORD PTR [rbp+200]
  00050	5f		 pop	 rdi
  00051	5d		 pop	 rbp
  00052	c3		 ret	 0
?select_on_container_copy_construction@?$allocator_traits@V?$allocator@D@std@@@std@@SA?AV?$allocator@D@2@AEBV32@@Z ENDP ; std::allocator_traits<std::allocator<char> >::select_on_container_copy_construction
_TEXT	ENDS
; Function compile flags: /Odtp /RTCsu /ZI
;	COMDAT ?max_size@?$allocator_traits@V?$allocator@D@std@@@std@@SA_KAEBV?$allocator@D@2@@Z
_TEXT	SEGMENT
_Al$ = 224
?max_size@?$allocator_traits@V?$allocator@D@std@@@std@@SA_KAEBV?$allocator@D@2@@Z PROC ; std::allocator_traits<std::allocator<char> >::max_size, COMDAT
; File d:\appdata\vsp\vc\include\xmemory0
; Line 784
$LN3:
  00000	48 89 4c 24 08	 mov	 QWORD PTR [rsp+8], rcx
  00005	55		 push	 rbp
  00006	57		 push	 rdi
  00007	48 81 ec e8 00
	00 00		 sub	 rsp, 232		; 000000e8H
  0000e	48 8d 6c 24 20	 lea	 rbp, QWORD PTR [rsp+32]
  00013	48 8b fc	 mov	 rdi, rsp
  00016	b9 3a 00 00 00	 mov	 ecx, 58			; 0000003aH
  0001b	b8 cc cc cc cc	 mov	 eax, -858993460		; ccccccccH
  00020	f3 ab		 rep stosd
  00022	48 8b 8c 24 08
	01 00 00	 mov	 rcx, QWORD PTR [rsp+264]
; Line 785
  0002a	48 8b 8d e0 00
	00 00		 mov	 rcx, QWORD PTR _Al$[rbp]
  00031	e8 00 00 00 00	 call	 ?max_size@?$allocator@D@std@@QEBA_KXZ ; std::allocator<char>::max_size
; Line 786
  00036	48 8d a5 c8 00
	00 00		 lea	 rsp, QWORD PTR [rbp+200]
  0003d	5f		 pop	 rdi
  0003e	5d		 pop	 rbp
  0003f	c3		 ret	 0
?max_size@?$allocator_traits@V?$allocator@D@std@@@std@@SA_KAEBV?$allocator@D@2@@Z ENDP ; std::allocator_traits<std::allocator<char> >::max_size
_TEXT	ENDS
; Function compile flags: /Odtp /RTCsu /ZI
;	COMDAT ?max_size@?$allocator@D@std@@QEBA_KXZ
_TEXT	SEGMENT
this$ = 224
?max_size@?$allocator@D@std@@QEBA_KXZ PROC		; std::allocator<char>::max_size, COMDAT
; File d:\appdata\vsp\vc\include\xmemory0
; Line 666
$LN3:
  00000	48 89 4c 24 08	 mov	 QWORD PTR [rsp+8], rcx
  00005	55		 push	 rbp
  00006	57		 push	 rdi
  00007	48 81 ec c8 00
	00 00		 sub	 rsp, 200		; 000000c8H
  0000e	48 8b ec	 mov	 rbp, rsp
  00011	48 8b fc	 mov	 rdi, rsp
  00014	b9 32 00 00 00	 mov	 ecx, 50			; 00000032H
  00019	b8 cc cc cc cc	 mov	 eax, -858993460		; ccccccccH
  0001e	f3 ab		 rep stosd
  00020	48 8b 8c 24 e8
	00 00 00	 mov	 rcx, QWORD PTR [rsp+232]
; Line 667
  00028	48 c7 c0 ff ff
	ff ff		 mov	 rax, -1
; Line 668
  0002f	48 8d a5 c8 00
	00 00		 lea	 rsp, QWORD PTR [rbp+200]
  00036	5f		 pop	 rdi
  00037	5d		 pop	 rbp
  00038	c3		 ret	 0
?max_size@?$allocator@D@std@@QEBA_KXZ ENDP		; std::allocator<char>::max_size
_TEXT	ENDS
; Function compile flags: /Odtp /RTCsu /ZI
;	COMDAT ?allocate@?$allocator@D@std@@QEAAPEAD_K@Z
_TEXT	SEGMENT
this$ = 224
_Count$ = 232
?allocate@?$allocator@D@std@@QEAAPEAD_K@Z PROC		; std::allocator<char>::allocate, COMDAT
; File d:\appdata\vsp\vc\include\xmemory0
; Line 642
$LN3:
  00000	48 89 54 24 10	 mov	 QWORD PTR [rsp+16], rdx
  00005	48 89 4c 24 08	 mov	 QWORD PTR [rsp+8], rcx
  0000a	55		 push	 rbp
  0000b	57		 push	 rdi
  0000c	48 81 ec e8 00
	00 00		 sub	 rsp, 232		; 000000e8H
  00013	48 8d 6c 24 20	 lea	 rbp, QWORD PTR [rsp+32]
  00018	48 8b fc	 mov	 rdi, rsp
  0001b	b9 3a 00 00 00	 mov	 ecx, 58			; 0000003aH
  00020	b8 cc cc cc cc	 mov	 eax, -858993460		; ccccccccH
  00025	f3 ab		 rep stosd
  00027	48 8b 8c 24 08
	01 00 00	 mov	 rcx, QWORD PTR [rsp+264]
; Line 643
  0002f	41 b0 01	 mov	 r8b, 1
  00032	ba 01 00 00 00	 mov	 edx, 1
  00037	48 8b 8d e8 00
	00 00		 mov	 rcx, QWORD PTR _Count$[rbp]
  0003e	e8 00 00 00 00	 call	 ?_Allocate@std@@YAPEAX_K0_N@Z ; std::_Allocate
; Line 644
  00043	48 8d a5 c8 00
	00 00		 lea	 rsp, QWORD PTR [rbp+200]
  0004a	5f		 pop	 rdi
  0004b	5d		 pop	 rbp
  0004c	c3		 ret	 0
?allocate@?$allocator@D@std@@QEAAPEAD_K@Z ENDP		; std::allocator<char>::allocate
_TEXT	ENDS
; Function compile flags: /Odtp /RTCsu /ZI
;	COMDAT ?deallocate@?$allocator@D@std@@QEAAXPEAD_K@Z
_TEXT	SEGMENT
this$ = 224
_Ptr$ = 232
_Count$ = 240
?deallocate@?$allocator@D@std@@QEAAXPEAD_K@Z PROC	; std::allocator<char>::deallocate, COMDAT
; File d:\appdata\vsp\vc\include\xmemory0
; Line 637
$LN3:
  00000	4c 89 44 24 18	 mov	 QWORD PTR [rsp+24], r8
  00005	48 89 54 24 10	 mov	 QWORD PTR [rsp+16], rdx
  0000a	48 89 4c 24 08	 mov	 QWORD PTR [rsp+8], rcx
  0000f	55		 push	 rbp
  00010	57		 push	 rdi
  00011	48 81 ec e8 00
	00 00		 sub	 rsp, 232		; 000000e8H
  00018	48 8d 6c 24 20	 lea	 rbp, QWORD PTR [rsp+32]
  0001d	48 8b fc	 mov	 rdi, rsp
  00020	b9 3a 00 00 00	 mov	 ecx, 58			; 0000003aH
  00025	b8 cc cc cc cc	 mov	 eax, -858993460		; ccccccccH
  0002a	f3 ab		 rep stosd
  0002c	48 8b 8c 24 08
	01 00 00	 mov	 rcx, QWORD PTR [rsp+264]
; Line 638
  00034	41 b8 01 00 00
	00		 mov	 r8d, 1
  0003a	48 8b 95 f0 00
	00 00		 mov	 rdx, QWORD PTR _Count$[rbp]
  00041	48 8b 8d e8 00
	00 00		 mov	 rcx, QWORD PTR _Ptr$[rbp]
  00048	e8 00 00 00 00	 call	 ?_Deallocate@std@@YAXPEAX_K1@Z ; std::_Deallocate
; Line 639
  0004d	48 8d a5 c8 00
	00 00		 lea	 rsp, QWORD PTR [rbp+200]
  00054	5f		 pop	 rdi
  00055	5d		 pop	 rbp
  00056	c3		 ret	 0
?deallocate@?$allocator@D@std@@QEAAXPEAD_K@Z ENDP	; std::allocator<char>::deallocate
_TEXT	ENDS
; Function compile flags: /Odtp /RTCsu /ZI
;	COMDAT ??0?$allocator@D@std@@QEAA@AEBV01@@Z
_TEXT	SEGMENT
this$ = 224
__formal$ = 232
??0?$allocator@D@std@@QEAA@AEBV01@@Z PROC		; std::allocator<char>::allocator<char>, COMDAT
; File d:\appdata\vsp\vc\include\xmemory0
; Line 621
$LN3:
  00000	48 89 54 24 10	 mov	 QWORD PTR [rsp+16], rdx
  00005	48 89 4c 24 08	 mov	 QWORD PTR [rsp+8], rcx
  0000a	55		 push	 rbp
  0000b	57		 push	 rdi
  0000c	48 81 ec c8 00
	00 00		 sub	 rsp, 200		; 000000c8H
  00013	48 8b ec	 mov	 rbp, rsp
  00016	48 8b fc	 mov	 rdi, rsp
  00019	b9 32 00 00 00	 mov	 ecx, 50			; 00000032H
  0001e	b8 cc cc cc cc	 mov	 eax, -858993460		; ccccccccH
  00023	f3 ab		 rep stosd
  00025	48 8b 8c 24 e8
	00 00 00	 mov	 rcx, QWORD PTR [rsp+232]
; Line 623
  0002d	48 8b 85 e0 00
	00 00		 mov	 rax, QWORD PTR this$[rbp]
  00034	48 8d a5 c8 00
	00 00		 lea	 rsp, QWORD PTR [rbp+200]
  0003b	5f		 pop	 rdi
  0003c	5d		 pop	 rbp
  0003d	c3		 ret	 0
??0?$allocator@D@std@@QEAA@AEBV01@@Z ENDP		; std::allocator<char>::allocator<char>
_TEXT	ENDS
; Function compile flags: /Odtp /RTCsu /ZI
;	COMDAT ??0?$allocator@D@std@@QEAA@XZ
_TEXT	SEGMENT
this$ = 224
??0?$allocator@D@std@@QEAA@XZ PROC			; std::allocator<char>::allocator<char>, COMDAT
; File d:\appdata\vsp\vc\include\xmemory0
; Line 617
$LN3:
  00000	48 89 4c 24 08	 mov	 QWORD PTR [rsp+8], rcx
  00005	55		 push	 rbp
  00006	57		 push	 rdi
  00007	48 81 ec c8 00
	00 00		 sub	 rsp, 200		; 000000c8H
  0000e	48 8b ec	 mov	 rbp, rsp
  00011	48 8b fc	 mov	 rdi, rsp
  00014	b9 32 00 00 00	 mov	 ecx, 50			; 00000032H
  00019	b8 cc cc cc cc	 mov	 eax, -858993460		; ccccccccH
  0001e	f3 ab		 rep stosd
  00020	48 8b 8c 24 e8
	00 00 00	 mov	 rcx, QWORD PTR [rsp+232]
; Line 619
  00028	48 8b 85 e0 00
	00 00		 mov	 rax, QWORD PTR this$[rbp]
  0002f	48 8d a5 c8 00
	00 00		 lea	 rsp, QWORD PTR [rbp+200]
  00036	5f		 pop	 rdi
  00037	5d		 pop	 rbp
  00038	c3		 ret	 0
??0?$allocator@D@std@@QEAA@XZ ENDP			; std::allocator<char>::allocator<char>
_TEXT	ENDS
; Function compile flags: /Odtp /RTCsu /ZI
;	COMDAT ?_Deallocate@std@@YAXPEAX_K1@Z
_TEXT	SEGMENT
_User_size$ = 8
_Ptr_user$1 = 40
_Ptr_ptr$2 = 72
_Ptr_container$3 = 104
_Ptr$ = 352
_Count$ = 360
_Sz$ = 368
?_Deallocate@std@@YAXPEAX_K1@Z PROC			; std::_Deallocate, COMDAT
; File d:\appdata\vsp\vc\include\xmemory0
; Line 98
$LN22:
  00000	4c 89 44 24 18	 mov	 QWORD PTR [rsp+24], r8
  00005	48 89 54 24 10	 mov	 QWORD PTR [rsp+16], rdx
  0000a	48 89 4c 24 08	 mov	 QWORD PTR [rsp+8], rcx
  0000f	55		 push	 rbp
  00010	57		 push	 rdi
  00011	48 81 ec 78 01
	00 00		 sub	 rsp, 376		; 00000178H
  00018	48 8d 6c 24 30	 lea	 rbp, QWORD PTR [rsp+48]
  0001d	48 8b fc	 mov	 rdi, rsp
  00020	b9 5e 00 00 00	 mov	 ecx, 94			; 0000005eH
  00025	b8 cc cc cc cc	 mov	 eax, -858993460		; ccccccccH
  0002a	f3 ab		 rep stosd
  0002c	48 8b 8c 24 98
	01 00 00	 mov	 rcx, QWORD PTR [rsp+408]
; Line 100
  00034	33 d2		 xor	 edx, edx
  00036	48 c7 c0 ff ff
	ff ff		 mov	 rax, -1
  0003d	48 f7 b5 70 01
	00 00		 div	 QWORD PTR _Sz$[rbp]
  00044	48 39 85 68 01
	00 00		 cmp	 QWORD PTR _Count$[rbp], rax
  0004b	0f 86 83 00 00
	00		 jbe	 $LN2@Deallocate
  00051	48 8d 05 00 00
	00 00		 lea	 rax, OFFSET FLAT:??_C@_0BN@HMCJOMKN@_Count?5?$DM?$DN?5?$CIsize_t?$CJ?$CI?91?$CJ?5?1?5_Sz?$AA@
  00058	48 85 c0	 test	 rax, rax
  0005b	74 06		 je	 SHORT $LN10@Deallocate
  0005d	33 c0		 xor	 eax, eax
  0005f	85 c0		 test	 eax, eax
  00061	75 41		 jne	 SHORT $LN11@Deallocate
$LN10@Deallocate:
  00063	8b 05 00 00 00
	00		 mov	 eax, DWORD PTR ?__LINE__Var@?0??_Deallocate@std@@YAXPEAX_K1@Z@4JA
  00069	83 c0 02	 add	 eax, 2
  0006c	48 8d 0d 00 00
	00 00		 lea	 rcx, OFFSET FLAT:??_C@_1EI@MLOBABC@?$AA?$CC?$AA_?$AAC?$AAo?$AAu?$AAn?$AAt?$AA?5?$AA?$DM?$AA?$DN?$AA?5?$AA?$CI?$AAs?$AAi?$AAz?$AAe?$AA_?$AAt?$AA?$CJ?$AA?$CI?$AA?9?$AA1?$AA?$CJ?$AA?5?$AA?1?$AA?5?$AA_?$AAS?$AAz?$AA?$CC?$AA?5?$AA?$CG@
  00073	48 89 4c 24 28	 mov	 QWORD PTR [rsp+40], rcx
  00078	48 8d 0d 00 00
	00 00		 lea	 rcx, OFFSET FLAT:??_C@_17CNPHIMPH@?$AA?$CF?$AAl?$AAs?$AA?$AA@
  0007f	48 89 4c 24 20	 mov	 QWORD PTR [rsp+32], rcx
  00084	45 33 c9	 xor	 r9d, r9d
  00087	44 8b c0	 mov	 r8d, eax
  0008a	48 8d 15 00 00
	00 00		 lea	 rdx, OFFSET FLAT:??_C@_1EG@DJALBHDK@?$AAd?$AA?3?$AA?2?$AAa?$AAp?$AAp?$AAd?$AAa?$AAt?$AAa?$AA?2?$AAv?$AAs?$AAp?$AA?2?$AAv?$AAc?$AA?2?$AAi?$AAn?$AAc?$AAl?$AAu?$AAd?$AAe?$AA?2?$AAx?$AAm?$AAe?$AAm?$AAo?$AAr@
  00091	b9 02 00 00 00	 mov	 ecx, 2
  00096	ff 15 00 00 00
	00		 call	 QWORD PTR __imp__CrtDbgReportW
  0009c	83 f8 01	 cmp	 eax, 1
  0009f	75 03		 jne	 SHORT $LN11@Deallocate
  000a1	cc		 int	 3
  000a2	33 c0		 xor	 eax, eax
$LN11@Deallocate:
  000a4	8b 05 00 00 00
	00		 mov	 eax, DWORD PTR ?__LINE__Var@?0??_Deallocate@std@@YAXPEAX_K1@Z@4JA
  000aa	83 c0 02	 add	 eax, 2
  000ad	48 c7 44 24 20
	00 00 00 00	 mov	 QWORD PTR [rsp+32], 0
  000b6	44 8b c8	 mov	 r9d, eax
  000b9	4c 8d 05 00 00
	00 00		 lea	 r8, OFFSET FLAT:??_C@_1EG@DJALBHDK@?$AAd?$AA?3?$AA?2?$AAa?$AAp?$AAp?$AAd?$AAa?$AAt?$AAa?$AA?2?$AAv?$AAs?$AAp?$AA?2?$AAv?$AAc?$AA?2?$AAi?$AAn?$AAc?$AAl?$AAu?$AAd?$AAe?$AA?2?$AAx?$AAm?$AAe?$AAm?$AAo?$AAr@
  000c0	48 8d 15 00 00
	00 00		 lea	 rdx, OFFSET FLAT:??_C@_1CC@LOFJFFDB@?$AAs?$AAt?$AAd?$AA?3?$AA?3?$AA_?$AAD?$AAe?$AAa?$AAl?$AAl?$AAo?$AAc?$AAa?$AAt?$AAe?$AA?$AA@
  000c7	48 8d 0d 00 00
	00 00		 lea	 rcx, OFFSET FLAT:??_C@_1CG@JNLFBNGN@?$AA?$CC?$AAi?$AAn?$AAv?$AAa?$AAl?$AAi?$AAd?$AA?5?$AAa?$AAr?$AAg?$AAu?$AAm?$AAe?$AAn?$AAt?$AA?$CC?$AA?$AA@
  000ce	ff 15 00 00 00
	00		 call	 QWORD PTR __imp__invalid_parameter
$LN2@Deallocate:
; Line 101
  000d4	48 8b 85 68 01
	00 00		 mov	 rax, QWORD PTR _Count$[rbp]
  000db	48 0f af 85 70
	01 00 00	 imul	 rax, QWORD PTR _Sz$[rbp]
  000e3	48 89 45 08	 mov	 QWORD PTR _User_size$[rbp], rax
; Line 102
  000e7	48 81 7d 08 00
	10 00 00	 cmp	 QWORD PTR _User_size$[rbp], 4096 ; 00001000H
  000ef	0f 82 2c 03 00
	00		 jb	 $LN3@Deallocate
; Line 104
  000f5	48 8b 85 60 01
	00 00		 mov	 rax, QWORD PTR _Ptr$[rbp]
  000fc	48 89 45 28	 mov	 QWORD PTR _Ptr_user$1[rbp], rax
; Line 105
  00100	48 8b 45 28	 mov	 rax, QWORD PTR _Ptr_user$1[rbp]
  00104	48 83 e0 1f	 and	 rax, 31
  00108	48 85 c0	 test	 rax, rax
  0010b	0f 84 83 00 00
	00		 je	 $LN4@Deallocate
  00111	48 8d 05 00 00
	00 00		 lea	 rax, OFFSET FLAT:??_C@_0DD@GBGGGKGG@?$CI_Ptr_user?5?$CG?5?$CI_BIG_ALLOCATION_AL@
  00118	48 85 c0	 test	 rax, rax
  0011b	74 06		 je	 SHORT $LN12@Deallocate
  0011d	33 c0		 xor	 eax, eax
  0011f	85 c0		 test	 eax, eax
  00121	75 41		 jne	 SHORT $LN13@Deallocate
$LN12@Deallocate:
  00123	8b 05 00 00 00
	00		 mov	 eax, DWORD PTR ?__LINE__Var@?0??_Deallocate@std@@YAXPEAX_K1@Z@4JA
  00129	83 c0 08	 add	 eax, 8
  0012c	48 8d 0d 00 00
	00 00		 lea	 rcx, OFFSET FLAT:??_C@_1HE@CDMBFOKC@?$AA?$CC?$AA?$CI?$AA_?$AAP?$AAt?$AAr?$AA_?$AAu?$AAs?$AAe?$AAr?$AA?5?$AA?$CG?$AA?5?$AA?$CI?$AA_?$AAB?$AAI?$AAG?$AA_?$AAA?$AAL?$AAL?$AAO?$AAC?$AAA?$AAT?$AAI?$AAO?$AAN?$AA_?$AAA@
  00133	48 89 4c 24 28	 mov	 QWORD PTR [rsp+40], rcx
  00138	48 8d 0d 00 00
	00 00		 lea	 rcx, OFFSET FLAT:??_C@_17CNPHIMPH@?$AA?$CF?$AAl?$AAs?$AA?$AA@
  0013f	48 89 4c 24 20	 mov	 QWORD PTR [rsp+32], rcx
  00144	45 33 c9	 xor	 r9d, r9d
  00147	44 8b c0	 mov	 r8d, eax
  0014a	48 8d 15 00 00
	00 00		 lea	 rdx, OFFSET FLAT:??_C@_1EG@DJALBHDK@?$AAd?$AA?3?$AA?2?$AAa?$AAp?$AAp?$AAd?$AAa?$AAt?$AAa?$AA?2?$AAv?$AAs?$AAp?$AA?2?$AAv?$AAc?$AA?2?$AAi?$AAn?$AAc?$AAl?$AAu?$AAd?$AAe?$AA?2?$AAx?$AAm?$AAe?$AAm?$AAo?$AAr@
  00151	b9 02 00 00 00	 mov	 ecx, 2
  00156	ff 15 00 00 00
	00		 call	 QWORD PTR __imp__CrtDbgReportW
  0015c	83 f8 01	 cmp	 eax, 1
  0015f	75 03		 jne	 SHORT $LN13@Deallocate
  00161	cc		 int	 3
  00162	33 c0		 xor	 eax, eax
$LN13@Deallocate:
  00164	8b 05 00 00 00
	00		 mov	 eax, DWORD PTR ?__LINE__Var@?0??_Deallocate@std@@YAXPEAX_K1@Z@4JA
  0016a	83 c0 08	 add	 eax, 8
  0016d	48 c7 44 24 20
	00 00 00 00	 mov	 QWORD PTR [rsp+32], 0
  00176	44 8b c8	 mov	 r9d, eax
  00179	4c 8d 05 00 00
	00 00		 lea	 r8, OFFSET FLAT:??_C@_1EG@DJALBHDK@?$AAd?$AA?3?$AA?2?$AAa?$AAp?$AAp?$AAd?$AAa?$AAt?$AAa?$AA?2?$AAv?$AAs?$AAp?$AA?2?$AAv?$AAc?$AA?2?$AAi?$AAn?$AAc?$AAl?$AAu?$AAd?$AAe?$AA?2?$AAx?$AAm?$AAe?$AAm?$AAo?$AAr@
  00180	48 8d 15 00 00
	00 00		 lea	 rdx, OFFSET FLAT:??_C@_1CC@LOFJFFDB@?$AAs?$AAt?$AAd?$AA?3?$AA?3?$AA_?$AAD?$AAe?$AAa?$AAl?$AAl?$AAo?$AAc?$AAa?$AAt?$AAe?$AA?$AA@
  00187	48 8d 0d 00 00
	00 00		 lea	 rcx, OFFSET FLAT:??_C@_1CG@JNLFBNGN@?$AA?$CC?$AAi?$AAn?$AAv?$AAa?$AAl?$AAi?$AAd?$AA?5?$AAa?$AAr?$AAg?$AAu?$AAm?$AAe?$AAn?$AAt?$AA?$CC?$AA?$AA@
  0018e	ff 15 00 00 00
	00		 call	 QWORD PTR __imp__invalid_parameter
$LN4@Deallocate:
; Line 107
  00194	48 8b 45 28	 mov	 rax, QWORD PTR _Ptr_user$1[rbp]
  00198	48 83 e8 08	 sub	 rax, 8
  0019c	48 89 45 48	 mov	 QWORD PTR _Ptr_ptr$2[rbp], rax
; Line 109
  001a0	48 8b 45 48	 mov	 rax, QWORD PTR _Ptr_ptr$2[rbp]
  001a4	48 8b 00	 mov	 rax, QWORD PTR [rax]
  001a7	48 89 45 68	 mov	 QWORD PTR _Ptr_container$3[rbp], rax
; Line 114
  001ab	b8 08 00 00 00	 mov	 eax, 8
  001b0	48 6b c0 ff	 imul	 rax, rax, -1
  001b4	48 8b 4d 48	 mov	 rcx, QWORD PTR _Ptr_ptr$2[rbp]
  001b8	48 ba fa fa fa
	fa fa fa fa fa	 mov	 rdx, -361700864190383366 ; fafafafafafafafaH
  001c2	48 39 14 01	 cmp	 QWORD PTR [rcx+rax], rdx
  001c6	0f 84 83 00 00
	00		 je	 $LN5@Deallocate
  001cc	48 8d 05 00 00
	00 00		 lea	 rax, OFFSET FLAT:??_C@_0EI@NOJHEJCJ@reinterpret_cast?$DMuintptr_t?5?$CK?$DO?$CI_P@
  001d3	48 85 c0	 test	 rax, rax
  001d6	74 06		 je	 SHORT $LN14@Deallocate
  001d8	33 c0		 xor	 eax, eax
  001da	85 c0		 test	 eax, eax
  001dc	75 41		 jne	 SHORT $LN15@Deallocate
$LN14@Deallocate:
  001de	8b 05 00 00 00
	00		 mov	 eax, DWORD PTR ?__LINE__Var@?0??_Deallocate@std@@YAXPEAX_K1@Z@4JA
  001e4	83 c0 12	 add	 eax, 18
  001e7	48 8d 0d 00 00
	00 00		 lea	 rcx, OFFSET FLAT:??_C@_1JO@EKLKIEHP@?$AA?$CC?$AAr?$AAe?$AAi?$AAn?$AAt?$AAe?$AAr?$AAp?$AAr?$AAe?$AAt?$AA_?$AAc?$AAa?$AAs?$AAt?$AA?$DM?$AAu?$AAi?$AAn?$AAt?$AAp?$AAt?$AAr?$AA_?$AAt?$AA?5?$AA?$CK?$AA?$DO?$AA?$CI?$AA_@
  001ee	48 89 4c 24 28	 mov	 QWORD PTR [rsp+40], rcx
  001f3	48 8d 0d 00 00
	00 00		 lea	 rcx, OFFSET FLAT:??_C@_17CNPHIMPH@?$AA?$CF?$AAl?$AAs?$AA?$AA@
  001fa	48 89 4c 24 20	 mov	 QWORD PTR [rsp+32], rcx
  001ff	45 33 c9	 xor	 r9d, r9d
  00202	44 8b c0	 mov	 r8d, eax
  00205	48 8d 15 00 00
	00 00		 lea	 rdx, OFFSET FLAT:??_C@_1EG@DJALBHDK@?$AAd?$AA?3?$AA?2?$AAa?$AAp?$AAp?$AAd?$AAa?$AAt?$AAa?$AA?2?$AAv?$AAs?$AAp?$AA?2?$AAv?$AAc?$AA?2?$AAi?$AAn?$AAc?$AAl?$AAu?$AAd?$AAe?$AA?2?$AAx?$AAm?$AAe?$AAm?$AAo?$AAr@
  0020c	b9 02 00 00 00	 mov	 ecx, 2
  00211	ff 15 00 00 00
	00		 call	 QWORD PTR __imp__CrtDbgReportW
  00217	83 f8 01	 cmp	 eax, 1
  0021a	75 03		 jne	 SHORT $LN15@Deallocate
  0021c	cc		 int	 3
  0021d	33 c0		 xor	 eax, eax
$LN15@Deallocate:
  0021f	8b 05 00 00 00
	00		 mov	 eax, DWORD PTR ?__LINE__Var@?0??_Deallocate@std@@YAXPEAX_K1@Z@4JA
  00225	83 c0 12	 add	 eax, 18
  00228	48 c7 44 24 20
	00 00 00 00	 mov	 QWORD PTR [rsp+32], 0
  00231	44 8b c8	 mov	 r9d, eax
  00234	4c 8d 05 00 00
	00 00		 lea	 r8, OFFSET FLAT:??_C@_1EG@DJALBHDK@?$AAd?$AA?3?$AA?2?$AAa?$AAp?$AAp?$AAd?$AAa?$AAt?$AAa?$AA?2?$AAv?$AAs?$AAp?$AA?2?$AAv?$AAc?$AA?2?$AAi?$AAn?$AAc?$AAl?$AAu?$AAd?$AAe?$AA?2?$AAx?$AAm?$AAe?$AAm?$AAo?$AAr@
  0023b	48 8d 15 00 00
	00 00		 lea	 rdx, OFFSET FLAT:??_C@_1CC@LOFJFFDB@?$AAs?$AAt?$AAd?$AA?3?$AA?3?$AA_?$AAD?$AAe?$AAa?$AAl?$AAl?$AAo?$AAc?$AAa?$AAt?$AAe?$AA?$AA@
  00242	48 8d 0d 00 00
	00 00		 lea	 rcx, OFFSET FLAT:??_C@_1CG@JNLFBNGN@?$AA?$CC?$AAi?$AAn?$AAv?$AAa?$AAl?$AAi?$AAd?$AA?5?$AAa?$AAr?$AAg?$AAu?$AAm?$AAe?$AAn?$AAt?$AA?$CC?$AA?$AA@
  00249	ff 15 00 00 00
	00		 call	 QWORD PTR __imp__invalid_parameter
$LN5@Deallocate:
; Line 120
  0024f	48 8b 45 28	 mov	 rax, QWORD PTR _Ptr_user$1[rbp]
  00253	48 39 45 68	 cmp	 QWORD PTR _Ptr_container$3[rbp], rax
  00257	0f 82 83 00 00
	00		 jb	 $LN6@Deallocate
  0025d	48 8d 05 00 00
	00 00		 lea	 rax, OFFSET FLAT:??_C@_0BL@OCKMEJON@_Ptr_container?5?$DM?5_Ptr_user?$AA@
  00264	48 85 c0	 test	 rax, rax
  00267	74 06		 je	 SHORT $LN16@Deallocate
  00269	33 c0		 xor	 eax, eax
  0026b	85 c0		 test	 eax, eax
  0026d	75 41		 jne	 SHORT $LN17@Deallocate
$LN16@Deallocate:
  0026f	8b 05 00 00 00
	00		 mov	 eax, DWORD PTR ?__LINE__Var@?0??_Deallocate@std@@YAXPEAX_K1@Z@4JA
  00275	83 c0 16	 add	 eax, 22
  00278	48 8d 0d 00 00
	00 00		 lea	 rcx, OFFSET FLAT:??_C@_1EE@PDHAHDDC@?$AA?$CC?$AA_?$AAP?$AAt?$AAr?$AA_?$AAc?$AAo?$AAn?$AAt?$AAa?$AAi?$AAn?$AAe?$AAr?$AA?5?$AA?$DM?$AA?5?$AA_?$AAP?$AAt?$AAr?$AA_?$AAu?$AAs?$AAe?$AAr?$AA?$CC?$AA?5?$AA?$CG?$AA?$CG?$AA?5@
  0027f	48 89 4c 24 28	 mov	 QWORD PTR [rsp+40], rcx
  00284	48 8d 0d 00 00
	00 00		 lea	 rcx, OFFSET FLAT:??_C@_17CNPHIMPH@?$AA?$CF?$AAl?$AAs?$AA?$AA@
  0028b	48 89 4c 24 20	 mov	 QWORD PTR [rsp+32], rcx
  00290	45 33 c9	 xor	 r9d, r9d
  00293	44 8b c0	 mov	 r8d, eax
  00296	48 8d 15 00 00
	00 00		 lea	 rdx, OFFSET FLAT:??_C@_1EG@DJALBHDK@?$AAd?$AA?3?$AA?2?$AAa?$AAp?$AAp?$AAd?$AAa?$AAt?$AAa?$AA?2?$AAv?$AAs?$AAp?$AA?2?$AAv?$AAc?$AA?2?$AAi?$AAn?$AAc?$AAl?$AAu?$AAd?$AAe?$AA?2?$AAx?$AAm?$AAe?$AAm?$AAo?$AAr@
  0029d	b9 02 00 00 00	 mov	 ecx, 2
  002a2	ff 15 00 00 00
	00		 call	 QWORD PTR __imp__CrtDbgReportW
  002a8	83 f8 01	 cmp	 eax, 1
  002ab	75 03		 jne	 SHORT $LN17@Deallocate
  002ad	cc		 int	 3
  002ae	33 c0		 xor	 eax, eax
$LN17@Deallocate:
  002b0	8b 05 00 00 00
	00		 mov	 eax, DWORD PTR ?__LINE__Var@?0??_Deallocate@std@@YAXPEAX_K1@Z@4JA
  002b6	83 c0 16	 add	 eax, 22
  002b9	48 c7 44 24 20
	00 00 00 00	 mov	 QWORD PTR [rsp+32], 0
  002c2	44 8b c8	 mov	 r9d, eax
  002c5	4c 8d 05 00 00
	00 00		 lea	 r8, OFFSET FLAT:??_C@_1EG@DJALBHDK@?$AAd?$AA?3?$AA?2?$AAa?$AAp?$AAp?$AAd?$AAa?$AAt?$AAa?$AA?2?$AAv?$AAs?$AAp?$AA?2?$AAv?$AAc?$AA?2?$AAi?$AAn?$AAc?$AAl?$AAu?$AAd?$AAe?$AA?2?$AAx?$AAm?$AAe?$AAm?$AAo?$AAr@
  002cc	48 8d 15 00 00
	00 00		 lea	 rdx, OFFSET FLAT:??_C@_1CC@LOFJFFDB@?$AAs?$AAt?$AAd?$AA?3?$AA?3?$AA_?$AAD?$AAe?$AAa?$AAl?$AAl?$AAo?$AAc?$AAa?$AAt?$AAe?$AA?$AA@
  002d3	48 8d 0d 00 00
	00 00		 lea	 rcx, OFFSET FLAT:??_C@_1CG@JNLFBNGN@?$AA?$CC?$AAi?$AAn?$AAv?$AAa?$AAl?$AAi?$AAd?$AA?5?$AAa?$AAr?$AAg?$AAu?$AAm?$AAe?$AAn?$AAt?$AA?$CC?$AA?$AA@
  002da	ff 15 00 00 00
	00		 call	 QWORD PTR __imp__invalid_parameter
$LN6@Deallocate:
; Line 123
  002e0	48 8b 45 68	 mov	 rax, QWORD PTR _Ptr_container$3[rbp]
  002e4	48 8b 4d 28	 mov	 rcx, QWORD PTR _Ptr_user$1[rbp]
  002e8	48 2b c8	 sub	 rcx, rax
  002eb	48 8b c1	 mov	 rax, rcx
  002ee	48 83 f8 10	 cmp	 rax, 16
  002f2	0f 83 83 00 00
	00		 jae	 $LN7@Deallocate
  002f8	48 8d 05 00 00
	00 00		 lea	 rax, OFFSET FLAT:??_C@_0DB@GLFJLNCE@2?5?$CK?5sizeof?$CIvoid?5?$CK?$CJ?5?$DM?$DN?5_Ptr_user?5@
  002ff	48 85 c0	 test	 rax, rax
  00302	74 06		 je	 SHORT $LN18@Deallocate
  00304	33 c0		 xor	 eax, eax
  00306	85 c0		 test	 eax, eax
  00308	75 41		 jne	 SHORT $LN19@Deallocate
$LN18@Deallocate:
  0030a	8b 05 00 00 00
	00		 mov	 eax, DWORD PTR ?__LINE__Var@?0??_Deallocate@std@@YAXPEAX_K1@Z@4JA
  00310	83 c0 1a	 add	 eax, 26
  00313	48 8d 0d 00 00
	00 00		 lea	 rcx, OFFSET FLAT:??_C@_1HA@NAPGMHAO@?$AA?$CC?$AA2?$AA?5?$AA?$CK?$AA?5?$AAs?$AAi?$AAz?$AAe?$AAo?$AAf?$AA?$CI?$AAv?$AAo?$AAi?$AAd?$AA?5?$AA?$CK?$AA?$CJ?$AA?5?$AA?$DM?$AA?$DN?$AA?5?$AA_?$AAP?$AAt?$AAr?$AA_?$AAu?$AAs?$AAe?$AAr@
  0031a	48 89 4c 24 28	 mov	 QWORD PTR [rsp+40], rcx
  0031f	48 8d 0d 00 00
	00 00		 lea	 rcx, OFFSET FLAT:??_C@_17CNPHIMPH@?$AA?$CF?$AAl?$AAs?$AA?$AA@
  00326	48 89 4c 24 20	 mov	 QWORD PTR [rsp+32], rcx
  0032b	45 33 c9	 xor	 r9d, r9d
  0032e	44 8b c0	 mov	 r8d, eax
  00331	48 8d 15 00 00
	00 00		 lea	 rdx, OFFSET FLAT:??_C@_1EG@DJALBHDK@?$AAd?$AA?3?$AA?2?$AAa?$AAp?$AAp?$AAd?$AAa?$AAt?$AAa?$AA?2?$AAv?$AAs?$AAp?$AA?2?$AAv?$AAc?$AA?2?$AAi?$AAn?$AAc?$AAl?$AAu?$AAd?$AAe?$AA?2?$AAx?$AAm?$AAe?$AAm?$AAo?$AAr@
  00338	b9 02 00 00 00	 mov	 ecx, 2
  0033d	ff 15 00 00 00
	00		 call	 QWORD PTR __imp__CrtDbgReportW
  00343	83 f8 01	 cmp	 eax, 1
  00346	75 03		 jne	 SHORT $LN19@Deallocate
  00348	cc		 int	 3
  00349	33 c0		 xor	 eax, eax
$LN19@Deallocate:
  0034b	8b 05 00 00 00
	00		 mov	 eax, DWORD PTR ?__LINE__Var@?0??_Deallocate@std@@YAXPEAX_K1@Z@4JA
  00351	83 c0 1a	 add	 eax, 26
  00354	48 c7 44 24 20
	00 00 00 00	 mov	 QWORD PTR [rsp+32], 0
  0035d	44 8b c8	 mov	 r9d, eax
  00360	4c 8d 05 00 00
	00 00		 lea	 r8, OFFSET FLAT:??_C@_1EG@DJALBHDK@?$AAd?$AA?3?$AA?2?$AAa?$AAp?$AAp?$AAd?$AAa?$AAt?$AAa?$AA?2?$AAv?$AAs?$AAp?$AA?2?$AAv?$AAc?$AA?2?$AAi?$AAn?$AAc?$AAl?$AAu?$AAd?$AAe?$AA?2?$AAx?$AAm?$AAe?$AAm?$AAo?$AAr@
  00367	48 8d 15 00 00
	00 00		 lea	 rdx, OFFSET FLAT:??_C@_1CC@LOFJFFDB@?$AAs?$AAt?$AAd?$AA?3?$AA?3?$AA_?$AAD?$AAe?$AAa?$AAl?$AAl?$AAo?$AAc?$AAa?$AAt?$AAe?$AA?$AA@
  0036e	48 8d 0d 00 00
	00 00		 lea	 rcx, OFFSET FLAT:??_C@_1CG@JNLFBNGN@?$AA?$CC?$AAi?$AAn?$AAv?$AAa?$AAl?$AAi?$AAd?$AA?5?$AAa?$AAr?$AAg?$AAu?$AAm?$AAe?$AAn?$AAt?$AA?$CC?$AA?$AA@
  00375	ff 15 00 00 00
	00		 call	 QWORD PTR __imp__invalid_parameter
$LN7@Deallocate:
; Line 131
  0037b	48 8b 45 68	 mov	 rax, QWORD PTR _Ptr_container$3[rbp]
  0037f	48 8b 4d 28	 mov	 rcx, QWORD PTR _Ptr_user$1[rbp]
  00383	48 2b c8	 sub	 rcx, rax
  00386	48 8b c1	 mov	 rax, rcx
  00389	48 83 f8 2f	 cmp	 rax, 47			; 0000002fH
  0038d	0f 86 83 00 00
	00		 jbe	 $LN8@Deallocate
  00393	48 8d 05 00 00
	00 00		 lea	 rax, OFFSET FLAT:??_C@_0CN@BLHJCAL@_Ptr_user?5?9?5_Ptr_container?5?$DM?$DN?5_N@
  0039a	48 85 c0	 test	 rax, rax
  0039d	74 06		 je	 SHORT $LN20@Deallocate
  0039f	33 c0		 xor	 eax, eax
  003a1	85 c0		 test	 eax, eax
  003a3	75 41		 jne	 SHORT $LN21@Deallocate
$LN20@Deallocate:
  003a5	8b 05 00 00 00
	00		 mov	 eax, DWORD PTR ?__LINE__Var@?0??_Deallocate@std@@YAXPEAX_K1@Z@4JA
  003ab	83 c0 22	 add	 eax, 34			; 00000022H
  003ae	48 8d 0d 00 00
	00 00		 lea	 rcx, OFFSET FLAT:??_C@_1GI@DHJGPFNI@?$AA?$CC?$AA_?$AAP?$AAt?$AAr?$AA_?$AAu?$AAs?$AAe?$AAr?$AA?5?$AA?9?$AA?5?$AA_?$AAP?$AAt?$AAr?$AA_?$AAc?$AAo?$AAn?$AAt?$AAa?$AAi?$AAn?$AAe?$AAr?$AA?5?$AA?$DM?$AA?$DN?$AA?5?$AA_@
  003b5	48 89 4c 24 28	 mov	 QWORD PTR [rsp+40], rcx
  003ba	48 8d 0d 00 00
	00 00		 lea	 rcx, OFFSET FLAT:??_C@_17CNPHIMPH@?$AA?$CF?$AAl?$AAs?$AA?$AA@
  003c1	48 89 4c 24 20	 mov	 QWORD PTR [rsp+32], rcx
  003c6	45 33 c9	 xor	 r9d, r9d
  003c9	44 8b c0	 mov	 r8d, eax
  003cc	48 8d 15 00 00
	00 00		 lea	 rdx, OFFSET FLAT:??_C@_1EG@DJALBHDK@?$AAd?$AA?3?$AA?2?$AAa?$AAp?$AAp?$AAd?$AAa?$AAt?$AAa?$AA?2?$AAv?$AAs?$AAp?$AA?2?$AAv?$AAc?$AA?2?$AAi?$AAn?$AAc?$AAl?$AAu?$AAd?$AAe?$AA?2?$AAx?$AAm?$AAe?$AAm?$AAo?$AAr@
  003d3	b9 02 00 00 00	 mov	 ecx, 2
  003d8	ff 15 00 00 00
	00		 call	 QWORD PTR __imp__CrtDbgReportW
  003de	83 f8 01	 cmp	 eax, 1
  003e1	75 03		 jne	 SHORT $LN21@Deallocate
  003e3	cc		 int	 3
  003e4	33 c0		 xor	 eax, eax
$LN21@Deallocate:
  003e6	8b 05 00 00 00
	00		 mov	 eax, DWORD PTR ?__LINE__Var@?0??_Deallocate@std@@YAXPEAX_K1@Z@4JA
  003ec	83 c0 22	 add	 eax, 34			; 00000022H
  003ef	48 c7 44 24 20
	00 00 00 00	 mov	 QWORD PTR [rsp+32], 0
  003f8	44 8b c8	 mov	 r9d, eax
  003fb	4c 8d 05 00 00
	00 00		 lea	 r8, OFFSET FLAT:??_C@_1EG@DJALBHDK@?$AAd?$AA?3?$AA?2?$AAa?$AAp?$AAp?$AAd?$AAa?$AAt?$AAa?$AA?2?$AAv?$AAs?$AAp?$AA?2?$AAv?$AAc?$AA?2?$AAi?$AAn?$AAc?$AAl?$AAu?$AAd?$AAe?$AA?2?$AAx?$AAm?$AAe?$AAm?$AAo?$AAr@
  00402	48 8d 15 00 00
	00 00		 lea	 rdx, OFFSET FLAT:??_C@_1CC@LOFJFFDB@?$AAs?$AAt?$AAd?$AA?3?$AA?3?$AA_?$AAD?$AAe?$AAa?$AAl?$AAl?$AAo?$AAc?$AAa?$AAt?$AAe?$AA?$AA@
  00409	48 8d 0d 00 00
	00 00		 lea	 rcx, OFFSET FLAT:??_C@_1CG@JNLFBNGN@?$AA?$CC?$AAi?$AAn?$AAv?$AAa?$AAl?$AAi?$AAd?$AA?5?$AAa?$AAr?$AAg?$AAu?$AAm?$AAe?$AAn?$AAt?$AA?$CC?$AA?$AA@
  00410	ff 15 00 00 00
	00		 call	 QWORD PTR __imp__invalid_parameter
$LN8@Deallocate:
; Line 134
  00416	48 8b 45 68	 mov	 rax, QWORD PTR _Ptr_container$3[rbp]
  0041a	48 89 85 60 01
	00 00		 mov	 QWORD PTR _Ptr$[rbp], rax
$LN3@Deallocate:
; Line 138
  00421	48 8b 8d 60 01
	00 00		 mov	 rcx, QWORD PTR _Ptr$[rbp]
  00428	e8 00 00 00 00	 call	 ??3@YAXPEAX@Z		; operator delete
; Line 139
  0042d	48 8d a5 48 01
	00 00		 lea	 rsp, QWORD PTR [rbp+328]
  00434	5f		 pop	 rdi
  00435	5d		 pop	 rbp
  00436	c3		 ret	 0
?_Deallocate@std@@YAXPEAX_K1@Z ENDP			; std::_Deallocate
_TEXT	ENDS
; Function compile flags: /Odtp /RTCsu /ZI
;	COMDAT ?_Allocate@std@@YAPEAX_K0_N@Z
_TEXT	SEGMENT
_Ptr$ = 8
_User_size$ = 40
_Block_size$1 = 72
_Ptr_container$2 = 104
_Count$ = 352
_Sz$ = 360
_Try_aligned_allocation$ = 368
?_Allocate@std@@YAPEAX_K0_N@Z PROC			; std::_Allocate, COMDAT
; File d:\appdata\vsp\vc\include\xmemory0
; Line 54
$LN14:
  00000	44 88 44 24 18	 mov	 BYTE PTR [rsp+24], r8b
  00005	48 89 54 24 10	 mov	 QWORD PTR [rsp+16], rdx
  0000a	48 89 4c 24 08	 mov	 QWORD PTR [rsp+8], rcx
  0000f	55		 push	 rbp
  00010	57		 push	 rdi
  00011	48 81 ec 78 01
	00 00		 sub	 rsp, 376		; 00000178H
  00018	48 8d 6c 24 30	 lea	 rbp, QWORD PTR [rsp+48]
  0001d	48 8b fc	 mov	 rdi, rsp
  00020	b9 5e 00 00 00	 mov	 ecx, 94			; 0000005eH
  00025	b8 cc cc cc cc	 mov	 eax, -858993460		; ccccccccH
  0002a	f3 ab		 rep stosd
  0002c	48 8b 8c 24 98
	01 00 00	 mov	 rcx, QWORD PTR [rsp+408]
; Line 55
  00034	48 c7 45 08 00
	00 00 00	 mov	 QWORD PTR _Ptr$[rbp], 0
; Line 57
  0003c	48 83 bd 60 01
	00 00 00	 cmp	 QWORD PTR _Count$[rbp], 0
  00044	75 09		 jne	 SHORT $LN2@Allocate
; Line 58
  00046	48 8b 45 08	 mov	 rax, QWORD PTR _Ptr$[rbp]
  0004a	e9 ea 01 00 00	 jmp	 $LN1@Allocate
$LN2@Allocate:
; Line 61
  0004f	33 d2		 xor	 edx, edx
  00051	48 c7 c0 ff ff
	ff ff		 mov	 rax, -1
  00058	48 f7 b5 68 01
	00 00		 div	 QWORD PTR _Sz$[rbp]
  0005f	48 3b 85 60 01
	00 00		 cmp	 rax, QWORD PTR _Count$[rbp]
  00066	73 06		 jae	 SHORT $LN3@Allocate
; Line 62
  00068	ff 15 00 00 00
	00		 call	 QWORD PTR __imp_?_Xbad_alloc@std@@YAXXZ
$LN3@Allocate:
; Line 63
  0006e	48 8b 85 60 01
	00 00		 mov	 rax, QWORD PTR _Count$[rbp]
  00075	48 0f af 85 68
	01 00 00	 imul	 rax, QWORD PTR _Sz$[rbp]
  0007d	48 89 45 28	 mov	 QWORD PTR _User_size$[rbp], rax
; Line 67
  00081	0f b6 85 70 01
	00 00		 movzx	 eax, BYTE PTR _Try_aligned_allocation$[rbp]
  00088	85 c0		 test	 eax, eax
  0008a	0f 84 0a 01 00
	00		 je	 $LN4@Allocate
  00090	48 81 7d 28 00
	10 00 00	 cmp	 QWORD PTR _User_size$[rbp], 4096 ; 00001000H
  00098	0f 82 fc 00 00
	00		 jb	 $LN4@Allocate
; Line 71
  0009e	48 8b 45 28	 mov	 rax, QWORD PTR _User_size$[rbp]
  000a2	48 83 c0 2f	 add	 rax, 47			; 0000002fH
  000a6	48 89 45 48	 mov	 QWORD PTR _Block_size$1[rbp], rax
; Line 72
  000aa	48 8b 45 28	 mov	 rax, QWORD PTR _User_size$[rbp]
  000ae	48 39 45 48	 cmp	 QWORD PTR _Block_size$1[rbp], rax
  000b2	77 06		 ja	 SHORT $LN6@Allocate
; Line 73
  000b4	ff 15 00 00 00
	00		 call	 QWORD PTR __imp_?_Xbad_alloc@std@@YAXXZ
$LN6@Allocate:
; Line 75
  000ba	48 8b 4d 48	 mov	 rcx, QWORD PTR _Block_size$1[rbp]
  000be	e8 00 00 00 00	 call	 ??2@YAPEAX_K@Z		; operator new
  000c3	48 89 45 68	 mov	 QWORD PTR _Ptr_container$2[rbp], rax
; Line 76
  000c7	48 83 7d 68 00	 cmp	 QWORD PTR _Ptr_container$2[rbp], 0
  000cc	0f 85 83 00 00
	00		 jne	 $LN7@Allocate
  000d2	48 8d 05 00 00
	00 00		 lea	 rax, OFFSET FLAT:??_C@_0BE@LMNLACIC@_Ptr_container?5?$CB?$DN?50?$AA@
  000d9	48 85 c0	 test	 rax, rax
  000dc	74 06		 je	 SHORT $LN10@Allocate
  000de	33 c0		 xor	 eax, eax
  000e0	85 c0		 test	 eax, eax
  000e2	75 41		 jne	 SHORT $LN11@Allocate
$LN10@Allocate:
  000e4	8b 05 00 00 00
	00		 mov	 eax, DWORD PTR ?__LINE__Var@?0??_Allocate@std@@YAPEAX_K0_N@Z@4JA
  000ea	83 c0 16	 add	 eax, 22
  000ed	48 8d 0d 00 00
	00 00		 lea	 rcx, OFFSET FLAT:??_C@_1DG@HGDKEBPG@?$AA?$CC?$AA_?$AAP?$AAt?$AAr?$AA_?$AAc?$AAo?$AAn?$AAt?$AAa?$AAi?$AAn?$AAe?$AAr?$AA?5?$AA?$CB?$AA?$DN?$AA?5?$AA0?$AA?$CC?$AA?5?$AA?$CG?$AA?$CG?$AA?5?$AA0?$AA?$AA@
  000f4	48 89 4c 24 28	 mov	 QWORD PTR [rsp+40], rcx
  000f9	48 8d 0d 00 00
	00 00		 lea	 rcx, OFFSET FLAT:??_C@_17CNPHIMPH@?$AA?$CF?$AAl?$AAs?$AA?$AA@
  00100	48 89 4c 24 20	 mov	 QWORD PTR [rsp+32], rcx
  00105	45 33 c9	 xor	 r9d, r9d
  00108	44 8b c0	 mov	 r8d, eax
  0010b	48 8d 15 00 00
	00 00		 lea	 rdx, OFFSET FLAT:??_C@_1EG@DJALBHDK@?$AAd?$AA?3?$AA?2?$AAa?$AAp?$AAp?$AAd?$AAa?$AAt?$AAa?$AA?2?$AAv?$AAs?$AAp?$AA?2?$AAv?$AAc?$AA?2?$AAi?$AAn?$AAc?$AAl?$AAu?$AAd?$AAe?$AA?2?$AAx?$AAm?$AAe?$AAm?$AAo?$AAr@
  00112	b9 02 00 00 00	 mov	 ecx, 2
  00117	ff 15 00 00 00
	00		 call	 QWORD PTR __imp__CrtDbgReportW
  0011d	83 f8 01	 cmp	 eax, 1
  00120	75 03		 jne	 SHORT $LN11@Allocate
  00122	cc		 int	 3
  00123	33 c0		 xor	 eax, eax
$LN11@Allocate:
  00125	8b 05 00 00 00
	00		 mov	 eax, DWORD PTR ?__LINE__Var@?0??_Allocate@std@@YAPEAX_K0_N@Z@4JA
  0012b	83 c0 16	 add	 eax, 22
  0012e	48 c7 44 24 20
	00 00 00 00	 mov	 QWORD PTR [rsp+32], 0
  00137	44 8b c8	 mov	 r9d, eax
  0013a	4c 8d 05 00 00
	00 00		 lea	 r8, OFFSET FLAT:??_C@_1EG@DJALBHDK@?$AAd?$AA?3?$AA?2?$AAa?$AAp?$AAp?$AAd?$AAa?$AAt?$AAa?$AA?2?$AAv?$AAs?$AAp?$AA?2?$AAv?$AAc?$AA?2?$AAi?$AAn?$AAc?$AAl?$AAu?$AAd?$AAe?$AA?2?$AAx?$AAm?$AAe?$AAm?$AAo?$AAr@
  00141	48 8d 15 00 00
	00 00		 lea	 rdx, OFFSET FLAT:??_C@_1BO@NKFMJPA@?$AAs?$AAt?$AAd?$AA?3?$AA?3?$AA_?$AAA?$AAl?$AAl?$AAo?$AAc?$AAa?$AAt?$AAe?$AA?$AA@
  00148	48 8d 0d 00 00
	00 00		 lea	 rcx, OFFSET FLAT:??_C@_1CG@JNLFBNGN@?$AA?$CC?$AAi?$AAn?$AAv?$AAa?$AAl?$AAi?$AAd?$AA?5?$AAa?$AAr?$AAg?$AAu?$AAm?$AAe?$AAn?$AAt?$AA?$CC?$AA?$AA@
  0014f	ff 15 00 00 00
	00		 call	 QWORD PTR __imp__invalid_parameter
$LN7@Allocate:
; Line 77
  00155	48 8b 45 68	 mov	 rax, QWORD PTR _Ptr_container$2[rbp]
  00159	48 83 c0 2f	 add	 rax, 47			; 0000002fH
  0015d	48 83 e0 e0	 and	 rax, -32		; ffffffffffffffe0H
  00161	48 89 45 08	 mov	 QWORD PTR _Ptr$[rbp], rax
; Line 79
  00165	b8 08 00 00 00	 mov	 eax, 8
  0016a	48 6b c0 ff	 imul	 rax, rax, -1
  0016e	48 8b 4d 08	 mov	 rcx, QWORD PTR _Ptr$[rbp]
  00172	48 8b 55 68	 mov	 rdx, QWORD PTR _Ptr_container$2[rbp]
  00176	48 89 14 01	 mov	 QWORD PTR [rcx+rax], rdx
; Line 82
  0017a	b8 08 00 00 00	 mov	 eax, 8
  0017f	48 6b c0 fe	 imul	 rax, rax, -2
  00183	48 8b 4d 08	 mov	 rcx, QWORD PTR _Ptr$[rbp]
  00187	48 ba fa fa fa
	fa fa fa fa fa	 mov	 rdx, -361700864190383366 ; fafafafafafafafaH
  00191	48 89 14 01	 mov	 QWORD PTR [rcx+rax], rdx
; Line 85
  00195	e9 9b 00 00 00	 jmp	 $LN5@Allocate
$LN4@Allocate:
; Line 89
  0019a	48 8b 4d 28	 mov	 rcx, QWORD PTR _User_size$[rbp]
  0019e	e8 00 00 00 00	 call	 ??2@YAPEAX_K@Z		; operator new
  001a3	48 89 45 08	 mov	 QWORD PTR _Ptr$[rbp], rax
; Line 90
  001a7	48 83 7d 08 00	 cmp	 QWORD PTR _Ptr$[rbp], 0
  001ac	0f 85 83 00 00
	00		 jne	 $LN8@Allocate
  001b2	48 8d 05 00 00
	00 00		 lea	 rax, OFFSET FLAT:??_C@_09GLJCAGLP@_Ptr?5?$CB?$DN?50?$AA@
  001b9	48 85 c0	 test	 rax, rax
  001bc	74 06		 je	 SHORT $LN12@Allocate
  001be	33 c0		 xor	 eax, eax
  001c0	85 c0		 test	 eax, eax
  001c2	75 41		 jne	 SHORT $LN13@Allocate
$LN12@Allocate:
  001c4	8b 05 00 00 00
	00		 mov	 eax, DWORD PTR ?__LINE__Var@?0??_Allocate@std@@YAPEAX_K0_N@Z@4JA
  001ca	83 c0 24	 add	 eax, 36			; 00000024H
  001cd	48 8d 0d 00 00
	00 00		 lea	 rcx, OFFSET FLAT:??_C@_1CC@GKJLLHIM@?$AA?$CC?$AA_?$AAP?$AAt?$AAr?$AA?5?$AA?$CB?$AA?$DN?$AA?5?$AA0?$AA?$CC?$AA?5?$AA?$CG?$AA?$CG?$AA?5?$AA0?$AA?$AA@
  001d4	48 89 4c 24 28	 mov	 QWORD PTR [rsp+40], rcx
  001d9	48 8d 0d 00 00
	00 00		 lea	 rcx, OFFSET FLAT:??_C@_17CNPHIMPH@?$AA?$CF?$AAl?$AAs?$AA?$AA@
  001e0	48 89 4c 24 20	 mov	 QWORD PTR [rsp+32], rcx
  001e5	45 33 c9	 xor	 r9d, r9d
  001e8	44 8b c0	 mov	 r8d, eax
  001eb	48 8d 15 00 00
	00 00		 lea	 rdx, OFFSET FLAT:??_C@_1EG@DJALBHDK@?$AAd?$AA?3?$AA?2?$AAa?$AAp?$AAp?$AAd?$AAa?$AAt?$AAa?$AA?2?$AAv?$AAs?$AAp?$AA?2?$AAv?$AAc?$AA?2?$AAi?$AAn?$AAc?$AAl?$AAu?$AAd?$AAe?$AA?2?$AAx?$AAm?$AAe?$AAm?$AAo?$AAr@
  001f2	b9 02 00 00 00	 mov	 ecx, 2
  001f7	ff 15 00 00 00
	00		 call	 QWORD PTR __imp__CrtDbgReportW
  001fd	83 f8 01	 cmp	 eax, 1
  00200	75 03		 jne	 SHORT $LN13@Allocate
  00202	cc		 int	 3
  00203	33 c0		 xor	 eax, eax
$LN13@Allocate:
  00205	8b 05 00 00 00
	00		 mov	 eax, DWORD PTR ?__LINE__Var@?0??_Allocate@std@@YAPEAX_K0_N@Z@4JA
  0020b	83 c0 24	 add	 eax, 36			; 00000024H
  0020e	48 c7 44 24 20
	00 00 00 00	 mov	 QWORD PTR [rsp+32], 0
  00217	44 8b c8	 mov	 r9d, eax
  0021a	4c 8d 05 00 00
	00 00		 lea	 r8, OFFSET FLAT:??_C@_1EG@DJALBHDK@?$AAd?$AA?3?$AA?2?$AAa?$AAp?$AAp?$AAd?$AAa?$AAt?$AAa?$AA?2?$AAv?$AAs?$AAp?$AA?2?$AAv?$AAc?$AA?2?$AAi?$AAn?$AAc?$AAl?$AAu?$AAd?$AAe?$AA?2?$AAx?$AAm?$AAe?$AAm?$AAo?$AAr@
  00221	48 8d 15 00 00
	00 00		 lea	 rdx, OFFSET FLAT:??_C@_1BO@NKFMJPA@?$AAs?$AAt?$AAd?$AA?3?$AA?3?$AA_?$AAA?$AAl?$AAl?$AAo?$AAc?$AAa?$AAt?$AAe?$AA?$AA@
  00228	48 8d 0d 00 00
	00 00		 lea	 rcx, OFFSET FLAT:??_C@_1CG@JNLFBNGN@?$AA?$CC?$AAi?$AAn?$AAv?$AAa?$AAl?$AAi?$AAd?$AA?5?$AAa?$AAr?$AAg?$AAu?$AAm?$AAe?$AAn?$AAt?$AA?$CC?$AA?$AA@
  0022f	ff 15 00 00 00
	00		 call	 QWORD PTR __imp__invalid_parameter
$LN8@Allocate:
$LN5@Allocate:
; Line 92
  00235	48 8b 45 08	 mov	 rax, QWORD PTR _Ptr$[rbp]
$LN1@Allocate:
$LN9@Allocate:
; Line 93
  00239	48 8d a5 48 01
	00 00		 lea	 rsp, QWORD PTR [rbp+328]
  00240	5f		 pop	 rdi
  00241	5d		 pop	 rbp
  00242	c3		 ret	 0
?_Allocate@std@@YAPEAX_K0_N@Z ENDP			; std::_Allocate
_TEXT	ENDS
; Function compile flags: /Odtp /RTCsu /ZI
;	COMDAT ?_Orphan_all@_Container_base12@std@@QEAAXXZ
_TEXT	SEGMENT
_Lock$4 = 4
_Pnext$5 = 40
__$ArrayPad$ = 248
this$ = 288
?_Orphan_all@_Container_base12@std@@QEAAXXZ PROC	; std::_Container_base12::_Orphan_all, COMDAT
; File d:\appdata\vsp\vc\include\xutility
; Line 214
$LN8:
  00000	48 89 4c 24 08	 mov	 QWORD PTR [rsp+8], rcx
  00005	55		 push	 rbp
  00006	57		 push	 rdi
  00007	48 81 ec 28 01
	00 00		 sub	 rsp, 296		; 00000128H
  0000e	48 8d 6c 24 20	 lea	 rbp, QWORD PTR [rsp+32]
  00013	48 8b fc	 mov	 rdi, rsp
  00016	b9 4a 00 00 00	 mov	 ecx, 74			; 0000004aH
  0001b	b8 cc cc cc cc	 mov	 eax, -858993460		; ccccccccH
  00020	f3 ab		 rep stosd
  00022	48 8b 8c 24 48
	01 00 00	 mov	 rcx, QWORD PTR [rsp+328]
  0002a	48 8b 05 00 00
	00 00		 mov	 rax, QWORD PTR __security_cookie
  00031	48 33 c5	 xor	 rax, rbp
  00034	48 89 85 f8 00
	00 00		 mov	 QWORD PTR __$ArrayPad$[rbp], rax
; Line 216
  0003b	48 8b 85 20 01
	00 00		 mov	 rax, QWORD PTR this$[rbp]
  00042	48 83 38 00	 cmp	 QWORD PTR [rax], 0
  00046	74 6b		 je	 SHORT $LN5@Orphan_all
; Line 218
  00048	ba 03 00 00 00	 mov	 edx, 3
  0004d	48 8d 4d 04	 lea	 rcx, QWORD PTR _Lock$4[rbp]
  00051	ff 15 00 00 00
	00		 call	 QWORD PTR __imp_??0_Lockit@std@@QEAA@H@Z
; Line 220
  00057	48 8b 85 20 01
	00 00		 mov	 rax, QWORD PTR this$[rbp]
  0005e	48 8b 00	 mov	 rax, QWORD PTR [rax]
  00061	48 83 c0 08	 add	 rax, 8
  00065	48 89 45 28	 mov	 QWORD PTR _Pnext$5[rbp], rax
  00069	eb 12		 jmp	 SHORT $LN4@Orphan_all
$LN2@Orphan_all:
; Line 221
  0006b	48 8b 45 28	 mov	 rax, QWORD PTR _Pnext$5[rbp]
  0006f	48 8b 00	 mov	 rax, QWORD PTR [rax]
  00072	48 8b 4d 28	 mov	 rcx, QWORD PTR _Pnext$5[rbp]
  00076	48 8b 40 08	 mov	 rax, QWORD PTR [rax+8]
  0007a	48 89 01	 mov	 QWORD PTR [rcx], rax
$LN4@Orphan_all:
  0007d	48 8b 45 28	 mov	 rax, QWORD PTR _Pnext$5[rbp]
  00081	48 83 38 00	 cmp	 QWORD PTR [rax], 0
  00085	74 10		 je	 SHORT $LN3@Orphan_all
; Line 222
  00087	48 8b 45 28	 mov	 rax, QWORD PTR _Pnext$5[rbp]
  0008b	48 8b 00	 mov	 rax, QWORD PTR [rax]
  0008e	48 c7 00 00 00
	00 00		 mov	 QWORD PTR [rax], 0
  00095	eb d4		 jmp	 SHORT $LN2@Orphan_all
$LN3@Orphan_all:
; Line 223
  00097	48 8b 85 20 01
	00 00		 mov	 rax, QWORD PTR this$[rbp]
  0009e	48 8b 00	 mov	 rax, QWORD PTR [rax]
  000a1	48 c7 40 08 00
	00 00 00	 mov	 QWORD PTR [rax+8], 0
; Line 224
  000a9	48 8d 4d 04	 lea	 rcx, QWORD PTR _Lock$4[rbp]
  000ad	ff 15 00 00 00
	00		 call	 QWORD PTR __imp_??1_Lockit@std@@QEAA@XZ
$LN5@Orphan_all:
; Line 226
  000b3	48 8d 4d e0	 lea	 rcx, QWORD PTR [rbp-32]
  000b7	48 8d 15 00 00
	00 00		 lea	 rdx, OFFSET FLAT:?_Orphan_all@_Container_base12@std@@QEAAXXZ$rtcFrameData
  000be	e8 00 00 00 00	 call	 _RTC_CheckStackVars
  000c3	48 8b 8d f8 00
	00 00		 mov	 rcx, QWORD PTR __$ArrayPad$[rbp]
  000ca	48 33 cd	 xor	 rcx, rbp
  000cd	e8 00 00 00 00	 call	 __security_check_cookie
  000d2	48 8d a5 08 01
	00 00		 lea	 rsp, QWORD PTR [rbp+264]
  000d9	5f		 pop	 rdi
  000da	5d		 pop	 rbp
  000db	c3		 ret	 0
?_Orphan_all@_Container_base12@std@@QEAAXXZ ENDP	; std::_Container_base12::_Orphan_all
_TEXT	ENDS
; Function compile flags: /Odtp /RTCsu /ZI
;	COMDAT ??1_Container_base12@std@@QEAA@XZ
_TEXT	SEGMENT
$T1 = 200
this$ = 256
??1_Container_base12@std@@QEAA@XZ PROC			; std::_Container_base12::~_Container_base12, COMDAT
; File d:\appdata\vsp\vc\include\xutility
; Line 94
$LN3:
  00000	48 89 4c 24 08	 mov	 QWORD PTR [rsp+8], rcx
  00005	55		 push	 rbp
  00006	57		 push	 rdi
  00007	48 81 ec 08 01
	00 00		 sub	 rsp, 264		; 00000108H
  0000e	48 8d 6c 24 20	 lea	 rbp, QWORD PTR [rsp+32]
  00013	48 8b fc	 mov	 rdi, rsp
  00016	b9 42 00 00 00	 mov	 ecx, 66			; 00000042H
  0001b	b8 cc cc cc cc	 mov	 eax, -858993460		; ccccccccH
  00020	f3 ab		 rep stosd
  00022	48 8b 8c 24 28
	01 00 00	 mov	 rcx, QWORD PTR [rsp+296]
  0002a	48 c7 85 c8 00
	00 00 fe ff ff
	ff		 mov	 QWORD PTR $T1[rbp], -2
; Line 95
  00035	48 8b 8d 00 01
	00 00		 mov	 rcx, QWORD PTR this$[rbp]
  0003c	e8 00 00 00 00	 call	 ?_Orphan_all@_Container_base12@std@@QEAAXXZ ; std::_Container_base12::_Orphan_all
  00041	90		 npad	 1
; Line 96
  00042	48 8d a5 e8 00
	00 00		 lea	 rsp, QWORD PTR [rbp+232]
  00049	5f		 pop	 rdi
  0004a	5d		 pop	 rbp
  0004b	c3		 ret	 0
??1_Container_base12@std@@QEAA@XZ ENDP			; std::_Container_base12::~_Container_base12
_TEXT	ENDS
; Function compile flags: /Odtp /RTCsu /ZI
;	COMDAT ??0_Container_base12@std@@QEAA@XZ
_TEXT	SEGMENT
this$ = 224
??0_Container_base12@std@@QEAA@XZ PROC			; std::_Container_base12::_Container_base12, COMDAT
; File d:\appdata\vsp\vc\include\xutility
; Line 80
$LN3:
  00000	48 89 4c 24 08	 mov	 QWORD PTR [rsp+8], rcx
  00005	55		 push	 rbp
  00006	57		 push	 rdi
  00007	48 81 ec c8 00
	00 00		 sub	 rsp, 200		; 000000c8H
  0000e	48 8b ec	 mov	 rbp, rsp
  00011	48 8b fc	 mov	 rdi, rsp
  00014	b9 32 00 00 00	 mov	 ecx, 50			; 00000032H
  00019	b8 cc cc cc cc	 mov	 eax, -858993460		; ccccccccH
  0001e	f3 ab		 rep stosd
  00020	48 8b 8c 24 e8
	00 00 00	 mov	 rcx, QWORD PTR [rsp+232]
; Line 79
  00028	48 8b 85 e0 00
	00 00		 mov	 rax, QWORD PTR this$[rbp]
  0002f	48 c7 00 00 00
	00 00		 mov	 QWORD PTR [rax], 0
; Line 81
  00036	48 8b 85 e0 00
	00 00		 mov	 rax, QWORD PTR this$[rbp]
  0003d	48 8d a5 c8 00
	00 00		 lea	 rsp, QWORD PTR [rbp+200]
  00044	5f		 pop	 rdi
  00045	5d		 pop	 rbp
  00046	c3		 ret	 0
??0_Container_base12@std@@QEAA@XZ ENDP			; std::_Container_base12::_Container_base12
_TEXT	ENDS
; Function compile flags: /Odtp /RTCsu /ZI
;	COMDAT ??0_Container_proxy@std@@QEAA@XZ
_TEXT	SEGMENT
this$ = 224
??0_Container_proxy@std@@QEAA@XZ PROC			; std::_Container_proxy::_Container_proxy, COMDAT
; File d:\appdata\vsp\vc\include\xutility
; Line 68
$LN3:
  00000	48 89 4c 24 08	 mov	 QWORD PTR [rsp+8], rcx
  00005	55		 push	 rbp
  00006	57		 push	 rdi
  00007	48 81 ec c8 00
	00 00		 sub	 rsp, 200		; 000000c8H
  0000e	48 8b ec	 mov	 rbp, rsp
  00011	48 8b fc	 mov	 rdi, rsp
  00014	b9 32 00 00 00	 mov	 ecx, 50			; 00000032H
  00019	b8 cc cc cc cc	 mov	 eax, -858993460		; ccccccccH
  0001e	f3 ab		 rep stosd
  00020	48 8b 8c 24 e8
	00 00 00	 mov	 rcx, QWORD PTR [rsp+232]
; Line 67
  00028	48 8b 85 e0 00
	00 00		 mov	 rax, QWORD PTR this$[rbp]
  0002f	48 c7 00 00 00
	00 00		 mov	 QWORD PTR [rax], 0
  00036	48 8b 85 e0 00
	00 00		 mov	 rax, QWORD PTR this$[rbp]
  0003d	48 c7 40 08 00
	00 00 00	 mov	 QWORD PTR [rax+8], 0
; Line 69
  00045	48 8b 85 e0 00
	00 00		 mov	 rax, QWORD PTR this$[rbp]
  0004c	48 8d a5 c8 00
	00 00		 lea	 rsp, QWORD PTR [rbp+200]
  00053	5f		 pop	 rdi
  00054	5d		 pop	 rbp
  00055	c3		 ret	 0
??0_Container_proxy@std@@QEAA@XZ ENDP			; std::_Container_proxy::_Container_proxy
_TEXT	ENDS
; Function compile flags: /Odtp /RTCsu /ZI
;	COMDAT ?eof@?$char_traits@D@std@@SAHXZ
_TEXT	SEGMENT
?eof@?$char_traits@D@std@@SAHXZ PROC			; std::char_traits<char>::eof, COMDAT
; File d:\appdata\vsp\vc\include\iosfwd
; Line 605
$LN3:
  00000	40 55		 push	 rbp
  00002	57		 push	 rdi
  00003	48 81 ec c8 00
	00 00		 sub	 rsp, 200		; 000000c8H
  0000a	48 8b ec	 mov	 rbp, rsp
  0000d	48 8b fc	 mov	 rdi, rsp
  00010	b9 32 00 00 00	 mov	 ecx, 50			; 00000032H
  00015	b8 cc cc cc cc	 mov	 eax, -858993460		; ccccccccH
  0001a	f3 ab		 rep stosd
; Line 606
  0001c	b8 ff ff ff ff	 mov	 eax, -1
; Line 607
  00021	48 8d a5 c8 00
	00 00		 lea	 rsp, QWORD PTR [rbp+200]
  00028	5f		 pop	 rdi
  00029	5d		 pop	 rbp
  0002a	c3		 ret	 0
?eof@?$char_traits@D@std@@SAHXZ ENDP			; std::char_traits<char>::eof
_TEXT	ENDS
; Function compile flags: /Odtp /RTCsu /ZI
;	COMDAT ?eq_int_type@?$char_traits@D@std@@SA_NAEBH0@Z
_TEXT	SEGMENT
tv65 = 192
_Left$ = 240
_Right$ = 248
?eq_int_type@?$char_traits@D@std@@SA_NAEBH0@Z PROC	; std::char_traits<char>::eq_int_type, COMDAT
; File d:\appdata\vsp\vc\include\iosfwd
; Line 594
$LN5:
  00000	48 89 54 24 10	 mov	 QWORD PTR [rsp+16], rdx
  00005	48 89 4c 24 08	 mov	 QWORD PTR [rsp+8], rcx
  0000a	55		 push	 rbp
  0000b	57		 push	 rdi
  0000c	48 81 ec d8 00
	00 00		 sub	 rsp, 216		; 000000d8H
  00013	48 8b ec	 mov	 rbp, rsp
  00016	48 8b fc	 mov	 rdi, rsp
  00019	b9 36 00 00 00	 mov	 ecx, 54			; 00000036H
  0001e	b8 cc cc cc cc	 mov	 eax, -858993460		; ccccccccH
  00023	f3 ab		 rep stosd
  00025	48 8b 8c 24 f8
	00 00 00	 mov	 rcx, QWORD PTR [rsp+248]
; Line 595
  0002d	48 8b 85 f0 00
	00 00		 mov	 rax, QWORD PTR _Left$[rbp]
  00034	48 8b 8d f8 00
	00 00		 mov	 rcx, QWORD PTR _Right$[rbp]
  0003b	8b 09		 mov	 ecx, DWORD PTR [rcx]
  0003d	39 08		 cmp	 DWORD PTR [rax], ecx
  0003f	75 0c		 jne	 SHORT $LN3@eq_int_typ
  00041	c7 85 c0 00 00
	00 01 00 00 00	 mov	 DWORD PTR tv65[rbp], 1
  0004b	eb 0a		 jmp	 SHORT $LN4@eq_int_typ
$LN3@eq_int_typ:
  0004d	c7 85 c0 00 00
	00 00 00 00 00	 mov	 DWORD PTR tv65[rbp], 0
$LN4@eq_int_typ:
  00057	0f b6 85 c0 00
	00 00		 movzx	 eax, BYTE PTR tv65[rbp]
; Line 596
  0005e	48 8d a5 d8 00
	00 00		 lea	 rsp, QWORD PTR [rbp+216]
  00065	5f		 pop	 rdi
  00066	5d		 pop	 rbp
  00067	c3		 ret	 0
?eq_int_type@?$char_traits@D@std@@SA_NAEBH0@Z ENDP	; std::char_traits<char>::eq_int_type
_TEXT	ENDS
; Function compile flags: /Odtp /RTCsu /ZI
;	COMDAT ?to_char_type@?$char_traits@D@std@@SADAEBH@Z
_TEXT	SEGMENT
_Meta$ = 224
?to_char_type@?$char_traits@D@std@@SADAEBH@Z PROC	; std::char_traits<char>::to_char_type, COMDAT
; File d:\appdata\vsp\vc\include\iosfwd
; Line 582
$LN3:
  00000	48 89 4c 24 08	 mov	 QWORD PTR [rsp+8], rcx
  00005	55		 push	 rbp
  00006	57		 push	 rdi
  00007	48 81 ec c8 00
	00 00		 sub	 rsp, 200		; 000000c8H
  0000e	48 8b ec	 mov	 rbp, rsp
  00011	48 8b fc	 mov	 rdi, rsp
  00014	b9 32 00 00 00	 mov	 ecx, 50			; 00000032H
  00019	b8 cc cc cc cc	 mov	 eax, -858993460		; ccccccccH
  0001e	f3 ab		 rep stosd
  00020	48 8b 8c 24 e8
	00 00 00	 mov	 rcx, QWORD PTR [rsp+232]
; Line 583
  00028	48 8b 85 e0 00
	00 00		 mov	 rax, QWORD PTR _Meta$[rbp]
  0002f	0f b6 00	 movzx	 eax, BYTE PTR [rax]
; Line 584
  00032	48 8d a5 c8 00
	00 00		 lea	 rsp, QWORD PTR [rbp+200]
  00039	5f		 pop	 rdi
  0003a	5d		 pop	 rbp
  0003b	c3		 ret	 0
?to_char_type@?$char_traits@D@std@@SADAEBH@Z ENDP	; std::char_traits<char>::to_char_type
_TEXT	ENDS
; Function compile flags: /Odtp /RTCsu /ZI
;	COMDAT ?assign@?$char_traits@D@std@@SAXAEADAEBD@Z
_TEXT	SEGMENT
_Left$ = 224
_Right$ = 232
?assign@?$char_traits@D@std@@SAXAEADAEBD@Z PROC		; std::char_traits<char>::assign, COMDAT
; File d:\appdata\vsp\vc\include\iosfwd
; Line 564
$LN3:
  00000	48 89 54 24 10	 mov	 QWORD PTR [rsp+16], rdx
  00005	48 89 4c 24 08	 mov	 QWORD PTR [rsp+8], rcx
  0000a	55		 push	 rbp
  0000b	57		 push	 rdi
  0000c	48 81 ec c8 00
	00 00		 sub	 rsp, 200		; 000000c8H
  00013	48 8b ec	 mov	 rbp, rsp
  00016	48 8b fc	 mov	 rdi, rsp
  00019	b9 32 00 00 00	 mov	 ecx, 50			; 00000032H
  0001e	b8 cc cc cc cc	 mov	 eax, -858993460		; ccccccccH
  00023	f3 ab		 rep stosd
  00025	48 8b 8c 24 e8
	00 00 00	 mov	 rcx, QWORD PTR [rsp+232]
; Line 565
  0002d	48 8b 85 e0 00
	00 00		 mov	 rax, QWORD PTR _Left$[rbp]
  00034	48 8b 8d e8 00
	00 00		 mov	 rcx, QWORD PTR _Right$[rbp]
  0003b	0f b6 09	 movzx	 ecx, BYTE PTR [rcx]
  0003e	88 08		 mov	 BYTE PTR [rax], cl
; Line 566
  00040	48 8d a5 c8 00
	00 00		 lea	 rsp, QWORD PTR [rbp+200]
  00047	5f		 pop	 rdi
  00048	5d		 pop	 rbp
  00049	c3		 ret	 0
?assign@?$char_traits@D@std@@SAXAEADAEBD@Z ENDP		; std::char_traits<char>::assign
_TEXT	ENDS
; Function compile flags: /Odtp /RTCsu /ZI
;	COMDAT ?move@?$char_traits@D@std@@SAPEADPEADPEBD_K@Z
_TEXT	SEGMENT
tv69 = 192
_First1$ = 240
_First2$ = 248
_Count$ = 256
?move@?$char_traits@D@std@@SAPEADPEADPEBD_K@Z PROC	; std::char_traits<char>::move, COMDAT
; File d:\appdata\vsp\vc\include\iosfwd
; Line 552
$LN5:
  00000	4c 89 44 24 18	 mov	 QWORD PTR [rsp+24], r8
  00005	48 89 54 24 10	 mov	 QWORD PTR [rsp+16], rdx
  0000a	48 89 4c 24 08	 mov	 QWORD PTR [rsp+8], rcx
  0000f	55		 push	 rbp
  00010	57		 push	 rdi
  00011	48 81 ec f8 00
	00 00		 sub	 rsp, 248		; 000000f8H
  00018	48 8d 6c 24 20	 lea	 rbp, QWORD PTR [rsp+32]
  0001d	48 8b fc	 mov	 rdi, rsp
  00020	b9 3e 00 00 00	 mov	 ecx, 62			; 0000003eH
  00025	b8 cc cc cc cc	 mov	 eax, -858993460		; ccccccccH
  0002a	f3 ab		 rep stosd
  0002c	48 8b 8c 24 18
	01 00 00	 mov	 rcx, QWORD PTR [rsp+280]
; Line 553
  00034	48 83 bd 00 01
	00 00 00	 cmp	 QWORD PTR _Count$[rbp], 0
  0003c	75 10		 jne	 SHORT $LN3@move
  0003e	48 8b 85 f0 00
	00 00		 mov	 rax, QWORD PTR _First1$[rbp]
  00045	48 89 85 c0 00
	00 00		 mov	 QWORD PTR tv69[rbp], rax
  0004c	eb 22		 jmp	 SHORT $LN4@move
$LN3@move:
  0004e	4c 8b 85 00 01
	00 00		 mov	 r8, QWORD PTR _Count$[rbp]
  00055	48 8b 95 f8 00
	00 00		 mov	 rdx, QWORD PTR _First2$[rbp]
  0005c	48 8b 8d f0 00
	00 00		 mov	 rcx, QWORD PTR _First1$[rbp]
  00063	ff 15 00 00 00
	00		 call	 QWORD PTR __imp_memmove
  00069	48 89 85 c0 00
	00 00		 mov	 QWORD PTR tv69[rbp], rax
$LN4@move:
  00070	48 8b 85 c0 00
	00 00		 mov	 rax, QWORD PTR tv69[rbp]
; Line 555
  00077	48 8d a5 d8 00
	00 00		 lea	 rsp, QWORD PTR [rbp+216]
  0007e	5f		 pop	 rdi
  0007f	5d		 pop	 rbp
  00080	c3		 ret	 0
?move@?$char_traits@D@std@@SAPEADPEADPEBD_K@Z ENDP	; std::char_traits<char>::move
_TEXT	ENDS
; Function compile flags: /Odtp /RTCsu /ZI
;	COMDAT ?copy@?$char_traits@D@std@@SAPEADPEADPEBD_K@Z
_TEXT	SEGMENT
tv69 = 192
_First1$ = 240
_First2$ = 248
_Count$ = 256
?copy@?$char_traits@D@std@@SAPEADPEADPEBD_K@Z PROC	; std::char_traits<char>::copy, COMDAT
; File d:\appdata\vsp\vc\include\iosfwd
; Line 529
$LN5:
  00000	4c 89 44 24 18	 mov	 QWORD PTR [rsp+24], r8
  00005	48 89 54 24 10	 mov	 QWORD PTR [rsp+16], rdx
  0000a	48 89 4c 24 08	 mov	 QWORD PTR [rsp+8], rcx
  0000f	55		 push	 rbp
  00010	57		 push	 rdi
  00011	48 81 ec f8 00
	00 00		 sub	 rsp, 248		; 000000f8H
  00018	48 8d 6c 24 20	 lea	 rbp, QWORD PTR [rsp+32]
  0001d	48 8b fc	 mov	 rdi, rsp
  00020	b9 3e 00 00 00	 mov	 ecx, 62			; 0000003eH
  00025	b8 cc cc cc cc	 mov	 eax, -858993460		; ccccccccH
  0002a	f3 ab		 rep stosd
  0002c	48 8b 8c 24 18
	01 00 00	 mov	 rcx, QWORD PTR [rsp+280]
; Line 530
  00034	48 83 bd 00 01
	00 00 00	 cmp	 QWORD PTR _Count$[rbp], 0
  0003c	75 10		 jne	 SHORT $LN3@copy
  0003e	48 8b 85 f0 00
	00 00		 mov	 rax, QWORD PTR _First1$[rbp]
  00045	48 89 85 c0 00
	00 00		 mov	 QWORD PTR tv69[rbp], rax
  0004c	eb 21		 jmp	 SHORT $LN4@copy
$LN3@copy:
  0004e	4c 8b 85 00 01
	00 00		 mov	 r8, QWORD PTR _Count$[rbp]
  00055	48 8b 95 f8 00
	00 00		 mov	 rdx, QWORD PTR _First2$[rbp]
  0005c	48 8b 8d f0 00
	00 00		 mov	 rcx, QWORD PTR _First1$[rbp]
  00063	e8 00 00 00 00	 call	 memcpy
  00068	48 89 85 c0 00
	00 00		 mov	 QWORD PTR tv69[rbp], rax
$LN4@copy:
  0006f	48 8b 85 c0 00
	00 00		 mov	 rax, QWORD PTR tv69[rbp]
; Line 532
  00076	48 8d a5 d8 00
	00 00		 lea	 rsp, QWORD PTR [rbp+216]
  0007d	5f		 pop	 rdi
  0007e	5d		 pop	 rbp
  0007f	c3		 ret	 0
?copy@?$char_traits@D@std@@SAPEADPEADPEBD_K@Z ENDP	; std::char_traits<char>::copy
_TEXT	ENDS
; Function compile flags: /Odtp /RTCsu /ZI
;	COMDAT ?length@?$char_traits@D@std@@SA_KPEBD@Z
_TEXT	SEGMENT
tv68 = 192
_First$ = 240
?length@?$char_traits@D@std@@SA_KPEBD@Z PROC		; std::char_traits<char>::length, COMDAT
; File d:\appdata\vsp\vc\include\iosfwd
; Line 522
$LN5:
  00000	48 89 4c 24 08	 mov	 QWORD PTR [rsp+8], rcx
  00005	55		 push	 rbp
  00006	57		 push	 rdi
  00007	48 81 ec f8 00
	00 00		 sub	 rsp, 248		; 000000f8H
  0000e	48 8d 6c 24 20	 lea	 rbp, QWORD PTR [rsp+32]
  00013	48 8b fc	 mov	 rdi, rsp
  00016	b9 3e 00 00 00	 mov	 ecx, 62			; 0000003eH
  0001b	b8 cc cc cc cc	 mov	 eax, -858993460		; ccccccccH
  00020	f3 ab		 rep stosd
  00022	48 8b 8c 24 18
	01 00 00	 mov	 rcx, QWORD PTR [rsp+280]
; Line 523
  0002a	48 8b 85 f0 00
	00 00		 mov	 rax, QWORD PTR _First$[rbp]
  00031	0f be 00	 movsx	 eax, BYTE PTR [rax]
  00034	85 c0		 test	 eax, eax
  00036	75 0d		 jne	 SHORT $LN3@length
  00038	48 c7 85 c0 00
	00 00 00 00 00
	00		 mov	 QWORD PTR tv68[rbp], 0
  00043	eb 13		 jmp	 SHORT $LN4@length
$LN3@length:
  00045	48 8b 8d f0 00
	00 00		 mov	 rcx, QWORD PTR _First$[rbp]
  0004c	e8 00 00 00 00	 call	 strlen
  00051	48 89 85 c0 00
	00 00		 mov	 QWORD PTR tv68[rbp], rax
$LN4@length:
  00058	48 8b 85 c0 00
	00 00		 mov	 rax, QWORD PTR tv68[rbp]
; Line 525
  0005f	48 8d a5 d8 00
	00 00		 lea	 rsp, QWORD PTR [rbp+216]
  00066	5f		 pop	 rdi
  00067	5d		 pop	 rbp
  00068	c3		 ret	 0
?length@?$char_traits@D@std@@SA_KPEBD@Z ENDP		; std::char_traits<char>::length
_TEXT	ENDS
; Function compile flags: /Odtp /RTCsu /ZI
;	COMDAT ??2@YAPEAX_KPEAX@Z
_TEXT	SEGMENT
_Size$ = 224
_Where$ = 232
??2@YAPEAX_KPEAX@Z PROC					; operator new, COMDAT
; File d:\appdata\vsp\vc\include\vcruntime_new.h
; Line 87
$LN3:
  00000	48 89 54 24 10	 mov	 QWORD PTR [rsp+16], rdx
  00005	48 89 4c 24 08	 mov	 QWORD PTR [rsp+8], rcx
  0000a	55		 push	 rbp
  0000b	57		 push	 rdi
  0000c	48 81 ec c8 00
	00 00		 sub	 rsp, 200		; 000000c8H
  00013	48 8b ec	 mov	 rbp, rsp
  00016	48 8b fc	 mov	 rdi, rsp
  00019	b9 32 00 00 00	 mov	 ecx, 50			; 00000032H
  0001e	b8 cc cc cc cc	 mov	 eax, -858993460		; ccccccccH
  00023	f3 ab		 rep stosd
  00025	48 8b 8c 24 e8
	00 00 00	 mov	 rcx, QWORD PTR [rsp+232]
; Line 89
  0002d	48 8b 85 e8 00
	00 00		 mov	 rax, QWORD PTR _Where$[rbp]
; Line 90
  00034	48 8d a5 c8 00
	00 00		 lea	 rsp, QWORD PTR [rbp+200]
  0003b	5f		 pop	 rdi
  0003c	5d		 pop	 rbp
  0003d	c3		 ret	 0
??2@YAPEAX_KPEAX@Z ENDP					; operator new
_TEXT	ENDS
; Function compile flags: /Odtp /RTCsu /ZI
;	COMDAT ??$__vcrt_va_start_verify_argument_type@QEBD@@YAXXZ
_TEXT	SEGMENT
??$__vcrt_va_start_verify_argument_type@QEBD@@YAXXZ PROC ; __vcrt_va_start_verify_argument_type<char const * __ptr64 const>, COMDAT
; File d:\appdata\vsp\vc\include\vadefs.h
; Line 144
$LN3:
  00000	40 55		 push	 rbp
  00002	57		 push	 rdi
  00003	48 81 ec c8 00
	00 00		 sub	 rsp, 200		; 000000c8H
  0000a	48 8b ec	 mov	 rbp, rsp
  0000d	48 8b fc	 mov	 rdi, rsp
  00010	b9 32 00 00 00	 mov	 ecx, 50			; 00000032H
  00015	b8 cc cc cc cc	 mov	 eax, -858993460		; ccccccccH
  0001a	f3 ab		 rep stosd
; Line 146
  0001c	48 8d a5 c8 00
	00 00		 lea	 rsp, QWORD PTR [rbp+200]
  00023	5f		 pop	 rdi
  00024	5d		 pop	 rbp
  00025	c3		 ret	 0
??$__vcrt_va_start_verify_argument_type@QEBD@@YAXXZ ENDP ; __vcrt_va_start_verify_argument_type<char const * __ptr64 const>
_TEXT	ENDS
; Function compile flags: /Odtp /RTCsu /ZI
;	COMDAT fprintf
_TEXT	SEGMENT
_Result$ = 4
_ArgList$ = 40
__$ArrayPad$ = 248
_Stream$ = 288
_Format$ = 296
fprintf	PROC						; COMDAT
; File c:\program files (x86)\windows kits\10\include\10.0.10240.0\ucrt\stdio.h
; Line 831
$LN3:
  00000	48 89 54 24 10	 mov	 QWORD PTR [rsp+16], rdx
  00005	48 89 4c 24 08	 mov	 QWORD PTR [rsp+8], rcx
  0000a	4c 89 44 24 18	 mov	 QWORD PTR [rsp+24], r8
  0000f	4c 89 4c 24 20	 mov	 QWORD PTR [rsp+32], r9
  00014	55		 push	 rbp
  00015	57		 push	 rdi
  00016	48 81 ec 28 01
	00 00		 sub	 rsp, 296		; 00000128H
  0001d	48 8d 6c 24 20	 lea	 rbp, QWORD PTR [rsp+32]
  00022	48 8b fc	 mov	 rdi, rsp
  00025	b9 4a 00 00 00	 mov	 ecx, 74			; 0000004aH
  0002a	b8 cc cc cc cc	 mov	 eax, -858993460		; ccccccccH
  0002f	f3 ab		 rep stosd
  00031	48 8b 8c 24 48
	01 00 00	 mov	 rcx, QWORD PTR [rsp+328]
  00039	48 8b 05 00 00
	00 00		 mov	 rax, QWORD PTR __security_cookie
  00040	48 33 c5	 xor	 rax, rbp
  00043	48 89 85 f8 00
	00 00		 mov	 QWORD PTR __$ArrayPad$[rbp], rax
; Line 834
  0004a	e8 00 00 00 00	 call	 ??$__vcrt_va_start_verify_argument_type@QEBD@@YAXXZ ; __vcrt_va_start_verify_argument_type<char const * __ptr64 const>
  0004f	48 8d 85 30 01
	00 00		 lea	 rax, QWORD PTR _Format$[rbp+8]
  00056	48 89 45 28	 mov	 QWORD PTR _ArgList$[rbp], rax
; Line 835
  0005a	4c 8b 4d 28	 mov	 r9, QWORD PTR _ArgList$[rbp]
  0005e	45 33 c0	 xor	 r8d, r8d
  00061	48 8b 95 28 01
	00 00		 mov	 rdx, QWORD PTR _Format$[rbp]
  00068	48 8b 8d 20 01
	00 00		 mov	 rcx, QWORD PTR _Stream$[rbp]
  0006f	e8 00 00 00 00	 call	 _vfprintf_l
  00074	89 45 04	 mov	 DWORD PTR _Result$[rbp], eax
; Line 836
  00077	48 c7 45 28 00
	00 00 00	 mov	 QWORD PTR _ArgList$[rbp], 0
; Line 837
  0007f	8b 45 04	 mov	 eax, DWORD PTR _Result$[rbp]
; Line 838
  00082	8b f8		 mov	 edi, eax
  00084	48 8d 4d e0	 lea	 rcx, QWORD PTR [rbp-32]
  00088	48 8d 15 00 00
	00 00		 lea	 rdx, OFFSET FLAT:fprintf$rtcFrameData
  0008f	e8 00 00 00 00	 call	 _RTC_CheckStackVars
  00094	8b c7		 mov	 eax, edi
  00096	48 8b 8d f8 00
	00 00		 mov	 rcx, QWORD PTR __$ArrayPad$[rbp]
  0009d	48 33 cd	 xor	 rcx, rbp
  000a0	e8 00 00 00 00	 call	 __security_check_cookie
  000a5	48 8d a5 08 01
	00 00		 lea	 rsp, QWORD PTR [rbp+264]
  000ac	5f		 pop	 rdi
  000ad	5d		 pop	 rbp
  000ae	c3		 ret	 0
fprintf	ENDP
_TEXT	ENDS
; Function compile flags: /Odtp /RTCsu /ZI
;	COMDAT _vfprintf_l
_TEXT	SEGMENT
_Stream$ = 224
_Format$ = 232
_Locale$ = 240
_ArgList$ = 248
_vfprintf_l PROC					; COMDAT
; File c:\program files (x86)\windows kits\10\include\10.0.10240.0\ucrt\stdio.h
; Line 638
$LN3:
  00000	4c 89 4c 24 20	 mov	 QWORD PTR [rsp+32], r9
  00005	4c 89 44 24 18	 mov	 QWORD PTR [rsp+24], r8
  0000a	48 89 54 24 10	 mov	 QWORD PTR [rsp+16], rdx
  0000f	48 89 4c 24 08	 mov	 QWORD PTR [rsp+8], rcx
  00014	55		 push	 rbp
  00015	57		 push	 rdi
  00016	48 81 ec f8 00
	00 00		 sub	 rsp, 248		; 000000f8H
  0001d	48 8d 6c 24 30	 lea	 rbp, QWORD PTR [rsp+48]
  00022	48 8b fc	 mov	 rdi, rsp
  00025	b9 3e 00 00 00	 mov	 ecx, 62			; 0000003eH
  0002a	b8 cc cc cc cc	 mov	 eax, -858993460		; ccccccccH
  0002f	f3 ab		 rep stosd
  00031	48 8b 8c 24 18
	01 00 00	 mov	 rcx, QWORD PTR [rsp+280]
; Line 639
  00039	e8 00 00 00 00	 call	 __local_stdio_printf_options
  0003e	48 8b 8d f8 00
	00 00		 mov	 rcx, QWORD PTR _ArgList$[rbp]
  00045	48 89 4c 24 20	 mov	 QWORD PTR [rsp+32], rcx
  0004a	4c 8b 8d f0 00
	00 00		 mov	 r9, QWORD PTR _Locale$[rbp]
  00051	4c 8b 85 e8 00
	00 00		 mov	 r8, QWORD PTR _Format$[rbp]
  00058	48 8b 95 e0 00
	00 00		 mov	 rdx, QWORD PTR _Stream$[rbp]
  0005f	48 8b 08	 mov	 rcx, QWORD PTR [rax]
  00062	ff 15 00 00 00
	00		 call	 QWORD PTR __imp___stdio_common_vfprintf
; Line 640
  00068	48 8d a5 c8 00
	00 00		 lea	 rsp, QWORD PTR [rbp+200]
  0006f	5f		 pop	 rdi
  00070	5d		 pop	 rbp
  00071	c3		 ret	 0
_vfprintf_l ENDP
_TEXT	ENDS
; Function compile flags: /Odtp /RTCsu /ZI
;	COMDAT __local_stdio_printf_options
_TEXT	SEGMENT
__local_stdio_printf_options PROC			; COMDAT
; File c:\program files (x86)\windows kits\10\include\10.0.10240.0\ucrt\corecrt_stdio_config.h
; Line 73
$LN3:
  00000	40 55		 push	 rbp
  00002	57		 push	 rdi
  00003	48 81 ec c8 00
	00 00		 sub	 rsp, 200		; 000000c8H
  0000a	48 8b ec	 mov	 rbp, rsp
  0000d	48 8b fc	 mov	 rdi, rsp
  00010	b9 32 00 00 00	 mov	 ecx, 50			; 00000032H
  00015	b8 cc cc cc cc	 mov	 eax, -858993460		; ccccccccH
  0001a	f3 ab		 rep stosd
; Line 75
  0001c	48 8d 05 00 00
	00 00		 lea	 rax, OFFSET FLAT:?_OptionsStorage@?1??__local_stdio_printf_options@@9@4_KA ; `__local_stdio_printf_options'::`2'::_OptionsStorage
; Line 76
  00023	48 8d a5 c8 00
	00 00		 lea	 rsp, QWORD PTR [rbp+200]
  0002a	5f		 pop	 rdi
  0002b	5d		 pop	 rbp
  0002c	c3		 ret	 0
__local_stdio_printf_options ENDP
_TEXT	ENDS
; Function compile flags: /Odtp /RTCsu /ZI
;	COMDAT ??0v2@Cy@@QEAA@AEBU01@@Z
_TEXT	SEGMENT
this$ = 224
v$ = 232
??0v2@Cy@@QEAA@AEBU01@@Z PROC				; Cy::v2::v2, COMDAT
; File d:\scottsdocs\sourcecode\vulkanengine\vulkanengine\code\cymath.h
; Line 21
$LN3:
  00000	48 89 54 24 10	 mov	 QWORD PTR [rsp+16], rdx
  00005	48 89 4c 24 08	 mov	 QWORD PTR [rsp+8], rcx
  0000a	55		 push	 rbp
  0000b	57		 push	 rdi
  0000c	48 81 ec c8 00
	00 00		 sub	 rsp, 200		; 000000c8H
  00013	48 8b ec	 mov	 rbp, rsp
  00016	48 8b fc	 mov	 rdi, rsp
  00019	b9 32 00 00 00	 mov	 ecx, 50			; 00000032H
  0001e	b8 cc cc cc cc	 mov	 eax, -858993460		; ccccccccH
  00023	f3 ab		 rep stosd
  00025	48 8b 8c 24 e8
	00 00 00	 mov	 rcx, QWORD PTR [rsp+232]
; Line 23
  0002d	48 8b 85 e0 00
	00 00		 mov	 rax, QWORD PTR this$[rbp]
  00034	48 8b 8d e8 00
	00 00		 mov	 rcx, QWORD PTR v$[rbp]
  0003b	f3 0f 10 01	 movss	 xmm0, DWORD PTR [rcx]
  0003f	f3 0f 11 00	 movss	 DWORD PTR [rax], xmm0
; Line 24
  00043	48 8b 85 e0 00
	00 00		 mov	 rax, QWORD PTR this$[rbp]
  0004a	48 8b 8d e8 00
	00 00		 mov	 rcx, QWORD PTR v$[rbp]
  00051	f3 0f 10 41 04	 movss	 xmm0, DWORD PTR [rcx+4]
  00056	f3 0f 11 40 04	 movss	 DWORD PTR [rax+4], xmm0
; Line 25
  0005b	48 8b 85 e0 00
	00 00		 mov	 rax, QWORD PTR this$[rbp]
  00062	48 8d a5 c8 00
	00 00		 lea	 rsp, QWORD PTR [rbp+200]
  00069	5f		 pop	 rdi
  0006a	5d		 pop	 rbp
  0006b	c3		 ret	 0
??0v2@Cy@@QEAA@AEBU01@@Z ENDP				; Cy::v2::v2
_TEXT	ENDS
; Function compile flags: /Odtp /RTCsu /ZI
;	COMDAT ??0v2@Cy@@QEAA@MM@Z
_TEXT	SEGMENT
this$ = 224
x$ = 232
y$ = 240
??0v2@Cy@@QEAA@MM@Z PROC				; Cy::v2::v2, COMDAT
; File d:\scottsdocs\sourcecode\vulkanengine\vulkanengine\code\cymath.h
; Line 16
$LN3:
  00000	f3 0f 11 54 24
	18		 movss	 DWORD PTR [rsp+24], xmm2
  00006	f3 0f 11 4c 24
	10		 movss	 DWORD PTR [rsp+16], xmm1
  0000c	48 89 4c 24 08	 mov	 QWORD PTR [rsp+8], rcx
  00011	55		 push	 rbp
  00012	57		 push	 rdi
  00013	48 81 ec c8 00
	00 00		 sub	 rsp, 200		; 000000c8H
  0001a	48 8b ec	 mov	 rbp, rsp
  0001d	48 8b fc	 mov	 rdi, rsp
  00020	b9 32 00 00 00	 mov	 ecx, 50			; 00000032H
  00025	b8 cc cc cc cc	 mov	 eax, -858993460		; ccccccccH
  0002a	f3 ab		 rep stosd
  0002c	48 8b 8c 24 e8
	00 00 00	 mov	 rcx, QWORD PTR [rsp+232]
; Line 18
  00034	48 8b 85 e0 00
	00 00		 mov	 rax, QWORD PTR this$[rbp]
  0003b	f3 0f 10 85 e8
	00 00 00	 movss	 xmm0, DWORD PTR x$[rbp]
  00043	f3 0f 11 00	 movss	 DWORD PTR [rax], xmm0
; Line 19
  00047	48 8b 85 e0 00
	00 00		 mov	 rax, QWORD PTR this$[rbp]
  0004e	f3 0f 10 85 f0
	00 00 00	 movss	 xmm0, DWORD PTR y$[rbp]
  00056	f3 0f 11 40 04	 movss	 DWORD PTR [rax+4], xmm0
; Line 20
  0005b	48 8b 85 e0 00
	00 00		 mov	 rax, QWORD PTR this$[rbp]
  00062	48 8d a5 c8 00
	00 00		 lea	 rsp, QWORD PTR [rbp+200]
  00069	5f		 pop	 rdi
  0006a	5d		 pop	 rbp
  0006b	c3		 ret	 0
??0v2@Cy@@QEAA@MM@Z ENDP				; Cy::v2::v2
_TEXT	ENDS
; Function compile flags: /Odtp /RTCsu /ZI
;	COMDAT ??0v2@Cy@@QEAA@XZ
_TEXT	SEGMENT
this$ = 224
??0v2@Cy@@QEAA@XZ PROC					; Cy::v2::v2, COMDAT
; File d:\scottsdocs\sourcecode\vulkanengine\vulkanengine\code\cymath.h
; Line 11
$LN3:
  00000	48 89 4c 24 08	 mov	 QWORD PTR [rsp+8], rcx
  00005	55		 push	 rbp
  00006	57		 push	 rdi
  00007	48 81 ec c8 00
	00 00		 sub	 rsp, 200		; 000000c8H
  0000e	48 8b ec	 mov	 rbp, rsp
  00011	48 8b fc	 mov	 rdi, rsp
  00014	b9 32 00 00 00	 mov	 ecx, 50			; 00000032H
  00019	b8 cc cc cc cc	 mov	 eax, -858993460		; ccccccccH
  0001e	f3 ab		 rep stosd
  00020	48 8b 8c 24 e8
	00 00 00	 mov	 rcx, QWORD PTR [rsp+232]
; Line 13
  00028	48 8b 85 e0 00
	00 00		 mov	 rax, QWORD PTR this$[rbp]
  0002f	0f 57 c0	 xorps	 xmm0, xmm0
  00032	f3 0f 11 00	 movss	 DWORD PTR [rax], xmm0
; Line 14
  00036	48 8b 85 e0 00
	00 00		 mov	 rax, QWORD PTR this$[rbp]
  0003d	0f 57 c0	 xorps	 xmm0, xmm0
  00040	f3 0f 11 40 04	 movss	 DWORD PTR [rax+4], xmm0
; Line 15
  00045	48 8b 85 e0 00
	00 00		 mov	 rax, QWORD PTR this$[rbp]
  0004c	48 8d a5 c8 00
	00 00		 lea	 rsp, QWORD PTR [rbp+200]
  00053	5f		 pop	 rdi
  00054	5d		 pop	 rbp
  00055	c3		 ret	 0
??0v2@Cy@@QEAA@XZ ENDP					; Cy::v2::v2
_TEXT	ENDS
; Function compile flags: /Odtp /RTCsu /ZI
;	COMDAT ?__empty_global_delete@@YAXPEAX_K@Z
_TEXT	SEGMENT
__formal$ = 224
__formal$ = 232
?__empty_global_delete@@YAXPEAX_K@Z PROC		; __empty_global_delete, COMDAT
; File d:\scottsdocs\sourcecode\vulkanengine\vulkanengine\code\commonwindows.cpp
; Line 287
$LN3:
  00000	48 89 54 24 10	 mov	 QWORD PTR [rsp+16], rdx
  00005	48 89 4c 24 08	 mov	 QWORD PTR [rsp+8], rcx
  0000a	55		 push	 rbp
  0000b	57		 push	 rdi
  0000c	48 81 ec c8 00
	00 00		 sub	 rsp, 200		; 000000c8H
  00013	48 8b ec	 mov	 rbp, rsp
  00016	48 8b fc	 mov	 rdi, rsp
  00019	b9 32 00 00 00	 mov	 ecx, 50			; 00000032H
  0001e	b8 cc cc cc cc	 mov	 eax, -858993460		; ccccccccH
  00023	f3 ab		 rep stosd
  00025	48 8b 8c 24 e8
	00 00 00	 mov	 rcx, QWORD PTR [rsp+232]
  0002d	48 8d a5 c8 00
	00 00		 lea	 rsp, QWORD PTR [rbp+200]
  00034	5f		 pop	 rdi
  00035	5d		 pop	 rbp
  00036	c3		 ret	 0
?__empty_global_delete@@YAXPEAX_K@Z ENDP		; __empty_global_delete
_TEXT	ENDS
; Function compile flags: /Odtp /RTCsu /ZI
;	COMDAT ?__empty_global_delete@@YAXPEAX@Z
_TEXT	SEGMENT
__formal$ = 224
?__empty_global_delete@@YAXPEAX@Z PROC			; __empty_global_delete, COMDAT
; File d:\scottsdocs\sourcecode\vulkanengine\vulkanengine\code\commonwindows.cpp
; Line 287
$LN3:
  00000	48 89 4c 24 08	 mov	 QWORD PTR [rsp+8], rcx
  00005	55		 push	 rbp
  00006	57		 push	 rdi
  00007	48 81 ec c8 00
	00 00		 sub	 rsp, 200		; 000000c8H
  0000e	48 8b ec	 mov	 rbp, rsp
  00011	48 8b fc	 mov	 rdi, rsp
  00014	b9 32 00 00 00	 mov	 ecx, 50			; 00000032H
  00019	b8 cc cc cc cc	 mov	 eax, -858993460		; ccccccccH
  0001e	f3 ab		 rep stosd
  00020	48 8b 8c 24 e8
	00 00 00	 mov	 rcx, QWORD PTR [rsp+232]
  00028	48 8d a5 c8 00
	00 00		 lea	 rsp, QWORD PTR [rbp+200]
  0002f	5f		 pop	 rdi
  00030	5d		 pop	 rbp
  00031	c3		 ret	 0
?__empty_global_delete@@YAXPEAX@Z ENDP			; __empty_global_delete
_TEXT	ENDS
END
