; Listing generated by Microsoft (R) Optimizing Compiler Version 19.00.23506.0 

include listing.inc

INCLUDELIB MSVCRTD
INCLUDELIB OLDNAMES

PUBLIC	?__empty_global_delete@@YAXPEAX@Z		; __empty_global_delete
PUBLIC	?__empty_global_delete@@YAXPEAX_K@Z		; __empty_global_delete
PUBLIC	??0v2@Cy@@QEAA@XZ				; Cy::v2::v2
PUBLIC	??0v2@Cy@@QEAA@MM@Z				; Cy::v2::v2
PUBLIC	??0v2@Cy@@QEAA@AEBU01@@Z			; Cy::v2::v2
PUBLIC	__local_stdio_printf_options
PUBLIC	_vfprintf_l
PUBLIC	fprintf
PUBLIC	??$__vcrt_va_start_verify_argument_type@QEBD@@YAXXZ ; __vcrt_va_start_verify_argument_type<char const * __ptr64 const>
PUBLIC	??2@YAPEAX_KPEAX@Z				; operator new
PUBLIC	?length@?$char_traits@D@std@@SA_KPEBD@Z		; std::char_traits<char>::length
PUBLIC	?copy@?$char_traits@D@std@@SAPEADPEADPEBD_K@Z	; std::char_traits<char>::copy
PUBLIC	?move@?$char_traits@D@std@@SAPEADPEADPEBD_K@Z	; std::char_traits<char>::move
PUBLIC	?assign@?$char_traits@D@std@@SAXAEADAEBD@Z	; std::char_traits<char>::assign
PUBLIC	?to_char_type@?$char_traits@D@std@@SADAEBH@Z	; std::char_traits<char>::to_char_type
PUBLIC	?eq_int_type@?$char_traits@D@std@@SA_NAEBH0@Z	; std::char_traits<char>::eq_int_type
PUBLIC	?eof@?$char_traits@D@std@@SAHXZ			; std::char_traits<char>::eof
PUBLIC	??0_Container_proxy@std@@QEAA@XZ		; std::_Container_proxy::_Container_proxy
PUBLIC	??0_Container_base12@std@@QEAA@XZ		; std::_Container_base12::_Container_base12
PUBLIC	??1_Container_base12@std@@QEAA@XZ		; std::_Container_base12::~_Container_base12
PUBLIC	?_Orphan_all@_Container_base12@std@@QEAAXXZ	; std::_Container_base12::_Orphan_all
PUBLIC	?_Allocate@std@@YAPEAX_K0_N@Z			; std::_Allocate
PUBLIC	?_Deallocate@std@@YAXPEAX_K1@Z			; std::_Deallocate
PUBLIC	??0?$allocator@D@std@@QEAA@XZ			; std::allocator<char>::allocator<char>
PUBLIC	??0?$allocator@D@std@@QEAA@AEBV01@@Z		; std::allocator<char>::allocator<char>
PUBLIC	?deallocate@?$allocator@D@std@@QEAAXPEAD_K@Z	; std::allocator<char>::deallocate
PUBLIC	?allocate@?$allocator@D@std@@QEAAPEAD_K@Z	; std::allocator<char>::allocate
PUBLIC	?max_size@?$allocator@D@std@@QEBA_KXZ		; std::allocator<char>::max_size
PUBLIC	?max_size@?$allocator_traits@V?$allocator@D@std@@@std@@SA_KAEBV?$allocator@D@2@@Z ; std::allocator_traits<std::allocator<char> >::max_size
PUBLIC	?select_on_container_copy_construction@?$allocator_traits@V?$allocator@D@std@@@std@@SA?AV?$allocator@D@2@AEBV32@@Z ; std::allocator_traits<std::allocator<char> >::select_on_container_copy_construction
PUBLIC	?select_on_container_copy_construction@?$_Wrap_alloc@V?$allocator@D@std@@@std@@QEBA?AU12@U_Nil@2@@Z ; std::_Wrap_alloc<std::allocator<char> >::select_on_container_copy_construction
PUBLIC	??0?$_Wrap_alloc@V?$allocator@D@std@@@std@@QEAA@AEBV?$allocator@D@1@@Z ; std::_Wrap_alloc<std::allocator<char> >::_Wrap_alloc<std::allocator<char> >
PUBLIC	?allocate@?$_Wrap_alloc@V?$allocator@D@std@@@std@@QEAAPEAD_K@Z ; std::_Wrap_alloc<std::allocator<char> >::allocate
PUBLIC	?deallocate@?$_Wrap_alloc@V?$allocator@D@std@@@std@@QEAAXPEAD_K@Z ; std::_Wrap_alloc<std::allocator<char> >::deallocate
PUBLIC	?max_size@?$_Wrap_alloc@V?$allocator@D@std@@@std@@QEBA_KU_Nil@2@@Z ; std::_Wrap_alloc<std::allocator<char> >::max_size
PUBLIC	??0?$_String_val@U?$_Simple_types@D@std@@@std@@QEAA@XZ ; std::_String_val<std::_Simple_types<char> >::_String_val<std::_Simple_types<char> >
PUBLIC	?_Myptr@?$_String_val@U?$_Simple_types@D@std@@@std@@QEAAPEADXZ ; std::_String_val<std::_Simple_types<char> >::_Myptr
PUBLIC	?_Myptr@?$_String_val@U?$_Simple_types@D@std@@@std@@QEBAPEBDXZ ; std::_String_val<std::_Simple_types<char> >::_Myptr
PUBLIC	??1?$_String_val@U?$_Simple_types@D@std@@@std@@QEAA@XZ ; std::_String_val<std::_Simple_types<char> >::~_String_val<std::_Simple_types<char> >
PUBLIC	?_Myptr@?$_String_alloc@U?$_String_base_types@DV?$allocator@D@std@@@std@@@std@@QEAAPEADXZ ; std::_String_alloc<std::_String_base_types<char,std::allocator<char> > >::_Myptr
PUBLIC	?_Myptr@?$_String_alloc@U?$_String_base_types@DV?$allocator@D@std@@@std@@@std@@QEBAPEBDXZ ; std::_String_alloc<std::_String_base_types<char,std::allocator<char> > >::_Myptr
PUBLIC	??0?$_String_alloc@U?$_String_base_types@DV?$allocator@D@std@@@std@@@std@@QEAA@AEBV?$allocator@D@1@@Z ; std::_String_alloc<std::_String_base_types<char,std::allocator<char> > >::_String_alloc<std::_String_base_types<char,std::allocator<char> > >
PUBLIC	??0?$_String_alloc@U?$_String_base_types@DV?$allocator@D@std@@@std@@@std@@QEAA@$$QEAV?$allocator@D@1@@Z ; std::_String_alloc<std::_String_base_types<char,std::allocator<char> > >::_String_alloc<std::_String_base_types<char,std::allocator<char> > >
PUBLIC	??1?$_String_alloc@U?$_String_base_types@DV?$allocator@D@std@@@std@@@std@@QEAA@XZ ; std::_String_alloc<std::_String_base_types<char,std::allocator<char> > >::~_String_alloc<std::_String_base_types<char,std::allocator<char> > >
PUBLIC	?_Alloc_proxy@?$_String_alloc@U?$_String_base_types@DV?$allocator@D@std@@@std@@@std@@QEAAXXZ ; std::_String_alloc<std::_String_base_types<char,std::allocator<char> > >::_Alloc_proxy
PUBLIC	?_Free_proxy@?$_String_alloc@U?$_String_base_types@DV?$allocator@D@std@@@std@@@std@@QEAAXXZ ; std::_String_alloc<std::_String_base_types<char,std::allocator<char> > >::_Free_proxy
PUBLIC	?_Myproxy@?$_String_alloc@U?$_String_base_types@DV?$allocator@D@std@@@std@@@std@@QEAAAEAPEAU_Container_proxy@2@XZ ; std::_String_alloc<std::_String_base_types<char,std::allocator<char> > >::_Myproxy
PUBLIC	?_Orphan_all@?$_String_alloc@U?$_String_base_types@DV?$allocator@D@std@@@std@@@std@@QEAAXXZ ; std::_String_alloc<std::_String_base_types<char,std::allocator<char> > >::_Orphan_all
PUBLIC	?_Getal@?$_String_alloc@U?$_String_base_types@DV?$allocator@D@std@@@std@@@std@@QEAAAEAU?$_Wrap_alloc@V?$allocator@D@std@@@2@XZ ; std::_String_alloc<std::_String_base_types<char,std::allocator<char> > >::_Getal
PUBLIC	?_Getal@?$_String_alloc@U?$_String_base_types@DV?$allocator@D@std@@@std@@@std@@QEBAAEBU?$_Wrap_alloc@V?$allocator@D@std@@@2@XZ ; std::_String_alloc<std::_String_base_types<char,std::allocator<char> > >::_Getal
PUBLIC	?_Get_data@?$_String_alloc@U?$_String_base_types@DV?$allocator@D@std@@@std@@@std@@QEAAAEAV?$_String_val@U?$_Simple_types@D@std@@@2@XZ ; std::_String_alloc<std::_String_base_types<char,std::allocator<char> > >::_Get_data
PUBLIC	?_Get_data@?$_String_alloc@U?$_String_base_types@DV?$allocator@D@std@@@std@@@std@@QEBAAEBV?$_String_val@U?$_Simple_types@D@std@@@2@XZ ; std::_String_alloc<std::_String_base_types<char,std::allocator<char> > >::_Get_data
PUBLIC	?_Bx@?$_String_alloc@U?$_String_base_types@DV?$allocator@D@std@@@std@@@std@@QEAAAEAT_Bxty@?$_String_val@U?$_Simple_types@D@std@@@2@XZ ; std::_String_alloc<std::_String_base_types<char,std::allocator<char> > >::_Bx
PUBLIC	?_Mysize@?$_String_alloc@U?$_String_base_types@DV?$allocator@D@std@@@std@@@std@@QEAAAEA_KXZ ; std::_String_alloc<std::_String_base_types<char,std::allocator<char> > >::_Mysize
PUBLIC	?_Mysize@?$_String_alloc@U?$_String_base_types@DV?$allocator@D@std@@@std@@@std@@QEBAAEB_KXZ ; std::_String_alloc<std::_String_base_types<char,std::allocator<char> > >::_Mysize
PUBLIC	?_Myres@?$_String_alloc@U?$_String_base_types@DV?$allocator@D@std@@@std@@@std@@QEAAAEA_KXZ ; std::_String_alloc<std::_String_base_types<char,std::allocator<char> > >::_Myres
PUBLIC	?_Get_first@?$_Compressed_pair@U?$_Wrap_alloc@V?$allocator@D@std@@@std@@V?$_String_val@U?$_Simple_types@D@std@@@2@$00@std@@QEAAAEAU?$_Wrap_alloc@V?$allocator@D@std@@@2@XZ ; std::_Compressed_pair<std::_Wrap_alloc<std::allocator<char> >,std::_String_val<std::_Simple_types<char> >,1>::_Get_first
PUBLIC	?_Get_first@?$_Compressed_pair@U?$_Wrap_alloc@V?$allocator@D@std@@@std@@V?$_String_val@U?$_Simple_types@D@std@@@2@$00@std@@QEBAAEBU?$_Wrap_alloc@V?$allocator@D@std@@@2@XZ ; std::_Compressed_pair<std::_Wrap_alloc<std::allocator<char> >,std::_String_val<std::_Simple_types<char> >,1>::_Get_first
PUBLIC	?_Get_second@?$_Compressed_pair@U?$_Wrap_alloc@V?$allocator@D@std@@@std@@V?$_String_val@U?$_Simple_types@D@std@@@2@$00@std@@QEAAAEAV?$_String_val@U?$_Simple_types@D@std@@@2@XZ ; std::_Compressed_pair<std::_Wrap_alloc<std::allocator<char> >,std::_String_val<std::_Simple_types<char> >,1>::_Get_second
PUBLIC	?_Get_second@?$_Compressed_pair@U?$_Wrap_alloc@V?$allocator@D@std@@@std@@V?$_String_val@U?$_Simple_types@D@std@@@2@$00@std@@QEBAAEBV?$_String_val@U?$_Simple_types@D@std@@@2@XZ ; std::_Compressed_pair<std::_Wrap_alloc<std::allocator<char> >,std::_String_val<std::_Simple_types<char> >,1>::_Get_second
PUBLIC	??1?$_Compressed_pair@U?$_Wrap_alloc@V?$allocator@D@std@@@std@@V?$_String_val@U?$_Simple_types@D@std@@@2@$00@std@@QEAA@XZ ; std::_Compressed_pair<std::_Wrap_alloc<std::allocator<char> >,std::_String_val<std::_Simple_types<char> >,1>::~_Compressed_pair<std::_Wrap_alloc<std::allocator<char> >,std::_String_val<std::_Simple_types<char> >,1>
PUBLIC	??0?$basic_string@DU?$char_traits@D@std@@V?$allocator@D@2@@std@@QEAA@AEBV01@@Z ; std::basic_string<char,std::char_traits<char>,std::allocator<char> >::basic_string<char,std::char_traits<char>,std::allocator<char> >
PUBLIC	??0?$basic_string@DU?$char_traits@D@std@@V?$allocator@D@2@@std@@QEAA@PEBD@Z ; std::basic_string<char,std::char_traits<char>,std::allocator<char> >::basic_string<char,std::char_traits<char>,std::allocator<char> >
PUBLIC	??1?$basic_string@DU?$char_traits@D@std@@V?$allocator@D@2@@std@@QEAA@XZ ; std::basic_string<char,std::char_traits<char>,std::allocator<char> >::~basic_string<char,std::char_traits<char>,std::allocator<char> >
PUBLIC	??Y?$basic_string@DU?$char_traits@D@std@@V?$allocator@D@2@@std@@QEAAAEAV01@PEBD@Z ; std::basic_string<char,std::char_traits<char>,std::allocator<char> >::operator+=
PUBLIC	?append@?$basic_string@DU?$char_traits@D@std@@V?$allocator@D@2@@std@@QEAAAEAV12@AEBV12@_K1@Z ; std::basic_string<char,std::char_traits<char>,std::allocator<char> >::append
PUBLIC	?append@?$basic_string@DU?$char_traits@D@std@@V?$allocator@D@2@@std@@QEAAAEAV12@PEBD_K@Z ; std::basic_string<char,std::char_traits<char>,std::allocator<char> >::append
PUBLIC	?append@?$basic_string@DU?$char_traits@D@std@@V?$allocator@D@2@@std@@QEAAAEAV12@PEBD@Z ; std::basic_string<char,std::char_traits<char>,std::allocator<char> >::append
PUBLIC	?assign@?$basic_string@DU?$char_traits@D@std@@V?$allocator@D@2@@std@@QEAAAEAV12@AEBV12@_K1@Z ; std::basic_string<char,std::char_traits<char>,std::allocator<char> >::assign
PUBLIC	?assign@?$basic_string@DU?$char_traits@D@std@@V?$allocator@D@2@@std@@QEAAAEAV12@PEBD_K@Z ; std::basic_string<char,std::char_traits<char>,std::allocator<char> >::assign
PUBLIC	?assign@?$basic_string@DU?$char_traits@D@std@@V?$allocator@D@2@@std@@QEAAAEAV12@PEBD@Z ; std::basic_string<char,std::char_traits<char>,std::allocator<char> >::assign
PUBLIC	?erase@?$basic_string@DU?$char_traits@D@std@@V?$allocator@D@2@@std@@QEAAAEAV12@_K@Z ; std::basic_string<char,std::char_traits<char>,std::allocator<char> >::erase
PUBLIC	?erase@?$basic_string@DU?$char_traits@D@std@@V?$allocator@D@2@@std@@QEAAAEAV12@_K0@Z ; std::basic_string<char,std::char_traits<char>,std::allocator<char> >::erase
PUBLIC	?c_str@?$basic_string@DU?$char_traits@D@std@@V?$allocator@D@2@@std@@QEBAPEBDXZ ; std::basic_string<char,std::char_traits<char>,std::allocator<char> >::c_str
PUBLIC	?size@?$basic_string@DU?$char_traits@D@std@@V?$allocator@D@2@@std@@QEBA_KXZ ; std::basic_string<char,std::char_traits<char>,std::allocator<char> >::size
PUBLIC	?max_size@?$basic_string@DU?$char_traits@D@std@@V?$allocator@D@2@@std@@QEBA_KXZ ; std::basic_string<char,std::char_traits<char>,std::allocator<char> >::max_size
PUBLIC	?_Copy@?$basic_string@DU?$char_traits@D@std@@V?$allocator@D@2@@std@@QEAAX_K0@Z ; std::basic_string<char,std::char_traits<char>,std::allocator<char> >::_Copy
PUBLIC	?_Eos@?$basic_string@DU?$char_traits@D@std@@V?$allocator@D@2@@std@@QEAAX_K@Z ; std::basic_string<char,std::char_traits<char>,std::allocator<char> >::_Eos
PUBLIC	?_Grow@?$basic_string@DU?$char_traits@D@std@@V?$allocator@D@2@@std@@QEAA_N_K_N@Z ; std::basic_string<char,std::char_traits<char>,std::allocator<char> >::_Grow
PUBLIC	?_Inside@?$basic_string@DU?$char_traits@D@std@@V?$allocator@D@2@@std@@QEAA_NPEBD@Z ; std::basic_string<char,std::char_traits<char>,std::allocator<char> >::_Inside
PUBLIC	?_Tidy@?$basic_string@DU?$char_traits@D@std@@V?$allocator@D@2@@std@@QEAAX_N_K@Z ; std::basic_string<char,std::char_traits<char>,std::allocator<char> >::_Tidy
PUBLIC	?_Xlen@?$basic_string@DU?$char_traits@D@std@@V?$allocator@D@2@@std@@QEBAXXZ ; std::basic_string<char,std::char_traits<char>,std::allocator<char> >::_Xlen
PUBLIC	?_Xran@?$basic_string@DU?$char_traits@D@std@@V?$allocator@D@2@@std@@QEBAXXZ ; std::basic_string<char,std::char_traits<char>,std::allocator<char> >::_Xran
PUBLIC	??0InputInfo@Cy@@QEAA@$$QEAU01@@Z		; Cy::InputInfo::InputInfo
PUBLIC	?NewInputInfo@Cy@@YA?AUInputInfo@1@PEBUWindowInfo@1@@Z ; Cy::NewInputInfo
PUBLIC	?NewWindowInfo@Cy@@YA?AUWindowInfo@1@PEBDPEAXII@Z ; Cy::NewWindowInfo
PUBLIC	?OpenFile@Cy@@YA?AUFile@1@V?$basic_string@DU?$char_traits@D@std@@V?$allocator@D@2@@std@@@Z ; Cy::OpenFile
PUBLIC	?DestroyWindowInfo@Cy@@YAXPEAUWindowInfo@1@@Z	; Cy::DestroyWindowInfo
PUBLIC	?NewTimerInfo@Cy@@YA?AUTimerInfo@1@XZ		; Cy::NewTimerInfo
PUBLIC	?GetAvgFps@Cy@@YA_KPEBUTimerInfo@1@@Z		; Cy::GetAvgFps
PUBLIC	?GetClockCount@Cy@@YA_JXZ			; Cy::GetClockCount
PUBLIC	?Sleep@Cy@@YAXPEAUTimerInfo@1@H@Z		; Cy::Sleep
PUBLIC	?Tick@Cy@@YAXPEAUTimerInfo@1@@Z			; Cy::Tick
PUBLIC	?Tock@Cy@@YAXPEAUTimerInfo@1@@Z			; Cy::Tock
PUBLIC	?DestroyTimerInfo@Cy@@YAXPEAUTimerInfo@1@@Z	; Cy::DestroyTimerInfo
PUBLIC	?Message@Cy@@YAXV?$basic_string@DU?$char_traits@D@std@@V?$allocator@D@2@@std@@@Z ; Cy::Message
PUBLIC	?Assert@Cy@@YAX_NV?$basic_string@DU?$char_traits@D@std@@V?$allocator@D@2@@std@@@Z ; Cy::Assert
PUBLIC	??$?5DU?$char_traits@D@std@@@std@@YAAEAV?$basic_istream@DU?$char_traits@D@std@@@0@AEAV10@AEAD@Z ; std::operator>><char,std::char_traits<char> >
PUBLIC	?SafeTruncate@Cy@@YAI_K@Z			; Cy::SafeTruncate
PUBLIC	?SafeTruncate@Cy@@YAH_J@Z			; Cy::SafeTruncate
PUBLIC	?WindowsSleep@Windows@@YAXI@Z			; Windows::WindowsSleep
PUBLIC	?MessageHandler@Cy@@YA_JPEAUHWND__@@I_K_J@Z	; Cy::MessageHandler
PUBLIC	??$pow@HH@@YANHH@Z				; pow<int,int>
PUBLIC	??$_Debug_pointer@$$CBD@std@@YAXPEBDPEBGI@Z	; std::_Debug_pointer<char const >
PUBLIC	??$move@AEAV?$allocator@D@std@@@std@@YA$$QEAV?$allocator@D@0@AEAV10@@Z ; std::move<std::allocator<char> & __ptr64>
PUBLIC	??$?0V?$allocator@D@std@@$$V@?$_Compressed_pair@U?$_Wrap_alloc@V?$allocator@D@std@@@std@@V?$_String_val@U?$_Simple_types@D@std@@@2@$00@std@@QEAA@U_One_then_variadic_args_t@1@$$QEAV?$allocator@D@1@@Z ; std::_Compressed_pair<std::_Wrap_alloc<std::allocator<char> >,std::_String_val<std::_Simple_types<char> >,1>::_Compressed_pair<std::_Wrap_alloc<std::allocator<char> >,std::_String_val<std::_Simple_types<char> >,1><std::allocator<char> >
PUBLIC	??$?0AEBV?$allocator@D@std@@$$V@?$_Compressed_pair@U?$_Wrap_alloc@V?$allocator@D@std@@@std@@V?$_String_val@U?$_Simple_types@D@std@@@2@$00@std@@QEAA@U_One_then_variadic_args_t@1@AEBV?$allocator@D@1@@Z ; std::_Compressed_pair<std::_Wrap_alloc<std::allocator<char> >,std::_String_val<std::_Simple_types<char> >,1>::_Compressed_pair<std::_Wrap_alloc<std::allocator<char> >,std::_String_val<std::_Simple_types<char> >,1><std::allocator<char> const & __ptr64>
PUBLIC	??$destroy@PEAD@?$_Wrap_alloc@V?$allocator@D@std@@@std@@QEAAXPEAPEAD@Z ; std::_Wrap_alloc<std::allocator<char> >::destroy<char * __ptr64>
PUBLIC	??$addressof@D@std@@YAPEADAEAD@Z		; std::addressof<char>
PUBLIC	??$_Debug_pointer_if@$$CBD@std@@YAX_NPEBDPEBGI@Z ; std::_Debug_pointer_if<char const >
PUBLIC	??$construct@PEADAEAPEAD@?$_Wrap_alloc@V?$allocator@D@std@@@std@@QEAAXPEAPEADAEAPEAD@Z ; std::_Wrap_alloc<std::allocator<char> >::construct<char * __ptr64,char * __ptr64 & __ptr64>
PUBLIC	?deallocate@?$allocator@U_Container_proxy@std@@@std@@QEAAXPEAU_Container_proxy@2@_K@Z ; std::allocator<std::_Container_proxy>::deallocate
PUBLIC	?allocate@?$allocator@U_Container_proxy@std@@@std@@QEAAPEAU_Container_proxy@2@_K@Z ; std::allocator<std::_Container_proxy>::allocate
PUBLIC	?allocate@?$_Wrap_alloc@V?$allocator@U_Container_proxy@std@@@std@@@std@@QEAAPEAU_Container_proxy@2@_K@Z ; std::_Wrap_alloc<std::allocator<std::_Container_proxy> >::allocate
PUBLIC	?deallocate@?$_Wrap_alloc@V?$allocator@U_Container_proxy@std@@@std@@@std@@QEAAXPEAU_Container_proxy@2@_K@Z ; std::_Wrap_alloc<std::allocator<std::_Container_proxy> >::deallocate
PUBLIC	??$destroy@U_Container_proxy@std@@@?$_Wrap_alloc@V?$allocator@U_Container_proxy@std@@@std@@@std@@QEAAXPEAU_Container_proxy@1@@Z ; std::_Wrap_alloc<std::allocator<std::_Container_proxy> >::destroy<std::_Container_proxy>
PUBLIC	??$construct@U_Container_proxy@std@@U12@@?$_Wrap_alloc@V?$allocator@U_Container_proxy@std@@@std@@@std@@QEAAXPEAU_Container_proxy@1@$$QEAU21@@Z ; std::_Wrap_alloc<std::allocator<std::_Container_proxy> >::construct<std::_Container_proxy,std::_Container_proxy>
PUBLIC	??$?0U?$_Wrap_alloc@V?$allocator@D@std@@@std@@@?$_Wrap_alloc@V?$allocator@U_Container_proxy@std@@@std@@@std@@QEAA@AEAU?$_Wrap_alloc@V?$allocator@D@std@@@1@@Z ; std::_Wrap_alloc<std::allocator<std::_Container_proxy> >::_Wrap_alloc<std::allocator<std::_Container_proxy> ><std::_Wrap_alloc<std::allocator<char> > >
PUBLIC	??$?0D@?$allocator@U_Container_proxy@std@@@std@@QEAA@AEBV?$allocator@D@1@@Z ; std::allocator<std::_Container_proxy>::allocator<std::_Container_proxy><char>
PUBLIC	??0_Sentry_base@?$basic_istream@DU?$char_traits@D@std@@@std@@QEAA@AEAV12@@Z ; std::basic_istream<char,std::char_traits<char> >::_Sentry_base::_Sentry_base
PUBLIC	??1_Sentry_base@?$basic_istream@DU?$char_traits@D@std@@@std@@QEAA@XZ ; std::basic_istream<char,std::char_traits<char> >::_Sentry_base::~_Sentry_base
PUBLIC	??0sentry@?$basic_istream@DU?$char_traits@D@std@@@std@@QEAA@AEAV12@_N@Z ; std::basic_istream<char,std::char_traits<char> >::sentry::sentry
PUBLIC	??Bsentry@?$basic_istream@DU?$char_traits@D@std@@@std@@QEBA_NXZ ; std::basic_istream<char,std::char_traits<char> >::sentry::operator bool
PUBLIC	??1sentry@?$basic_istream@DU?$char_traits@D@std@@@std@@QEAA@XZ ; std::basic_istream<char,std::char_traits<char> >::sentry::~sentry
PUBLIC	??$forward@V?$allocator@D@std@@@std@@YA$$QEAV?$allocator@D@0@AEAV10@@Z ; std::forward<std::allocator<char> >
PUBLIC	??$forward@AEBV?$allocator@D@std@@@std@@YAAEBV?$allocator@D@0@AEBV10@@Z ; std::forward<std::allocator<char> const & __ptr64>
PUBLIC	??$destroy@PEAD@?$allocator_traits@V?$allocator@D@std@@@std@@SAXAEAV?$allocator@D@1@PEAPEAD@Z ; std::allocator_traits<std::allocator<char> >::destroy<char * __ptr64>
PUBLIC	??$_Addressof@D@std@@YAPEADAEADU?$integral_constant@_N$0A@@0@@Z ; std::_Addressof<char>
PUBLIC	??$forward@AEAPEAD@std@@YAAEAPEADAEAPEAD@Z	; std::forward<char * __ptr64 & __ptr64>
PUBLIC	??$construct@PEADAEAPEAD@?$allocator_traits@V?$allocator@D@std@@@std@@SAXAEAV?$allocator@D@1@PEAPEADAEAPEAD@Z ; std::allocator_traits<std::allocator<char> >::construct<char * __ptr64,char * __ptr64 & __ptr64>
PUBLIC	??$destroy@U_Container_proxy@std@@@?$allocator_traits@V?$allocator@U_Container_proxy@std@@@std@@@std@@SAXAEAV?$allocator@U_Container_proxy@std@@@1@PEAU_Container_proxy@1@@Z ; std::allocator_traits<std::allocator<std::_Container_proxy> >::destroy<std::_Container_proxy>
PUBLIC	??$forward@U_Container_proxy@std@@@std@@YA$$QEAU_Container_proxy@0@AEAU10@@Z ; std::forward<std::_Container_proxy>
PUBLIC	??$construct@U_Container_proxy@std@@U12@@?$allocator_traits@V?$allocator@U_Container_proxy@std@@@std@@@std@@SAXAEAV?$allocator@U_Container_proxy@std@@@1@PEAU_Container_proxy@1@$$QEAU31@@Z ; std::allocator_traits<std::allocator<std::_Container_proxy> >::construct<std::_Container_proxy,std::_Container_proxy>
PUBLIC	??$destroy@PEAD@?$allocator@D@std@@QEAAXPEAPEAD@Z ; std::allocator<char>::destroy<char * __ptr64>
PUBLIC	??$construct@PEADAEAPEAD@?$allocator@D@std@@QEAAXPEAPEADAEAPEAD@Z ; std::allocator<char>::construct<char * __ptr64,char * __ptr64 & __ptr64>
PUBLIC	??$destroy@U_Container_proxy@std@@@?$allocator@U_Container_proxy@std@@@std@@QEAAXPEAU_Container_proxy@1@@Z ; std::allocator<std::_Container_proxy>::destroy<std::_Container_proxy>
PUBLIC	??$construct@U_Container_proxy@std@@U12@@?$allocator@U_Container_proxy@std@@@std@@QEAAXPEAU_Container_proxy@1@$$QEAU21@@Z ; std::allocator<std::_Container_proxy>::construct<std::_Container_proxy,std::_Container_proxy>
PUBLIC	?_OptionsStorage@?1??__local_stdio_printf_options@@9@4_KA ; `__local_stdio_printf_options'::`2'::_OptionsStorage
PUBLIC	?__LINE__Var@?0??_Allocate@std@@YAPEAX_K0_N@Z@4JA ; `std::_Allocate'::`1'::__LINE__Var
PUBLIC	??_C@_0BE@LMNLACIC@_Ptr_container?5?$CB?$DN?50?$AA@ ; `string'
PUBLIC	??_C@_1DG@HGDKEBPG@?$AA?$CC?$AA_?$AAP?$AAt?$AAr?$AA_?$AAc?$AAo?$AAn?$AAt?$AAa?$AAi?$AAn?$AAe?$AAr?$AA?5?$AA?$CB?$AA?$DN?$AA?5?$AA0?$AA?$CC?$AA?5?$AA?$CG?$AA?$CG?$AA?5?$AA0?$AA?$AA@ ; `string'
PUBLIC	??_C@_17CNPHIMPH@?$AA?$CF?$AAl?$AAs?$AA?$AA@	; `string'
PUBLIC	??_C@_1EG@DJALBHDK@?$AAd?$AA?3?$AA?2?$AAa?$AAp?$AAp?$AAd?$AAa?$AAt?$AAa?$AA?2?$AAv?$AAs?$AAp?$AA?2?$AAv?$AAc?$AA?2?$AAi?$AAn?$AAc?$AAl?$AAu?$AAd?$AAe?$AA?2?$AAx?$AAm?$AAe?$AAm?$AAo?$AAr@ ; `string'
PUBLIC	??_C@_1BO@NKFMJPA@?$AAs?$AAt?$AAd?$AA?3?$AA?3?$AA_?$AAA?$AAl?$AAl?$AAo?$AAc?$AAa?$AAt?$AAe?$AA?$AA@ ; `string'
PUBLIC	??_C@_1CG@JNLFBNGN@?$AA?$CC?$AAi?$AAn?$AAv?$AAa?$AAl?$AAi?$AAd?$AA?5?$AAa?$AAr?$AAg?$AAu?$AAm?$AAe?$AAn?$AAt?$AA?$CC?$AA?$AA@ ; `string'
PUBLIC	??_C@_09GLJCAGLP@_Ptr?5?$CB?$DN?50?$AA@		; `string'
PUBLIC	??_C@_1CC@GKJLLHIM@?$AA?$CC?$AA_?$AAP?$AAt?$AAr?$AA?5?$AA?$CB?$AA?$DN?$AA?5?$AA0?$AA?$CC?$AA?5?$AA?$CG?$AA?$CG?$AA?5?$AA0?$AA?$AA@ ; `string'
PUBLIC	?__LINE__Var@?0??_Deallocate@std@@YAXPEAX_K1@Z@4JA ; `std::_Deallocate'::`1'::__LINE__Var
PUBLIC	??_C@_0BN@HMCJOMKN@_Count?5?$DM?$DN?5?$CIsize_t?$CJ?$CI?91?$CJ?5?1?5_Sz?$AA@ ; `string'
PUBLIC	??_C@_1EI@MLOBABC@?$AA?$CC?$AA_?$AAC?$AAo?$AAu?$AAn?$AAt?$AA?5?$AA?$DM?$AA?$DN?$AA?5?$AA?$CI?$AAs?$AAi?$AAz?$AAe?$AA_?$AAt?$AA?$CJ?$AA?$CI?$AA?9?$AA1?$AA?$CJ?$AA?5?$AA?1?$AA?5?$AA_?$AAS?$AAz?$AA?$CC?$AA?5?$AA?$CG@ ; `string'
PUBLIC	??_C@_1CC@LOFJFFDB@?$AAs?$AAt?$AAd?$AA?3?$AA?3?$AA_?$AAD?$AAe?$AAa?$AAl?$AAl?$AAo?$AAc?$AAa?$AAt?$AAe?$AA?$AA@ ; `string'
PUBLIC	??_C@_0DD@GBGGGKGG@?$CI_Ptr_user?5?$CG?5?$CI_BIG_ALLOCATION_AL@ ; `string'
PUBLIC	??_C@_1HE@CDMBFOKC@?$AA?$CC?$AA?$CI?$AA_?$AAP?$AAt?$AAr?$AA_?$AAu?$AAs?$AAe?$AAr?$AA?5?$AA?$CG?$AA?5?$AA?$CI?$AA_?$AAB?$AAI?$AAG?$AA_?$AAA?$AAL?$AAL?$AAO?$AAC?$AAA?$AAT?$AAI?$AAO?$AAN?$AA_?$AAA@ ; `string'
PUBLIC	??_C@_0EI@NOJHEJCJ@reinterpret_cast?$DMuintptr_t?5?$CK?$DO?$CI_P@ ; `string'
PUBLIC	??_C@_1JO@EKLKIEHP@?$AA?$CC?$AAr?$AAe?$AAi?$AAn?$AAt?$AAe?$AAr?$AAp?$AAr?$AAe?$AAt?$AA_?$AAc?$AAa?$AAs?$AAt?$AA?$DM?$AAu?$AAi?$AAn?$AAt?$AAp?$AAt?$AAr?$AA_?$AAt?$AA?5?$AA?$CK?$AA?$DO?$AA?$CI?$AA_@ ; `string'
PUBLIC	??_C@_0BL@OCKMEJON@_Ptr_container?5?$DM?5_Ptr_user?$AA@ ; `string'
PUBLIC	??_C@_1EE@PDHAHDDC@?$AA?$CC?$AA_?$AAP?$AAt?$AAr?$AA_?$AAc?$AAo?$AAn?$AAt?$AAa?$AAi?$AAn?$AAe?$AAr?$AA?5?$AA?$DM?$AA?5?$AA_?$AAP?$AAt?$AAr?$AA_?$AAu?$AAs?$AAe?$AAr?$AA?$CC?$AA?5?$AA?$CG?$AA?$CG?$AA?5@ ; `string'
PUBLIC	??_C@_0DB@GLFJLNCE@2?5?$CK?5sizeof?$CIvoid?5?$CK?$CJ?5?$DM?$DN?5_Ptr_user?5@ ; `string'
PUBLIC	??_C@_1HA@NAPGMHAO@?$AA?$CC?$AA2?$AA?5?$AA?$CK?$AA?5?$AAs?$AAi?$AAz?$AAe?$AAo?$AAf?$AA?$CI?$AAv?$AAo?$AAi?$AAd?$AA?5?$AA?$CK?$AA?$CJ?$AA?5?$AA?$DM?$AA?$DN?$AA?5?$AA_?$AAP?$AAt?$AAr?$AA_?$AAu?$AAs?$AAe?$AAr@ ; `string'
PUBLIC	??_C@_0CN@BLHJCAL@_Ptr_user?5?9?5_Ptr_container?5?$DM?$DN?5_N@ ; `string'
PUBLIC	??_C@_1GI@DHJGPFNI@?$AA?$CC?$AA_?$AAP?$AAt?$AAr?$AA_?$AAu?$AAs?$AAe?$AAr?$AA?5?$AA?9?$AA?5?$AA_?$AAP?$AAt?$AAr?$AA_?$AAc?$AAo?$AAn?$AAt?$AAa?$AAi?$AAn?$AAe?$AAr?$AA?5?$AA?$DM?$AA?$DN?$AA?5?$AA_@ ; `string'
PUBLIC	?npos@?$basic_string@DU?$char_traits@D@std@@V?$allocator@D@2@@std@@2_KB ; std::basic_string<char,std::char_traits<char>,std::allocator<char> >::npos
PUBLIC	??_C@_01EEMJAFIK@?6?$AA@			; `string'
PUBLIC	??_C@_0BC@BJEMDEOO@truncate?5NOT?5SAFE?$AA@	; `string'
PUBLIC	??_C@_0BP@CHPCPMKH@could?5not?5register?5windowclass?$AA@ ; `string'
PUBLIC	??_C@_0CC@PBICDBGD@could?5not?5create?5a?5windows?5windo@ ; `string'
PUBLIC	??_C@_0N@JFIFKAKF@file?5too?5big?$AA@		; `string'
PUBLIC	??_C@_0BE@LABMMLMO@could?5not?5read?5file?$AA@	; `string'
PUBLIC	??_C@_1EE@PIAPABGP@?$AAd?$AA?3?$AA?2?$AAa?$AAp?$AAp?$AAd?$AAa?$AAt?$AAa?$AA?2?$AAv?$AAs?$AAp?$AA?2?$AAv?$AAc?$AA?2?$AAi?$AAn?$AAc?$AAl?$AAu?$AAd?$AAe?$AA?2?$AAx?$AAs?$AAt?$AAr?$AAi?$AAn@ ; `string'
PUBLIC	??_C@_0BI@CFPLBAOH@invalid?5string?5position?$AA@ ; `string'
PUBLIC	??_C@_0BA@JFNIOLAK@string?5too?5long?$AA@	; `string'
PUBLIC	??_C@_1CK@EOPGIILJ@?$AAi?$AAn?$AAv?$AAa?$AAl?$AAi?$AAd?$AA?5?$AAn?$AAu?$AAl?$AAl?$AA?5?$AAp?$AAo?$AAi?$AAn?$AAt?$AAe?$AAr?$AA?$AA@ ; `string'
PUBLIC	__real@5f800000
EXTRN	??2@YAPEAX_K@Z:PROC				; operator new
EXTRN	??3@YAXPEAX@Z:PROC				; operator delete
EXTRN	__imp__invalid_parameter:PROC
EXTRN	__imp_??0_Lockit@std@@QEAA@H@Z:PROC
EXTRN	__imp_??1_Lockit@std@@QEAA@XZ:PROC
EXTRN	pow:PROC
EXTRN	memcpy:PROC
EXTRN	__imp_memmove:PROC
EXTRN	strlen:PROC
EXTRN	__imp_CreateFileA:PROC
EXTRN	__imp_GetFileSizeEx:PROC
EXTRN	__imp_ReadFile:PROC
EXTRN	__imp_QueryPerformanceCounter:PROC
EXTRN	__imp_QueryPerformanceFrequency:PROC
EXTRN	__imp_Sleep:PROC
EXTRN	__imp_VirtualAlloc:PROC
EXTRN	__imp_VirtualFree:PROC
EXTRN	__imp_GetModuleHandleW:PROC
EXTRN	__imp_TrackMouseEvent:PROC
EXTRN	__imp_DefWindowProcW:PROC
EXTRN	__imp_RegisterClassA:PROC
EXTRN	__imp_CreateWindowExA:PROC
EXTRN	__imp_DestroyWindow:PROC
EXTRN	__imp_ShowWindow:PROC
EXTRN	__imp_SetFocus:PROC
EXTRN	__imp_GetWindowLongPtrW:PROC
EXTRN	__imp_SetWindowLongPtrW:PROC
EXTRN	__imp_GetConsoleWindow:PROC
EXTRN	__imp_timeGetDevCaps:PROC
EXTRN	__imp_timeBeginPeriod:PROC
EXTRN	__imp_timeEndPeriod:PROC
EXTRN	__imp___acrt_iob_func:PROC
EXTRN	__imp___stdio_common_vfprintf:PROC
EXTRN	__imp__CrtDbgReportW:PROC
EXTRN	__imp_?_Debug_message@std@@YAXPEBG0I@Z:PROC
EXTRN	__imp_?_Xbad_alloc@std@@YAXXZ:PROC
EXTRN	__imp_?_Xlength_error@std@@YAXPEBD@Z:PROC
EXTRN	__imp_?_Xout_of_range@std@@YAXPEBD@Z:PROC
EXTRN	__imp_?sbumpc@?$basic_streambuf@DU?$char_traits@D@std@@@std@@QEAAHXZ:PROC
EXTRN	__imp_?setstate@?$basic_ios@DU?$char_traits@D@std@@@std@@QEAAXH_N@Z:PROC
EXTRN	__imp_?rdbuf@?$basic_ios@DU?$char_traits@D@std@@@std@@QEBAPEAV?$basic_streambuf@DU?$char_traits@D@std@@@2@XZ:PROC
EXTRN	__imp_?_Ipfx@?$basic_istream@DU?$char_traits@D@std@@@std@@QEAA_N_N@Z:PROC
EXTRN	_CxxThrowException:PROC
EXTRN	_RTC_CheckStackVars:PROC
EXTRN	_RTC_InitBase:PROC
EXTRN	_RTC_Shutdown:PROC
EXTRN	__CxxFrameHandler3:PROC
EXTRN	__GSHandlerCheck:PROC
EXTRN	__GSHandlerCheck_EH:PROC
EXTRN	__security_check_cookie:PROC
EXTRN	__imp_?cin@std@@3V?$basic_istream@DU?$char_traits@D@std@@@1@A:BYTE
EXTRN	__ImageBase:BYTE
EXTRN	__security_cookie:QWORD
EXTRN	_fltused:DWORD
;	COMDAT ?_OptionsStorage@?1??__local_stdio_printf_options@@9@4_KA
_BSS	SEGMENT
?_OptionsStorage@?1??__local_stdio_printf_options@@9@4_KA DQ 01H DUP (?) ; `__local_stdio_printf_options'::`2'::_OptionsStorage
_BSS	ENDS
;	COMDAT pdata
pdata	SEGMENT
$pdata$?__empty_global_delete@@YAXPEAX@Z DD imagerel $LN3
	DD	imagerel $LN3+50
	DD	imagerel $unwind$?__empty_global_delete@@YAXPEAX@Z
pdata	ENDS
;	COMDAT pdata
pdata	SEGMENT
$pdata$?__empty_global_delete@@YAXPEAX_K@Z DD imagerel $LN3
	DD	imagerel $LN3+55
	DD	imagerel $unwind$?__empty_global_delete@@YAXPEAX_K@Z
pdata	ENDS
;	COMDAT pdata
pdata	SEGMENT
$pdata$??0v2@Cy@@QEAA@XZ DD imagerel $LN3
	DD	imagerel $LN3+86
	DD	imagerel $unwind$??0v2@Cy@@QEAA@XZ
pdata	ENDS
;	COMDAT pdata
pdata	SEGMENT
$pdata$??0v2@Cy@@QEAA@MM@Z DD imagerel $LN3
	DD	imagerel $LN3+108
	DD	imagerel $unwind$??0v2@Cy@@QEAA@MM@Z
pdata	ENDS
;	COMDAT pdata
pdata	SEGMENT
$pdata$??0v2@Cy@@QEAA@AEBU01@@Z DD imagerel $LN3
	DD	imagerel $LN3+108
	DD	imagerel $unwind$??0v2@Cy@@QEAA@AEBU01@@Z
pdata	ENDS
;	COMDAT pdata
pdata	SEGMENT
$pdata$__local_stdio_printf_options DD imagerel $LN3
	DD	imagerel $LN3+45
	DD	imagerel $unwind$__local_stdio_printf_options
pdata	ENDS
;	COMDAT pdata
pdata	SEGMENT
$pdata$_vfprintf_l DD imagerel $LN3
	DD	imagerel $LN3+114
	DD	imagerel $unwind$_vfprintf_l
pdata	ENDS
;	COMDAT pdata
pdata	SEGMENT
$pdata$fprintf DD imagerel $LN3
	DD	imagerel $LN3+175
	DD	imagerel $unwind$fprintf
pdata	ENDS
;	COMDAT pdata
pdata	SEGMENT
$pdata$??$__vcrt_va_start_verify_argument_type@QEBD@@YAXXZ DD imagerel $LN3
	DD	imagerel $LN3+38
	DD	imagerel $unwind$??$__vcrt_va_start_verify_argument_type@QEBD@@YAXXZ
pdata	ENDS
;	COMDAT pdata
pdata	SEGMENT
$pdata$??2@YAPEAX_KPEAX@Z DD imagerel $LN3
	DD	imagerel $LN3+62
	DD	imagerel $unwind$??2@YAPEAX_KPEAX@Z
pdata	ENDS
;	COMDAT pdata
pdata	SEGMENT
$pdata$?length@?$char_traits@D@std@@SA_KPEBD@Z DD imagerel $LN5
	DD	imagerel $LN5+105
	DD	imagerel $unwind$?length@?$char_traits@D@std@@SA_KPEBD@Z
pdata	ENDS
;	COMDAT pdata
pdata	SEGMENT
$pdata$?copy@?$char_traits@D@std@@SAPEADPEADPEBD_K@Z DD imagerel $LN5
	DD	imagerel $LN5+128
	DD	imagerel $unwind$?copy@?$char_traits@D@std@@SAPEADPEADPEBD_K@Z
pdata	ENDS
;	COMDAT pdata
pdata	SEGMENT
$pdata$?move@?$char_traits@D@std@@SAPEADPEADPEBD_K@Z DD imagerel $LN5
	DD	imagerel $LN5+129
	DD	imagerel $unwind$?move@?$char_traits@D@std@@SAPEADPEADPEBD_K@Z
pdata	ENDS
;	COMDAT pdata
pdata	SEGMENT
$pdata$?assign@?$char_traits@D@std@@SAXAEADAEBD@Z DD imagerel $LN3
	DD	imagerel $LN3+74
	DD	imagerel $unwind$?assign@?$char_traits@D@std@@SAXAEADAEBD@Z
pdata	ENDS
;	COMDAT pdata
pdata	SEGMENT
$pdata$?to_char_type@?$char_traits@D@std@@SADAEBH@Z DD imagerel $LN3
	DD	imagerel $LN3+60
	DD	imagerel $unwind$?to_char_type@?$char_traits@D@std@@SADAEBH@Z
pdata	ENDS
;	COMDAT pdata
pdata	SEGMENT
$pdata$?eq_int_type@?$char_traits@D@std@@SA_NAEBH0@Z DD imagerel $LN5
	DD	imagerel $LN5+104
	DD	imagerel $unwind$?eq_int_type@?$char_traits@D@std@@SA_NAEBH0@Z
pdata	ENDS
;	COMDAT pdata
pdata	SEGMENT
$pdata$?eof@?$char_traits@D@std@@SAHXZ DD imagerel $LN3
	DD	imagerel $LN3+43
	DD	imagerel $unwind$?eof@?$char_traits@D@std@@SAHXZ
pdata	ENDS
;	COMDAT pdata
pdata	SEGMENT
$pdata$??0_Container_proxy@std@@QEAA@XZ DD imagerel $LN3
	DD	imagerel $LN3+86
	DD	imagerel $unwind$??0_Container_proxy@std@@QEAA@XZ
pdata	ENDS
;	COMDAT pdata
pdata	SEGMENT
$pdata$??0_Container_base12@std@@QEAA@XZ DD imagerel $LN3
	DD	imagerel $LN3+71
	DD	imagerel $unwind$??0_Container_base12@std@@QEAA@XZ
pdata	ENDS
;	COMDAT pdata
pdata	SEGMENT
$pdata$??1_Container_base12@std@@QEAA@XZ DD imagerel $LN3
	DD	imagerel $LN3+76
	DD	imagerel $unwind$??1_Container_base12@std@@QEAA@XZ
pdata	ENDS
;	COMDAT pdata
pdata	SEGMENT
$pdata$?_Orphan_all@_Container_base12@std@@QEAAXXZ DD imagerel $LN8
	DD	imagerel $LN8+220
	DD	imagerel $unwind$?_Orphan_all@_Container_base12@std@@QEAAXXZ
pdata	ENDS
;	COMDAT pdata
pdata	SEGMENT
$pdata$?_Allocate@std@@YAPEAX_K0_N@Z DD imagerel $LN14
	DD	imagerel $LN14+579
	DD	imagerel $unwind$?_Allocate@std@@YAPEAX_K0_N@Z
pdata	ENDS
;	COMDAT pdata
pdata	SEGMENT
$pdata$?_Deallocate@std@@YAXPEAX_K1@Z DD imagerel $LN22
	DD	imagerel $LN22+1079
	DD	imagerel $unwind$?_Deallocate@std@@YAXPEAX_K1@Z
pdata	ENDS
;	COMDAT pdata
pdata	SEGMENT
$pdata$??0?$allocator@D@std@@QEAA@XZ DD imagerel $LN3
	DD	imagerel $LN3+57
	DD	imagerel $unwind$??0?$allocator@D@std@@QEAA@XZ
pdata	ENDS
;	COMDAT pdata
pdata	SEGMENT
$pdata$??0?$allocator@D@std@@QEAA@AEBV01@@Z DD imagerel $LN3
	DD	imagerel $LN3+62
	DD	imagerel $unwind$??0?$allocator@D@std@@QEAA@AEBV01@@Z
pdata	ENDS
;	COMDAT pdata
pdata	SEGMENT
$pdata$?deallocate@?$allocator@D@std@@QEAAXPEAD_K@Z DD imagerel $LN3
	DD	imagerel $LN3+87
	DD	imagerel $unwind$?deallocate@?$allocator@D@std@@QEAAXPEAD_K@Z
pdata	ENDS
;	COMDAT pdata
pdata	SEGMENT
$pdata$?allocate@?$allocator@D@std@@QEAAPEAD_K@Z DD imagerel $LN3
	DD	imagerel $LN3+77
	DD	imagerel $unwind$?allocate@?$allocator@D@std@@QEAAPEAD_K@Z
pdata	ENDS
;	COMDAT pdata
pdata	SEGMENT
$pdata$?max_size@?$allocator@D@std@@QEBA_KXZ DD imagerel $LN3
	DD	imagerel $LN3+57
	DD	imagerel $unwind$?max_size@?$allocator@D@std@@QEBA_KXZ
pdata	ENDS
;	COMDAT pdata
pdata	SEGMENT
$pdata$?max_size@?$allocator_traits@V?$allocator@D@std@@@std@@SA_KAEBV?$allocator@D@2@@Z DD imagerel $LN3
	DD	imagerel $LN3+64
	DD	imagerel $unwind$?max_size@?$allocator_traits@V?$allocator@D@std@@@std@@SA_KAEBV?$allocator@D@2@@Z
pdata	ENDS
;	COMDAT pdata
pdata	SEGMENT
$pdata$?select_on_container_copy_construction@?$allocator_traits@V?$allocator@D@std@@@std@@SA?AV?$allocator@D@2@AEBV32@@Z DD imagerel $LN3
	DD	imagerel $LN3+83
	DD	imagerel $unwind$?select_on_container_copy_construction@?$allocator_traits@V?$allocator@D@std@@@std@@SA?AV?$allocator@D@2@AEBV32@@Z
pdata	ENDS
;	COMDAT pdata
pdata	SEGMENT
$pdata$?select_on_container_copy_construction@?$_Wrap_alloc@V?$allocator@D@std@@@std@@QEBA?AU12@U_Nil@2@@Z DD imagerel $LN3
	DD	imagerel $LN3+103
	DD	imagerel $unwind$?select_on_container_copy_construction@?$_Wrap_alloc@V?$allocator@D@std@@@std@@QEBA?AU12@U_Nil@2@@Z
pdata	ENDS
;	COMDAT pdata
pdata	SEGMENT
$pdata$??0?$_Wrap_alloc@V?$allocator@D@std@@@std@@QEAA@AEBV?$allocator@D@1@@Z DD imagerel $LN3
	DD	imagerel $LN3+83
	DD	imagerel $unwind$??0?$_Wrap_alloc@V?$allocator@D@std@@@std@@QEAA@AEBV?$allocator@D@1@@Z
pdata	ENDS
;	COMDAT pdata
pdata	SEGMENT
$pdata$?allocate@?$_Wrap_alloc@V?$allocator@D@std@@@std@@QEAAPEAD_K@Z DD imagerel $LN3
	DD	imagerel $LN3+76
	DD	imagerel $unwind$?allocate@?$_Wrap_alloc@V?$allocator@D@std@@@std@@QEAAPEAD_K@Z
pdata	ENDS
;	COMDAT pdata
pdata	SEGMENT
$pdata$?deallocate@?$_Wrap_alloc@V?$allocator@D@std@@@std@@QEAAXPEAD_K@Z DD imagerel $LN3
	DD	imagerel $LN3+88
	DD	imagerel $unwind$?deallocate@?$_Wrap_alloc@V?$allocator@D@std@@@std@@QEAAXPEAD_K@Z
pdata	ENDS
;	COMDAT pdata
pdata	SEGMENT
$pdata$?max_size@?$_Wrap_alloc@V?$allocator@D@std@@@std@@QEBA_KU_Nil@2@@Z DD imagerel $LN3
	DD	imagerel $LN3+68
	DD	imagerel $unwind$?max_size@?$_Wrap_alloc@V?$allocator@D@std@@@std@@QEBA_KU_Nil@2@@Z
pdata	ENDS
;	COMDAT pdata
pdata	SEGMENT
$pdata$??0?$_String_val@U?$_Simple_types@D@std@@@std@@QEAA@XZ DD imagerel $LN4
	DD	imagerel $LN4+101
	DD	imagerel $unwind$??0?$_String_val@U?$_Simple_types@D@std@@@std@@QEAA@XZ
pdata	ENDS
;	COMDAT pdata
pdata	SEGMENT
$pdata$?_Myptr@?$_String_val@U?$_Simple_types@D@std@@@std@@QEAAPEADXZ DD imagerel $LN5
	DD	imagerel $LN5+116
	DD	imagerel $unwind$?_Myptr@?$_String_val@U?$_Simple_types@D@std@@@std@@QEAAPEADXZ
pdata	ENDS
;	COMDAT pdata
pdata	SEGMENT
$pdata$?_Myptr@?$_String_val@U?$_Simple_types@D@std@@@std@@QEBAPEBDXZ DD imagerel $LN5
	DD	imagerel $LN5+116
	DD	imagerel $unwind$?_Myptr@?$_String_val@U?$_Simple_types@D@std@@@std@@QEBAPEBDXZ
pdata	ENDS
;	COMDAT pdata
pdata	SEGMENT
$pdata$??1?$_String_val@U?$_Simple_types@D@std@@@std@@QEAA@XZ DD imagerel $LN3
	DD	imagerel $LN3+64
	DD	imagerel $unwind$??1?$_String_val@U?$_Simple_types@D@std@@@std@@QEAA@XZ
pdata	ENDS
;	COMDAT pdata
pdata	SEGMENT
$pdata$?_Myptr@?$_String_alloc@U?$_String_base_types@DV?$allocator@D@std@@@std@@@std@@QEAAPEADXZ DD imagerel $LN3
	DD	imagerel $LN3+72
	DD	imagerel $unwind$?_Myptr@?$_String_alloc@U?$_String_base_types@DV?$allocator@D@std@@@std@@@std@@QEAAPEADXZ
pdata	ENDS
;	COMDAT pdata
pdata	SEGMENT
$pdata$?_Myptr@?$_String_alloc@U?$_String_base_types@DV?$allocator@D@std@@@std@@@std@@QEBAPEBDXZ DD imagerel $LN3
	DD	imagerel $LN3+72
	DD	imagerel $unwind$?_Myptr@?$_String_alloc@U?$_String_base_types@DV?$allocator@D@std@@@std@@@std@@QEBAPEBDXZ
pdata	ENDS
;	COMDAT pdata
pdata	SEGMENT
$pdata$??0?$_String_alloc@U?$_String_base_types@DV?$allocator@D@std@@@std@@@std@@QEAA@AEBV?$allocator@D@1@@Z DD imagerel $LN4
	DD	imagerel $LN4+118
	DD	imagerel $unwind$??0?$_String_alloc@U?$_String_base_types@DV?$allocator@D@std@@@std@@@std@@QEAA@AEBV?$allocator@D@1@@Z
pdata	ENDS
;	COMDAT pdata
pdata	SEGMENT
$pdata$?dtor$0@?0???0?$_String_alloc@U?$_String_base_types@DV?$allocator@D@std@@@std@@@std@@QEAA@AEBV?$allocator@D@1@@Z@4HA DD imagerel ?dtor$0@?0???0?$_String_alloc@U?$_String_base_types@DV?$allocator@D@std@@@std@@@std@@QEAA@AEBV?$allocator@D@1@@Z@4HA
	DD	imagerel ?dtor$0@?0???0?$_String_alloc@U?$_String_base_types@DV?$allocator@D@std@@@std@@@std@@QEAA@AEBV?$allocator@D@1@@Z@4HA+39
	DD	imagerel $unwind$?dtor$0@?0???0?$_String_alloc@U?$_String_base_types@DV?$allocator@D@std@@@std@@@std@@QEAA@AEBV?$allocator@D@1@@Z@4HA
pdata	ENDS
;	COMDAT pdata
pdata	SEGMENT
$pdata$??0?$_String_alloc@U?$_String_base_types@DV?$allocator@D@std@@@std@@@std@@QEAA@$$QEAV?$allocator@D@1@@Z DD imagerel $LN4
	DD	imagerel $LN4+123
	DD	imagerel $unwind$??0?$_String_alloc@U?$_String_base_types@DV?$allocator@D@std@@@std@@@std@@QEAA@$$QEAV?$allocator@D@1@@Z
pdata	ENDS
;	COMDAT pdata
pdata	SEGMENT
$pdata$?dtor$0@?0???0?$_String_alloc@U?$_String_base_types@DV?$allocator@D@std@@@std@@@std@@QEAA@$$QEAV?$allocator@D@1@@Z@4HA DD imagerel ?dtor$0@?0???0?$_String_alloc@U?$_String_base_types@DV?$allocator@D@std@@@std@@@std@@QEAA@$$QEAV?$allocator@D@1@@Z@4HA
	DD	imagerel ?dtor$0@?0???0?$_String_alloc@U?$_String_base_types@DV?$allocator@D@std@@@std@@@std@@QEAA@$$QEAV?$allocator@D@1@@Z@4HA+39
	DD	imagerel $unwind$?dtor$0@?0???0?$_String_alloc@U?$_String_base_types@DV?$allocator@D@std@@@std@@@std@@QEAA@$$QEAV?$allocator@D@1@@Z@4HA
pdata	ENDS
;	COMDAT pdata
pdata	SEGMENT
$pdata$??1?$_String_alloc@U?$_String_base_types@DV?$allocator@D@std@@@std@@@std@@QEAA@XZ DD imagerel $LN3
	DD	imagerel $LN3+92
	DD	imagerel $unwind$??1?$_String_alloc@U?$_String_base_types@DV?$allocator@D@std@@@std@@@std@@QEAA@XZ
pdata	ENDS
;	COMDAT pdata
pdata	SEGMENT
$pdata$?_Alloc_proxy@?$_String_alloc@U?$_String_base_types@DV?$allocator@D@std@@@std@@@std@@QEAAXXZ DD imagerel $LN3
	DD	imagerel $LN3+264
	DD	imagerel $unwind$?_Alloc_proxy@?$_String_alloc@U?$_String_base_types@DV?$allocator@D@std@@@std@@@std@@QEAAXXZ
pdata	ENDS
;	COMDAT pdata
pdata	SEGMENT
$pdata$?_Free_proxy@?$_String_alloc@U?$_String_base_types@DV?$allocator@D@std@@@std@@@std@@QEAAXXZ DD imagerel $LN3
	DD	imagerel $LN3+209
	DD	imagerel $unwind$?_Free_proxy@?$_String_alloc@U?$_String_base_types@DV?$allocator@D@std@@@std@@@std@@QEAAXXZ
pdata	ENDS
;	COMDAT pdata
pdata	SEGMENT
$pdata$?_Myproxy@?$_String_alloc@U?$_String_base_types@DV?$allocator@D@std@@@std@@@std@@QEAAAEAPEAU_Container_proxy@2@XZ DD imagerel $LN3
	DD	imagerel $LN3+64
	DD	imagerel $unwind$?_Myproxy@?$_String_alloc@U?$_String_base_types@DV?$allocator@D@std@@@std@@@std@@QEAAAEAPEAU_Container_proxy@2@XZ
pdata	ENDS
;	COMDAT pdata
pdata	SEGMENT
$pdata$?_Orphan_all@?$_String_alloc@U?$_String_base_types@DV?$allocator@D@std@@@std@@@std@@QEAAXXZ DD imagerel $LN3
	DD	imagerel $LN3+72
	DD	imagerel $unwind$?_Orphan_all@?$_String_alloc@U?$_String_base_types@DV?$allocator@D@std@@@std@@@std@@QEAAXXZ
pdata	ENDS
;	COMDAT pdata
pdata	SEGMENT
$pdata$?_Getal@?$_String_alloc@U?$_String_base_types@DV?$allocator@D@std@@@std@@@std@@QEAAAEAU?$_Wrap_alloc@V?$allocator@D@std@@@2@XZ DD imagerel $LN3
	DD	imagerel $LN3+67
	DD	imagerel $unwind$?_Getal@?$_String_alloc@U?$_String_base_types@DV?$allocator@D@std@@@std@@@std@@QEAAAEAU?$_Wrap_alloc@V?$allocator@D@std@@@2@XZ
pdata	ENDS
;	COMDAT pdata
pdata	SEGMENT
$pdata$?_Getal@?$_String_alloc@U?$_String_base_types@DV?$allocator@D@std@@@std@@@std@@QEBAAEBU?$_Wrap_alloc@V?$allocator@D@std@@@2@XZ DD imagerel $LN3
	DD	imagerel $LN3+67
	DD	imagerel $unwind$?_Getal@?$_String_alloc@U?$_String_base_types@DV?$allocator@D@std@@@std@@@std@@QEBAAEBU?$_Wrap_alloc@V?$allocator@D@std@@@2@XZ
pdata	ENDS
;	COMDAT pdata
pdata	SEGMENT
$pdata$?_Get_data@?$_String_alloc@U?$_String_base_types@DV?$allocator@D@std@@@std@@@std@@QEAAAEAV?$_String_val@U?$_Simple_types@D@std@@@2@XZ DD imagerel $LN3
	DD	imagerel $LN3+67
	DD	imagerel $unwind$?_Get_data@?$_String_alloc@U?$_String_base_types@DV?$allocator@D@std@@@std@@@std@@QEAAAEAV?$_String_val@U?$_Simple_types@D@std@@@2@XZ
pdata	ENDS
;	COMDAT pdata
pdata	SEGMENT
$pdata$?_Get_data@?$_String_alloc@U?$_String_base_types@DV?$allocator@D@std@@@std@@@std@@QEBAAEBV?$_String_val@U?$_Simple_types@D@std@@@2@XZ DD imagerel $LN3
	DD	imagerel $LN3+67
	DD	imagerel $unwind$?_Get_data@?$_String_alloc@U?$_String_base_types@DV?$allocator@D@std@@@std@@@std@@QEBAAEBV?$_String_val@U?$_Simple_types@D@std@@@2@XZ
pdata	ENDS
;	COMDAT pdata
pdata	SEGMENT
$pdata$?_Bx@?$_String_alloc@U?$_String_base_types@DV?$allocator@D@std@@@std@@@std@@QEAAAEAT_Bxty@?$_String_val@U?$_Simple_types@D@std@@@2@XZ DD imagerel $LN3
	DD	imagerel $LN3+68
	DD	imagerel $unwind$?_Bx@?$_String_alloc@U?$_String_base_types@DV?$allocator@D@std@@@std@@@std@@QEAAAEAT_Bxty@?$_String_val@U?$_Simple_types@D@std@@@2@XZ
pdata	ENDS
;	COMDAT pdata
pdata	SEGMENT
$pdata$?_Mysize@?$_String_alloc@U?$_String_base_types@DV?$allocator@D@std@@@std@@@std@@QEAAAEA_KXZ DD imagerel $LN3
	DD	imagerel $LN3+68
	DD	imagerel $unwind$?_Mysize@?$_String_alloc@U?$_String_base_types@DV?$allocator@D@std@@@std@@@std@@QEAAAEA_KXZ
pdata	ENDS
;	COMDAT pdata
pdata	SEGMENT
$pdata$?_Mysize@?$_String_alloc@U?$_String_base_types@DV?$allocator@D@std@@@std@@@std@@QEBAAEB_KXZ DD imagerel $LN3
	DD	imagerel $LN3+68
	DD	imagerel $unwind$?_Mysize@?$_String_alloc@U?$_String_base_types@DV?$allocator@D@std@@@std@@@std@@QEBAAEB_KXZ
pdata	ENDS
;	COMDAT pdata
pdata	SEGMENT
$pdata$?_Myres@?$_String_alloc@U?$_String_base_types@DV?$allocator@D@std@@@std@@@std@@QEAAAEA_KXZ DD imagerel $LN3
	DD	imagerel $LN3+68
	DD	imagerel $unwind$?_Myres@?$_String_alloc@U?$_String_base_types@DV?$allocator@D@std@@@std@@@std@@QEAAAEA_KXZ
pdata	ENDS
;	COMDAT pdata
pdata	SEGMENT
$pdata$?_Get_first@?$_Compressed_pair@U?$_Wrap_alloc@V?$allocator@D@std@@@std@@V?$_String_val@U?$_Simple_types@D@std@@@2@$00@std@@QEAAAEAU?$_Wrap_alloc@V?$allocator@D@std@@@2@XZ DD imagerel $LN3
	DD	imagerel $LN3+57
	DD	imagerel $unwind$?_Get_first@?$_Compressed_pair@U?$_Wrap_alloc@V?$allocator@D@std@@@std@@V?$_String_val@U?$_Simple_types@D@std@@@2@$00@std@@QEAAAEAU?$_Wrap_alloc@V?$allocator@D@std@@@2@XZ
pdata	ENDS
;	COMDAT pdata
pdata	SEGMENT
$pdata$?_Get_first@?$_Compressed_pair@U?$_Wrap_alloc@V?$allocator@D@std@@@std@@V?$_String_val@U?$_Simple_types@D@std@@@2@$00@std@@QEBAAEBU?$_Wrap_alloc@V?$allocator@D@std@@@2@XZ DD imagerel $LN3
	DD	imagerel $LN3+57
	DD	imagerel $unwind$?_Get_first@?$_Compressed_pair@U?$_Wrap_alloc@V?$allocator@D@std@@@std@@V?$_String_val@U?$_Simple_types@D@std@@@2@$00@std@@QEBAAEBU?$_Wrap_alloc@V?$allocator@D@std@@@2@XZ
pdata	ENDS
;	COMDAT pdata
pdata	SEGMENT
$pdata$?_Get_second@?$_Compressed_pair@U?$_Wrap_alloc@V?$allocator@D@std@@@std@@V?$_String_val@U?$_Simple_types@D@std@@@2@$00@std@@QEAAAEAV?$_String_val@U?$_Simple_types@D@std@@@2@XZ DD imagerel $LN3
	DD	imagerel $LN3+57
	DD	imagerel $unwind$?_Get_second@?$_Compressed_pair@U?$_Wrap_alloc@V?$allocator@D@std@@@std@@V?$_String_val@U?$_Simple_types@D@std@@@2@$00@std@@QEAAAEAV?$_String_val@U?$_Simple_types@D@std@@@2@XZ
pdata	ENDS
;	COMDAT pdata
pdata	SEGMENT
$pdata$?_Get_second@?$_Compressed_pair@U?$_Wrap_alloc@V?$allocator@D@std@@@std@@V?$_String_val@U?$_Simple_types@D@std@@@2@$00@std@@QEBAAEBV?$_String_val@U?$_Simple_types@D@std@@@2@XZ DD imagerel $LN3
	DD	imagerel $LN3+57
	DD	imagerel $unwind$?_Get_second@?$_Compressed_pair@U?$_Wrap_alloc@V?$allocator@D@std@@@std@@V?$_String_val@U?$_Simple_types@D@std@@@2@$00@std@@QEBAAEBV?$_String_val@U?$_Simple_types@D@std@@@2@XZ
pdata	ENDS
;	COMDAT pdata
pdata	SEGMENT
$pdata$??1?$_Compressed_pair@U?$_Wrap_alloc@V?$allocator@D@std@@@std@@V?$_String_val@U?$_Simple_types@D@std@@@2@$00@std@@QEAA@XZ DD imagerel $LN3
	DD	imagerel $LN3+67
	DD	imagerel $unwind$??1?$_Compressed_pair@U?$_Wrap_alloc@V?$allocator@D@std@@@std@@V?$_String_val@U?$_Simple_types@D@std@@@2@$00@std@@QEAA@XZ
pdata	ENDS
;	COMDAT pdata
pdata	SEGMENT
$pdata$??0?$basic_string@DU?$char_traits@D@std@@V?$allocator@D@2@@std@@QEAA@AEBV01@@Z DD imagerel $LN4
	DD	imagerel $LN4+173
	DD	imagerel $unwind$??0?$basic_string@DU?$char_traits@D@std@@V?$allocator@D@2@@std@@QEAA@AEBV01@@Z
pdata	ENDS
;	COMDAT pdata
pdata	SEGMENT
$pdata$?dtor$0@?0???0?$basic_string@DU?$char_traits@D@std@@V?$allocator@D@2@@std@@QEAA@AEBV01@@Z@4HA DD imagerel ?dtor$0@?0???0?$basic_string@DU?$char_traits@D@std@@V?$allocator@D@2@@std@@QEAA@AEBV01@@Z@4HA
	DD	imagerel ?dtor$0@?0???0?$basic_string@DU?$char_traits@D@std@@V?$allocator@D@2@@std@@QEAA@AEBV01@@Z@4HA+39
	DD	imagerel $unwind$?dtor$0@?0???0?$basic_string@DU?$char_traits@D@std@@V?$allocator@D@2@@std@@QEAA@AEBV01@@Z@4HA
pdata	ENDS
;	COMDAT pdata
pdata	SEGMENT
$pdata$??0?$basic_string@DU?$char_traits@D@std@@V?$allocator@D@2@@std@@QEAA@PEBD@Z DD imagerel $LN4
	DD	imagerel $LN4+140
	DD	imagerel $unwind$??0?$basic_string@DU?$char_traits@D@std@@V?$allocator@D@2@@std@@QEAA@PEBD@Z
pdata	ENDS
;	COMDAT pdata
pdata	SEGMENT
$pdata$?dtor$0@?0???0?$basic_string@DU?$char_traits@D@std@@V?$allocator@D@2@@std@@QEAA@PEBD@Z@4HA DD imagerel ?dtor$0@?0???0?$basic_string@DU?$char_traits@D@std@@V?$allocator@D@2@@std@@QEAA@PEBD@Z@4HA
	DD	imagerel ?dtor$0@?0???0?$basic_string@DU?$char_traits@D@std@@V?$allocator@D@2@@std@@QEAA@PEBD@Z@4HA+39
	DD	imagerel $unwind$?dtor$0@?0???0?$basic_string@DU?$char_traits@D@std@@V?$allocator@D@2@@std@@QEAA@PEBD@Z@4HA
pdata	ENDS
;	COMDAT pdata
pdata	SEGMENT
$pdata$??1?$basic_string@DU?$char_traits@D@std@@V?$allocator@D@2@@std@@QEAA@XZ DD imagerel $LN3
	DD	imagerel $LN3+94
	DD	imagerel $unwind$??1?$basic_string@DU?$char_traits@D@std@@V?$allocator@D@2@@std@@QEAA@XZ
pdata	ENDS
;	COMDAT pdata
pdata	SEGMENT
$pdata$??Y?$basic_string@DU?$char_traits@D@std@@V?$allocator@D@2@@std@@QEAAAEAV01@PEBD@Z DD imagerel $LN3
	DD	imagerel $LN3+76
	DD	imagerel $unwind$??Y?$basic_string@DU?$char_traits@D@std@@V?$allocator@D@2@@std@@QEAAAEAV01@PEBD@Z
pdata	ENDS
;	COMDAT pdata
pdata	SEGMENT
$pdata$?append@?$basic_string@DU?$char_traits@D@std@@V?$allocator@D@2@@std@@QEAAAEAV12@AEBV12@_K1@Z DD imagerel $LN7
	DD	imagerel $LN7+380
	DD	imagerel $unwind$?append@?$basic_string@DU?$char_traits@D@std@@V?$allocator@D@2@@std@@QEAAAEAV12@AEBV12@_K1@Z
pdata	ENDS
;	COMDAT pdata
pdata	SEGMENT
$pdata$?append@?$basic_string@DU?$char_traits@D@std@@V?$allocator@D@2@@std@@QEAAAEAV12@PEBD_K@Z DD imagerel $LN8
	DD	imagerel $LN8+409
	DD	imagerel $unwind$?append@?$basic_string@DU?$char_traits@D@std@@V?$allocator@D@2@@std@@QEAAAEAV12@PEBD_K@Z
pdata	ENDS
;	COMDAT pdata
pdata	SEGMENT
$pdata$?append@?$basic_string@DU?$char_traits@D@std@@V?$allocator@D@2@@std@@QEAAAEAV12@PEBD@Z DD imagerel $LN3
	DD	imagerel $LN3+116
	DD	imagerel $unwind$?append@?$basic_string@DU?$char_traits@D@std@@V?$allocator@D@2@@std@@QEAAAEAV12@PEBD@Z
pdata	ENDS
;	COMDAT pdata
pdata	SEGMENT
$pdata$?assign@?$basic_string@DU?$char_traits@D@std@@V?$allocator@D@2@@std@@QEAAAEAV12@AEBV12@_K1@Z DD imagerel $LN8
	DD	imagerel $LN8+327
	DD	imagerel $unwind$?assign@?$basic_string@DU?$char_traits@D@std@@V?$allocator@D@2@@std@@QEAAAEAV12@AEBV12@_K1@Z
pdata	ENDS
;	COMDAT pdata
pdata	SEGMENT
$pdata$?assign@?$basic_string@DU?$char_traits@D@std@@V?$allocator@D@2@@std@@QEAAAEAV12@PEBD_K@Z DD imagerel $LN7
	DD	imagerel $LN7+291
	DD	imagerel $unwind$?assign@?$basic_string@DU?$char_traits@D@std@@V?$allocator@D@2@@std@@QEAAAEAV12@PEBD_K@Z
pdata	ENDS
;	COMDAT pdata
pdata	SEGMENT
$pdata$?assign@?$basic_string@DU?$char_traits@D@std@@V?$allocator@D@2@@std@@QEAAAEAV12@PEBD@Z DD imagerel $LN3
	DD	imagerel $LN3+116
	DD	imagerel $unwind$?assign@?$basic_string@DU?$char_traits@D@std@@V?$allocator@D@2@@std@@QEAAAEAV12@PEBD@Z
pdata	ENDS
;	COMDAT pdata
pdata	SEGMENT
$pdata$?erase@?$basic_string@DU?$char_traits@D@std@@V?$allocator@D@2@@std@@QEAAAEAV12@_K@Z DD imagerel $LN4
	DD	imagerel $LN4+119
	DD	imagerel $unwind$?erase@?$basic_string@DU?$char_traits@D@std@@V?$allocator@D@2@@std@@QEAAAEAV12@_K@Z
pdata	ENDS
;	COMDAT pdata
pdata	SEGMENT
$pdata$?erase@?$basic_string@DU?$char_traits@D@std@@V?$allocator@D@2@@std@@QEAAAEAV12@_K0@Z DD imagerel $LN7
	DD	imagerel $LN7+287
	DD	imagerel $unwind$?erase@?$basic_string@DU?$char_traits@D@std@@V?$allocator@D@2@@std@@QEAAAEAV12@_K0@Z
pdata	ENDS
;	COMDAT pdata
pdata	SEGMENT
$pdata$?c_str@?$basic_string@DU?$char_traits@D@std@@V?$allocator@D@2@@std@@QEBAPEBDXZ DD imagerel $LN3
	DD	imagerel $LN3+76
	DD	imagerel $unwind$?c_str@?$basic_string@DU?$char_traits@D@std@@V?$allocator@D@2@@std@@QEBAPEBDXZ
pdata	ENDS
;	COMDAT pdata
pdata	SEGMENT
$pdata$?size@?$basic_string@DU?$char_traits@D@std@@V?$allocator@D@2@@std@@QEBA_KXZ DD imagerel $LN3
	DD	imagerel $LN3+67
	DD	imagerel $unwind$?size@?$basic_string@DU?$char_traits@D@std@@V?$allocator@D@2@@std@@QEBA_KXZ
pdata	ENDS
;	COMDAT pdata
pdata	SEGMENT
$pdata$?max_size@?$basic_string@DU?$char_traits@D@std@@V?$allocator@D@2@@std@@QEBA_KXZ DD imagerel $LN5
	DD	imagerel $LN5+124
	DD	imagerel $unwind$?max_size@?$basic_string@DU?$char_traits@D@std@@V?$allocator@D@2@@std@@QEBA_KXZ
pdata	ENDS
;	COMDAT pdata
pdata	SEGMENT
$pdata$?_Copy@?$basic_string@DU?$char_traits@D@std@@V?$allocator@D@2@@std@@QEAAX_K0@Z DD imagerel $LN23
	DD	imagerel $LN23+610
	DD	imagerel $unwind$?_Copy@?$basic_string@DU?$char_traits@D@std@@V?$allocator@D@2@@std@@QEAAX_K0@Z
pdata	ENDS
;	COMDAT pdata
pdata	SEGMENT
$pdata$?catch$1@?0??_Copy@?$basic_string@DU?$char_traits@D@std@@V?$allocator@D@2@@std@@QEAAX_K0@Z@4HA DD imagerel ?catch$1@?0??_Copy@?$basic_string@DU?$char_traits@D@std@@V?$allocator@D@2@@std@@QEAAX_K0@Z@4HA
	DD	imagerel ?catch$1@?0??_Copy@?$basic_string@DU?$char_traits@D@std@@V?$allocator@D@2@@std@@QEAAX_K0@Z@4HA+110
	DD	imagerel $unwind$?catch$1@?0??_Copy@?$basic_string@DU?$char_traits@D@std@@V?$allocator@D@2@@std@@QEAAX_K0@Z@4HA
pdata	ENDS
;	COMDAT pdata
pdata	SEGMENT
$pdata$?catch$0@?0??_Copy@?$basic_string@DU?$char_traits@D@std@@V?$allocator@D@2@@std@@QEAAX_K0@Z@4HA DD imagerel ?catch$0@?0??_Copy@?$basic_string@DU?$char_traits@D@std@@V?$allocator@D@2@@std@@QEAAX_K0@Z@4HA
	DD	imagerel ?catch$0@?0??_Copy@?$basic_string@DU?$char_traits@D@std@@V?$allocator@D@2@@std@@QEAAX_K0@Z@4HA+62
	DD	imagerel $unwind$?catch$0@?0??_Copy@?$basic_string@DU?$char_traits@D@std@@V?$allocator@D@2@@std@@QEAAX_K0@Z@4HA
pdata	ENDS
;	COMDAT pdata
pdata	SEGMENT
$pdata$?_Eos@?$basic_string@DU?$char_traits@D@std@@V?$allocator@D@2@@std@@QEAAX_K@Z DD imagerel $LN3
	DD	imagerel $LN3+123
	DD	imagerel $unwind$?_Eos@?$basic_string@DU?$char_traits@D@std@@V?$allocator@D@2@@std@@QEAAX_K@Z
pdata	ENDS
;	COMDAT pdata
pdata	SEGMENT
$pdata$?_Grow@?$basic_string@DU?$char_traits@D@std@@V?$allocator@D@2@@std@@QEAA_N_K_N@Z DD imagerel $LN13
	DD	imagerel $LN13+327
	DD	imagerel $unwind$?_Grow@?$basic_string@DU?$char_traits@D@std@@V?$allocator@D@2@@std@@QEAA_N_K_N@Z
pdata	ENDS
;	COMDAT pdata
pdata	SEGMENT
$pdata$?_Inside@?$basic_string@DU?$char_traits@D@std@@V?$allocator@D@2@@std@@QEAA_NPEBD@Z DD imagerel $LN6
	DD	imagerel $LN6+149
	DD	imagerel $unwind$?_Inside@?$basic_string@DU?$char_traits@D@std@@V?$allocator@D@2@@std@@QEAA_NPEBD@Z
pdata	ENDS
;	COMDAT pdata
pdata	SEGMENT
$pdata$?_Tidy@?$basic_string@DU?$char_traits@D@std@@V?$allocator@D@2@@std@@QEAAX_N_K@Z DD imagerel $LN7
	DD	imagerel $LN7+327
	DD	imagerel $unwind$?_Tidy@?$basic_string@DU?$char_traits@D@std@@V?$allocator@D@2@@std@@QEAAX_N_K@Z
pdata	ENDS
;	COMDAT pdata
pdata	SEGMENT
$pdata$?_Xlen@?$basic_string@DU?$char_traits@D@std@@V?$allocator@D@2@@std@@QEBAXXZ DD imagerel $LN3
	DD	imagerel $LN3+65
	DD	imagerel $unwind$?_Xlen@?$basic_string@DU?$char_traits@D@std@@V?$allocator@D@2@@std@@QEBAXXZ
pdata	ENDS
;	COMDAT pdata
pdata	SEGMENT
$pdata$?_Xran@?$basic_string@DU?$char_traits@D@std@@V?$allocator@D@2@@std@@QEBAXXZ DD imagerel $LN3
	DD	imagerel $LN3+65
	DD	imagerel $unwind$?_Xran@?$basic_string@DU?$char_traits@D@std@@V?$allocator@D@2@@std@@QEBAXXZ
pdata	ENDS
;	COMDAT pdata
pdata	SEGMENT
$pdata$??0InputInfo@Cy@@QEAA@$$QEAU01@@Z DD imagerel $LN3
	DD	imagerel $LN3+224
	DD	imagerel $unwind$??0InputInfo@Cy@@QEAA@$$QEAU01@@Z
pdata	ENDS
;	COMDAT pdata
pdata	SEGMENT
$pdata$?NewInputInfo@Cy@@YA?AUInputInfo@1@PEBUWindowInfo@1@@Z DD imagerel $LN3
	DD	imagerel $LN3+271
	DD	imagerel $unwind$?NewInputInfo@Cy@@YA?AUInputInfo@1@PEBUWindowInfo@1@@Z
pdata	ENDS
;	COMDAT pdata
pdata	SEGMENT
$pdata$?NewWindowInfo@Cy@@YA?AUWindowInfo@1@PEBDPEAXII@Z DD imagerel $LN9
	DD	imagerel $LN9+624
	DD	imagerel $unwind$?NewWindowInfo@Cy@@YA?AUWindowInfo@1@PEBDPEAXII@Z
pdata	ENDS
;	COMDAT pdata
pdata	SEGMENT
$pdata$?OpenFile@Cy@@YA?AUFile@1@V?$basic_string@DU?$char_traits@D@std@@V?$allocator@D@2@@std@@@Z DD imagerel $LN15
	DD	imagerel $LN15+618
	DD	imagerel $unwind$?OpenFile@Cy@@YA?AUFile@1@V?$basic_string@DU?$char_traits@D@std@@V?$allocator@D@2@@std@@@Z
pdata	ENDS
;	COMDAT pdata
pdata	SEGMENT
$pdata$?dtor$0@?0??OpenFile@Cy@@YA?AUFile@1@V?$basic_string@DU?$char_traits@D@std@@V?$allocator@D@2@@std@@@Z@4HA DD imagerel ?dtor$0@?0??OpenFile@Cy@@YA?AUFile@1@V?$basic_string@DU?$char_traits@D@std@@V?$allocator@D@2@@std@@@Z@4HA
	DD	imagerel ?dtor$0@?0??OpenFile@Cy@@YA?AUFile@1@V?$basic_string@DU?$char_traits@D@std@@V?$allocator@D@2@@std@@@Z@4HA+39
	DD	imagerel $unwind$?dtor$0@?0??OpenFile@Cy@@YA?AUFile@1@V?$basic_string@DU?$char_traits@D@std@@V?$allocator@D@2@@std@@@Z@4HA
pdata	ENDS
;	COMDAT pdata
pdata	SEGMENT
$pdata$?DestroyWindowInfo@Cy@@YAXPEAUWindowInfo@1@@Z DD imagerel $LN3
	DD	imagerel $LN3+69
	DD	imagerel $unwind$?DestroyWindowInfo@Cy@@YAXPEAUWindowInfo@1@@Z
pdata	ENDS
;	COMDAT pdata
pdata	SEGMENT
$pdata$?NewTimerInfo@Cy@@YA?AUTimerInfo@1@XZ DD imagerel $LN3
	DD	imagerel $LN3+215
	DD	imagerel $unwind$?NewTimerInfo@Cy@@YA?AUTimerInfo@1@XZ
pdata	ENDS
;	COMDAT pdata
pdata	SEGMENT
$pdata$?GetAvgFps@Cy@@YA_KPEBUTimerInfo@1@@Z DD imagerel $LN6
	DD	imagerel $LN6+138
	DD	imagerel $unwind$?GetAvgFps@Cy@@YA_KPEBUTimerInfo@1@@Z
pdata	ENDS
;	COMDAT pdata
pdata	SEGMENT
$pdata$?GetClockCount@Cy@@YA_JXZ DD imagerel $LN3
	DD	imagerel $LN3+108
	DD	imagerel $unwind$?GetClockCount@Cy@@YA_JXZ
pdata	ENDS
;	COMDAT pdata
pdata	SEGMENT
$pdata$?Sleep@Cy@@YAXPEAUTimerInfo@1@H@Z DD imagerel $LN7
	DD	imagerel $LN7+161
	DD	imagerel $unwind$?Sleep@Cy@@YAXPEAUTimerInfo@1@H@Z
pdata	ENDS
;	COMDAT pdata
pdata	SEGMENT
$pdata$?Tick@Cy@@YAXPEAUTimerInfo@1@@Z DD imagerel $LN3
	DD	imagerel $LN3+93
	DD	imagerel $unwind$?Tick@Cy@@YAXPEAUTimerInfo@1@@Z
pdata	ENDS
;	COMDAT pdata
pdata	SEGMENT
$pdata$?Tock@Cy@@YAXPEAUTimerInfo@1@@Z DD imagerel $LN4
	DD	imagerel $LN4+203
	DD	imagerel $unwind$?Tock@Cy@@YAXPEAUTimerInfo@1@@Z
pdata	ENDS
;	COMDAT pdata
pdata	SEGMENT
$pdata$?DestroyTimerInfo@Cy@@YAXPEAUTimerInfo@1@@Z DD imagerel $LN3
	DD	imagerel $LN3+68
	DD	imagerel $unwind$?DestroyTimerInfo@Cy@@YAXPEAUTimerInfo@1@@Z
pdata	ENDS
;	COMDAT pdata
pdata	SEGMENT
$pdata$?Message@Cy@@YAXV?$basic_string@DU?$char_traits@D@std@@V?$allocator@D@2@@std@@@Z DD imagerel $LN4
	DD	imagerel $LN4+143
	DD	imagerel $unwind$?Message@Cy@@YAXV?$basic_string@DU?$char_traits@D@std@@V?$allocator@D@2@@std@@@Z
pdata	ENDS
;	COMDAT pdata
pdata	SEGMENT
$pdata$?dtor$0@?0??Message@Cy@@YAXV?$basic_string@DU?$char_traits@D@std@@V?$allocator@D@2@@std@@@Z@4HA DD imagerel ?dtor$0@?0??Message@Cy@@YAXV?$basic_string@DU?$char_traits@D@std@@V?$allocator@D@2@@std@@@Z@4HA
	DD	imagerel ?dtor$0@?0??Message@Cy@@YAXV?$basic_string@DU?$char_traits@D@std@@V?$allocator@D@2@@std@@@Z@4HA+39
	DD	imagerel $unwind$?dtor$0@?0??Message@Cy@@YAXV?$basic_string@DU?$char_traits@D@std@@V?$allocator@D@2@@std@@@Z@4HA
pdata	ENDS
;	COMDAT pdata
pdata	SEGMENT
$pdata$?Assert@Cy@@YAX_NV?$basic_string@DU?$char_traits@D@std@@V?$allocator@D@2@@std@@@Z DD imagerel $LN6
	DD	imagerel $LN6+242
	DD	imagerel $unwind$?Assert@Cy@@YAX_NV?$basic_string@DU?$char_traits@D@std@@V?$allocator@D@2@@std@@@Z
pdata	ENDS
;	COMDAT pdata
pdata	SEGMENT
$pdata$?dtor$0@?0??Assert@Cy@@YAX_NV?$basic_string@DU?$char_traits@D@std@@V?$allocator@D@2@@std@@@Z@4HA DD imagerel ?dtor$0@?0??Assert@Cy@@YAX_NV?$basic_string@DU?$char_traits@D@std@@V?$allocator@D@2@@std@@@Z@4HA
	DD	imagerel ?dtor$0@?0??Assert@Cy@@YAX_NV?$basic_string@DU?$char_traits@D@std@@V?$allocator@D@2@@std@@@Z@4HA+39
	DD	imagerel $unwind$?dtor$0@?0??Assert@Cy@@YAX_NV?$basic_string@DU?$char_traits@D@std@@V?$allocator@D@2@@std@@@Z@4HA
pdata	ENDS
;	COMDAT pdata
pdata	SEGMENT
$pdata$??$?5DU?$char_traits@D@std@@@std@@YAAEAV?$basic_istream@DU?$char_traits@D@std@@@0@AEAV10@AEAD@Z DD imagerel $LN13
	DD	imagerel $LN13+377
	DD	imagerel $unwind$??$?5DU?$char_traits@D@std@@@std@@YAAEAV?$basic_istream@DU?$char_traits@D@std@@@0@AEAV10@AEAD@Z
pdata	ENDS
;	COMDAT pdata
pdata	SEGMENT
$pdata$?dtor$0@?0???$?5DU?$char_traits@D@std@@@std@@YAAEAV?$basic_istream@DU?$char_traits@D@std@@@0@AEAV10@AEAD@Z@4HA DD imagerel ?dtor$0@?0???$?5DU?$char_traits@D@std@@@std@@YAAEAV?$basic_istream@DU?$char_traits@D@std@@@0@AEAV10@AEAD@Z@4HA
	DD	imagerel ?dtor$0@?0???$?5DU?$char_traits@D@std@@@std@@YAAEAV?$basic_istream@DU?$char_traits@D@std@@@0@AEAV10@AEAD@Z@4HA+36
	DD	imagerel $unwind$?dtor$0@?0???$?5DU?$char_traits@D@std@@@std@@YAAEAV?$basic_istream@DU?$char_traits@D@std@@@0@AEAV10@AEAD@Z@4HA
pdata	ENDS
;	COMDAT pdata
pdata	SEGMENT
$pdata$?catch$0@?0???$?5DU?$char_traits@D@std@@@std@@YAAEAV?$basic_istream@DU?$char_traits@D@std@@@0@AEAV10@AEAD@Z@4HA DD imagerel ?catch$0@?0???$?5DU?$char_traits@D@std@@@std@@YAAEAV?$basic_istream@DU?$char_traits@D@std@@@0@AEAV10@AEAD@Z@4HA
	DD	imagerel ?catch$0@?0???$?5DU?$char_traits@D@std@@@std@@YAAEAV?$basic_istream@DU?$char_traits@D@std@@@0@AEAV10@AEAD@Z@4HA+80
	DD	imagerel $unwind$?catch$0@?0???$?5DU?$char_traits@D@std@@@std@@YAAEAV?$basic_istream@DU?$char_traits@D@std@@@0@AEAV10@AEAD@Z@4HA
pdata	ENDS
;	COMDAT pdata
pdata	SEGMENT
$pdata$?SafeTruncate@Cy@@YAI_K@Z DD imagerel $LN6
	DD	imagerel $LN6+169
	DD	imagerel $unwind$?SafeTruncate@Cy@@YAI_K@Z
pdata	ENDS
;	COMDAT pdata
pdata	SEGMENT
$pdata$?SafeTruncate@Cy@@YAH_J@Z DD imagerel $LN11
	DD	imagerel $LN11+306
	DD	imagerel $unwind$?SafeTruncate@Cy@@YAH_J@Z
pdata	ENDS
;	COMDAT pdata
pdata	SEGMENT
$pdata$?WindowsSleep@Windows@@YAXI@Z DD imagerel $LN3
	DD	imagerel $LN3+62
	DD	imagerel $unwind$?WindowsSleep@Windows@@YAXI@Z
pdata	ENDS
;	COMDAT pdata
pdata	SEGMENT
$pdata$?MessageHandler@Cy@@YA_JPEAUHWND__@@I_K_J@Z DD imagerel $LN20
	DD	imagerel $LN20+774
	DD	imagerel $unwind$?MessageHandler@Cy@@YA_JPEAUHWND__@@I_K_J@Z
pdata	ENDS
;	COMDAT pdata
pdata	SEGMENT
$pdata$??$pow@HH@@YANHH@Z DD imagerel $LN3
	DD	imagerel $LN3+94
	DD	imagerel $unwind$??$pow@HH@@YANHH@Z
pdata	ENDS
;	COMDAT pdata
pdata	SEGMENT
$pdata$??$_Debug_pointer@$$CBD@std@@YAXPEBDPEBGI@Z DD imagerel $LN4
	DD	imagerel $LN4+99
	DD	imagerel $unwind$??$_Debug_pointer@$$CBD@std@@YAXPEBDPEBGI@Z
pdata	ENDS
;	COMDAT pdata
pdata	SEGMENT
$pdata$??$move@AEAV?$allocator@D@std@@@std@@YA$$QEAV?$allocator@D@0@AEAV10@@Z DD imagerel $LN3
	DD	imagerel $LN3+57
	DD	imagerel $unwind$??$move@AEAV?$allocator@D@std@@@std@@YA$$QEAV?$allocator@D@0@AEAV10@@Z
pdata	ENDS
;	COMDAT pdata
pdata	SEGMENT
$pdata$??$?0V?$allocator@D@std@@$$V@?$_Compressed_pair@U?$_Wrap_alloc@V?$allocator@D@std@@@std@@V?$_String_val@U?$_Simple_types@D@std@@@2@$00@std@@QEAA@U_One_then_variadic_args_t@1@$$QEAV?$allocator@D@1@@Z DD imagerel $LN4
	DD	imagerel $LN4+110
	DD	imagerel $unwind$??$?0V?$allocator@D@std@@$$V@?$_Compressed_pair@U?$_Wrap_alloc@V?$allocator@D@std@@@std@@V?$_String_val@U?$_Simple_types@D@std@@@2@$00@std@@QEAA@U_One_then_variadic_args_t@1@$$QEAV?$allocator@D@1@@Z
pdata	ENDS
;	COMDAT pdata
pdata	SEGMENT
$pdata$??$?0AEBV?$allocator@D@std@@$$V@?$_Compressed_pair@U?$_Wrap_alloc@V?$allocator@D@std@@@std@@V?$_String_val@U?$_Simple_types@D@std@@@2@$00@std@@QEAA@U_One_then_variadic_args_t@1@AEBV?$allocator@D@1@@Z DD imagerel $LN4
	DD	imagerel $LN4+110
	DD	imagerel $unwind$??$?0AEBV?$allocator@D@std@@$$V@?$_Compressed_pair@U?$_Wrap_alloc@V?$allocator@D@std@@@std@@V?$_String_val@U?$_Simple_types@D@std@@@2@$00@std@@QEAA@U_One_then_variadic_args_t@1@AEBV?$allocator@D@1@@Z
pdata	ENDS
;	COMDAT pdata
pdata	SEGMENT
$pdata$??$destroy@PEAD@?$_Wrap_alloc@V?$allocator@D@std@@@std@@QEAAXPEAPEAD@Z DD imagerel $LN3
	DD	imagerel $LN3+76
	DD	imagerel $unwind$??$destroy@PEAD@?$_Wrap_alloc@V?$allocator@D@std@@@std@@QEAAXPEAPEAD@Z
pdata	ENDS
;	COMDAT pdata
pdata	SEGMENT
$pdata$??$addressof@D@std@@YAPEADAEAD@Z DD imagerel $LN3
	DD	imagerel $LN3+71
	DD	imagerel $unwind$??$addressof@D@std@@YAPEADAEAD@Z
pdata	ENDS
;	COMDAT pdata
pdata	SEGMENT
$pdata$??$_Debug_pointer_if@$$CBD@std@@YAX_NPEBDPEBGI@Z DD imagerel $LN4
	DD	imagerel $LN4+114
	DD	imagerel $unwind$??$_Debug_pointer_if@$$CBD@std@@YAX_NPEBDPEBGI@Z
pdata	ENDS
;	COMDAT pdata
pdata	SEGMENT
$pdata$??$construct@PEADAEAPEAD@?$_Wrap_alloc@V?$allocator@D@std@@@std@@QEAAXPEAPEADAEAPEAD@Z DD imagerel $LN3
	DD	imagerel $LN3+96
	DD	imagerel $unwind$??$construct@PEADAEAPEAD@?$_Wrap_alloc@V?$allocator@D@std@@@std@@QEAAXPEAPEADAEAPEAD@Z
pdata	ENDS
;	COMDAT pdata
pdata	SEGMENT
$pdata$?deallocate@?$allocator@U_Container_proxy@std@@@std@@QEAAXPEAU_Container_proxy@2@_K@Z DD imagerel $LN3
	DD	imagerel $LN3+87
	DD	imagerel $unwind$?deallocate@?$allocator@U_Container_proxy@std@@@std@@QEAAXPEAU_Container_proxy@2@_K@Z
pdata	ENDS
;	COMDAT pdata
pdata	SEGMENT
$pdata$?allocate@?$allocator@U_Container_proxy@std@@@std@@QEAAPEAU_Container_proxy@2@_K@Z DD imagerel $LN3
	DD	imagerel $LN3+77
	DD	imagerel $unwind$?allocate@?$allocator@U_Container_proxy@std@@@std@@QEAAPEAU_Container_proxy@2@_K@Z
pdata	ENDS
;	COMDAT pdata
pdata	SEGMENT
$pdata$?allocate@?$_Wrap_alloc@V?$allocator@U_Container_proxy@std@@@std@@@std@@QEAAPEAU_Container_proxy@2@_K@Z DD imagerel $LN3
	DD	imagerel $LN3+76
	DD	imagerel $unwind$?allocate@?$_Wrap_alloc@V?$allocator@U_Container_proxy@std@@@std@@@std@@QEAAPEAU_Container_proxy@2@_K@Z
pdata	ENDS
;	COMDAT pdata
pdata	SEGMENT
$pdata$?deallocate@?$_Wrap_alloc@V?$allocator@U_Container_proxy@std@@@std@@@std@@QEAAXPEAU_Container_proxy@2@_K@Z DD imagerel $LN3
	DD	imagerel $LN3+88
	DD	imagerel $unwind$?deallocate@?$_Wrap_alloc@V?$allocator@U_Container_proxy@std@@@std@@@std@@QEAAXPEAU_Container_proxy@2@_K@Z
pdata	ENDS
;	COMDAT pdata
pdata	SEGMENT
$pdata$??$destroy@U_Container_proxy@std@@@?$_Wrap_alloc@V?$allocator@U_Container_proxy@std@@@std@@@std@@QEAAXPEAU_Container_proxy@1@@Z DD imagerel $LN3
	DD	imagerel $LN3+76
	DD	imagerel $unwind$??$destroy@U_Container_proxy@std@@@?$_Wrap_alloc@V?$allocator@U_Container_proxy@std@@@std@@@std@@QEAAXPEAU_Container_proxy@1@@Z
pdata	ENDS
;	COMDAT pdata
pdata	SEGMENT
$pdata$??$construct@U_Container_proxy@std@@U12@@?$_Wrap_alloc@V?$allocator@U_Container_proxy@std@@@std@@@std@@QEAAXPEAU_Container_proxy@1@$$QEAU21@@Z DD imagerel $LN3
	DD	imagerel $LN3+96
	DD	imagerel $unwind$??$construct@U_Container_proxy@std@@U12@@?$_Wrap_alloc@V?$allocator@U_Container_proxy@std@@@std@@@std@@QEAAXPEAU_Container_proxy@1@$$QEAU21@@Z
pdata	ENDS
;	COMDAT pdata
pdata	SEGMENT
$pdata$??$?0U?$_Wrap_alloc@V?$allocator@D@std@@@std@@@?$_Wrap_alloc@V?$allocator@U_Container_proxy@std@@@std@@@std@@QEAA@AEAU?$_Wrap_alloc@V?$allocator@D@std@@@1@@Z DD imagerel $LN3
	DD	imagerel $LN3+83
	DD	imagerel $unwind$??$?0U?$_Wrap_alloc@V?$allocator@D@std@@@std@@@?$_Wrap_alloc@V?$allocator@U_Container_proxy@std@@@std@@@std@@QEAA@AEAU?$_Wrap_alloc@V?$allocator@D@std@@@1@@Z
pdata	ENDS
;	COMDAT pdata
pdata	SEGMENT
$pdata$??$?0D@?$allocator@U_Container_proxy@std@@@std@@QEAA@AEBV?$allocator@D@1@@Z DD imagerel $LN3
	DD	imagerel $LN3+62
	DD	imagerel $unwind$??$?0D@?$allocator@U_Container_proxy@std@@@std@@QEAA@AEBV?$allocator@D@1@@Z
pdata	ENDS
;	COMDAT pdata
pdata	SEGMENT
$pdata$??0_Sentry_base@?$basic_istream@DU?$char_traits@D@std@@@std@@QEAA@AEAV12@@Z DD imagerel $LN4
	DD	imagerel $LN4+219
	DD	imagerel $unwind$??0_Sentry_base@?$basic_istream@DU?$char_traits@D@std@@@std@@QEAA@AEAV12@@Z
pdata	ENDS
;	COMDAT pdata
pdata	SEGMENT
$pdata$??1_Sentry_base@?$basic_istream@DU?$char_traits@D@std@@@std@@QEAA@XZ DD imagerel $LN4
	DD	imagerel $LN4+204
	DD	imagerel $unwind$??1_Sentry_base@?$basic_istream@DU?$char_traits@D@std@@@std@@QEAA@XZ
pdata	ENDS
;	COMDAT pdata
pdata	SEGMENT
$pdata$??0sentry@?$basic_istream@DU?$char_traits@D@std@@@std@@QEAA@AEAV12@_N@Z DD imagerel $LN4
	DD	imagerel $LN4+133
	DD	imagerel $unwind$??0sentry@?$basic_istream@DU?$char_traits@D@std@@@std@@QEAA@AEAV12@_N@Z
pdata	ENDS
;	COMDAT pdata
pdata	SEGMENT
$pdata$?dtor$0@?0???0sentry@?$basic_istream@DU?$char_traits@D@std@@@std@@QEAA@AEAV12@_N@Z@4HA DD imagerel ?dtor$0@?0???0sentry@?$basic_istream@DU?$char_traits@D@std@@@std@@QEAA@AEAV12@_N@Z@4HA
	DD	imagerel ?dtor$0@?0???0sentry@?$basic_istream@DU?$char_traits@D@std@@@std@@QEAA@AEAV12@_N@Z@4HA+39
	DD	imagerel $unwind$?dtor$0@?0???0sentry@?$basic_istream@DU?$char_traits@D@std@@@std@@QEAA@AEAV12@_N@Z@4HA
pdata	ENDS
;	COMDAT pdata
pdata	SEGMENT
$pdata$??Bsentry@?$basic_istream@DU?$char_traits@D@std@@@std@@QEBA_NXZ DD imagerel $LN3
	DD	imagerel $LN3+61
	DD	imagerel $unwind$??Bsentry@?$basic_istream@DU?$char_traits@D@std@@@std@@QEBA_NXZ
pdata	ENDS
;	COMDAT pdata
pdata	SEGMENT
$pdata$??1sentry@?$basic_istream@DU?$char_traits@D@std@@@std@@QEAA@XZ DD imagerel $LN3
	DD	imagerel $LN3+64
	DD	imagerel $unwind$??1sentry@?$basic_istream@DU?$char_traits@D@std@@@std@@QEAA@XZ
pdata	ENDS
;	COMDAT pdata
pdata	SEGMENT
$pdata$??$forward@V?$allocator@D@std@@@std@@YA$$QEAV?$allocator@D@0@AEAV10@@Z DD imagerel $LN3
	DD	imagerel $LN3+57
	DD	imagerel $unwind$??$forward@V?$allocator@D@std@@@std@@YA$$QEAV?$allocator@D@0@AEAV10@@Z
pdata	ENDS
;	COMDAT pdata
pdata	SEGMENT
$pdata$??$forward@AEBV?$allocator@D@std@@@std@@YAAEBV?$allocator@D@0@AEBV10@@Z DD imagerel $LN3
	DD	imagerel $LN3+57
	DD	imagerel $unwind$??$forward@AEBV?$allocator@D@std@@@std@@YAAEBV?$allocator@D@0@AEBV10@@Z
pdata	ENDS
;	COMDAT pdata
pdata	SEGMENT
$pdata$??$destroy@PEAD@?$allocator_traits@V?$allocator@D@std@@@std@@SAXAEAV?$allocator@D@1@PEAPEAD@Z DD imagerel $LN3
	DD	imagerel $LN3+76
	DD	imagerel $unwind$??$destroy@PEAD@?$allocator_traits@V?$allocator@D@std@@@std@@SAXAEAV?$allocator@D@1@PEAPEAD@Z
pdata	ENDS
;	COMDAT pdata
pdata	SEGMENT
$pdata$??$_Addressof@D@std@@YAPEADAEADU?$integral_constant@_N$0A@@0@@Z DD imagerel $LN3
	DD	imagerel $LN3+61
	DD	imagerel $unwind$??$_Addressof@D@std@@YAPEADAEADU?$integral_constant@_N$0A@@0@@Z
pdata	ENDS
;	COMDAT pdata
pdata	SEGMENT
$pdata$??$forward@AEAPEAD@std@@YAAEAPEADAEAPEAD@Z DD imagerel $LN3
	DD	imagerel $LN3+57
	DD	imagerel $unwind$??$forward@AEAPEAD@std@@YAAEAPEADAEAPEAD@Z
pdata	ENDS
;	COMDAT pdata
pdata	SEGMENT
$pdata$??$construct@PEADAEAPEAD@?$allocator_traits@V?$allocator@D@std@@@std@@SAXAEAV?$allocator@D@1@PEAPEADAEAPEAD@Z DD imagerel $LN3
	DD	imagerel $LN3+96
	DD	imagerel $unwind$??$construct@PEADAEAPEAD@?$allocator_traits@V?$allocator@D@std@@@std@@SAXAEAV?$allocator@D@1@PEAPEADAEAPEAD@Z
pdata	ENDS
;	COMDAT pdata
pdata	SEGMENT
$pdata$??$destroy@U_Container_proxy@std@@@?$allocator_traits@V?$allocator@U_Container_proxy@std@@@std@@@std@@SAXAEAV?$allocator@U_Container_proxy@std@@@1@PEAU_Container_proxy@1@@Z DD imagerel $LN3
	DD	imagerel $LN3+76
	DD	imagerel $unwind$??$destroy@U_Container_proxy@std@@@?$allocator_traits@V?$allocator@U_Container_proxy@std@@@std@@@std@@SAXAEAV?$allocator@U_Container_proxy@std@@@1@PEAU_Container_proxy@1@@Z
pdata	ENDS
;	COMDAT pdata
pdata	SEGMENT
$pdata$??$forward@U_Container_proxy@std@@@std@@YA$$QEAU_Container_proxy@0@AEAU10@@Z DD imagerel $LN3
	DD	imagerel $LN3+57
	DD	imagerel $unwind$??$forward@U_Container_proxy@std@@@std@@YA$$QEAU_Container_proxy@0@AEAU10@@Z
pdata	ENDS
;	COMDAT pdata
pdata	SEGMENT
$pdata$??$construct@U_Container_proxy@std@@U12@@?$allocator_traits@V?$allocator@U_Container_proxy@std@@@std@@@std@@SAXAEAV?$allocator@U_Container_proxy@std@@@1@PEAU_Container_proxy@1@$$QEAU31@@Z DD imagerel $LN3
	DD	imagerel $LN3+96
	DD	imagerel $unwind$??$construct@U_Container_proxy@std@@U12@@?$allocator_traits@V?$allocator@U_Container_proxy@std@@@std@@@std@@SAXAEAV?$allocator@U_Container_proxy@std@@@1@PEAU_Container_proxy@1@$$QEAU31@@Z
pdata	ENDS
;	COMDAT pdata
pdata	SEGMENT
$pdata$??$destroy@PEAD@?$allocator@D@std@@QEAAXPEAPEAD@Z DD imagerel $LN3
	DD	imagerel $LN3+55
	DD	imagerel $unwind$??$destroy@PEAD@?$allocator@D@std@@QEAAXPEAPEAD@Z
pdata	ENDS
;	COMDAT pdata
pdata	SEGMENT
$pdata$??$construct@PEADAEAPEAD@?$allocator@D@std@@QEAAXPEAPEADAEAPEAD@Z DD imagerel $LN5
	DD	imagerel $LN5+148
	DD	imagerel $unwind$??$construct@PEADAEAPEAD@?$allocator@D@std@@QEAAXPEAPEADAEAPEAD@Z
pdata	ENDS
;	COMDAT pdata
pdata	SEGMENT
$pdata$??$destroy@U_Container_proxy@std@@@?$allocator@U_Container_proxy@std@@@std@@QEAAXPEAU_Container_proxy@1@@Z DD imagerel $LN3
	DD	imagerel $LN3+55
	DD	imagerel $unwind$??$destroy@U_Container_proxy@std@@@?$allocator@U_Container_proxy@std@@@std@@QEAAXPEAU_Container_proxy@1@@Z
pdata	ENDS
;	COMDAT pdata
pdata	SEGMENT
$pdata$??$construct@U_Container_proxy@std@@U12@@?$allocator@U_Container_proxy@std@@@std@@QEAAXPEAU_Container_proxy@1@$$QEAU21@@Z DD imagerel $LN5
	DD	imagerel $LN5+154
	DD	imagerel $unwind$??$construct@U_Container_proxy@std@@U12@@?$allocator@U_Container_proxy@std@@@std@@QEAAXPEAU_Container_proxy@1@$$QEAU21@@Z
pdata	ENDS
;	COMDAT __real@5f800000
CONST	SEGMENT
__real@5f800000 DD 05f800000r			; 1.84467e+19
CONST	ENDS
;	COMDAT rtc$TMZ
rtc$TMZ	SEGMENT
_RTC_Shutdown.rtc$TMZ DQ FLAT:_RTC_Shutdown
rtc$TMZ	ENDS
;	COMDAT rtc$IMZ
rtc$IMZ	SEGMENT
_RTC_InitBase.rtc$IMZ DQ FLAT:_RTC_InitBase
rtc$IMZ	ENDS
;	COMDAT ??_C@_1CK@EOPGIILJ@?$AAi?$AAn?$AAv?$AAa?$AAl?$AAi?$AAd?$AA?5?$AAn?$AAu?$AAl?$AAl?$AA?5?$AAp?$AAo?$AAi?$AAn?$AAt?$AAe?$AAr?$AA?$AA@
CONST	SEGMENT
??_C@_1CK@EOPGIILJ@?$AAi?$AAn?$AAv?$AAa?$AAl?$AAi?$AAd?$AA?5?$AAn?$AAu?$AAl?$AAl?$AA?5?$AAp?$AAo?$AAi?$AAn?$AAt?$AAe?$AAr?$AA?$AA@ DB 'i'
	DB	00H, 'n', 00H, 'v', 00H, 'a', 00H, 'l', 00H, 'i', 00H, 'd', 00H
	DB	' ', 00H, 'n', 00H, 'u', 00H, 'l', 00H, 'l', 00H, ' ', 00H, 'p'
	DB	00H, 'o', 00H, 'i', 00H, 'n', 00H, 't', 00H, 'e', 00H, 'r', 00H
	DB	00H, 00H					; `string'
CONST	ENDS
;	COMDAT ??_C@_0BA@JFNIOLAK@string?5too?5long?$AA@
CONST	SEGMENT
??_C@_0BA@JFNIOLAK@string?5too?5long?$AA@ DB 'string too long', 00H ; `string'
CONST	ENDS
;	COMDAT ??_C@_0BI@CFPLBAOH@invalid?5string?5position?$AA@
CONST	SEGMENT
??_C@_0BI@CFPLBAOH@invalid?5string?5position?$AA@ DB 'invalid string posi'
	DB	'tion', 00H					; `string'
CONST	ENDS
;	COMDAT ??_C@_1EE@PIAPABGP@?$AAd?$AA?3?$AA?2?$AAa?$AAp?$AAp?$AAd?$AAa?$AAt?$AAa?$AA?2?$AAv?$AAs?$AAp?$AA?2?$AAv?$AAc?$AA?2?$AAi?$AAn?$AAc?$AAl?$AAu?$AAd?$AAe?$AA?2?$AAx?$AAs?$AAt?$AAr?$AAi?$AAn@
CONST	SEGMENT
??_C@_1EE@PIAPABGP@?$AAd?$AA?3?$AA?2?$AAa?$AAp?$AAp?$AAd?$AAa?$AAt?$AAa?$AA?2?$AAv?$AAs?$AAp?$AA?2?$AAv?$AAc?$AA?2?$AAi?$AAn?$AAc?$AAl?$AAu?$AAd?$AAe?$AA?2?$AAx?$AAs?$AAt?$AAr?$AAi?$AAn@ DB 'd'
	DB	00H, ':', 00H, '\', 00H, 'a', 00H, 'p', 00H, 'p', 00H, 'd', 00H
	DB	'a', 00H, 't', 00H, 'a', 00H, '\', 00H, 'v', 00H, 's', 00H, 'p'
	DB	00H, '\', 00H, 'v', 00H, 'c', 00H, '\', 00H, 'i', 00H, 'n', 00H
	DB	'c', 00H, 'l', 00H, 'u', 00H, 'd', 00H, 'e', 00H, '\', 00H, 'x'
	DB	00H, 's', 00H, 't', 00H, 'r', 00H, 'i', 00H, 'n', 00H, 'g', 00H
	DB	00H, 00H					; `string'
CONST	ENDS
;	COMDAT ??_C@_0BE@LABMMLMO@could?5not?5read?5file?$AA@
CONST	SEGMENT
??_C@_0BE@LABMMLMO@could?5not?5read?5file?$AA@ DB 'could not read file', 00H ; `string'
CONST	ENDS
;	COMDAT ??_C@_0N@JFIFKAKF@file?5too?5big?$AA@
CONST	SEGMENT
??_C@_0N@JFIFKAKF@file?5too?5big?$AA@ DB 'file too big', 00H ; `string'
CONST	ENDS
;	COMDAT ??_C@_0CC@PBICDBGD@could?5not?5create?5a?5windows?5windo@
CONST	SEGMENT
??_C@_0CC@PBICDBGD@could?5not?5create?5a?5windows?5windo@ DB 'could not c'
	DB	'reate a windows window', 00H		; `string'
CONST	ENDS
;	COMDAT ??_C@_0BP@CHPCPMKH@could?5not?5register?5windowclass?$AA@
CONST	SEGMENT
??_C@_0BP@CHPCPMKH@could?5not?5register?5windowclass?$AA@ DB 'could not r'
	DB	'egister windowclass', 00H			; `string'
CONST	ENDS
;	COMDAT ??_C@_0BC@BJEMDEOO@truncate?5NOT?5SAFE?$AA@
CONST	SEGMENT
??_C@_0BC@BJEMDEOO@truncate?5NOT?5SAFE?$AA@ DB 'truncate NOT SAFE', 00H ; `string'
CONST	ENDS
;	COMDAT ??_C@_01EEMJAFIK@?6?$AA@
CONST	SEGMENT
??_C@_01EEMJAFIK@?6?$AA@ DB 0aH, 00H			; `string'
CONST	ENDS
;	COMDAT ?npos@?$basic_string@DU?$char_traits@D@std@@V?$allocator@D@2@@std@@2_KB
CONST	SEGMENT
?npos@?$basic_string@DU?$char_traits@D@std@@V?$allocator@D@2@@std@@2_KB DQ ffffffffffffffffH ; std::basic_string<char,std::char_traits<char>,std::allocator<char> >::npos
CONST	ENDS
;	COMDAT ??_C@_1GI@DHJGPFNI@?$AA?$CC?$AA_?$AAP?$AAt?$AAr?$AA_?$AAu?$AAs?$AAe?$AAr?$AA?5?$AA?9?$AA?5?$AA_?$AAP?$AAt?$AAr?$AA_?$AAc?$AAo?$AAn?$AAt?$AAa?$AAi?$AAn?$AAe?$AAr?$AA?5?$AA?$DM?$AA?$DN?$AA?5?$AA_@
CONST	SEGMENT
??_C@_1GI@DHJGPFNI@?$AA?$CC?$AA_?$AAP?$AAt?$AAr?$AA_?$AAu?$AAs?$AAe?$AAr?$AA?5?$AA?9?$AA?5?$AA_?$AAP?$AAt?$AAr?$AA_?$AAc?$AAo?$AAn?$AAt?$AAa?$AAi?$AAn?$AAe?$AAr?$AA?5?$AA?$DM?$AA?$DN?$AA?5?$AA_@ DB '"'
	DB	00H, '_', 00H, 'P', 00H, 't', 00H, 'r', 00H, '_', 00H, 'u', 00H
	DB	's', 00H, 'e', 00H, 'r', 00H, ' ', 00H, '-', 00H, ' ', 00H, '_'
	DB	00H, 'P', 00H, 't', 00H, 'r', 00H, '_', 00H, 'c', 00H, 'o', 00H
	DB	'n', 00H, 't', 00H, 'a', 00H, 'i', 00H, 'n', 00H, 'e', 00H, 'r'
	DB	00H, ' ', 00H, '<', 00H, '=', 00H, ' ', 00H, '_', 00H, 'N', 00H
	DB	'O', 00H, 'N', 00H, '_', 00H, 'U', 00H, 'S', 00H, 'E', 00H, 'R'
	DB	00H, '_', 00H, 'S', 00H, 'I', 00H, 'Z', 00H, 'E', 00H, '"', 00H
	DB	' ', 00H, '&', 00H, '&', 00H, ' ', 00H, '0', 00H, 00H, 00H ; `string'
CONST	ENDS
;	COMDAT ??_C@_0CN@BLHJCAL@_Ptr_user?5?9?5_Ptr_container?5?$DM?$DN?5_N@
CONST	SEGMENT
??_C@_0CN@BLHJCAL@_Ptr_user?5?9?5_Ptr_container?5?$DM?$DN?5_N@ DB '_Ptr_u'
	DB	'ser - _Ptr_container <= _NON_USER_SIZE', 00H ; `string'
CONST	ENDS
;	COMDAT ??_C@_1HA@NAPGMHAO@?$AA?$CC?$AA2?$AA?5?$AA?$CK?$AA?5?$AAs?$AAi?$AAz?$AAe?$AAo?$AAf?$AA?$CI?$AAv?$AAo?$AAi?$AAd?$AA?5?$AA?$CK?$AA?$CJ?$AA?5?$AA?$DM?$AA?$DN?$AA?5?$AA_?$AAP?$AAt?$AAr?$AA_?$AAu?$AAs?$AAe?$AAr@
CONST	SEGMENT
??_C@_1HA@NAPGMHAO@?$AA?$CC?$AA2?$AA?5?$AA?$CK?$AA?5?$AAs?$AAi?$AAz?$AAe?$AAo?$AAf?$AA?$CI?$AAv?$AAo?$AAi?$AAd?$AA?5?$AA?$CK?$AA?$CJ?$AA?5?$AA?$DM?$AA?$DN?$AA?5?$AA_?$AAP?$AAt?$AAr?$AA_?$AAu?$AAs?$AAe?$AAr@ DB '"'
	DB	00H, '2', 00H, ' ', 00H, '*', 00H, ' ', 00H, 's', 00H, 'i', 00H
	DB	'z', 00H, 'e', 00H, 'o', 00H, 'f', 00H, '(', 00H, 'v', 00H, 'o'
	DB	00H, 'i', 00H, 'd', 00H, ' ', 00H, '*', 00H, ')', 00H, ' ', 00H
	DB	'<', 00H, '=', 00H, ' ', 00H, '_', 00H, 'P', 00H, 't', 00H, 'r'
	DB	00H, '_', 00H, 'u', 00H, 's', 00H, 'e', 00H, 'r', 00H, ' ', 00H
	DB	'-', 00H, ' ', 00H, '_', 00H, 'P', 00H, 't', 00H, 'r', 00H, '_'
	DB	00H, 'c', 00H, 'o', 00H, 'n', 00H, 't', 00H, 'a', 00H, 'i', 00H
	DB	'n', 00H, 'e', 00H, 'r', 00H, '"', 00H, ' ', 00H, '&', 00H, '&'
	DB	00H, ' ', 00H, '0', 00H, 00H, 00H		; `string'
CONST	ENDS
;	COMDAT ??_C@_0DB@GLFJLNCE@2?5?$CK?5sizeof?$CIvoid?5?$CK?$CJ?5?$DM?$DN?5_Ptr_user?5@
CONST	SEGMENT
??_C@_0DB@GLFJLNCE@2?5?$CK?5sizeof?$CIvoid?5?$CK?$CJ?5?$DM?$DN?5_Ptr_user?5@ DB '2'
	DB	' * sizeof(void *) <= _Ptr_user - _Ptr_container', 00H ; `string'
CONST	ENDS
;	COMDAT ??_C@_1EE@PDHAHDDC@?$AA?$CC?$AA_?$AAP?$AAt?$AAr?$AA_?$AAc?$AAo?$AAn?$AAt?$AAa?$AAi?$AAn?$AAe?$AAr?$AA?5?$AA?$DM?$AA?5?$AA_?$AAP?$AAt?$AAr?$AA_?$AAu?$AAs?$AAe?$AAr?$AA?$CC?$AA?5?$AA?$CG?$AA?$CG?$AA?5@
CONST	SEGMENT
??_C@_1EE@PDHAHDDC@?$AA?$CC?$AA_?$AAP?$AAt?$AAr?$AA_?$AAc?$AAo?$AAn?$AAt?$AAa?$AAi?$AAn?$AAe?$AAr?$AA?5?$AA?$DM?$AA?5?$AA_?$AAP?$AAt?$AAr?$AA_?$AAu?$AAs?$AAe?$AAr?$AA?$CC?$AA?5?$AA?$CG?$AA?$CG?$AA?5@ DB '"'
	DB	00H, '_', 00H, 'P', 00H, 't', 00H, 'r', 00H, '_', 00H, 'c', 00H
	DB	'o', 00H, 'n', 00H, 't', 00H, 'a', 00H, 'i', 00H, 'n', 00H, 'e'
	DB	00H, 'r', 00H, ' ', 00H, '<', 00H, ' ', 00H, '_', 00H, 'P', 00H
	DB	't', 00H, 'r', 00H, '_', 00H, 'u', 00H, 's', 00H, 'e', 00H, 'r'
	DB	00H, '"', 00H, ' ', 00H, '&', 00H, '&', 00H, ' ', 00H, '0', 00H
	DB	00H, 00H					; `string'
CONST	ENDS
;	COMDAT ??_C@_0BL@OCKMEJON@_Ptr_container?5?$DM?5_Ptr_user?$AA@
CONST	SEGMENT
??_C@_0BL@OCKMEJON@_Ptr_container?5?$DM?5_Ptr_user?$AA@ DB '_Ptr_containe'
	DB	'r < _Ptr_user', 00H				; `string'
CONST	ENDS
;	COMDAT ??_C@_1JO@EKLKIEHP@?$AA?$CC?$AAr?$AAe?$AAi?$AAn?$AAt?$AAe?$AAr?$AAp?$AAr?$AAe?$AAt?$AA_?$AAc?$AAa?$AAs?$AAt?$AA?$DM?$AAu?$AAi?$AAn?$AAt?$AAp?$AAt?$AAr?$AA_?$AAt?$AA?5?$AA?$CK?$AA?$DO?$AA?$CI?$AA_@
CONST	SEGMENT
??_C@_1JO@EKLKIEHP@?$AA?$CC?$AAr?$AAe?$AAi?$AAn?$AAt?$AAe?$AAr?$AAp?$AAr?$AAe?$AAt?$AA_?$AAc?$AAa?$AAs?$AAt?$AA?$DM?$AAu?$AAi?$AAn?$AAt?$AAp?$AAt?$AAr?$AA_?$AAt?$AA?5?$AA?$CK?$AA?$DO?$AA?$CI?$AA_@ DB '"'
	DB	00H, 'r', 00H, 'e', 00H, 'i', 00H, 'n', 00H, 't', 00H, 'e', 00H
	DB	'r', 00H, 'p', 00H, 'r', 00H, 'e', 00H, 't', 00H, '_', 00H, 'c'
	DB	00H, 'a', 00H, 's', 00H, 't', 00H, '<', 00H, 'u', 00H, 'i', 00H
	DB	'n', 00H, 't', 00H, 'p', 00H, 't', 00H, 'r', 00H, '_', 00H, 't'
	DB	00H, ' ', 00H, '*', 00H, '>', 00H, '(', 00H, '_', 00H, 'P', 00H
	DB	't', 00H, 'r', 00H, '_', 00H, 'p', 00H, 't', 00H, 'r', 00H, ')'
	DB	00H, '[', 00H, '-', 00H, '1', 00H, ']', 00H, ' ', 00H, '=', 00H
	DB	'=', 00H, ' ', 00H, '_', 00H, 'B', 00H, 'I', 00H, 'G', 00H, '_'
	DB	00H, 'A', 00H, 'L', 00H, 'L', 00H, 'O', 00H, 'C', 00H, 'A', 00H
	DB	'T', 00H, 'I', 00H, 'O', 00H, 'N', 00H, '_', 00H, 'S', 00H, 'E'
	DB	00H, 'N', 00H, 'T', 00H, 'I', 00H, 'N', 00H, 'E', 00H, 'L', 00H
	DB	'"', 00H, ' ', 00H, '&', 00H, '&', 00H, ' ', 00H, '0', 00H, 00H
	DB	00H						; `string'
CONST	ENDS
;	COMDAT ??_C@_0EI@NOJHEJCJ@reinterpret_cast?$DMuintptr_t?5?$CK?$DO?$CI_P@
CONST	SEGMENT
??_C@_0EI@NOJHEJCJ@reinterpret_cast?$DMuintptr_t?5?$CK?$DO?$CI_P@ DB 'rei'
	DB	'nterpret_cast<uintptr_t *>(_Ptr_ptr)[-1] == _BIG_ALLOCATION_S'
	DB	'ENTINEL', 00H				; `string'
CONST	ENDS
;	COMDAT ??_C@_1HE@CDMBFOKC@?$AA?$CC?$AA?$CI?$AA_?$AAP?$AAt?$AAr?$AA_?$AAu?$AAs?$AAe?$AAr?$AA?5?$AA?$CG?$AA?5?$AA?$CI?$AA_?$AAB?$AAI?$AAG?$AA_?$AAA?$AAL?$AAL?$AAO?$AAC?$AAA?$AAT?$AAI?$AAO?$AAN?$AA_?$AAA@
CONST	SEGMENT
??_C@_1HE@CDMBFOKC@?$AA?$CC?$AA?$CI?$AA_?$AAP?$AAt?$AAr?$AA_?$AAu?$AAs?$AAe?$AAr?$AA?5?$AA?$CG?$AA?5?$AA?$CI?$AA_?$AAB?$AAI?$AAG?$AA_?$AAA?$AAL?$AAL?$AAO?$AAC?$AAA?$AAT?$AAI?$AAO?$AAN?$AA_?$AAA@ DB '"'
	DB	00H, '(', 00H, '_', 00H, 'P', 00H, 't', 00H, 'r', 00H, '_', 00H
	DB	'u', 00H, 's', 00H, 'e', 00H, 'r', 00H, ' ', 00H, '&', 00H, ' '
	DB	00H, '(', 00H, '_', 00H, 'B', 00H, 'I', 00H, 'G', 00H, '_', 00H
	DB	'A', 00H, 'L', 00H, 'L', 00H, 'O', 00H, 'C', 00H, 'A', 00H, 'T'
	DB	00H, 'I', 00H, 'O', 00H, 'N', 00H, '_', 00H, 'A', 00H, 'L', 00H
	DB	'I', 00H, 'G', 00H, 'N', 00H, 'M', 00H, 'E', 00H, 'N', 00H, 'T'
	DB	00H, ' ', 00H, '-', 00H, ' ', 00H, '1', 00H, ')', 00H, ')', 00H
	DB	' ', 00H, '=', 00H, '=', 00H, ' ', 00H, '0', 00H, '"', 00H, ' '
	DB	00H, '&', 00H, '&', 00H, ' ', 00H, '0', 00H, 00H, 00H ; `string'
CONST	ENDS
;	COMDAT ??_C@_0DD@GBGGGKGG@?$CI_Ptr_user?5?$CG?5?$CI_BIG_ALLOCATION_AL@
CONST	SEGMENT
??_C@_0DD@GBGGGKGG@?$CI_Ptr_user?5?$CG?5?$CI_BIG_ALLOCATION_AL@ DB '(_Ptr'
	DB	'_user & (_BIG_ALLOCATION_ALIGNMENT - 1)) == 0', 00H ; `string'
CONST	ENDS
;	COMDAT ??_C@_1CC@LOFJFFDB@?$AAs?$AAt?$AAd?$AA?3?$AA?3?$AA_?$AAD?$AAe?$AAa?$AAl?$AAl?$AAo?$AAc?$AAa?$AAt?$AAe?$AA?$AA@
CONST	SEGMENT
??_C@_1CC@LOFJFFDB@?$AAs?$AAt?$AAd?$AA?3?$AA?3?$AA_?$AAD?$AAe?$AAa?$AAl?$AAl?$AAo?$AAc?$AAa?$AAt?$AAe?$AA?$AA@ DB 's'
	DB	00H, 't', 00H, 'd', 00H, ':', 00H, ':', 00H, '_', 00H, 'D', 00H
	DB	'e', 00H, 'a', 00H, 'l', 00H, 'l', 00H, 'o', 00H, 'c', 00H, 'a'
	DB	00H, 't', 00H, 'e', 00H, 00H, 00H		; `string'
CONST	ENDS
;	COMDAT ??_C@_1EI@MLOBABC@?$AA?$CC?$AA_?$AAC?$AAo?$AAu?$AAn?$AAt?$AA?5?$AA?$DM?$AA?$DN?$AA?5?$AA?$CI?$AAs?$AAi?$AAz?$AAe?$AA_?$AAt?$AA?$CJ?$AA?$CI?$AA?9?$AA1?$AA?$CJ?$AA?5?$AA?1?$AA?5?$AA_?$AAS?$AAz?$AA?$CC?$AA?5?$AA?$CG@
CONST	SEGMENT
??_C@_1EI@MLOBABC@?$AA?$CC?$AA_?$AAC?$AAo?$AAu?$AAn?$AAt?$AA?5?$AA?$DM?$AA?$DN?$AA?5?$AA?$CI?$AAs?$AAi?$AAz?$AAe?$AA_?$AAt?$AA?$CJ?$AA?$CI?$AA?9?$AA1?$AA?$CJ?$AA?5?$AA?1?$AA?5?$AA_?$AAS?$AAz?$AA?$CC?$AA?5?$AA?$CG@ DB '"'
	DB	00H, '_', 00H, 'C', 00H, 'o', 00H, 'u', 00H, 'n', 00H, 't', 00H
	DB	' ', 00H, '<', 00H, '=', 00H, ' ', 00H, '(', 00H, 's', 00H, 'i'
	DB	00H, 'z', 00H, 'e', 00H, '_', 00H, 't', 00H, ')', 00H, '(', 00H
	DB	'-', 00H, '1', 00H, ')', 00H, ' ', 00H, '/', 00H, ' ', 00H, '_'
	DB	00H, 'S', 00H, 'z', 00H, '"', 00H, ' ', 00H, '&', 00H, '&', 00H
	DB	' ', 00H, '0', 00H, 00H, 00H			; `string'
CONST	ENDS
;	COMDAT ??_C@_0BN@HMCJOMKN@_Count?5?$DM?$DN?5?$CIsize_t?$CJ?$CI?91?$CJ?5?1?5_Sz?$AA@
CONST	SEGMENT
??_C@_0BN@HMCJOMKN@_Count?5?$DM?$DN?5?$CIsize_t?$CJ?$CI?91?$CJ?5?1?5_Sz?$AA@ DB '_'
	DB	'Count <= (size_t)(-1) / _Sz', 00H		; `string'
CONST	ENDS
;	COMDAT ?__LINE__Var@?0??_Deallocate@std@@YAXPEAX_K1@Z@4JA
_DATA	SEGMENT
?__LINE__Var@?0??_Deallocate@std@@YAXPEAX_K1@Z@4JA DD 062H ; `std::_Deallocate'::`1'::__LINE__Var
_DATA	ENDS
;	COMDAT ??_C@_1CC@GKJLLHIM@?$AA?$CC?$AA_?$AAP?$AAt?$AAr?$AA?5?$AA?$CB?$AA?$DN?$AA?5?$AA0?$AA?$CC?$AA?5?$AA?$CG?$AA?$CG?$AA?5?$AA0?$AA?$AA@
CONST	SEGMENT
??_C@_1CC@GKJLLHIM@?$AA?$CC?$AA_?$AAP?$AAt?$AAr?$AA?5?$AA?$CB?$AA?$DN?$AA?5?$AA0?$AA?$CC?$AA?5?$AA?$CG?$AA?$CG?$AA?5?$AA0?$AA?$AA@ DB '"'
	DB	00H, '_', 00H, 'P', 00H, 't', 00H, 'r', 00H, ' ', 00H, '!', 00H
	DB	'=', 00H, ' ', 00H, '0', 00H, '"', 00H, ' ', 00H, '&', 00H, '&'
	DB	00H, ' ', 00H, '0', 00H, 00H, 00H		; `string'
CONST	ENDS
;	COMDAT ??_C@_09GLJCAGLP@_Ptr?5?$CB?$DN?50?$AA@
CONST	SEGMENT
??_C@_09GLJCAGLP@_Ptr?5?$CB?$DN?50?$AA@ DB '_Ptr != 0', 00H ; `string'
CONST	ENDS
;	COMDAT ??_C@_1CG@JNLFBNGN@?$AA?$CC?$AAi?$AAn?$AAv?$AAa?$AAl?$AAi?$AAd?$AA?5?$AAa?$AAr?$AAg?$AAu?$AAm?$AAe?$AAn?$AAt?$AA?$CC?$AA?$AA@
CONST	SEGMENT
??_C@_1CG@JNLFBNGN@?$AA?$CC?$AAi?$AAn?$AAv?$AAa?$AAl?$AAi?$AAd?$AA?5?$AAa?$AAr?$AAg?$AAu?$AAm?$AAe?$AAn?$AAt?$AA?$CC?$AA?$AA@ DB '"'
	DB	00H, 'i', 00H, 'n', 00H, 'v', 00H, 'a', 00H, 'l', 00H, 'i', 00H
	DB	'd', 00H, ' ', 00H, 'a', 00H, 'r', 00H, 'g', 00H, 'u', 00H, 'm'
	DB	00H, 'e', 00H, 'n', 00H, 't', 00H, '"', 00H, 00H, 00H ; `string'
CONST	ENDS
;	COMDAT ??_C@_1BO@NKFMJPA@?$AAs?$AAt?$AAd?$AA?3?$AA?3?$AA_?$AAA?$AAl?$AAl?$AAo?$AAc?$AAa?$AAt?$AAe?$AA?$AA@
CONST	SEGMENT
??_C@_1BO@NKFMJPA@?$AAs?$AAt?$AAd?$AA?3?$AA?3?$AA_?$AAA?$AAl?$AAl?$AAo?$AAc?$AAa?$AAt?$AAe?$AA?$AA@ DB 's'
	DB	00H, 't', 00H, 'd', 00H, ':', 00H, ':', 00H, '_', 00H, 'A', 00H
	DB	'l', 00H, 'l', 00H, 'o', 00H, 'c', 00H, 'a', 00H, 't', 00H, 'e'
	DB	00H, 00H, 00H				; `string'
CONST	ENDS
;	COMDAT ??_C@_1EG@DJALBHDK@?$AAd?$AA?3?$AA?2?$AAa?$AAp?$AAp?$AAd?$AAa?$AAt?$AAa?$AA?2?$AAv?$AAs?$AAp?$AA?2?$AAv?$AAc?$AA?2?$AAi?$AAn?$AAc?$AAl?$AAu?$AAd?$AAe?$AA?2?$AAx?$AAm?$AAe?$AAm?$AAo?$AAr@
CONST	SEGMENT
??_C@_1EG@DJALBHDK@?$AAd?$AA?3?$AA?2?$AAa?$AAp?$AAp?$AAd?$AAa?$AAt?$AAa?$AA?2?$AAv?$AAs?$AAp?$AA?2?$AAv?$AAc?$AA?2?$AAi?$AAn?$AAc?$AAl?$AAu?$AAd?$AAe?$AA?2?$AAx?$AAm?$AAe?$AAm?$AAo?$AAr@ DB 'd'
	DB	00H, ':', 00H, '\', 00H, 'a', 00H, 'p', 00H, 'p', 00H, 'd', 00H
	DB	'a', 00H, 't', 00H, 'a', 00H, '\', 00H, 'v', 00H, 's', 00H, 'p'
	DB	00H, '\', 00H, 'v', 00H, 'c', 00H, '\', 00H, 'i', 00H, 'n', 00H
	DB	'c', 00H, 'l', 00H, 'u', 00H, 'd', 00H, 'e', 00H, '\', 00H, 'x'
	DB	00H, 'm', 00H, 'e', 00H, 'm', 00H, 'o', 00H, 'r', 00H, 'y', 00H
	DB	'0', 00H, 00H, 00H				; `string'
CONST	ENDS
;	COMDAT ??_C@_17CNPHIMPH@?$AA?$CF?$AAl?$AAs?$AA?$AA@
CONST	SEGMENT
??_C@_17CNPHIMPH@?$AA?$CF?$AAl?$AAs?$AA?$AA@ DB '%', 00H, 'l', 00H, 's', 00H
	DB	00H, 00H					; `string'
CONST	ENDS
;	COMDAT ??_C@_1DG@HGDKEBPG@?$AA?$CC?$AA_?$AAP?$AAt?$AAr?$AA_?$AAc?$AAo?$AAn?$AAt?$AAa?$AAi?$AAn?$AAe?$AAr?$AA?5?$AA?$CB?$AA?$DN?$AA?5?$AA0?$AA?$CC?$AA?5?$AA?$CG?$AA?$CG?$AA?5?$AA0?$AA?$AA@
CONST	SEGMENT
??_C@_1DG@HGDKEBPG@?$AA?$CC?$AA_?$AAP?$AAt?$AAr?$AA_?$AAc?$AAo?$AAn?$AAt?$AAa?$AAi?$AAn?$AAe?$AAr?$AA?5?$AA?$CB?$AA?$DN?$AA?5?$AA0?$AA?$CC?$AA?5?$AA?$CG?$AA?$CG?$AA?5?$AA0?$AA?$AA@ DB '"'
	DB	00H, '_', 00H, 'P', 00H, 't', 00H, 'r', 00H, '_', 00H, 'c', 00H
	DB	'o', 00H, 'n', 00H, 't', 00H, 'a', 00H, 'i', 00H, 'n', 00H, 'e'
	DB	00H, 'r', 00H, ' ', 00H, '!', 00H, '=', 00H, ' ', 00H, '0', 00H
	DB	'"', 00H, ' ', 00H, '&', 00H, '&', 00H, ' ', 00H, '0', 00H, 00H
	DB	00H						; `string'
CONST	ENDS
;	COMDAT ??_C@_0BE@LMNLACIC@_Ptr_container?5?$CB?$DN?50?$AA@
CONST	SEGMENT
??_C@_0BE@LMNLACIC@_Ptr_container?5?$CB?$DN?50?$AA@ DB '_Ptr_container !='
	DB	' 0', 00H					; `string'
CONST	ENDS
;	COMDAT ?__LINE__Var@?0??_Allocate@std@@YAPEAX_K0_N@Z@4JA
_DATA	SEGMENT
?__LINE__Var@?0??_Allocate@std@@YAPEAX_K0_N@Z@4JA DD 036H ; `std::_Allocate'::`1'::__LINE__Var
_DATA	ENDS
;	COMDAT xdata
xdata	SEGMENT
$unwind$??$construct@U_Container_proxy@std@@U12@@?$allocator@U_Container_proxy@std@@@std@@QEAAXPEAU_Container_proxy@1@$$QEAU21@@Z DD 025063501H
	DD	0119231eH
	DD	070120020H
	DD	050106011H
xdata	ENDS
;	COMDAT xdata
xdata	SEGMENT
$unwind$??$destroy@U_Container_proxy@std@@@?$allocator@U_Container_proxy@std@@@std@@QEAAXPEAU_Container_proxy@1@@Z DD 05052d01H
	DD	01130316H
	DD	0700c0019H
	DD	0500bH
xdata	ENDS
;	COMDAT xdata
xdata	SEGMENT
$unwind$??$construct@PEADAEAPEAD@?$allocator@D@std@@QEAAXPEAPEADAEAPEAD@Z DD 025053401H
	DD	0118231dH
	DD	070110021H
	DD	05010H
xdata	ENDS
;	COMDAT xdata
xdata	SEGMENT
$unwind$??$destroy@PEAD@?$allocator@D@std@@QEAAXPEAPEAD@Z DD 05052d01H
	DD	01130316H
	DD	0700c0019H
	DD	0500bH
xdata	ENDS
;	COMDAT xdata
xdata	SEGMENT
$unwind$??$construct@U_Container_proxy@std@@U12@@?$allocator_traits@V?$allocator@U_Container_proxy@std@@@std@@@std@@SAXAEAV?$allocator@U_Container_proxy@std@@@1@PEAU_Container_proxy@1@$$QEAU31@@Z DD 025053401H
	DD	0118231dH
	DD	07011001dH
	DD	05010H
xdata	ENDS
;	COMDAT xdata
xdata	SEGMENT
$unwind$??$forward@U_Container_proxy@std@@@std@@YA$$QEAU_Container_proxy@0@AEAU10@@Z DD 05052801H
	DD	010e0311H
	DD	070070019H
	DD	05006H
xdata	ENDS
;	COMDAT xdata
xdata	SEGMENT
$unwind$??$destroy@U_Container_proxy@std@@@?$allocator_traits@V?$allocator@U_Container_proxy@std@@@std@@@std@@SAXAEAV?$allocator@U_Container_proxy@std@@@1@PEAU_Container_proxy@1@@Z DD 025052f01H
	DD	01132318H
	DD	0700c001dH
	DD	0500bH
xdata	ENDS
;	COMDAT xdata
xdata	SEGMENT
$unwind$??$construct@PEADAEAPEAD@?$allocator_traits@V?$allocator@D@std@@@std@@SAXAEAV?$allocator@D@1@PEAPEADAEAPEAD@Z DD 025053401H
	DD	0118231dH
	DD	07011001dH
	DD	05010H
xdata	ENDS
;	COMDAT xdata
xdata	SEGMENT
$unwind$??$forward@AEAPEAD@std@@YAAEAPEADAEAPEAD@Z DD 05052801H
	DD	010e0311H
	DD	070070019H
	DD	05006H
xdata	ENDS
;	COMDAT xdata
xdata	SEGMENT
$unwind$??$_Addressof@D@std@@YAPEADAEADU?$integral_constant@_N$0A@@0@@Z DD 05052c01H
	DD	01120315H
	DD	0700b0019H
	DD	0500aH
xdata	ENDS
;	COMDAT xdata
xdata	SEGMENT
$unwind$??$destroy@PEAD@?$allocator_traits@V?$allocator@D@std@@@std@@SAXAEAV?$allocator@D@1@PEAPEAD@Z DD 025052f01H
	DD	01132318H
	DD	0700c001dH
	DD	0500bH
xdata	ENDS
;	COMDAT xdata
xdata	SEGMENT
$unwind$??$forward@AEBV?$allocator@D@std@@@std@@YAAEBV?$allocator@D@0@AEBV10@@Z DD 05052801H
	DD	010e0311H
	DD	070070019H
	DD	05006H
xdata	ENDS
;	COMDAT xdata
xdata	SEGMENT
$unwind$??$forward@V?$allocator@D@std@@@std@@YA$$QEAV?$allocator@D@0@AEAV10@@Z DD 05052801H
	DD	010e0311H
	DD	070070019H
	DD	05006H
xdata	ENDS
;	COMDAT xdata
xdata	SEGMENT
$unwind$??1sentry@?$basic_istream@DU?$char_traits@D@std@@@std@@QEAA@XZ DD 025052a01H
	DD	010e2313H
	DD	07007001dH
	DD	05006H
xdata	ENDS
;	COMDAT xdata
xdata	SEGMENT
$unwind$??Bsentry@?$basic_istream@DU?$char_traits@D@std@@@std@@QEBA_NXZ DD 05052801H
	DD	010e0311H
	DD	070070019H
	DD	05006H
xdata	ENDS
;	COMDAT xdata
xdata	SEGMENT
$unwind$?dtor$0@?0???0sentry@?$basic_istream@DU?$char_traits@D@std@@@std@@QEAA@AEAV12@_N@Z@4HA DD 031001H
	DD	0700c4210H
	DD	0500bH
xdata	ENDS
;	COMDAT xdata
xdata	SEGMENT
$ip2state$??0sentry@?$basic_istream@DU?$char_traits@D@std@@@std@@QEAA@AEAV12@_N@Z DD imagerel ??0sentry@?$basic_istream@DU?$char_traits@D@std@@@std@@QEAA@AEAV12@_N@Z
	DD	0ffffffffH
	DD	imagerel ??0sentry@?$basic_istream@DU?$char_traits@D@std@@@std@@QEAA@AEAV12@_N@Z+83
	DD	00H
	DD	imagerel ??0sentry@?$basic_istream@DU?$char_traits@D@std@@@std@@QEAA@AEAV12@_N@Z+116
	DD	0ffffffffH
xdata	ENDS
;	COMDAT xdata
xdata	SEGMENT
$stateUnwindMap$??0sentry@?$basic_istream@DU?$char_traits@D@std@@@std@@QEAA@AEAV12@_N@Z DD 0ffffffffH
	DD	imagerel ?dtor$0@?0???0sentry@?$basic_istream@DU?$char_traits@D@std@@@std@@QEAA@AEAV12@_N@Z@4HA
xdata	ENDS
;	COMDAT CONST
CONST	SEGMENT
$cppxdata$??0sentry@?$basic_istream@DU?$char_traits@D@std@@@std@@QEAA@AEAV12@_N@Z DD 019930522H
	DD	01H
	DD	imagerel $stateUnwindMap$??0sentry@?$basic_istream@DU?$char_traits@D@std@@@std@@QEAA@AEAV12@_N@Z
	DD	00H
	DD	00H
	DD	03H
	DD	imagerel $ip2state$??0sentry@?$basic_istream@DU?$char_traits@D@std@@@std@@QEAA@AEAV12@_N@Z
	DD	0e8H
	DD	00H
	DD	01H
CONST	ENDS
;	COMDAT xdata
xdata	SEGMENT
$unwind$??0sentry@?$basic_istream@DU?$char_traits@D@std@@@std@@QEAA@AEAV12@_N@Z DD 025053f11H
	DD	0118231dH
	DD	070110021H
	DD	05010H
	DD	imagerel __CxxFrameHandler3
	DD	imagerel $cppxdata$??0sentry@?$basic_istream@DU?$char_traits@D@std@@@std@@QEAA@AEAV12@_N@Z
xdata	ENDS
;	COMDAT xdata
xdata	SEGMENT
$ip2state$??1_Sentry_base@?$basic_istream@DU?$char_traits@D@std@@@std@@QEAA@XZ DD imagerel ??1_Sentry_base@?$basic_istream@DU?$char_traits@D@std@@@std@@QEAA@XZ
	DD	0ffffffffH
xdata	ENDS
;	COMDAT CONST
CONST	SEGMENT
$cppxdata$??1_Sentry_base@?$basic_istream@DU?$char_traits@D@std@@@std@@QEAA@XZ DD 019930522H
	DD	00H
	DD	00H
	DD	00H
	DD	00H
	DD	01H
	DD	imagerel $ip2state$??1_Sentry_base@?$basic_istream@DU?$char_traits@D@std@@@std@@QEAA@XZ
	DD	0e8H
	DD	00H
	DD	05H
CONST	ENDS
;	COMDAT xdata
xdata	SEGMENT
$unwind$??1_Sentry_base@?$basic_istream@DU?$char_traits@D@std@@@std@@QEAA@XZ DD 025053519H
	DD	010e2313H
	DD	070070023H
	DD	05006H
	DD	imagerel __CxxFrameHandler3
	DD	imagerel $cppxdata$??1_Sentry_base@?$basic_istream@DU?$char_traits@D@std@@@std@@QEAA@XZ
xdata	ENDS
;	COMDAT xdata
xdata	SEGMENT
$unwind$??0_Sentry_base@?$basic_istream@DU?$char_traits@D@std@@@std@@QEAA@AEAV12@@Z DD 025052f01H
	DD	01132318H
	DD	0700c001fH
	DD	0500bH
xdata	ENDS
;	COMDAT xdata
xdata	SEGMENT
$unwind$??$?0D@?$allocator@U_Container_proxy@std@@@std@@QEAA@AEBV?$allocator@D@1@@Z DD 05052d01H
	DD	01130316H
	DD	0700c0019H
	DD	0500bH
xdata	ENDS
;	COMDAT xdata
xdata	SEGMENT
$unwind$??$?0U?$_Wrap_alloc@V?$allocator@D@std@@@std@@@?$_Wrap_alloc@V?$allocator@U_Container_proxy@std@@@std@@@std@@QEAA@AEAU?$_Wrap_alloc@V?$allocator@D@std@@@1@@Z DD 025052f01H
	DD	01132318H
	DD	0700c001dH
	DD	0500bH
xdata	ENDS
;	COMDAT xdata
xdata	SEGMENT
$unwind$??$construct@U_Container_proxy@std@@U12@@?$_Wrap_alloc@V?$allocator@U_Container_proxy@std@@@std@@@std@@QEAAXPEAU_Container_proxy@1@$$QEAU21@@Z DD 025053401H
	DD	0118231dH
	DD	07011001dH
	DD	05010H
xdata	ENDS
;	COMDAT xdata
xdata	SEGMENT
$unwind$??$destroy@U_Container_proxy@std@@@?$_Wrap_alloc@V?$allocator@U_Container_proxy@std@@@std@@@std@@QEAAXPEAU_Container_proxy@1@@Z DD 025052f01H
	DD	01132318H
	DD	0700c001dH
	DD	0500bH
xdata	ENDS
;	COMDAT xdata
xdata	SEGMENT
$unwind$?deallocate@?$_Wrap_alloc@V?$allocator@U_Container_proxy@std@@@std@@@std@@QEAAXPEAU_Container_proxy@2@_K@Z DD 025053401H
	DD	0118231dH
	DD	07011001dH
	DD	05010H
xdata	ENDS
;	COMDAT xdata
xdata	SEGMENT
$unwind$?allocate@?$_Wrap_alloc@V?$allocator@U_Container_proxy@std@@@std@@@std@@QEAAPEAU_Container_proxy@2@_K@Z DD 025052f01H
	DD	01132318H
	DD	0700c001dH
	DD	0500bH
xdata	ENDS
;	COMDAT xdata
xdata	SEGMENT
$unwind$?allocate@?$allocator@U_Container_proxy@std@@@std@@QEAAPEAU_Container_proxy@2@_K@Z DD 025052f01H
	DD	01132318H
	DD	0700c001dH
	DD	0500bH
xdata	ENDS
;	COMDAT xdata
xdata	SEGMENT
$unwind$?deallocate@?$allocator@U_Container_proxy@std@@@std@@QEAAXPEAU_Container_proxy@2@_K@Z DD 025053401H
	DD	0118231dH
	DD	07011001dH
	DD	05010H
xdata	ENDS
;	COMDAT xdata
xdata	SEGMENT
$unwind$??$construct@PEADAEAPEAD@?$_Wrap_alloc@V?$allocator@D@std@@@std@@QEAAXPEAPEADAEAPEAD@Z DD 025053401H
	DD	0118231dH
	DD	07011001dH
	DD	05010H
xdata	ENDS
;	COMDAT xdata
xdata	SEGMENT
$unwind$??$_Debug_pointer_if@$$CBD@std@@YAX_NPEBDPEBGI@Z DD 025053801H
	DD	011c2321H
	DD	07015001dH
	DD	05014H
xdata	ENDS
;	COMDAT xdata
xdata	SEGMENT
$unwind$??$addressof@D@std@@YAPEADAEAD@Z DD 025052a01H
	DD	010e2313H
	DD	070070025H
	DD	05006H
xdata	ENDS
;	COMDAT xdata
xdata	SEGMENT
$unwind$??$destroy@PEAD@?$_Wrap_alloc@V?$allocator@D@std@@@std@@QEAAXPEAPEAD@Z DD 025052f01H
	DD	01132318H
	DD	0700c001dH
	DD	0500bH
xdata	ENDS
;	COMDAT xdata
xdata	SEGMENT
$unwind$??$?0AEBV?$allocator@D@std@@$$V@?$_Compressed_pair@U?$_Wrap_alloc@V?$allocator@D@std@@@std@@V?$_String_val@U?$_Simple_types@D@std@@@2@$00@std@@QEAA@U_One_then_variadic_args_t@1@AEBV?$allocator@D@1@@Z DD 025053301H
	DD	0117231cH
	DD	07010001dH
	DD	0500fH
xdata	ENDS
;	COMDAT xdata
xdata	SEGMENT
$unwind$??$?0V?$allocator@D@std@@$$V@?$_Compressed_pair@U?$_Wrap_alloc@V?$allocator@D@std@@@std@@V?$_String_val@U?$_Simple_types@D@std@@@2@$00@std@@QEAA@U_One_then_variadic_args_t@1@$$QEAV?$allocator@D@1@@Z DD 025053301H
	DD	0117231cH
	DD	07010001dH
	DD	0500fH
xdata	ENDS
;	COMDAT xdata
xdata	SEGMENT
$unwind$??$move@AEAV?$allocator@D@std@@@std@@YA$$QEAV?$allocator@D@0@AEAV10@@Z DD 05052801H
	DD	010e0311H
	DD	070070019H
	DD	05006H
xdata	ENDS
;	COMDAT xdata
xdata	SEGMENT
$unwind$??$_Debug_pointer@$$CBD@std@@YAXPEBDPEBGI@Z DD 025053401H
	DD	0118231dH
	DD	07011001dH
	DD	05010H
xdata	ENDS
;	COMDAT xdata
xdata	SEGMENT
$unwind$??$pow@HH@@YANHH@Z DD 035052c01H
	DD	01113316H
	DD	0700a0021H
	DD	05009H
xdata	ENDS
;	COMDAT xdata
xdata	SEGMENT
$unwind$?MessageHandler@Cy@@YA_JPEAUHWND__@@I_K_J@Z DD 025053801H
	DD	011c2321H
	DD	07015002dH
	DD	05014H
xdata	ENDS
;	COMDAT xdata
xdata	SEGMENT
$unwind$?WindowsSleep@Windows@@YAXI@Z DD 025052801H
	DD	010d2312H
	DD	07006001dH
	DD	05005H
xdata	ENDS
;	COMDAT xdata
xdata	SEGMENT
$unwind$?SafeTruncate@Cy@@YAH_J@Z DD 025052a01H
	DD	010e2313H
	DD	07007003dH
	DD	05006H
xdata	ENDS
;	COMDAT xdata
xdata	SEGMENT
$unwind$?SafeTruncate@Cy@@YAI_K@Z DD 025052a01H
	DD	010e2313H
	DD	07007002dH
	DD	05006H
xdata	ENDS
;	COMDAT xdata
xdata	SEGMENT
$unwind$?catch$0@?0???$?5DU?$char_traits@D@std@@@std@@YAAEAV?$basic_istream@DU?$char_traits@D@std@@@0@AEAV10@AEAD@Z@4HA DD 031019H
	DD	0700c4210H
	DD	0500bH
	DD	imagerel __CxxFrameHandler3
	DD	imagerel $cppxdata$??$?5DU?$char_traits@D@std@@@std@@YAAEAV?$basic_istream@DU?$char_traits@D@std@@@0@AEAV10@AEAD@Z
xdata	ENDS
;	COMDAT xdata
xdata	SEGMENT
$unwind$?dtor$0@?0???$?5DU?$char_traits@D@std@@@std@@YAAEAV?$basic_istream@DU?$char_traits@D@std@@@0@AEAV10@AEAD@Z@4HA DD 031001H
	DD	0700c4210H
	DD	0500bH
xdata	ENDS
;	COMDAT xdata
xdata	SEGMENT
$ip2state$??$?5DU?$char_traits@D@std@@@std@@YAAEAV?$basic_istream@DU?$char_traits@D@std@@@0@AEAV10@AEAD@Z DD imagerel ??$?5DU?$char_traits@D@std@@@std@@YAAEAV?$basic_istream@DU?$char_traits@D@std@@@0@AEAV10@AEAD@Z
	DD	0ffffffffH
	DD	imagerel ??$?5DU?$char_traits@D@std@@@std@@YAAEAV?$basic_istream@DU?$char_traits@D@std@@@0@AEAV10@AEAD@Z+102
	DD	00H
	DD	imagerel ??$?5DU?$char_traits@D@std@@@std@@YAAEAV?$basic_istream@DU?$char_traits@D@std@@@0@AEAV10@AEAD@Z+122
	DD	01H
	DD	imagerel ??$?5DU?$char_traits@D@std@@@std@@YAAEAV?$basic_istream@DU?$char_traits@D@std@@@0@AEAV10@AEAD@Z+256
	DD	00H
	DD	imagerel ??$?5DU?$char_traits@D@std@@@std@@YAAEAV?$basic_istream@DU?$char_traits@D@std@@@0@AEAV10@AEAD@Z+314
	DD	0ffffffffH
	DD	imagerel ?catch$0@?0???$?5DU?$char_traits@D@std@@@std@@YAAEAV?$basic_istream@DU?$char_traits@D@std@@@0@AEAV10@AEAD@Z@4HA
	DD	00H
	DD	imagerel ?catch$0@?0???$?5DU?$char_traits@D@std@@@std@@YAAEAV?$basic_istream@DU?$char_traits@D@std@@@0@AEAV10@AEAD@Z@4HA+20
	DD	02H
	DD	imagerel ?catch$0@?0???$?5DU?$char_traits@D@std@@@std@@YAAEAV?$basic_istream@DU?$char_traits@D@std@@@0@AEAV10@AEAD@Z@4HA+65
	DD	00H
xdata	ENDS
;	COMDAT xdata
xdata	SEGMENT
$handlerMap$0$??$?5DU?$char_traits@D@std@@@std@@YAAEAV?$basic_istream@DU?$char_traits@D@std@@@0@AEAV10@AEAD@Z DD 040H
	DD	00H
	DD	00H
	DD	imagerel ?catch$0@?0???$?5DU?$char_traits@D@std@@@std@@YAAEAV?$basic_istream@DU?$char_traits@D@std@@@0@AEAV10@AEAD@Z@4HA
	DD	048H
xdata	ENDS
;	COMDAT xdata
xdata	SEGMENT
$tryMap$??$?5DU?$char_traits@D@std@@@std@@YAAEAV?$basic_istream@DU?$char_traits@D@std@@@0@AEAV10@AEAD@Z DD 01H
	DD	01H
	DD	02H
	DD	01H
	DD	imagerel $handlerMap$0$??$?5DU?$char_traits@D@std@@@std@@YAAEAV?$basic_istream@DU?$char_traits@D@std@@@0@AEAV10@AEAD@Z
xdata	ENDS
;	COMDAT xdata
xdata	SEGMENT
$stateUnwindMap$??$?5DU?$char_traits@D@std@@@std@@YAAEAV?$basic_istream@DU?$char_traits@D@std@@@0@AEAV10@AEAD@Z DD 0ffffffffH
	DD	imagerel ?dtor$0@?0???$?5DU?$char_traits@D@std@@@std@@YAAEAV?$basic_istream@DU?$char_traits@D@std@@@0@AEAV10@AEAD@Z@4HA
	DD	00H
	DD	00H
	DD	00H
	DD	00H
xdata	ENDS
;	COMDAT xdata
xdata	SEGMENT
$unwind$??$?5DU?$char_traits@D@std@@@std@@YAAEAV?$basic_istream@DU?$char_traits@D@std@@@0@AEAV10@AEAD@Z DD 025054b19H
	DD	01132318H
	DD	0700c0039H
	DD	0500bH
	DD	imagerel __GSHandlerCheck_EH
	DD	imagerel $cppxdata$??$?5DU?$char_traits@D@std@@@std@@YAAEAV?$basic_istream@DU?$char_traits@D@std@@@0@AEAV10@AEAD@Z
	DD	01bbH
xdata	ENDS
;	COMDAT CONST
CONST	SEGMENT
??$?5DU?$char_traits@D@std@@@std@@YAAEAV?$basic_istream@DU?$char_traits@D@std@@@0@AEAV10@AEAD@Z$rtcName$0 DB 05fH ; std::operator>><char,std::char_traits<char> >
	DB	04dH
	DB	065H
	DB	074H
	DB	061H
	DB	00H
	ORG $+2
??$?5DU?$char_traits@D@std@@@std@@YAAEAV?$basic_istream@DU?$char_traits@D@std@@@0@AEAV10@AEAD@Z$rtcName$1 DB 05fH ; std::operator>><char,std::char_traits<char> >
	DB	04fH
	DB	06bH
	DB	00H
	ORG $+4
??$?5DU?$char_traits@D@std@@@std@@YAAEAV?$basic_istream@DU?$char_traits@D@std@@@0@AEAV10@AEAD@Z$rtcVarDesc DD 068H ; std::operator>><char,std::char_traits<char> >
	DD	010H
	DQ	FLAT:??$?5DU?$char_traits@D@std@@@std@@YAAEAV?$basic_istream@DU?$char_traits@D@std@@@0@AEAV10@AEAD@Z$rtcName$1
	DD	024H
	DD	04H
	DQ	FLAT:??$?5DU?$char_traits@D@std@@@std@@YAAEAV?$basic_istream@DU?$char_traits@D@std@@@0@AEAV10@AEAD@Z$rtcName$0
	ORG $+96
??$?5DU?$char_traits@D@std@@@std@@YAAEAV?$basic_istream@DU?$char_traits@D@std@@@0@AEAV10@AEAD@Z$rtcFrameData DD 02H ; std::operator>><char,std::char_traits<char> >
	DD	00H
	DQ	FLAT:??$?5DU?$char_traits@D@std@@@std@@YAAEAV?$basic_istream@DU?$char_traits@D@std@@@0@AEAV10@AEAD@Z$rtcVarDesc
$cppxdata$??$?5DU?$char_traits@D@std@@@std@@YAAEAV?$basic_istream@DU?$char_traits@D@std@@@0@AEAV10@AEAD@Z DD 019930522H
	DD	03H
	DD	imagerel $stateUnwindMap$??$?5DU?$char_traits@D@std@@@std@@YAAEAV?$basic_istream@DU?$char_traits@D@std@@@0@AEAV10@AEAD@Z
	DD	01H
	DD	imagerel $tryMap$??$?5DU?$char_traits@D@std@@@std@@YAAEAV?$basic_istream@DU?$char_traits@D@std@@@0@AEAV10@AEAD@Z
	DD	08H
	DD	imagerel $ip2state$??$?5DU?$char_traits@D@std@@@std@@YAAEAV?$basic_istream@DU?$char_traits@D@std@@@0@AEAV10@AEAD@Z
	DD	0198H
	DD	00H
	DD	01H
CONST	ENDS
;	COMDAT xdata
xdata	SEGMENT
$unwind$?dtor$0@?0??Assert@Cy@@YAX_NV?$basic_string@DU?$char_traits@D@std@@V?$allocator@D@2@@std@@@Z@4HA DD 031001H
	DD	0700c4210H
	DD	0500bH
xdata	ENDS
;	COMDAT xdata
xdata	SEGMENT
$ip2state$?Assert@Cy@@YAX_NV?$basic_string@DU?$char_traits@D@std@@V?$allocator@D@2@@std@@@Z DD imagerel ?Assert@Cy@@YAX_NV?$basic_string@DU?$char_traits@D@std@@V?$allocator@D@2@@std@@@Z
	DD	0ffffffffH
	DD	imagerel ?Assert@Cy@@YAX_NV?$basic_string@DU?$char_traits@D@std@@V?$allocator@D@2@@std@@@Z+74
	DD	00H
	DD	imagerel ?Assert@Cy@@YAX_NV?$basic_string@DU?$char_traits@D@std@@V?$allocator@D@2@@std@@@Z+189
	DD	0ffffffffH
xdata	ENDS
;	COMDAT xdata
xdata	SEGMENT
$stateUnwindMap$?Assert@Cy@@YAX_NV?$basic_string@DU?$char_traits@D@std@@V?$allocator@D@2@@std@@@Z DD 0ffffffffH
	DD	imagerel ?dtor$0@?0??Assert@Cy@@YAX_NV?$basic_string@DU?$char_traits@D@std@@V?$allocator@D@2@@std@@@Z@4HA
xdata	ENDS
;	COMDAT xdata
xdata	SEGMENT
$unwind$?Assert@Cy@@YAX_NV?$basic_string@DU?$char_traits@D@std@@V?$allocator@D@2@@std@@@Z DD 025054a19H
	DD	01122317H
	DD	0700b0037H
	DD	0500aH
	DD	imagerel __GSHandlerCheck_EH
	DD	imagerel $cppxdata$?Assert@Cy@@YAX_NV?$basic_string@DU?$char_traits@D@std@@V?$allocator@D@2@@std@@@Z
	DD	01a2H
xdata	ENDS
;	COMDAT CONST
CONST	SEGMENT
?Assert@Cy@@YAX_NV?$basic_string@DU?$char_traits@D@std@@V?$allocator@D@2@@std@@@Z$rtcName$0 DB 078H ; Cy::Assert
	DB	00H
	ORG $+14
?Assert@Cy@@YAX_NV?$basic_string@DU?$char_traits@D@std@@V?$allocator@D@2@@std@@@Z$rtcVarDesc DD 024H ; Cy::Assert
	DD	01H
	DQ	FLAT:?Assert@Cy@@YAX_NV?$basic_string@DU?$char_traits@D@std@@V?$allocator@D@2@@std@@@Z$rtcName$0
	ORG $+48
?Assert@Cy@@YAX_NV?$basic_string@DU?$char_traits@D@std@@V?$allocator@D@2@@std@@@Z$rtcFrameData DD 01H ; Cy::Assert
	DD	00H
	DQ	FLAT:?Assert@Cy@@YAX_NV?$basic_string@DU?$char_traits@D@std@@V?$allocator@D@2@@std@@@Z$rtcVarDesc
$cppxdata$?Assert@Cy@@YAX_NV?$basic_string@DU?$char_traits@D@std@@V?$allocator@D@2@@std@@@Z DD 019930522H
	DD	01H
	DD	imagerel $stateUnwindMap$?Assert@Cy@@YAX_NV?$basic_string@DU?$char_traits@D@std@@V?$allocator@D@2@@std@@@Z
	DD	00H
	DD	00H
	DD	03H
	DD	imagerel $ip2state$?Assert@Cy@@YAX_NV?$basic_string@DU?$char_traits@D@std@@V?$allocator@D@2@@std@@@Z
	DD	0188H
	DD	00H
	DD	01H
CONST	ENDS
;	COMDAT xdata
xdata	SEGMENT
$unwind$?dtor$0@?0??Message@Cy@@YAXV?$basic_string@DU?$char_traits@D@std@@V?$allocator@D@2@@std@@@Z@4HA DD 031001H
	DD	0700c4210H
	DD	0500bH
xdata	ENDS
;	COMDAT xdata
xdata	SEGMENT
$ip2state$?Message@Cy@@YAXV?$basic_string@DU?$char_traits@D@std@@V?$allocator@D@2@@std@@@Z DD imagerel ?Message@Cy@@YAXV?$basic_string@DU?$char_traits@D@std@@V?$allocator@D@2@@std@@@Z
	DD	0ffffffffH
	DD	imagerel ?Message@Cy@@YAXV?$basic_string@DU?$char_traits@D@std@@V?$allocator@D@2@@std@@@Z+53
	DD	00H
	DD	imagerel ?Message@Cy@@YAXV?$basic_string@DU?$char_traits@D@std@@V?$allocator@D@2@@std@@@Z+121
	DD	0ffffffffH
xdata	ENDS
;	COMDAT xdata
xdata	SEGMENT
$stateUnwindMap$?Message@Cy@@YAXV?$basic_string@DU?$char_traits@D@std@@V?$allocator@D@2@@std@@@Z DD 0ffffffffH
	DD	imagerel ?dtor$0@?0??Message@Cy@@YAXV?$basic_string@DU?$char_traits@D@std@@V?$allocator@D@2@@std@@@Z@4HA
xdata	ENDS
;	COMDAT CONST
CONST	SEGMENT
$cppxdata$?Message@Cy@@YAXV?$basic_string@DU?$char_traits@D@std@@V?$allocator@D@2@@std@@@Z DD 019930522H
	DD	01H
	DD	imagerel $stateUnwindMap$?Message@Cy@@YAXV?$basic_string@DU?$char_traits@D@std@@V?$allocator@D@2@@std@@@Z
	DD	00H
	DD	00H
	DD	03H
	DD	imagerel $ip2state$?Message@Cy@@YAXV?$basic_string@DU?$char_traits@D@std@@V?$allocator@D@2@@std@@@Z
	DD	0e8H
	DD	00H
	DD	01H
CONST	ENDS
;	COMDAT xdata
xdata	SEGMENT
$unwind$?Message@Cy@@YAXV?$basic_string@DU?$char_traits@D@std@@V?$allocator@D@2@@std@@@Z DD 025053511H
	DD	010e2313H
	DD	070070021H
	DD	05006H
	DD	imagerel __CxxFrameHandler3
	DD	imagerel $cppxdata$?Message@Cy@@YAXV?$basic_string@DU?$char_traits@D@std@@V?$allocator@D@2@@std@@@Z
xdata	ENDS
;	COMDAT xdata
xdata	SEGMENT
$unwind$?DestroyTimerInfo@Cy@@YAXPEAUTimerInfo@1@@Z DD 025052a01H
	DD	010e2313H
	DD	07007001dH
	DD	05006H
xdata	ENDS
;	COMDAT xdata
xdata	SEGMENT
$unwind$?Tock@Cy@@YAXPEAUTimerInfo@1@@Z DD 025052a01H
	DD	010e2313H
	DD	070070021H
	DD	05006H
xdata	ENDS
;	COMDAT xdata
xdata	SEGMENT
$unwind$?Tick@Cy@@YAXPEAUTimerInfo@1@@Z DD 025052a01H
	DD	010e2313H
	DD	07007001dH
	DD	05006H
xdata	ENDS
;	COMDAT xdata
xdata	SEGMENT
$unwind$?Sleep@Cy@@YAXPEAUTimerInfo@1@H@Z DD 025052e01H
	DD	01122317H
	DD	0700b0029H
	DD	0500aH
xdata	ENDS
;	COMDAT xdata
xdata	SEGMENT
$unwind$?GetClockCount@Cy@@YA_JXZ DD 025052f19H
	DD	010a230fH
	DD	070030021H
	DD	05002H
	DD	imagerel __GSHandlerCheck
	DD	0f8H
xdata	ENDS
;	COMDAT CONST
CONST	SEGMENT
?GetClockCount@Cy@@YA_JXZ$rtcName$0 DB 063H		; Cy::GetClockCount
	DB	06cH
	DB	06fH
	DB	063H
	DB	06bH
	DB	043H
	DB	06fH
	DB	075H
	DB	06eH
	DB	074H
	DB	00H
	ORG $+5
?GetClockCount@Cy@@YA_JXZ$rtcVarDesc DD 028H		; Cy::GetClockCount
	DD	08H
	DQ	FLAT:?GetClockCount@Cy@@YA_JXZ$rtcName$0
	ORG $+48
?GetClockCount@Cy@@YA_JXZ$rtcFrameData DD 01H		; Cy::GetClockCount
	DD	00H
	DQ	FLAT:?GetClockCount@Cy@@YA_JXZ$rtcVarDesc
CONST	ENDS
;	COMDAT xdata
xdata	SEGMENT
$unwind$?GetAvgFps@Cy@@YA_KPEBUTimerInfo@1@@Z DD 05052801H
	DD	010e0311H
	DD	070070021H
	DD	05006H
xdata	ENDS
;	COMDAT xdata
xdata	SEGMENT
$unwind$?NewTimerInfo@Cy@@YA?AUTimerInfo@1@XZ DD 025063c19H
	DD	010f2314H
	DD	070080034H
	DD	050066007H
	DD	imagerel __GSHandlerCheck
	DD	0198H
xdata	ENDS
;	COMDAT CONST
CONST	SEGMENT
?NewTimerInfo@Cy@@YA?AUTimerInfo@1@XZ$rtcName$0 DB 074H	; Cy::NewTimerInfo
	DB	069H
	DB	06dH
	DB	065H
	DB	072H
	DB	049H
	DB	06eH
	DB	066H
	DB	06fH
	DB	00H
	ORG $+6
?NewTimerInfo@Cy@@YA?AUTimerInfo@1@XZ$rtcName$1 DB 063H	; Cy::NewTimerInfo
	DB	06cH
	DB	06fH
	DB	063H
	DB	06bH
	DB	073H
	DB	050H
	DB	065H
	DB	072H
	DB	053H
	DB	065H
	DB	063H
	DB	00H
	ORG $+3
?NewTimerInfo@Cy@@YA?AUTimerInfo@1@XZ$rtcName$2 DB 074H	; Cy::NewTimerInfo
	DB	069H
	DB	06dH
	DB	065H
	DB	043H
	DB	061H
	DB	070H
	DB	073H
	DB	00H
	ORG $+7
?NewTimerInfo@Cy@@YA?AUTimerInfo@1@XZ$rtcVarDesc DD 0c8H ; Cy::NewTimerInfo
	DD	08H
	DQ	FLAT:?NewTimerInfo@Cy@@YA?AUTimerInfo@1@XZ$rtcName$2
	DD	0a8H
	DD	08H
	DQ	FLAT:?NewTimerInfo@Cy@@YA?AUTimerInfo@1@XZ$rtcName$1
	DD	030H
	DD	058H
	DQ	FLAT:?NewTimerInfo@Cy@@YA?AUTimerInfo@1@XZ$rtcName$0
	ORG $+144
?NewTimerInfo@Cy@@YA?AUTimerInfo@1@XZ$rtcFrameData DD 03H ; Cy::NewTimerInfo
	DD	00H
	DQ	FLAT:?NewTimerInfo@Cy@@YA?AUTimerInfo@1@XZ$rtcVarDesc
CONST	ENDS
;	COMDAT xdata
xdata	SEGMENT
$unwind$?DestroyWindowInfo@Cy@@YAXPEAUWindowInfo@1@@Z DD 025052a01H
	DD	010e2313H
	DD	07007001dH
	DD	05006H
xdata	ENDS
;	COMDAT xdata
xdata	SEGMENT
$unwind$?dtor$0@?0??OpenFile@Cy@@YA?AUFile@1@V?$basic_string@DU?$char_traits@D@std@@V?$allocator@D@2@@std@@@Z@4HA DD 031001H
	DD	0700c4210H
	DD	0500bH
xdata	ENDS
;	COMDAT xdata
xdata	SEGMENT
$ip2state$?OpenFile@Cy@@YA?AUFile@1@V?$basic_string@DU?$char_traits@D@std@@V?$allocator@D@2@@std@@@Z DD imagerel ?OpenFile@Cy@@YA?AUFile@1@V?$basic_string@DU?$char_traits@D@std@@V?$allocator@D@2@@std@@@Z
	DD	0ffffffffH
	DD	imagerel ?OpenFile@Cy@@YA?AUFile@1@V?$basic_string@DU?$char_traits@D@std@@V?$allocator@D@2@@std@@@Z+76
	DD	00H
	DD	imagerel ?OpenFile@Cy@@YA?AUFile@1@V?$basic_string@DU?$char_traits@D@std@@V?$allocator@D@2@@std@@@Z+527
	DD	0ffffffffH
xdata	ENDS
;	COMDAT xdata
xdata	SEGMENT
$stateUnwindMap$?OpenFile@Cy@@YA?AUFile@1@V?$basic_string@DU?$char_traits@D@std@@V?$allocator@D@2@@std@@@Z DD 0ffffffffH
	DD	imagerel ?dtor$0@?0??OpenFile@Cy@@YA?AUFile@1@V?$basic_string@DU?$char_traits@D@std@@V?$allocator@D@2@@std@@@Z@4HA
xdata	ENDS
;	COMDAT xdata
xdata	SEGMENT
$unwind$?OpenFile@Cy@@YA?AUFile@1@V?$basic_string@DU?$char_traits@D@std@@V?$allocator@D@2@@std@@@Z DD 045064c19H
	DD	01144319H
	DD	0700d005aH
	DD	0500b600cH
	DD	imagerel __GSHandlerCheck_EH
	DD	imagerel $cppxdata$?OpenFile@Cy@@YA?AUFile@1@V?$basic_string@DU?$char_traits@D@std@@V?$allocator@D@2@@std@@@Z
	DD	02c2H
xdata	ENDS
;	COMDAT CONST
CONST	SEGMENT
?OpenFile@Cy@@YA?AUFile@1@V?$basic_string@DU?$char_traits@D@std@@V?$allocator@D@2@@std@@@Z$rtcName$0 DB 066H ; Cy::OpenFile
	DB	069H
	DB	06cH
	DB	065H
	DB	00H
	ORG $+3
?OpenFile@Cy@@YA?AUFile@1@V?$basic_string@DU?$char_traits@D@std@@V?$allocator@D@2@@std@@@Z$rtcName$1 DB 066H ; Cy::OpenFile
	DB	069H
	DB	06cH
	DB	065H
	DB	053H
	DB	069H
	DB	07aH
	DB	065H
	DB	00H
	ORG $+7
?OpenFile@Cy@@YA?AUFile@1@V?$basic_string@DU?$char_traits@D@std@@V?$allocator@D@2@@std@@@Z$rtcName$2 DB 062H ; Cy::OpenFile
	DB	079H
	DB	074H
	DB	065H
	DB	073H
	DB	052H
	DB	065H
	DB	061H
	DB	064H
	DB	00H
	ORG $+14
?OpenFile@Cy@@YA?AUFile@1@V?$basic_string@DU?$char_traits@D@std@@V?$allocator@D@2@@std@@@Z$rtcVarDesc DD 0d4H ; Cy::OpenFile
	DD	04H
	DQ	FLAT:?OpenFile@Cy@@YA?AUFile@1@V?$basic_string@DU?$char_traits@D@std@@V?$allocator@D@2@@std@@@Z$rtcName$2
	DD	098H
	DD	08H
	DQ	FLAT:?OpenFile@Cy@@YA?AUFile@1@V?$basic_string@DU?$char_traits@D@std@@V?$allocator@D@2@@std@@@Z$rtcName$1
	DD	048H
	DD	010H
	DQ	FLAT:?OpenFile@Cy@@YA?AUFile@1@V?$basic_string@DU?$char_traits@D@std@@V?$allocator@D@2@@std@@@Z$rtcName$0
	ORG $+144
?OpenFile@Cy@@YA?AUFile@1@V?$basic_string@DU?$char_traits@D@std@@V?$allocator@D@2@@std@@@Z$rtcFrameData DD 03H ; Cy::OpenFile
	DD	00H
	DQ	FLAT:?OpenFile@Cy@@YA?AUFile@1@V?$basic_string@DU?$char_traits@D@std@@V?$allocator@D@2@@std@@@Z$rtcVarDesc
$cppxdata$?OpenFile@Cy@@YA?AUFile@1@V?$basic_string@DU?$char_traits@D@std@@V?$allocator@D@2@@std@@@Z DD 019930522H
	DD	01H
	DD	imagerel $stateUnwindMap$?OpenFile@Cy@@YA?AUFile@1@V?$basic_string@DU?$char_traits@D@std@@V?$allocator@D@2@@std@@@Z
	DD	00H
	DD	00H
	DD	03H
	DD	imagerel $ip2state$?OpenFile@Cy@@YA?AUFile@1@V?$basic_string@DU?$char_traits@D@std@@V?$allocator@D@2@@std@@@Z
	DD	02a8H
	DD	00H
	DD	01H
CONST	ENDS
;	COMDAT xdata
xdata	SEGMENT
$unwind$?NewWindowInfo@Cy@@YA?AUWindowInfo@1@PEBDPEAXII@Z DD 065064b19H
	DD	011e6323H
	DD	070170064H
	DD	050156016H
	DD	imagerel __GSHandlerCheck
	DD	0310H
xdata	ENDS
;	COMDAT CONST
CONST	SEGMENT
?NewWindowInfo@Cy@@YA?AUWindowInfo@1@PEBDPEAXII@Z$rtcName$0 DB 077H ; Cy::NewWindowInfo
	DB	069H
	DB	06eH
	DB	064H
	DB	06fH
	DB	077H
	DB	049H
	DB	06eH
	DB	066H
	DB	06fH
	DB	00H
	ORG $+1
?NewWindowInfo@Cy@@YA?AUWindowInfo@1@PEBDPEAXII@Z$rtcName$1 DB 077H ; Cy::NewWindowInfo
	DB	063H
	DB	00H
	ORG $+1
?NewWindowInfo@Cy@@YA?AUWindowInfo@1@PEBDPEAXII@Z$rtcVarDesc DD 0b0H ; Cy::NewWindowInfo
	DD	048H
	DQ	FLAT:?NewWindowInfo@Cy@@YA?AUWindowInfo@1@PEBDPEAXII@Z$rtcName$1
	DD	068H
	DD	020H
	DQ	FLAT:?NewWindowInfo@Cy@@YA?AUWindowInfo@1@PEBDPEAXII@Z$rtcName$0
	ORG $+96
?NewWindowInfo@Cy@@YA?AUWindowInfo@1@PEBDPEAXII@Z$rtcFrameData DD 02H ; Cy::NewWindowInfo
	DD	00H
	DQ	FLAT:?NewWindowInfo@Cy@@YA?AUWindowInfo@1@PEBDPEAXII@Z$rtcVarDesc
CONST	ENDS
;	COMDAT xdata
xdata	SEGMENT
$unwind$?NewInputInfo@Cy@@YA?AUInputInfo@1@PEBUWindowInfo@1@@Z DD 025064119H
	DD	01142319H
	DD	0700d0048H
	DD	0500b600cH
	DD	imagerel __GSHandlerCheck
	DD	0238H
xdata	ENDS
;	COMDAT CONST
CONST	SEGMENT
?NewInputInfo@Cy@@YA?AUInputInfo@1@PEBUWindowInfo@1@@Z$rtcName$0 DB 069H ; Cy::NewInputInfo
	DB	049H
	DB	06eH
	DB	066H
	DB	06fH
	DB	00H
	ORG $+10
?NewInputInfo@Cy@@YA?AUInputInfo@1@PEBUWindowInfo@1@@Z$rtcVarDesc DD 030H ; Cy::NewInputInfo
	DD	088H
	DQ	FLAT:?NewInputInfo@Cy@@YA?AUInputInfo@1@PEBUWindowInfo@1@@Z$rtcName$0
	ORG $+48
?NewInputInfo@Cy@@YA?AUInputInfo@1@PEBUWindowInfo@1@@Z$rtcFrameData DD 01H ; Cy::NewInputInfo
	DD	00H
	DQ	FLAT:?NewInputInfo@Cy@@YA?AUInputInfo@1@PEBUWindowInfo@1@@Z$rtcVarDesc
CONST	ENDS
;	COMDAT xdata
xdata	SEGMENT
$unwind$??0InputInfo@Cy@@QEAA@$$QEAU01@@Z DD 025063001H
	DD	01142319H
	DD	0700d001cH
	DD	0500b600cH
xdata	ENDS
;	COMDAT xdata
xdata	SEGMENT
$unwind$?_Xran@?$basic_string@DU?$char_traits@D@std@@V?$allocator@D@2@@std@@QEBAXXZ DD 025052a01H
	DD	010e2313H
	DD	07007001dH
	DD	05006H
xdata	ENDS
;	COMDAT xdata
xdata	SEGMENT
$unwind$?_Xlen@?$basic_string@DU?$char_traits@D@std@@V?$allocator@D@2@@std@@QEBAXXZ DD 025052a01H
	DD	010e2313H
	DD	07007001dH
	DD	05006H
xdata	ENDS
;	COMDAT xdata
xdata	SEGMENT
$unwind$?_Tidy@?$basic_string@DU?$char_traits@D@std@@V?$allocator@D@2@@std@@QEAAX_N_K@Z DD 025053301H
	DD	0117231cH
	DD	070100021H
	DD	0500fH
xdata	ENDS
;	COMDAT xdata
xdata	SEGMENT
$unwind$?_Inside@?$basic_string@DU?$char_traits@D@std@@V?$allocator@D@2@@std@@QEAA_NPEBD@Z DD 025052f01H
	DD	01132318H
	DD	0700c001fH
	DD	0500bH
xdata	ENDS
;	COMDAT xdata
xdata	SEGMENT
$unwind$?_Grow@?$basic_string@DU?$char_traits@D@std@@V?$allocator@D@2@@std@@QEAA_N_K_N@Z DD 025053401H
	DD	0118231dH
	DD	07011001fH
	DD	05010H
xdata	ENDS
;	COMDAT xdata
xdata	SEGMENT
$unwind$?_Eos@?$basic_string@DU?$char_traits@D@std@@V?$allocator@D@2@@std@@QEAAX_K@Z DD 025052f01H
	DD	01132318H
	DD	0700c0021H
	DD	0500bH
xdata	ENDS
;	COMDAT xdata
xdata	SEGMENT
$unwind$?catch$0@?0??_Copy@?$basic_string@DU?$char_traits@D@std@@V?$allocator@D@2@@std@@QEAAX_K0@Z@4HA DD 031019H
	DD	0700c4210H
	DD	0500bH
	DD	imagerel __CxxFrameHandler3
	DD	imagerel $cppxdata$?_Copy@?$basic_string@DU?$char_traits@D@std@@V?$allocator@D@2@@std@@QEAAX_K0@Z
xdata	ENDS
;	COMDAT xdata
xdata	SEGMENT
$unwind$?catch$1@?0??_Copy@?$basic_string@DU?$char_traits@D@std@@V?$allocator@D@2@@std@@QEAAX_K0@Z@4HA DD 031019H
	DD	0700c4210H
	DD	0500bH
	DD	imagerel __CxxFrameHandler3
	DD	imagerel $cppxdata$?_Copy@?$basic_string@DU?$char_traits@D@std@@V?$allocator@D@2@@std@@QEAAX_K0@Z
xdata	ENDS
;	COMDAT xdata
xdata	SEGMENT
$ip2state$?_Copy@?$basic_string@DU?$char_traits@D@std@@V?$allocator@D@2@@std@@QEAAX_K0@Z DD imagerel ?_Copy@?$basic_string@DU?$char_traits@D@std@@V?$allocator@D@2@@std@@QEAAX_K0@Z
	DD	0ffffffffH
	DD	imagerel ?_Copy@?$basic_string@DU?$char_traits@D@std@@V?$allocator@D@2@@std@@QEAAX_K0@Z+356
	DD	00H
	DD	imagerel ?_Copy@?$basic_string@DU?$char_traits@D@std@@V?$allocator@D@2@@std@@QEAAX_K0@Z+418
	DD	0ffffffffH
	DD	imagerel ?catch$1@?0??_Copy@?$basic_string@DU?$char_traits@D@std@@V?$allocator@D@2@@std@@QEAAX_K0@Z@4HA
	DD	00H
	DD	imagerel ?catch$1@?0??_Copy@?$basic_string@DU?$char_traits@D@std@@V?$allocator@D@2@@std@@QEAAX_K0@Z@4HA+20
	DD	01H
	DD	imagerel ?catch$1@?0??_Copy@?$basic_string@DU?$char_traits@D@std@@V?$allocator@D@2@@std@@QEAAX_K0@Z@4HA+31
	DD	02H
	DD	imagerel ?catch$1@?0??_Copy@?$basic_string@DU?$char_traits@D@std@@V?$allocator@D@2@@std@@QEAAX_K0@Z@4HA+93
	DD	01H
	DD	imagerel ?catch$1@?0??_Copy@?$basic_string@DU?$char_traits@D@std@@V?$allocator@D@2@@std@@QEAAX_K0@Z@4HA+95
	DD	00H
	DD	imagerel ?catch$0@?0??_Copy@?$basic_string@DU?$char_traits@D@std@@V?$allocator@D@2@@std@@QEAAX_K0@Z@4HA+20
	DD	03H
	DD	imagerel ?catch$0@?0??_Copy@?$basic_string@DU?$char_traits@D@std@@V?$allocator@D@2@@std@@QEAAX_K0@Z@4HA+47
	DD	00H
xdata	ENDS
;	COMDAT xdata
xdata	SEGMENT
$handlerMap$1$?_Copy@?$basic_string@DU?$char_traits@D@std@@V?$allocator@D@2@@std@@QEAAX_K0@Z DD 040H
	DD	00H
	DD	00H
	DD	imagerel ?catch$0@?0??_Copy@?$basic_string@DU?$char_traits@D@std@@V?$allocator@D@2@@std@@QEAAX_K0@Z@4HA
	DD	048H
xdata	ENDS
;	COMDAT xdata
xdata	SEGMENT
$handlerMap$0$?_Copy@?$basic_string@DU?$char_traits@D@std@@V?$allocator@D@2@@std@@QEAAX_K0@Z DD 040H
	DD	00H
	DD	00H
	DD	imagerel ?catch$1@?0??_Copy@?$basic_string@DU?$char_traits@D@std@@V?$allocator@D@2@@std@@QEAAX_K0@Z@4HA
	DD	048H
xdata	ENDS
;	COMDAT xdata
xdata	SEGMENT
$tryMap$?_Copy@?$basic_string@DU?$char_traits@D@std@@V?$allocator@D@2@@std@@QEAAX_K0@Z DD 00H
	DD	00H
	DD	03H
	DD	01H
	DD	imagerel $handlerMap$0$?_Copy@?$basic_string@DU?$char_traits@D@std@@V?$allocator@D@2@@std@@QEAAX_K0@Z
	DD	02H
	DD	02H
	DD	03H
	DD	01H
	DD	imagerel $handlerMap$1$?_Copy@?$basic_string@DU?$char_traits@D@std@@V?$allocator@D@2@@std@@QEAAX_K0@Z
xdata	ENDS
;	COMDAT xdata
xdata	SEGMENT
$stateUnwindMap$?_Copy@?$basic_string@DU?$char_traits@D@std@@V?$allocator@D@2@@std@@QEAAX_K0@Z DD 0ffffffffH
	DD	00H
	DD	0ffffffffH
	DD	00H
	DD	01H
	DD	00H
	DD	01H
	DD	00H
xdata	ENDS
;	COMDAT xdata
xdata	SEGMENT
$unwind$?_Copy@?$basic_string@DU?$char_traits@D@std@@V?$allocator@D@2@@std@@QEAAX_K0@Z DD 025055019H
	DD	0118231dH
	DD	07011002bH
	DD	05010H
	DD	imagerel __GSHandlerCheck_EH
	DD	imagerel $cppxdata$?_Copy@?$basic_string@DU?$char_traits@D@std@@V?$allocator@D@2@@std@@QEAAX_K0@Z
	DD	014bH
xdata	ENDS
;	COMDAT CONST
CONST	SEGMENT
?_Copy@?$basic_string@DU?$char_traits@D@std@@V?$allocator@D@2@@std@@QEAAX_K0@Z$rtcName$0 DB 05fH ; std::basic_string<char,std::char_traits<char>,std::allocator<char> >::_Copy
	DB	050H
	DB	074H
	DB	072H
	DB	00H
	ORG $+11
?_Copy@?$basic_string@DU?$char_traits@D@std@@V?$allocator@D@2@@std@@QEAAX_K0@Z$rtcVarDesc DD 048H ; std::basic_string<char,std::char_traits<char>,std::allocator<char> >::_Copy
	DD	08H
	DQ	FLAT:?_Copy@?$basic_string@DU?$char_traits@D@std@@V?$allocator@D@2@@std@@QEAAX_K0@Z$rtcName$0
	ORG $+48
?_Copy@?$basic_string@DU?$char_traits@D@std@@V?$allocator@D@2@@std@@QEAAX_K0@Z$rtcFrameData DD 01H ; std::basic_string<char,std::char_traits<char>,std::allocator<char> >::_Copy
	DD	00H
	DQ	FLAT:?_Copy@?$basic_string@DU?$char_traits@D@std@@V?$allocator@D@2@@std@@QEAAX_K0@Z$rtcVarDesc
$cppxdata$?_Copy@?$basic_string@DU?$char_traits@D@std@@V?$allocator@D@2@@std@@QEAAX_K0@Z DD 019930522H
	DD	04H
	DD	imagerel $stateUnwindMap$?_Copy@?$basic_string@DU?$char_traits@D@std@@V?$allocator@D@2@@std@@QEAAX_K0@Z
	DD	02H
	DD	imagerel $tryMap$?_Copy@?$basic_string@DU?$char_traits@D@std@@V?$allocator@D@2@@std@@QEAAX_K0@Z
	DD	0aH
	DD	imagerel $ip2state$?_Copy@?$basic_string@DU?$char_traits@D@std@@V?$allocator@D@2@@std@@QEAAX_K0@Z
	DD	0128H
	DD	00H
	DD	01H
CONST	ENDS
;	COMDAT xdata
xdata	SEGMENT
$unwind$?max_size@?$basic_string@DU?$char_traits@D@std@@V?$allocator@D@2@@std@@QEBA_KXZ DD 025052a01H
	DD	010e2313H
	DD	070070025H
	DD	05006H
xdata	ENDS
;	COMDAT xdata
xdata	SEGMENT
$unwind$?size@?$basic_string@DU?$char_traits@D@std@@V?$allocator@D@2@@std@@QEBA_KXZ DD 025052a01H
	DD	010e2313H
	DD	07007001dH
	DD	05006H
xdata	ENDS
;	COMDAT xdata
xdata	SEGMENT
$ip2state$?c_str@?$basic_string@DU?$char_traits@D@std@@V?$allocator@D@2@@std@@QEBAPEBDXZ DD imagerel ?c_str@?$basic_string@DU?$char_traits@D@std@@V?$allocator@D@2@@std@@QEBAPEBDXZ
	DD	0ffffffffH
xdata	ENDS
;	COMDAT CONST
CONST	SEGMENT
$cppxdata$?c_str@?$basic_string@DU?$char_traits@D@std@@V?$allocator@D@2@@std@@QEBAPEBDXZ DD 019930522H
	DD	00H
	DD	00H
	DD	00H
	DD	00H
	DD	01H
	DD	imagerel $ip2state$?c_str@?$basic_string@DU?$char_traits@D@std@@V?$allocator@D@2@@std@@QEBAPEBDXZ
	DD	0e8H
	DD	00H
	DD	05H
CONST	ENDS
;	COMDAT xdata
xdata	SEGMENT
$unwind$?c_str@?$basic_string@DU?$char_traits@D@std@@V?$allocator@D@2@@std@@QEBAPEBDXZ DD 025053519H
	DD	010e2313H
	DD	070070021H
	DD	05006H
	DD	imagerel __CxxFrameHandler3
	DD	imagerel $cppxdata$?c_str@?$basic_string@DU?$char_traits@D@std@@V?$allocator@D@2@@std@@QEBAPEBDXZ
xdata	ENDS
;	COMDAT xdata
xdata	SEGMENT
$unwind$?erase@?$basic_string@DU?$char_traits@D@std@@V?$allocator@D@2@@std@@QEAAAEAV12@_K0@Z DD 025053401H
	DD	0118231dH
	DD	070110025H
	DD	05010H
xdata	ENDS
;	COMDAT xdata
xdata	SEGMENT
$unwind$?erase@?$basic_string@DU?$char_traits@D@std@@V?$allocator@D@2@@std@@QEAAAEAV12@_K@Z DD 025052f01H
	DD	01132318H
	DD	0700c001dH
	DD	0500bH
xdata	ENDS
;	COMDAT xdata
xdata	SEGMENT
$unwind$?assign@?$basic_string@DU?$char_traits@D@std@@V?$allocator@D@2@@std@@QEAAAEAV12@PEBD@Z DD 025052f01H
	DD	01132318H
	DD	0700c001dH
	DD	0500bH
xdata	ENDS
;	COMDAT xdata
xdata	SEGMENT
$unwind$?assign@?$basic_string@DU?$char_traits@D@std@@V?$allocator@D@2@@std@@QEAAAEAV12@PEBD_K@Z DD 025053401H
	DD	0118231dH
	DD	07011001fH
	DD	05010H
xdata	ENDS
;	COMDAT xdata
xdata	SEGMENT
$unwind$?assign@?$basic_string@DU?$char_traits@D@std@@V?$allocator@D@2@@std@@QEAAAEAV12@AEBV12@_K1@Z DD 025053901H
	DD	011d2322H
	DD	070160021H
	DD	05015H
xdata	ENDS
;	COMDAT xdata
xdata	SEGMENT
$unwind$?append@?$basic_string@DU?$char_traits@D@std@@V?$allocator@D@2@@std@@QEAAAEAV12@PEBD@Z DD 025052f01H
	DD	01132318H
	DD	0700c001dH
	DD	0500bH
xdata	ENDS
;	COMDAT xdata
xdata	SEGMENT
$unwind$?append@?$basic_string@DU?$char_traits@D@std@@V?$allocator@D@2@@std@@QEAAAEAV12@PEBD_K@Z DD 025053401H
	DD	0118231dH
	DD	070110021H
	DD	05010H
xdata	ENDS
;	COMDAT xdata
xdata	SEGMENT
$unwind$?append@?$basic_string@DU?$char_traits@D@std@@V?$allocator@D@2@@std@@QEAAAEAV12@AEBV12@_K1@Z DD 025053901H
	DD	011d2322H
	DD	070160023H
	DD	05015H
xdata	ENDS
;	COMDAT xdata
xdata	SEGMENT
$unwind$??Y?$basic_string@DU?$char_traits@D@std@@V?$allocator@D@2@@std@@QEAAAEAV01@PEBD@Z DD 025052f01H
	DD	01132318H
	DD	0700c001dH
	DD	0500bH
xdata	ENDS
;	COMDAT xdata
xdata	SEGMENT
$ip2state$??1?$basic_string@DU?$char_traits@D@std@@V?$allocator@D@2@@std@@QEAA@XZ DD imagerel ??1?$basic_string@DU?$char_traits@D@std@@V?$allocator@D@2@@std@@QEAA@XZ
	DD	0ffffffffH
xdata	ENDS
;	COMDAT CONST
CONST	SEGMENT
$cppxdata$??1?$basic_string@DU?$char_traits@D@std@@V?$allocator@D@2@@std@@QEAA@XZ DD 019930522H
	DD	00H
	DD	00H
	DD	00H
	DD	00H
	DD	01H
	DD	imagerel $ip2state$??1?$basic_string@DU?$char_traits@D@std@@V?$allocator@D@2@@std@@QEAA@XZ
	DD	0e8H
	DD	00H
	DD	05H
CONST	ENDS
;	COMDAT xdata
xdata	SEGMENT
$unwind$??1?$basic_string@DU?$char_traits@D@std@@V?$allocator@D@2@@std@@QEAA@XZ DD 025053519H
	DD	010e2313H
	DD	070070021H
	DD	05006H
	DD	imagerel __CxxFrameHandler3
	DD	imagerel $cppxdata$??1?$basic_string@DU?$char_traits@D@std@@V?$allocator@D@2@@std@@QEAA@XZ
xdata	ENDS
;	COMDAT xdata
xdata	SEGMENT
$unwind$?dtor$0@?0???0?$basic_string@DU?$char_traits@D@std@@V?$allocator@D@2@@std@@QEAA@PEBD@Z@4HA DD 031001H
	DD	0700c4210H
	DD	0500bH
xdata	ENDS
;	COMDAT xdata
xdata	SEGMENT
$ip2state$??0?$basic_string@DU?$char_traits@D@std@@V?$allocator@D@2@@std@@QEAA@PEBD@Z DD imagerel ??0?$basic_string@DU?$char_traits@D@std@@V?$allocator@D@2@@std@@QEAA@PEBD@Z
	DD	0ffffffffH
	DD	imagerel ??0?$basic_string@DU?$char_traits@D@std@@V?$allocator@D@2@@std@@QEAA@PEBD@Z+86
	DD	00H
	DD	imagerel ??0?$basic_string@DU?$char_traits@D@std@@V?$allocator@D@2@@std@@QEAA@PEBD@Z+123
	DD	0ffffffffH
xdata	ENDS
;	COMDAT xdata
xdata	SEGMENT
$stateUnwindMap$??0?$basic_string@DU?$char_traits@D@std@@V?$allocator@D@2@@std@@QEAA@PEBD@Z DD 0ffffffffH
	DD	imagerel ?dtor$0@?0???0?$basic_string@DU?$char_traits@D@std@@V?$allocator@D@2@@std@@QEAA@PEBD@Z@4HA
xdata	ENDS
;	COMDAT CONST
CONST	SEGMENT
$cppxdata$??0?$basic_string@DU?$char_traits@D@std@@V?$allocator@D@2@@std@@QEAA@PEBD@Z DD 019930522H
	DD	01H
	DD	imagerel $stateUnwindMap$??0?$basic_string@DU?$char_traits@D@std@@V?$allocator@D@2@@std@@QEAA@PEBD@Z
	DD	00H
	DD	00H
	DD	03H
	DD	imagerel $ip2state$??0?$basic_string@DU?$char_traits@D@std@@V?$allocator@D@2@@std@@QEAA@PEBD@Z
	DD	0108H
	DD	00H
	DD	01H
CONST	ENDS
;	COMDAT xdata
xdata	SEGMENT
$unwind$??0?$basic_string@DU?$char_traits@D@std@@V?$allocator@D@2@@std@@QEAA@PEBD@Z DD 025053a11H
	DD	01132318H
	DD	0700c0025H
	DD	0500bH
	DD	imagerel __CxxFrameHandler3
	DD	imagerel $cppxdata$??0?$basic_string@DU?$char_traits@D@std@@V?$allocator@D@2@@std@@QEAA@PEBD@Z
xdata	ENDS
;	COMDAT xdata
xdata	SEGMENT
$unwind$?dtor$0@?0???0?$basic_string@DU?$char_traits@D@std@@V?$allocator@D@2@@std@@QEAA@AEBV01@@Z@4HA DD 031001H
	DD	0700c4210H
	DD	0500bH
xdata	ENDS
;	COMDAT xdata
xdata	SEGMENT
$ip2state$??0?$basic_string@DU?$char_traits@D@std@@V?$allocator@D@2@@std@@QEAA@AEBV01@@Z DD imagerel ??0?$basic_string@DU?$char_traits@D@std@@V?$allocator@D@2@@std@@QEAA@AEBV01@@Z
	DD	0ffffffffH
	DD	imagerel ??0?$basic_string@DU?$char_traits@D@std@@V?$allocator@D@2@@std@@QEAA@AEBV01@@Z+109
	DD	00H
	DD	imagerel ??0?$basic_string@DU?$char_traits@D@std@@V?$allocator@D@2@@std@@QEAA@AEBV01@@Z+156
	DD	0ffffffffH
xdata	ENDS
;	COMDAT xdata
xdata	SEGMENT
$stateUnwindMap$??0?$basic_string@DU?$char_traits@D@std@@V?$allocator@D@2@@std@@QEAA@AEBV01@@Z DD 0ffffffffH
	DD	imagerel ?dtor$0@?0???0?$basic_string@DU?$char_traits@D@std@@V?$allocator@D@2@@std@@QEAA@AEBV01@@Z@4HA
xdata	ENDS
;	COMDAT CONST
CONST	SEGMENT
$cppxdata$??0?$basic_string@DU?$char_traits@D@std@@V?$allocator@D@2@@std@@QEAA@AEBV01@@Z DD 019930522H
	DD	01H
	DD	imagerel $stateUnwindMap$??0?$basic_string@DU?$char_traits@D@std@@V?$allocator@D@2@@std@@QEAA@AEBV01@@Z
	DD	00H
	DD	00H
	DD	03H
	DD	imagerel $ip2state$??0?$basic_string@DU?$char_traits@D@std@@V?$allocator@D@2@@std@@QEAA@AEBV01@@Z
	DD	0128H
	DD	00H
	DD	01H
CONST	ENDS
;	COMDAT xdata
xdata	SEGMENT
$unwind$??0?$basic_string@DU?$char_traits@D@std@@V?$allocator@D@2@@std@@QEAA@AEBV01@@Z DD 025053a11H
	DD	01132318H
	DD	0700c0029H
	DD	0500bH
	DD	imagerel __CxxFrameHandler3
	DD	imagerel $cppxdata$??0?$basic_string@DU?$char_traits@D@std@@V?$allocator@D@2@@std@@QEAA@AEBV01@@Z
xdata	ENDS
;	COMDAT xdata
xdata	SEGMENT
$unwind$??1?$_Compressed_pair@U?$_Wrap_alloc@V?$allocator@D@std@@@std@@V?$_String_val@U?$_Simple_types@D@std@@@2@$00@std@@QEAA@XZ DD 025052a01H
	DD	010e2313H
	DD	07007001dH
	DD	05006H
xdata	ENDS
;	COMDAT xdata
xdata	SEGMENT
$unwind$?_Get_second@?$_Compressed_pair@U?$_Wrap_alloc@V?$allocator@D@std@@@std@@V?$_String_val@U?$_Simple_types@D@std@@@2@$00@std@@QEBAAEBV?$_String_val@U?$_Simple_types@D@std@@@2@XZ DD 05052801H
	DD	010e0311H
	DD	070070019H
	DD	05006H
xdata	ENDS
;	COMDAT xdata
xdata	SEGMENT
$unwind$?_Get_second@?$_Compressed_pair@U?$_Wrap_alloc@V?$allocator@D@std@@@std@@V?$_String_val@U?$_Simple_types@D@std@@@2@$00@std@@QEAAAEAV?$_String_val@U?$_Simple_types@D@std@@@2@XZ DD 05052801H
	DD	010e0311H
	DD	070070019H
	DD	05006H
xdata	ENDS
;	COMDAT xdata
xdata	SEGMENT
$unwind$?_Get_first@?$_Compressed_pair@U?$_Wrap_alloc@V?$allocator@D@std@@@std@@V?$_String_val@U?$_Simple_types@D@std@@@2@$00@std@@QEBAAEBU?$_Wrap_alloc@V?$allocator@D@std@@@2@XZ DD 05052801H
	DD	010e0311H
	DD	070070019H
	DD	05006H
xdata	ENDS
;	COMDAT xdata
xdata	SEGMENT
$unwind$?_Get_first@?$_Compressed_pair@U?$_Wrap_alloc@V?$allocator@D@std@@@std@@V?$_String_val@U?$_Simple_types@D@std@@@2@$00@std@@QEAAAEAU?$_Wrap_alloc@V?$allocator@D@std@@@2@XZ DD 05052801H
	DD	010e0311H
	DD	070070019H
	DD	05006H
xdata	ENDS
;	COMDAT xdata
xdata	SEGMENT
$unwind$?_Myres@?$_String_alloc@U?$_String_base_types@DV?$allocator@D@std@@@std@@@std@@QEAAAEA_KXZ DD 025052a01H
	DD	010e2313H
	DD	07007001dH
	DD	05006H
xdata	ENDS
;	COMDAT xdata
xdata	SEGMENT
$unwind$?_Mysize@?$_String_alloc@U?$_String_base_types@DV?$allocator@D@std@@@std@@@std@@QEBAAEB_KXZ DD 025052a01H
	DD	010e2313H
	DD	07007001dH
	DD	05006H
xdata	ENDS
;	COMDAT xdata
xdata	SEGMENT
$unwind$?_Mysize@?$_String_alloc@U?$_String_base_types@DV?$allocator@D@std@@@std@@@std@@QEAAAEA_KXZ DD 025052a01H
	DD	010e2313H
	DD	07007001dH
	DD	05006H
xdata	ENDS
;	COMDAT xdata
xdata	SEGMENT
$unwind$?_Bx@?$_String_alloc@U?$_String_base_types@DV?$allocator@D@std@@@std@@@std@@QEAAAEAT_Bxty@?$_String_val@U?$_Simple_types@D@std@@@2@XZ DD 025052a01H
	DD	010e2313H
	DD	07007001dH
	DD	05006H
xdata	ENDS
;	COMDAT xdata
xdata	SEGMENT
$unwind$?_Get_data@?$_String_alloc@U?$_String_base_types@DV?$allocator@D@std@@@std@@@std@@QEBAAEBV?$_String_val@U?$_Simple_types@D@std@@@2@XZ DD 025052a01H
	DD	010e2313H
	DD	07007001dH
	DD	05006H
xdata	ENDS
;	COMDAT xdata
xdata	SEGMENT
$unwind$?_Get_data@?$_String_alloc@U?$_String_base_types@DV?$allocator@D@std@@@std@@@std@@QEAAAEAV?$_String_val@U?$_Simple_types@D@std@@@2@XZ DD 025052a01H
	DD	010e2313H
	DD	07007001dH
	DD	05006H
xdata	ENDS
;	COMDAT xdata
xdata	SEGMENT
$unwind$?_Getal@?$_String_alloc@U?$_String_base_types@DV?$allocator@D@std@@@std@@@std@@QEBAAEBU?$_Wrap_alloc@V?$allocator@D@std@@@2@XZ DD 025052a01H
	DD	010e2313H
	DD	07007001dH
	DD	05006H
xdata	ENDS
;	COMDAT xdata
xdata	SEGMENT
$unwind$?_Getal@?$_String_alloc@U?$_String_base_types@DV?$allocator@D@std@@@std@@@std@@QEAAAEAU?$_Wrap_alloc@V?$allocator@D@std@@@2@XZ DD 025052a01H
	DD	010e2313H
	DD	07007001dH
	DD	05006H
xdata	ENDS
;	COMDAT xdata
xdata	SEGMENT
$unwind$?_Orphan_all@?$_String_alloc@U?$_String_base_types@DV?$allocator@D@std@@@std@@@std@@QEAAXXZ DD 025052a01H
	DD	010e2313H
	DD	07007001dH
	DD	05006H
xdata	ENDS
;	COMDAT xdata
xdata	SEGMENT
$unwind$?_Myproxy@?$_String_alloc@U?$_String_base_types@DV?$allocator@D@std@@@std@@@std@@QEAAAEAPEAU_Container_proxy@2@XZ DD 025052a01H
	DD	010e2313H
	DD	07007001dH
	DD	05006H
xdata	ENDS
;	COMDAT xdata
xdata	SEGMENT
$unwind$?_Free_proxy@?$_String_alloc@U?$_String_base_types@DV?$allocator@D@std@@@std@@@std@@QEAAXXZ DD 025053b19H
	DD	010e2313H
	DD	070070021H
	DD	05006H
	DD	imagerel __GSHandlerCheck
	DD	0f8H
xdata	ENDS
;	COMDAT CONST
CONST	SEGMENT
?_Free_proxy@?$_String_alloc@U?$_String_base_types@DV?$allocator@D@std@@@std@@@std@@QEAAXXZ$rtcName$0 DB 05fH ; std::_String_alloc<std::_String_base_types<char,std::allocator<char> > >::_Free_proxy
	DB	041H
	DB	06cH
	DB	070H
	DB	072H
	DB	06fH
	DB	078H
	DB	079H
	DB	00H
	ORG $+7
?_Free_proxy@?$_String_alloc@U?$_String_base_types@DV?$allocator@D@std@@@std@@@std@@QEAAXXZ$rtcVarDesc DD 024H ; std::_String_alloc<std::_String_base_types<char,std::allocator<char> > >::_Free_proxy
	DD	01H
	DQ	FLAT:?_Free_proxy@?$_String_alloc@U?$_String_base_types@DV?$allocator@D@std@@@std@@@std@@QEAAXXZ$rtcName$0
	ORG $+48
?_Free_proxy@?$_String_alloc@U?$_String_base_types@DV?$allocator@D@std@@@std@@@std@@QEAAXXZ$rtcFrameData DD 01H ; std::_String_alloc<std::_String_base_types<char,std::allocator<char> > >::_Free_proxy
	DD	00H
	DQ	FLAT:?_Free_proxy@?$_String_alloc@U?$_String_base_types@DV?$allocator@D@std@@@std@@@std@@QEAAXXZ$rtcVarDesc
CONST	ENDS
;	COMDAT xdata
xdata	SEGMENT
$unwind$?_Alloc_proxy@?$_String_alloc@U?$_String_base_types@DV?$allocator@D@std@@@std@@@std@@QEAAXXZ DD 025053b19H
	DD	010e2313H
	DD	070070029H
	DD	05006H
	DD	imagerel __GSHandlerCheck
	DD	0130H
xdata	ENDS
;	COMDAT CONST
CONST	SEGMENT
?_Alloc_proxy@?$_String_alloc@U?$_String_base_types@DV?$allocator@D@std@@@std@@@std@@QEAAXXZ$rtcName$0 DB 05fH ; std::_String_alloc<std::_String_base_types<char,std::allocator<char> > >::_Alloc_proxy
	DB	041H
	DB	06cH
	DB	070H
	DB	072H
	DB	06fH
	DB	078H
	DB	079H
	DB	00H
	ORG $+7
?_Alloc_proxy@?$_String_alloc@U?$_String_base_types@DV?$allocator@D@std@@@std@@@std@@QEAAXXZ$rtcVarDesc DD 024H ; std::_String_alloc<std::_String_base_types<char,std::allocator<char> > >::_Alloc_proxy
	DD	01H
	DQ	FLAT:?_Alloc_proxy@?$_String_alloc@U?$_String_base_types@DV?$allocator@D@std@@@std@@@std@@QEAAXXZ$rtcName$0
	ORG $+48
?_Alloc_proxy@?$_String_alloc@U?$_String_base_types@DV?$allocator@D@std@@@std@@@std@@QEAAXXZ$rtcFrameData DD 01H ; std::_String_alloc<std::_String_base_types<char,std::allocator<char> > >::_Alloc_proxy
	DD	00H
	DQ	FLAT:?_Alloc_proxy@?$_String_alloc@U?$_String_base_types@DV?$allocator@D@std@@@std@@@std@@QEAAXXZ$rtcVarDesc
CONST	ENDS
;	COMDAT xdata
xdata	SEGMENT
$ip2state$??1?$_String_alloc@U?$_String_base_types@DV?$allocator@D@std@@@std@@@std@@QEAA@XZ DD imagerel ??1?$_String_alloc@U?$_String_base_types@DV?$allocator@D@std@@@std@@@std@@QEAA@XZ
	DD	0ffffffffH
xdata	ENDS
;	COMDAT CONST
CONST	SEGMENT
$cppxdata$??1?$_String_alloc@U?$_String_base_types@DV?$allocator@D@std@@@std@@@std@@QEAA@XZ DD 019930522H
	DD	00H
	DD	00H
	DD	00H
	DD	00H
	DD	01H
	DD	imagerel $ip2state$??1?$_String_alloc@U?$_String_base_types@DV?$allocator@D@std@@@std@@@std@@QEAA@XZ
	DD	0e8H
	DD	00H
	DD	05H
CONST	ENDS
;	COMDAT xdata
xdata	SEGMENT
$unwind$??1?$_String_alloc@U?$_String_base_types@DV?$allocator@D@std@@@std@@@std@@QEAA@XZ DD 025053519H
	DD	010e2313H
	DD	070070021H
	DD	05006H
	DD	imagerel __CxxFrameHandler3
	DD	imagerel $cppxdata$??1?$_String_alloc@U?$_String_base_types@DV?$allocator@D@std@@@std@@@std@@QEAA@XZ
xdata	ENDS
;	COMDAT xdata
xdata	SEGMENT
$unwind$?dtor$0@?0???0?$_String_alloc@U?$_String_base_types@DV?$allocator@D@std@@@std@@@std@@QEAA@$$QEAV?$allocator@D@1@@Z@4HA DD 031001H
	DD	0700c4210H
	DD	0500bH
xdata	ENDS
;	COMDAT xdata
xdata	SEGMENT
$ip2state$??0?$_String_alloc@U?$_String_base_types@DV?$allocator@D@std@@@std@@@std@@QEAA@$$QEAV?$allocator@D@1@@Z DD imagerel ??0?$_String_alloc@U?$_String_base_types@DV?$allocator@D@std@@@std@@@std@@QEAA@$$QEAV?$allocator@D@1@@Z
	DD	0ffffffffH
	DD	imagerel ??0?$_String_alloc@U?$_String_base_types@DV?$allocator@D@std@@@std@@@std@@QEAA@$$QEAV?$allocator@D@1@@Z+93
	DD	00H
	DD	imagerel ??0?$_String_alloc@U?$_String_base_types@DV?$allocator@D@std@@@std@@@std@@QEAA@$$QEAV?$allocator@D@1@@Z+106
	DD	0ffffffffH
xdata	ENDS
;	COMDAT xdata
xdata	SEGMENT
$stateUnwindMap$??0?$_String_alloc@U?$_String_base_types@DV?$allocator@D@std@@@std@@@std@@QEAA@$$QEAV?$allocator@D@1@@Z DD 0ffffffffH
	DD	imagerel ?dtor$0@?0???0?$_String_alloc@U?$_String_base_types@DV?$allocator@D@std@@@std@@@std@@QEAA@$$QEAV?$allocator@D@1@@Z@4HA
xdata	ENDS
;	COMDAT CONST
CONST	SEGMENT
$cppxdata$??0?$_String_alloc@U?$_String_base_types@DV?$allocator@D@std@@@std@@@std@@QEAA@$$QEAV?$allocator@D@1@@Z DD 019930522H
	DD	01H
	DD	imagerel $stateUnwindMap$??0?$_String_alloc@U?$_String_base_types@DV?$allocator@D@std@@@std@@@std@@QEAA@$$QEAV?$allocator@D@1@@Z
	DD	00H
	DD	00H
	DD	03H
	DD	imagerel $ip2state$??0?$_String_alloc@U?$_String_base_types@DV?$allocator@D@std@@@std@@@std@@QEAA@$$QEAV?$allocator@D@1@@Z
	DD	0108H
	DD	00H
	DD	01H
CONST	ENDS
;	COMDAT xdata
xdata	SEGMENT
$unwind$??0?$_String_alloc@U?$_String_base_types@DV?$allocator@D@std@@@std@@@std@@QEAA@$$QEAV?$allocator@D@1@@Z DD 025053a11H
	DD	01132318H
	DD	0700c0025H
	DD	0500bH
	DD	imagerel __CxxFrameHandler3
	DD	imagerel $cppxdata$??0?$_String_alloc@U?$_String_base_types@DV?$allocator@D@std@@@std@@@std@@QEAA@$$QEAV?$allocator@D@1@@Z
xdata	ENDS
;	COMDAT xdata
xdata	SEGMENT
$unwind$?dtor$0@?0???0?$_String_alloc@U?$_String_base_types@DV?$allocator@D@std@@@std@@@std@@QEAA@AEBV?$allocator@D@1@@Z@4HA DD 031001H
	DD	0700c4210H
	DD	0500bH
xdata	ENDS
;	COMDAT xdata
xdata	SEGMENT
$ip2state$??0?$_String_alloc@U?$_String_base_types@DV?$allocator@D@std@@@std@@@std@@QEAA@AEBV?$allocator@D@1@@Z DD imagerel ??0?$_String_alloc@U?$_String_base_types@DV?$allocator@D@std@@@std@@@std@@QEAA@AEBV?$allocator@D@1@@Z
	DD	0ffffffffH
	DD	imagerel ??0?$_String_alloc@U?$_String_base_types@DV?$allocator@D@std@@@std@@@std@@QEAA@AEBV?$allocator@D@1@@Z+88
	DD	00H
	DD	imagerel ??0?$_String_alloc@U?$_String_base_types@DV?$allocator@D@std@@@std@@@std@@QEAA@AEBV?$allocator@D@1@@Z+101
	DD	0ffffffffH
xdata	ENDS
;	COMDAT xdata
xdata	SEGMENT
$stateUnwindMap$??0?$_String_alloc@U?$_String_base_types@DV?$allocator@D@std@@@std@@@std@@QEAA@AEBV?$allocator@D@1@@Z DD 0ffffffffH
	DD	imagerel ?dtor$0@?0???0?$_String_alloc@U?$_String_base_types@DV?$allocator@D@std@@@std@@@std@@QEAA@AEBV?$allocator@D@1@@Z@4HA
xdata	ENDS
;	COMDAT CONST
CONST	SEGMENT
$cppxdata$??0?$_String_alloc@U?$_String_base_types@DV?$allocator@D@std@@@std@@@std@@QEAA@AEBV?$allocator@D@1@@Z DD 019930522H
	DD	01H
	DD	imagerel $stateUnwindMap$??0?$_String_alloc@U?$_String_base_types@DV?$allocator@D@std@@@std@@@std@@QEAA@AEBV?$allocator@D@1@@Z
	DD	00H
	DD	00H
	DD	03H
	DD	imagerel $ip2state$??0?$_String_alloc@U?$_String_base_types@DV?$allocator@D@std@@@std@@@std@@QEAA@AEBV?$allocator@D@1@@Z
	DD	0108H
	DD	00H
	DD	01H
CONST	ENDS
;	COMDAT xdata
xdata	SEGMENT
$unwind$??0?$_String_alloc@U?$_String_base_types@DV?$allocator@D@std@@@std@@@std@@QEAA@AEBV?$allocator@D@1@@Z DD 025053a11H
	DD	01132318H
	DD	0700c0025H
	DD	0500bH
	DD	imagerel __CxxFrameHandler3
	DD	imagerel $cppxdata$??0?$_String_alloc@U?$_String_base_types@DV?$allocator@D@std@@@std@@@std@@QEAA@AEBV?$allocator@D@1@@Z
xdata	ENDS
;	COMDAT xdata
xdata	SEGMENT
$unwind$?_Myptr@?$_String_alloc@U?$_String_base_types@DV?$allocator@D@std@@@std@@@std@@QEBAPEBDXZ DD 025052a01H
	DD	010e2313H
	DD	07007001dH
	DD	05006H
xdata	ENDS
;	COMDAT xdata
xdata	SEGMENT
$unwind$?_Myptr@?$_String_alloc@U?$_String_base_types@DV?$allocator@D@std@@@std@@@std@@QEAAPEADXZ DD 025052a01H
	DD	010e2313H
	DD	07007001dH
	DD	05006H
xdata	ENDS
;	COMDAT xdata
xdata	SEGMENT
$unwind$??1?$_String_val@U?$_Simple_types@D@std@@@std@@QEAA@XZ DD 025052a01H
	DD	010e2313H
	DD	07007001dH
	DD	05006H
xdata	ENDS
;	COMDAT xdata
xdata	SEGMENT
$unwind$?_Myptr@?$_String_val@U?$_Simple_types@D@std@@@std@@QEBAPEBDXZ DD 025052a01H
	DD	010e2313H
	DD	07007001fH
	DD	05006H
xdata	ENDS
;	COMDAT xdata
xdata	SEGMENT
$unwind$?_Myptr@?$_String_val@U?$_Simple_types@D@std@@@std@@QEAAPEADXZ DD 025052a01H
	DD	010e2313H
	DD	07007001fH
	DD	05006H
xdata	ENDS
;	COMDAT xdata
xdata	SEGMENT
$unwind$??0?$_String_val@U?$_Simple_types@D@std@@@std@@QEAA@XZ DD 025052a01H
	DD	010e2313H
	DD	07007001dH
	DD	05006H
xdata	ENDS
;	COMDAT xdata
xdata	SEGMENT
$unwind$?max_size@?$_Wrap_alloc@V?$allocator@D@std@@@std@@QEBA_KU_Nil@2@@Z DD 025052e01H
	DD	01122317H
	DD	0700b001dH
	DD	0500aH
xdata	ENDS
;	COMDAT xdata
xdata	SEGMENT
$unwind$?deallocate@?$_Wrap_alloc@V?$allocator@D@std@@@std@@QEAAXPEAD_K@Z DD 025053401H
	DD	0118231dH
	DD	07011001dH
	DD	05010H
xdata	ENDS
;	COMDAT xdata
xdata	SEGMENT
$unwind$?allocate@?$_Wrap_alloc@V?$allocator@D@std@@@std@@QEAAPEAD_K@Z DD 025052f01H
	DD	01132318H
	DD	0700c001dH
	DD	0500bH
xdata	ENDS
;	COMDAT xdata
xdata	SEGMENT
$unwind$??0?$_Wrap_alloc@V?$allocator@D@std@@@std@@QEAA@AEBV?$allocator@D@1@@Z DD 025052f01H
	DD	01132318H
	DD	0700c001dH
	DD	0500bH
xdata	ENDS
;	COMDAT xdata
xdata	SEGMENT
$unwind$?select_on_container_copy_construction@?$_Wrap_alloc@V?$allocator@D@std@@@std@@QEBA?AU12@U_Nil@2@@Z DD 025053401H
	DD	0118231dH
	DD	070110021H
	DD	05010H
xdata	ENDS
;	COMDAT xdata
xdata	SEGMENT
$unwind$?select_on_container_copy_construction@?$allocator_traits@V?$allocator@D@std@@@std@@SA?AV?$allocator@D@2@AEBV32@@Z DD 025052f01H
	DD	01132318H
	DD	0700c001dH
	DD	0500bH
xdata	ENDS
;	COMDAT xdata
xdata	SEGMENT
$unwind$?max_size@?$allocator_traits@V?$allocator@D@std@@@std@@SA_KAEBV?$allocator@D@2@@Z DD 025052a01H
	DD	010e2313H
	DD	07007001dH
	DD	05006H
xdata	ENDS
;	COMDAT xdata
xdata	SEGMENT
$unwind$?max_size@?$allocator@D@std@@QEBA_KXZ DD 05052801H
	DD	010e0311H
	DD	070070019H
	DD	05006H
xdata	ENDS
;	COMDAT xdata
xdata	SEGMENT
$unwind$?allocate@?$allocator@D@std@@QEAAPEAD_K@Z DD 025052f01H
	DD	01132318H
	DD	0700c001dH
	DD	0500bH
xdata	ENDS
;	COMDAT xdata
xdata	SEGMENT
$unwind$?deallocate@?$allocator@D@std@@QEAAXPEAD_K@Z DD 025053401H
	DD	0118231dH
	DD	07011001dH
	DD	05010H
xdata	ENDS
;	COMDAT xdata
xdata	SEGMENT
$unwind$??0?$allocator@D@std@@QEAA@AEBV01@@Z DD 05052d01H
	DD	01130316H
	DD	0700c0019H
	DD	0500bH
xdata	ENDS
;	COMDAT xdata
xdata	SEGMENT
$unwind$??0?$allocator@D@std@@QEAA@XZ DD 05052801H
	DD	010e0311H
	DD	070070019H
	DD	05006H
xdata	ENDS
;	COMDAT xdata
xdata	SEGMENT
$unwind$?_Deallocate@std@@YAXPEAX_K1@Z DD 035053401H
	DD	0118331dH
	DD	07011002fH
	DD	05010H
xdata	ENDS
;	COMDAT xdata
xdata	SEGMENT
$unwind$?_Allocate@std@@YAPEAX_K0_N@Z DD 035053401H
	DD	0118331dH
	DD	07011002fH
	DD	05010H
xdata	ENDS
;	COMDAT xdata
xdata	SEGMENT
$unwind$?_Orphan_all@_Container_base12@std@@QEAAXXZ DD 025053b19H
	DD	010e2313H
	DD	070070025H
	DD	05006H
	DD	imagerel __GSHandlerCheck
	DD	0118H
xdata	ENDS
;	COMDAT CONST
CONST	SEGMENT
?_Orphan_all@_Container_base12@std@@QEAAXXZ$rtcName$0 DB 05fH ; std::_Container_base12::_Orphan_all
	DB	04cH
	DB	06fH
	DB	063H
	DB	06bH
	DB	00H
	ORG $+10
?_Orphan_all@_Container_base12@std@@QEAAXXZ$rtcVarDesc DD 024H ; std::_Container_base12::_Orphan_all
	DD	04H
	DQ	FLAT:?_Orphan_all@_Container_base12@std@@QEAAXXZ$rtcName$0
	ORG $+48
?_Orphan_all@_Container_base12@std@@QEAAXXZ$rtcFrameData DD 01H ; std::_Container_base12::_Orphan_all
	DD	00H
	DQ	FLAT:?_Orphan_all@_Container_base12@std@@QEAAXXZ$rtcVarDesc
CONST	ENDS
;	COMDAT xdata
xdata	SEGMENT
$ip2state$??1_Container_base12@std@@QEAA@XZ DD imagerel ??1_Container_base12@std@@QEAA@XZ
	DD	0ffffffffH
xdata	ENDS
;	COMDAT CONST
CONST	SEGMENT
$cppxdata$??1_Container_base12@std@@QEAA@XZ DD 019930522H
	DD	00H
	DD	00H
	DD	00H
	DD	00H
	DD	01H
	DD	imagerel $ip2state$??1_Container_base12@std@@QEAA@XZ
	DD	0e8H
	DD	00H
	DD	05H
CONST	ENDS
;	COMDAT xdata
xdata	SEGMENT
$unwind$??1_Container_base12@std@@QEAA@XZ DD 025053519H
	DD	010e2313H
	DD	070070021H
	DD	05006H
	DD	imagerel __CxxFrameHandler3
	DD	imagerel $cppxdata$??1_Container_base12@std@@QEAA@XZ
xdata	ENDS
;	COMDAT xdata
xdata	SEGMENT
$unwind$??0_Container_base12@std@@QEAA@XZ DD 05052801H
	DD	010e0311H
	DD	070070019H
	DD	05006H
xdata	ENDS
;	COMDAT xdata
xdata	SEGMENT
$unwind$??0_Container_proxy@std@@QEAA@XZ DD 05052801H
	DD	010e0311H
	DD	070070019H
	DD	05006H
xdata	ENDS
;	COMDAT xdata
xdata	SEGMENT
$unwind$?eof@?$char_traits@D@std@@SAHXZ DD 05051c01H
	DD	010a030dH
	DD	070030019H
	DD	05002H
xdata	ENDS
;	COMDAT xdata
xdata	SEGMENT
$unwind$?eq_int_type@?$char_traits@D@std@@SA_NAEBH0@Z DD 05052d01H
	DD	01130316H
	DD	0700c001bH
	DD	0500bH
xdata	ENDS
;	COMDAT xdata
xdata	SEGMENT
$unwind$?to_char_type@?$char_traits@D@std@@SADAEBH@Z DD 05052801H
	DD	010e0311H
	DD	070070019H
	DD	05006H
xdata	ENDS
;	COMDAT xdata
xdata	SEGMENT
$unwind$?assign@?$char_traits@D@std@@SAXAEADAEBD@Z DD 05052d01H
	DD	01130316H
	DD	0700c0019H
	DD	0500bH
xdata	ENDS
;	COMDAT xdata
xdata	SEGMENT
$unwind$?move@?$char_traits@D@std@@SAPEADPEADPEBD_K@Z DD 025053401H
	DD	0118231dH
	DD	07011001fH
	DD	05010H
xdata	ENDS
;	COMDAT xdata
xdata	SEGMENT
$unwind$?copy@?$char_traits@D@std@@SAPEADPEADPEBD_K@Z DD 025053401H
	DD	0118231dH
	DD	07011001fH
	DD	05010H
xdata	ENDS
;	COMDAT xdata
xdata	SEGMENT
$unwind$?length@?$char_traits@D@std@@SA_KPEBD@Z DD 025052a01H
	DD	010e2313H
	DD	07007001fH
	DD	05006H
xdata	ENDS
;	COMDAT xdata
xdata	SEGMENT
$unwind$??2@YAPEAX_KPEAX@Z DD 05052d01H
	DD	01130316H
	DD	0700c0019H
	DD	0500bH
xdata	ENDS
;	COMDAT xdata
xdata	SEGMENT
$unwind$??$__vcrt_va_start_verify_argument_type@QEBD@@YAXXZ DD 05051c01H
	DD	010a030dH
	DD	070030019H
	DD	05002H
xdata	ENDS
;	COMDAT xdata
xdata	SEGMENT
$unwind$fprintf DD 025054a19H
	DD	011d2322H
	DD	070160025H
	DD	05015H
	DD	imagerel __GSHandlerCheck
	DD	0118H
xdata	ENDS
;	COMDAT CONST
CONST	SEGMENT
fprintf$rtcName$0 DB 05fH
	DB	041H
	DB	072H
	DB	067H
	DB	04cH
	DB	069H
	DB	073H
	DB	074H
	DB	00H
	ORG $+7
fprintf$rtcVarDesc DD 048H
	DD	08H
	DQ	FLAT:fprintf$rtcName$0
	ORG $+48
fprintf$rtcFrameData DD 01H
	DD	00H
	DQ	FLAT:fprintf$rtcVarDesc
CONST	ENDS
;	COMDAT xdata
xdata	SEGMENT
$unwind$_vfprintf_l DD 035053901H
	DD	011d3322H
	DD	07016001fH
	DD	05015H
xdata	ENDS
;	COMDAT xdata
xdata	SEGMENT
$unwind$__local_stdio_printf_options DD 05051c01H
	DD	010a030dH
	DD	070030019H
	DD	05002H
xdata	ENDS
;	COMDAT xdata
xdata	SEGMENT
$unwind$??0v2@Cy@@QEAA@AEBU01@@Z DD 05052d01H
	DD	01130316H
	DD	0700c0019H
	DD	0500bH
xdata	ENDS
;	COMDAT xdata
xdata	SEGMENT
$unwind$??0v2@Cy@@QEAA@MM@Z DD 05053401H
	DD	011a031dH
	DD	070130019H
	DD	05012H
xdata	ENDS
;	COMDAT xdata
xdata	SEGMENT
$unwind$??0v2@Cy@@QEAA@XZ DD 05052801H
	DD	010e0311H
	DD	070070019H
	DD	05006H
xdata	ENDS
;	COMDAT xdata
xdata	SEGMENT
$unwind$?__empty_global_delete@@YAXPEAX_K@Z DD 05052d01H
	DD	01130316H
	DD	0700c0019H
	DD	0500bH
xdata	ENDS
;	COMDAT xdata
xdata	SEGMENT
$unwind$?__empty_global_delete@@YAXPEAX@Z DD 05052801H
	DD	010e0311H
	DD	070070019H
	DD	05006H
xdata	ENDS
; Function compile flags: /Odtp /RTCsu /ZI
;	COMDAT ??$construct@U_Container_proxy@std@@U12@@?$allocator@U_Container_proxy@std@@@std@@QEAAXPEAU_Container_proxy@1@$$QEAU21@@Z
_TEXT	SEGMENT
$T1 = 200
tv74 = 216
this$ = 256
_Ptr$ = 264
<_Args_0>$ = 272
??$construct@U_Container_proxy@std@@U12@@?$allocator@U_Container_proxy@std@@@std@@QEAAXPEAU_Container_proxy@1@$$QEAU21@@Z PROC ; std::allocator<std::_Container_proxy>::construct<std::_Container_proxy,std::_Container_proxy>, COMDAT
; File d:\appdata\vsp\vc\include\xmemory0
; Line 654
$LN5:
  00000	4c 89 44 24 18	 mov	 QWORD PTR [rsp+24], r8
  00005	48 89 54 24 10	 mov	 QWORD PTR [rsp+16], rdx
  0000a	48 89 4c 24 08	 mov	 QWORD PTR [rsp+8], rcx
  0000f	55		 push	 rbp
  00010	56		 push	 rsi
  00011	57		 push	 rdi
  00012	48 81 ec 00 01
	00 00		 sub	 rsp, 256		; 00000100H
  00019	48 8d 6c 24 20	 lea	 rbp, QWORD PTR [rsp+32]
  0001e	48 8b fc	 mov	 rdi, rsp
  00021	b9 40 00 00 00	 mov	 ecx, 64			; 00000040H
  00026	b8 cc cc cc cc	 mov	 eax, -858993460		; ccccccccH
  0002b	f3 ab		 rep stosd
  0002d	48 8b 8c 24 28
	01 00 00	 mov	 rcx, QWORD PTR [rsp+296]
; Line 655
  00035	48 8b 95 08 01
	00 00		 mov	 rdx, QWORD PTR _Ptr$[rbp]
  0003c	b9 10 00 00 00	 mov	 ecx, 16
  00041	e8 00 00 00 00	 call	 ??2@YAPEAX_KPEAX@Z	; operator new
  00046	48 89 85 c8 00
	00 00		 mov	 QWORD PTR $T1[rbp], rax
  0004d	48 83 bd c8 00
	00 00 00	 cmp	 QWORD PTR $T1[rbp], 0
  00055	74 2d		 je	 SHORT $LN3@construct
  00057	48 8b 8d 10 01
	00 00		 mov	 rcx, QWORD PTR <_Args_0>$[rbp]
  0005e	e8 00 00 00 00	 call	 ??$forward@U_Container_proxy@std@@@std@@YA$$QEAU_Container_proxy@0@AEAU10@@Z ; std::forward<std::_Container_proxy>
  00063	48 8b bd c8 00
	00 00		 mov	 rdi, QWORD PTR $T1[rbp]
  0006a	48 8b f0	 mov	 rsi, rax
  0006d	b9 10 00 00 00	 mov	 ecx, 16
  00072	f3 a4		 rep movsb
  00074	48 8b 85 c8 00
	00 00		 mov	 rax, QWORD PTR $T1[rbp]
  0007b	48 89 85 d8 00
	00 00		 mov	 QWORD PTR tv74[rbp], rax
  00082	eb 0b		 jmp	 SHORT $LN4@construct
$LN3@construct:
  00084	48 c7 85 d8 00
	00 00 00 00 00
	00		 mov	 QWORD PTR tv74[rbp], 0
$LN4@construct:
; Line 656
  0008f	48 8d a5 e0 00
	00 00		 lea	 rsp, QWORD PTR [rbp+224]
  00096	5f		 pop	 rdi
  00097	5e		 pop	 rsi
  00098	5d		 pop	 rbp
  00099	c3		 ret	 0
??$construct@U_Container_proxy@std@@U12@@?$allocator@U_Container_proxy@std@@@std@@QEAAXPEAU_Container_proxy@1@$$QEAU21@@Z ENDP ; std::allocator<std::_Container_proxy>::construct<std::_Container_proxy,std::_Container_proxy>
_TEXT	ENDS
; Function compile flags: /Odtp /RTCsu /ZI
;	COMDAT ??$destroy@U_Container_proxy@std@@@?$allocator@U_Container_proxy@std@@@std@@QEAAXPEAU_Container_proxy@1@@Z
_TEXT	SEGMENT
this$ = 224
_Ptr$ = 232
??$destroy@U_Container_proxy@std@@@?$allocator@U_Container_proxy@std@@@std@@QEAAXPEAU_Container_proxy@1@@Z PROC ; std::allocator<std::_Container_proxy>::destroy<std::_Container_proxy>, COMDAT
; File d:\appdata\vsp\vc\include\xmemory0
; Line 661
$LN3:
  00000	48 89 54 24 10	 mov	 QWORD PTR [rsp+16], rdx
  00005	48 89 4c 24 08	 mov	 QWORD PTR [rsp+8], rcx
  0000a	55		 push	 rbp
  0000b	57		 push	 rdi
  0000c	48 81 ec c8 00
	00 00		 sub	 rsp, 200		; 000000c8H
  00013	48 8b ec	 mov	 rbp, rsp
  00016	48 8b fc	 mov	 rdi, rsp
  00019	b9 32 00 00 00	 mov	 ecx, 50			; 00000032H
  0001e	b8 cc cc cc cc	 mov	 eax, -858993460		; ccccccccH
  00023	f3 ab		 rep stosd
  00025	48 8b 8c 24 e8
	00 00 00	 mov	 rcx, QWORD PTR [rsp+232]
; Line 663
  0002d	48 8d a5 c8 00
	00 00		 lea	 rsp, QWORD PTR [rbp+200]
  00034	5f		 pop	 rdi
  00035	5d		 pop	 rbp
  00036	c3		 ret	 0
??$destroy@U_Container_proxy@std@@@?$allocator@U_Container_proxy@std@@@std@@QEAAXPEAU_Container_proxy@1@@Z ENDP ; std::allocator<std::_Container_proxy>::destroy<std::_Container_proxy>
_TEXT	ENDS
; Function compile flags: /Odtp /RTCsu /ZI
;	COMDAT ??$construct@PEADAEAPEAD@?$allocator@D@std@@QEAAXPEAPEADAEAPEAD@Z
_TEXT	SEGMENT
$T1 = 200
tv73 = 216
this$ = 256
_Ptr$ = 264
<_Args_0>$ = 272
??$construct@PEADAEAPEAD@?$allocator@D@std@@QEAAXPEAPEADAEAPEAD@Z PROC ; std::allocator<char>::construct<char * __ptr64,char * __ptr64 & __ptr64>, COMDAT
; File d:\appdata\vsp\vc\include\xmemory0
; Line 654
$LN5:
  00000	4c 89 44 24 18	 mov	 QWORD PTR [rsp+24], r8
  00005	48 89 54 24 10	 mov	 QWORD PTR [rsp+16], rdx
  0000a	48 89 4c 24 08	 mov	 QWORD PTR [rsp+8], rcx
  0000f	55		 push	 rbp
  00010	57		 push	 rdi
  00011	48 81 ec 08 01
	00 00		 sub	 rsp, 264		; 00000108H
  00018	48 8d 6c 24 20	 lea	 rbp, QWORD PTR [rsp+32]
  0001d	48 8b fc	 mov	 rdi, rsp
  00020	b9 42 00 00 00	 mov	 ecx, 66			; 00000042H
  00025	b8 cc cc cc cc	 mov	 eax, -858993460		; ccccccccH
  0002a	f3 ab		 rep stosd
  0002c	48 8b 8c 24 28
	01 00 00	 mov	 rcx, QWORD PTR [rsp+296]
; Line 655
  00034	48 8b 95 08 01
	00 00		 mov	 rdx, QWORD PTR _Ptr$[rbp]
  0003b	b9 08 00 00 00	 mov	 ecx, 8
  00040	e8 00 00 00 00	 call	 ??2@YAPEAX_KPEAX@Z	; operator new
  00045	48 89 85 c8 00
	00 00		 mov	 QWORD PTR $T1[rbp], rax
  0004c	48 83 bd c8 00
	00 00 00	 cmp	 QWORD PTR $T1[rbp], 0
  00054	74 29		 je	 SHORT $LN3@construct
  00056	48 8b 8d 10 01
	00 00		 mov	 rcx, QWORD PTR <_Args_0>$[rbp]
  0005d	e8 00 00 00 00	 call	 ??$forward@AEAPEAD@std@@YAAEAPEADAEAPEAD@Z ; std::forward<char * __ptr64 & __ptr64>
  00062	48 8b 8d c8 00
	00 00		 mov	 rcx, QWORD PTR $T1[rbp]
  00069	48 8b 00	 mov	 rax, QWORD PTR [rax]
  0006c	48 89 01	 mov	 QWORD PTR [rcx], rax
  0006f	48 8b 85 c8 00
	00 00		 mov	 rax, QWORD PTR $T1[rbp]
  00076	48 89 85 d8 00
	00 00		 mov	 QWORD PTR tv73[rbp], rax
  0007d	eb 0b		 jmp	 SHORT $LN4@construct
$LN3@construct:
  0007f	48 c7 85 d8 00
	00 00 00 00 00
	00		 mov	 QWORD PTR tv73[rbp], 0
$LN4@construct:
; Line 656
  0008a	48 8d a5 e8 00
	00 00		 lea	 rsp, QWORD PTR [rbp+232]
  00091	5f		 pop	 rdi
  00092	5d		 pop	 rbp
  00093	c3		 ret	 0
??$construct@PEADAEAPEAD@?$allocator@D@std@@QEAAXPEAPEADAEAPEAD@Z ENDP ; std::allocator<char>::construct<char * __ptr64,char * __ptr64 & __ptr64>
_TEXT	ENDS
; Function compile flags: /Odtp /RTCsu /ZI
;	COMDAT ??$destroy@PEAD@?$allocator@D@std@@QEAAXPEAPEAD@Z
_TEXT	SEGMENT
this$ = 224
_Ptr$ = 232
??$destroy@PEAD@?$allocator@D@std@@QEAAXPEAPEAD@Z PROC	; std::allocator<char>::destroy<char * __ptr64>, COMDAT
; File d:\appdata\vsp\vc\include\xmemory0
; Line 661
$LN3:
  00000	48 89 54 24 10	 mov	 QWORD PTR [rsp+16], rdx
  00005	48 89 4c 24 08	 mov	 QWORD PTR [rsp+8], rcx
  0000a	55		 push	 rbp
  0000b	57		 push	 rdi
  0000c	48 81 ec c8 00
	00 00		 sub	 rsp, 200		; 000000c8H
  00013	48 8b ec	 mov	 rbp, rsp
  00016	48 8b fc	 mov	 rdi, rsp
  00019	b9 32 00 00 00	 mov	 ecx, 50			; 00000032H
  0001e	b8 cc cc cc cc	 mov	 eax, -858993460		; ccccccccH
  00023	f3 ab		 rep stosd
  00025	48 8b 8c 24 e8
	00 00 00	 mov	 rcx, QWORD PTR [rsp+232]
; Line 663
  0002d	48 8d a5 c8 00
	00 00		 lea	 rsp, QWORD PTR [rbp+200]
  00034	5f		 pop	 rdi
  00035	5d		 pop	 rbp
  00036	c3		 ret	 0
??$destroy@PEAD@?$allocator@D@std@@QEAAXPEAPEAD@Z ENDP	; std::allocator<char>::destroy<char * __ptr64>
_TEXT	ENDS
; Function compile flags: /Odtp /RTCsu /ZI
;	COMDAT ??$construct@U_Container_proxy@std@@U12@@?$allocator_traits@V?$allocator@U_Container_proxy@std@@@std@@@std@@SAXAEAV?$allocator@U_Container_proxy@std@@@1@PEAU_Container_proxy@1@$$QEAU31@@Z
_TEXT	SEGMENT
_Al$ = 224
_Ptr$ = 232
<_Args_0>$ = 240
??$construct@U_Container_proxy@std@@U12@@?$allocator_traits@V?$allocator@U_Container_proxy@std@@@std@@@std@@SAXAEAV?$allocator@U_Container_proxy@std@@@1@PEAU_Container_proxy@1@$$QEAU31@@Z PROC ; std::allocator_traits<std::allocator<std::_Container_proxy> >::construct<std::_Container_proxy,std::_Container_proxy>, COMDAT
; File d:\appdata\vsp\vc\include\xmemory0
; Line 772
$LN3:
  00000	4c 89 44 24 18	 mov	 QWORD PTR [rsp+24], r8
  00005	48 89 54 24 10	 mov	 QWORD PTR [rsp+16], rdx
  0000a	48 89 4c 24 08	 mov	 QWORD PTR [rsp+8], rcx
  0000f	55		 push	 rbp
  00010	57		 push	 rdi
  00011	48 81 ec e8 00
	00 00		 sub	 rsp, 232		; 000000e8H
  00018	48 8d 6c 24 20	 lea	 rbp, QWORD PTR [rsp+32]
  0001d	48 8b fc	 mov	 rdi, rsp
  00020	b9 3a 00 00 00	 mov	 ecx, 58			; 0000003aH
  00025	b8 cc cc cc cc	 mov	 eax, -858993460		; ccccccccH
  0002a	f3 ab		 rep stosd
  0002c	48 8b 8c 24 08
	01 00 00	 mov	 rcx, QWORD PTR [rsp+264]
; Line 773
  00034	48 8b 8d f0 00
	00 00		 mov	 rcx, QWORD PTR <_Args_0>$[rbp]
  0003b	e8 00 00 00 00	 call	 ??$forward@U_Container_proxy@std@@@std@@YA$$QEAU_Container_proxy@0@AEAU10@@Z ; std::forward<std::_Container_proxy>
  00040	4c 8b c0	 mov	 r8, rax
  00043	48 8b 95 e8 00
	00 00		 mov	 rdx, QWORD PTR _Ptr$[rbp]
  0004a	48 8b 8d e0 00
	00 00		 mov	 rcx, QWORD PTR _Al$[rbp]
  00051	e8 00 00 00 00	 call	 ??$construct@U_Container_proxy@std@@U12@@?$allocator@U_Container_proxy@std@@@std@@QEAAXPEAU_Container_proxy@1@$$QEAU21@@Z ; std::allocator<std::_Container_proxy>::construct<std::_Container_proxy,std::_Container_proxy>
; Line 774
  00056	48 8d a5 c8 00
	00 00		 lea	 rsp, QWORD PTR [rbp+200]
  0005d	5f		 pop	 rdi
  0005e	5d		 pop	 rbp
  0005f	c3		 ret	 0
??$construct@U_Container_proxy@std@@U12@@?$allocator_traits@V?$allocator@U_Container_proxy@std@@@std@@@std@@SAXAEAV?$allocator@U_Container_proxy@std@@@1@PEAU_Container_proxy@1@$$QEAU31@@Z ENDP ; std::allocator_traits<std::allocator<std::_Container_proxy> >::construct<std::_Container_proxy,std::_Container_proxy>
_TEXT	ENDS
; Function compile flags: /Odtp /RTCsu /ZI
;	COMDAT ??$forward@U_Container_proxy@std@@@std@@YA$$QEAU_Container_proxy@0@AEAU10@@Z
_TEXT	SEGMENT
_Arg$ = 224
??$forward@U_Container_proxy@std@@@std@@YA$$QEAU_Container_proxy@0@AEAU10@@Z PROC ; std::forward<std::_Container_proxy>, COMDAT
; File d:\appdata\vsp\vc\include\type_traits
; Line 1233
$LN3:
  00000	48 89 4c 24 08	 mov	 QWORD PTR [rsp+8], rcx
  00005	55		 push	 rbp
  00006	57		 push	 rdi
  00007	48 81 ec c8 00
	00 00		 sub	 rsp, 200		; 000000c8H
  0000e	48 8b ec	 mov	 rbp, rsp
  00011	48 8b fc	 mov	 rdi, rsp
  00014	b9 32 00 00 00	 mov	 ecx, 50			; 00000032H
  00019	b8 cc cc cc cc	 mov	 eax, -858993460		; ccccccccH
  0001e	f3 ab		 rep stosd
  00020	48 8b 8c 24 e8
	00 00 00	 mov	 rcx, QWORD PTR [rsp+232]
; Line 1234
  00028	48 8b 85 e0 00
	00 00		 mov	 rax, QWORD PTR _Arg$[rbp]
; Line 1235
  0002f	48 8d a5 c8 00
	00 00		 lea	 rsp, QWORD PTR [rbp+200]
  00036	5f		 pop	 rdi
  00037	5d		 pop	 rbp
  00038	c3		 ret	 0
??$forward@U_Container_proxy@std@@@std@@YA$$QEAU_Container_proxy@0@AEAU10@@Z ENDP ; std::forward<std::_Container_proxy>
_TEXT	ENDS
; Function compile flags: /Odtp /RTCsu /ZI
;	COMDAT ??$destroy@U_Container_proxy@std@@@?$allocator_traits@V?$allocator@U_Container_proxy@std@@@std@@@std@@SAXAEAV?$allocator@U_Container_proxy@std@@@1@PEAU_Container_proxy@1@@Z
_TEXT	SEGMENT
_Al$ = 224
_Ptr$ = 232
??$destroy@U_Container_proxy@std@@@?$allocator_traits@V?$allocator@U_Container_proxy@std@@@std@@@std@@SAXAEAV?$allocator@U_Container_proxy@std@@@1@PEAU_Container_proxy@1@@Z PROC ; std::allocator_traits<std::allocator<std::_Container_proxy> >::destroy<std::_Container_proxy>, COMDAT
; File d:\appdata\vsp\vc\include\xmemory0
; Line 779
$LN3:
  00000	48 89 54 24 10	 mov	 QWORD PTR [rsp+16], rdx
  00005	48 89 4c 24 08	 mov	 QWORD PTR [rsp+8], rcx
  0000a	55		 push	 rbp
  0000b	57		 push	 rdi
  0000c	48 81 ec e8 00
	00 00		 sub	 rsp, 232		; 000000e8H
  00013	48 8d 6c 24 20	 lea	 rbp, QWORD PTR [rsp+32]
  00018	48 8b fc	 mov	 rdi, rsp
  0001b	b9 3a 00 00 00	 mov	 ecx, 58			; 0000003aH
  00020	b8 cc cc cc cc	 mov	 eax, -858993460		; ccccccccH
  00025	f3 ab		 rep stosd
  00027	48 8b 8c 24 08
	01 00 00	 mov	 rcx, QWORD PTR [rsp+264]
; Line 780
  0002f	48 8b 95 e8 00
	00 00		 mov	 rdx, QWORD PTR _Ptr$[rbp]
  00036	48 8b 8d e0 00
	00 00		 mov	 rcx, QWORD PTR _Al$[rbp]
  0003d	e8 00 00 00 00	 call	 ??$destroy@U_Container_proxy@std@@@?$allocator@U_Container_proxy@std@@@std@@QEAAXPEAU_Container_proxy@1@@Z ; std::allocator<std::_Container_proxy>::destroy<std::_Container_proxy>
; Line 781
  00042	48 8d a5 c8 00
	00 00		 lea	 rsp, QWORD PTR [rbp+200]
  00049	5f		 pop	 rdi
  0004a	5d		 pop	 rbp
  0004b	c3		 ret	 0
??$destroy@U_Container_proxy@std@@@?$allocator_traits@V?$allocator@U_Container_proxy@std@@@std@@@std@@SAXAEAV?$allocator@U_Container_proxy@std@@@1@PEAU_Container_proxy@1@@Z ENDP ; std::allocator_traits<std::allocator<std::_Container_proxy> >::destroy<std::_Container_proxy>
_TEXT	ENDS
; Function compile flags: /Odtp /RTCsu /ZI
;	COMDAT ??$construct@PEADAEAPEAD@?$allocator_traits@V?$allocator@D@std@@@std@@SAXAEAV?$allocator@D@1@PEAPEADAEAPEAD@Z
_TEXT	SEGMENT
_Al$ = 224
_Ptr$ = 232
<_Args_0>$ = 240
??$construct@PEADAEAPEAD@?$allocator_traits@V?$allocator@D@std@@@std@@SAXAEAV?$allocator@D@1@PEAPEADAEAPEAD@Z PROC ; std::allocator_traits<std::allocator<char> >::construct<char * __ptr64,char * __ptr64 & __ptr64>, COMDAT
; File d:\appdata\vsp\vc\include\xmemory0
; Line 772
$LN3:
  00000	4c 89 44 24 18	 mov	 QWORD PTR [rsp+24], r8
  00005	48 89 54 24 10	 mov	 QWORD PTR [rsp+16], rdx
  0000a	48 89 4c 24 08	 mov	 QWORD PTR [rsp+8], rcx
  0000f	55		 push	 rbp
  00010	57		 push	 rdi
  00011	48 81 ec e8 00
	00 00		 sub	 rsp, 232		; 000000e8H
  00018	48 8d 6c 24 20	 lea	 rbp, QWORD PTR [rsp+32]
  0001d	48 8b fc	 mov	 rdi, rsp
  00020	b9 3a 00 00 00	 mov	 ecx, 58			; 0000003aH
  00025	b8 cc cc cc cc	 mov	 eax, -858993460		; ccccccccH
  0002a	f3 ab		 rep stosd
  0002c	48 8b 8c 24 08
	01 00 00	 mov	 rcx, QWORD PTR [rsp+264]
; Line 773
  00034	48 8b 8d f0 00
	00 00		 mov	 rcx, QWORD PTR <_Args_0>$[rbp]
  0003b	e8 00 00 00 00	 call	 ??$forward@AEAPEAD@std@@YAAEAPEADAEAPEAD@Z ; std::forward<char * __ptr64 & __ptr64>
  00040	4c 8b c0	 mov	 r8, rax
  00043	48 8b 95 e8 00
	00 00		 mov	 rdx, QWORD PTR _Ptr$[rbp]
  0004a	48 8b 8d e0 00
	00 00		 mov	 rcx, QWORD PTR _Al$[rbp]
  00051	e8 00 00 00 00	 call	 ??$construct@PEADAEAPEAD@?$allocator@D@std@@QEAAXPEAPEADAEAPEAD@Z ; std::allocator<char>::construct<char * __ptr64,char * __ptr64 & __ptr64>
; Line 774
  00056	48 8d a5 c8 00
	00 00		 lea	 rsp, QWORD PTR [rbp+200]
  0005d	5f		 pop	 rdi
  0005e	5d		 pop	 rbp
  0005f	c3		 ret	 0
??$construct@PEADAEAPEAD@?$allocator_traits@V?$allocator@D@std@@@std@@SAXAEAV?$allocator@D@1@PEAPEADAEAPEAD@Z ENDP ; std::allocator_traits<std::allocator<char> >::construct<char * __ptr64,char * __ptr64 & __ptr64>
_TEXT	ENDS
; Function compile flags: /Odtp /RTCsu /ZI
;	COMDAT ??$forward@AEAPEAD@std@@YAAEAPEADAEAPEAD@Z
_TEXT	SEGMENT
_Arg$ = 224
??$forward@AEAPEAD@std@@YAAEAPEADAEAPEAD@Z PROC		; std::forward<char * __ptr64 & __ptr64>, COMDAT
; File d:\appdata\vsp\vc\include\type_traits
; Line 1233
$LN3:
  00000	48 89 4c 24 08	 mov	 QWORD PTR [rsp+8], rcx
  00005	55		 push	 rbp
  00006	57		 push	 rdi
  00007	48 81 ec c8 00
	00 00		 sub	 rsp, 200		; 000000c8H
  0000e	48 8b ec	 mov	 rbp, rsp
  00011	48 8b fc	 mov	 rdi, rsp
  00014	b9 32 00 00 00	 mov	 ecx, 50			; 00000032H
  00019	b8 cc cc cc cc	 mov	 eax, -858993460		; ccccccccH
  0001e	f3 ab		 rep stosd
  00020	48 8b 8c 24 e8
	00 00 00	 mov	 rcx, QWORD PTR [rsp+232]
; Line 1234
  00028	48 8b 85 e0 00
	00 00		 mov	 rax, QWORD PTR _Arg$[rbp]
; Line 1235
  0002f	48 8d a5 c8 00
	00 00		 lea	 rsp, QWORD PTR [rbp+200]
  00036	5f		 pop	 rdi
  00037	5d		 pop	 rbp
  00038	c3		 ret	 0
??$forward@AEAPEAD@std@@YAAEAPEADAEAPEAD@Z ENDP		; std::forward<char * __ptr64 & __ptr64>
_TEXT	ENDS
; Function compile flags: /Odtp /RTCsu /ZI
;	COMDAT ??$_Addressof@D@std@@YAPEADAEADU?$integral_constant@_N$0A@@0@@Z
_TEXT	SEGMENT
_Val$ = 224
__formal$ = 232
??$_Addressof@D@std@@YAPEADAEADU?$integral_constant@_N$0A@@0@@Z PROC ; std::_Addressof<char>, COMDAT
; File d:\appdata\vsp\vc\include\xstddef
; Line 688
$LN3:
  00000	88 54 24 10	 mov	 BYTE PTR [rsp+16], dl
  00004	48 89 4c 24 08	 mov	 QWORD PTR [rsp+8], rcx
  00009	55		 push	 rbp
  0000a	57		 push	 rdi
  0000b	48 81 ec c8 00
	00 00		 sub	 rsp, 200		; 000000c8H
  00012	48 8b ec	 mov	 rbp, rsp
  00015	48 8b fc	 mov	 rdi, rsp
  00018	b9 32 00 00 00	 mov	 ecx, 50			; 00000032H
  0001d	b8 cc cc cc cc	 mov	 eax, -858993460		; ccccccccH
  00022	f3 ab		 rep stosd
  00024	48 8b 8c 24 e8
	00 00 00	 mov	 rcx, QWORD PTR [rsp+232]
; Line 689
  0002c	48 8b 85 e0 00
	00 00		 mov	 rax, QWORD PTR _Val$[rbp]
; Line 692
  00033	48 8d a5 c8 00
	00 00		 lea	 rsp, QWORD PTR [rbp+200]
  0003a	5f		 pop	 rdi
  0003b	5d		 pop	 rbp
  0003c	c3		 ret	 0
??$_Addressof@D@std@@YAPEADAEADU?$integral_constant@_N$0A@@0@@Z ENDP ; std::_Addressof<char>
_TEXT	ENDS
; Function compile flags: /Odtp /RTCsu /ZI
;	COMDAT ??$destroy@PEAD@?$allocator_traits@V?$allocator@D@std@@@std@@SAXAEAV?$allocator@D@1@PEAPEAD@Z
_TEXT	SEGMENT
_Al$ = 224
_Ptr$ = 232
??$destroy@PEAD@?$allocator_traits@V?$allocator@D@std@@@std@@SAXAEAV?$allocator@D@1@PEAPEAD@Z PROC ; std::allocator_traits<std::allocator<char> >::destroy<char * __ptr64>, COMDAT
; File d:\appdata\vsp\vc\include\xmemory0
; Line 779
$LN3:
  00000	48 89 54 24 10	 mov	 QWORD PTR [rsp+16], rdx
  00005	48 89 4c 24 08	 mov	 QWORD PTR [rsp+8], rcx
  0000a	55		 push	 rbp
  0000b	57		 push	 rdi
  0000c	48 81 ec e8 00
	00 00		 sub	 rsp, 232		; 000000e8H
  00013	48 8d 6c 24 20	 lea	 rbp, QWORD PTR [rsp+32]
  00018	48 8b fc	 mov	 rdi, rsp
  0001b	b9 3a 00 00 00	 mov	 ecx, 58			; 0000003aH
  00020	b8 cc cc cc cc	 mov	 eax, -858993460		; ccccccccH
  00025	f3 ab		 rep stosd
  00027	48 8b 8c 24 08
	01 00 00	 mov	 rcx, QWORD PTR [rsp+264]
; Line 780
  0002f	48 8b 95 e8 00
	00 00		 mov	 rdx, QWORD PTR _Ptr$[rbp]
  00036	48 8b 8d e0 00
	00 00		 mov	 rcx, QWORD PTR _Al$[rbp]
  0003d	e8 00 00 00 00	 call	 ??$destroy@PEAD@?$allocator@D@std@@QEAAXPEAPEAD@Z ; std::allocator<char>::destroy<char * __ptr64>
; Line 781
  00042	48 8d a5 c8 00
	00 00		 lea	 rsp, QWORD PTR [rbp+200]
  00049	5f		 pop	 rdi
  0004a	5d		 pop	 rbp
  0004b	c3		 ret	 0
??$destroy@PEAD@?$allocator_traits@V?$allocator@D@std@@@std@@SAXAEAV?$allocator@D@1@PEAPEAD@Z ENDP ; std::allocator_traits<std::allocator<char> >::destroy<char * __ptr64>
_TEXT	ENDS
; Function compile flags: /Odtp /RTCsu /ZI
;	COMDAT ??$forward@AEBV?$allocator@D@std@@@std@@YAAEBV?$allocator@D@0@AEBV10@@Z
_TEXT	SEGMENT
_Arg$ = 224
??$forward@AEBV?$allocator@D@std@@@std@@YAAEBV?$allocator@D@0@AEBV10@@Z PROC ; std::forward<std::allocator<char> const & __ptr64>, COMDAT
; File d:\appdata\vsp\vc\include\type_traits
; Line 1233
$LN3:
  00000	48 89 4c 24 08	 mov	 QWORD PTR [rsp+8], rcx
  00005	55		 push	 rbp
  00006	57		 push	 rdi
  00007	48 81 ec c8 00
	00 00		 sub	 rsp, 200		; 000000c8H
  0000e	48 8b ec	 mov	 rbp, rsp
  00011	48 8b fc	 mov	 rdi, rsp
  00014	b9 32 00 00 00	 mov	 ecx, 50			; 00000032H
  00019	b8 cc cc cc cc	 mov	 eax, -858993460		; ccccccccH
  0001e	f3 ab		 rep stosd
  00020	48 8b 8c 24 e8
	00 00 00	 mov	 rcx, QWORD PTR [rsp+232]
; Line 1234
  00028	48 8b 85 e0 00
	00 00		 mov	 rax, QWORD PTR _Arg$[rbp]
; Line 1235
  0002f	48 8d a5 c8 00
	00 00		 lea	 rsp, QWORD PTR [rbp+200]
  00036	5f		 pop	 rdi
  00037	5d		 pop	 rbp
  00038	c3		 ret	 0
??$forward@AEBV?$allocator@D@std@@@std@@YAAEBV?$allocator@D@0@AEBV10@@Z ENDP ; std::forward<std::allocator<char> const & __ptr64>
_TEXT	ENDS
; Function compile flags: /Odtp /RTCsu /ZI
;	COMDAT ??$forward@V?$allocator@D@std@@@std@@YA$$QEAV?$allocator@D@0@AEAV10@@Z
_TEXT	SEGMENT
_Arg$ = 224
??$forward@V?$allocator@D@std@@@std@@YA$$QEAV?$allocator@D@0@AEAV10@@Z PROC ; std::forward<std::allocator<char> >, COMDAT
; File d:\appdata\vsp\vc\include\type_traits
; Line 1233
$LN3:
  00000	48 89 4c 24 08	 mov	 QWORD PTR [rsp+8], rcx
  00005	55		 push	 rbp
  00006	57		 push	 rdi
  00007	48 81 ec c8 00
	00 00		 sub	 rsp, 200		; 000000c8H
  0000e	48 8b ec	 mov	 rbp, rsp
  00011	48 8b fc	 mov	 rdi, rsp
  00014	b9 32 00 00 00	 mov	 ecx, 50			; 00000032H
  00019	b8 cc cc cc cc	 mov	 eax, -858993460		; ccccccccH
  0001e	f3 ab		 rep stosd
  00020	48 8b 8c 24 e8
	00 00 00	 mov	 rcx, QWORD PTR [rsp+232]
; Line 1234
  00028	48 8b 85 e0 00
	00 00		 mov	 rax, QWORD PTR _Arg$[rbp]
; Line 1235
  0002f	48 8d a5 c8 00
	00 00		 lea	 rsp, QWORD PTR [rbp+200]
  00036	5f		 pop	 rdi
  00037	5d		 pop	 rbp
  00038	c3		 ret	 0
??$forward@V?$allocator@D@std@@@std@@YA$$QEAV?$allocator@D@0@AEAV10@@Z ENDP ; std::forward<std::allocator<char> >
_TEXT	ENDS
; Function compile flags: /Odtp /RTCsu /ZI
;	COMDAT ??1sentry@?$basic_istream@DU?$char_traits@D@std@@@std@@QEAA@XZ
_TEXT	SEGMENT
this$ = 224
??1sentry@?$basic_istream@DU?$char_traits@D@std@@@std@@QEAA@XZ PROC ; std::basic_istream<char,std::char_traits<char> >::sentry::~sentry, COMDAT
$LN3:
  00000	48 89 4c 24 08	 mov	 QWORD PTR [rsp+8], rcx
  00005	55		 push	 rbp
  00006	57		 push	 rdi
  00007	48 81 ec e8 00
	00 00		 sub	 rsp, 232		; 000000e8H
  0000e	48 8d 6c 24 20	 lea	 rbp, QWORD PTR [rsp+32]
  00013	48 8b fc	 mov	 rdi, rsp
  00016	b9 3a 00 00 00	 mov	 ecx, 58			; 0000003aH
  0001b	b8 cc cc cc cc	 mov	 eax, -858993460		; ccccccccH
  00020	f3 ab		 rep stosd
  00022	48 8b 8c 24 08
	01 00 00	 mov	 rcx, QWORD PTR [rsp+264]
  0002a	48 8b 8d e0 00
	00 00		 mov	 rcx, QWORD PTR this$[rbp]
  00031	e8 00 00 00 00	 call	 ??1_Sentry_base@?$basic_istream@DU?$char_traits@D@std@@@std@@QEAA@XZ ; std::basic_istream<char,std::char_traits<char> >::_Sentry_base::~_Sentry_base
  00036	48 8d a5 c8 00
	00 00		 lea	 rsp, QWORD PTR [rbp+200]
  0003d	5f		 pop	 rdi
  0003e	5d		 pop	 rbp
  0003f	c3		 ret	 0
??1sentry@?$basic_istream@DU?$char_traits@D@std@@@std@@QEAA@XZ ENDP ; std::basic_istream<char,std::char_traits<char> >::sentry::~sentry
_TEXT	ENDS
; Function compile flags: /Odtp /RTCsu /ZI
;	COMDAT ??Bsentry@?$basic_istream@DU?$char_traits@D@std@@@std@@QEBA_NXZ
_TEXT	SEGMENT
this$ = 224
??Bsentry@?$basic_istream@DU?$char_traits@D@std@@@std@@QEBA_NXZ PROC ; std::basic_istream<char,std::char_traits<char> >::sentry::operator bool, COMDAT
; File d:\appdata\vsp\vc\include\istream
; Line 122
$LN3:
  00000	48 89 4c 24 08	 mov	 QWORD PTR [rsp+8], rcx
  00005	55		 push	 rbp
  00006	57		 push	 rdi
  00007	48 81 ec c8 00
	00 00		 sub	 rsp, 200		; 000000c8H
  0000e	48 8b ec	 mov	 rbp, rsp
  00011	48 8b fc	 mov	 rdi, rsp
  00014	b9 32 00 00 00	 mov	 ecx, 50			; 00000032H
  00019	b8 cc cc cc cc	 mov	 eax, -858993460		; ccccccccH
  0001e	f3 ab		 rep stosd
  00020	48 8b 8c 24 e8
	00 00 00	 mov	 rcx, QWORD PTR [rsp+232]
; Line 123
  00028	48 8b 85 e0 00
	00 00		 mov	 rax, QWORD PTR this$[rbp]
  0002f	0f b6 40 08	 movzx	 eax, BYTE PTR [rax+8]
; Line 124
  00033	48 8d a5 c8 00
	00 00		 lea	 rsp, QWORD PTR [rbp+200]
  0003a	5f		 pop	 rdi
  0003b	5d		 pop	 rbp
  0003c	c3		 ret	 0
??Bsentry@?$basic_istream@DU?$char_traits@D@std@@@std@@QEBA_NXZ ENDP ; std::basic_istream<char,std::char_traits<char> >::sentry::operator bool
_TEXT	ENDS
; Function compile flags: /Odtp /RTCsu /ZI
;	COMDAT ??0sentry@?$basic_istream@DU?$char_traits@D@std@@@std@@QEAA@AEAV12@_N@Z
_TEXT	SEGMENT
$T1 = 200
this$ = 256
_Istr$ = 264
_Noskip$ = 272
??0sentry@?$basic_istream@DU?$char_traits@D@std@@@std@@QEAA@AEAV12@_N@Z PROC ; std::basic_istream<char,std::char_traits<char> >::sentry::sentry, COMDAT
; File d:\appdata\vsp\vc\include\istream
; Line 117
$LN4:
  00000	44 88 44 24 18	 mov	 BYTE PTR [rsp+24], r8b
  00005	48 89 54 24 10	 mov	 QWORD PTR [rsp+16], rdx
  0000a	48 89 4c 24 08	 mov	 QWORD PTR [rsp+8], rcx
  0000f	55		 push	 rbp
  00010	57		 push	 rdi
  00011	48 81 ec 08 01
	00 00		 sub	 rsp, 264		; 00000108H
  00018	48 8d 6c 24 20	 lea	 rbp, QWORD PTR [rsp+32]
  0001d	48 8b fc	 mov	 rdi, rsp
  00020	b9 42 00 00 00	 mov	 ecx, 66			; 00000042H
  00025	b8 cc cc cc cc	 mov	 eax, -858993460		; ccccccccH
  0002a	f3 ab		 rep stosd
  0002c	48 8b 8c 24 28
	01 00 00	 mov	 rcx, QWORD PTR [rsp+296]
  00034	48 c7 85 c8 00
	00 00 fe ff ff
	ff		 mov	 QWORD PTR $T1[rbp], -2
; Line 116
  0003f	48 8b 95 08 01
	00 00		 mov	 rdx, QWORD PTR _Istr$[rbp]
  00046	48 8b 8d 00 01
	00 00		 mov	 rcx, QWORD PTR this$[rbp]
  0004d	e8 00 00 00 00	 call	 ??0_Sentry_base@?$basic_istream@DU?$char_traits@D@std@@@std@@QEAA@AEAV12@@Z ; std::basic_istream<char,std::char_traits<char> >::_Sentry_base::_Sentry_base
  00052	90		 npad	 1
; Line 118
  00053	0f b6 95 10 01
	00 00		 movzx	 edx, BYTE PTR _Noskip$[rbp]
  0005a	48 8b 85 00 01
	00 00		 mov	 rax, QWORD PTR this$[rbp]
  00061	48 8b 08	 mov	 rcx, QWORD PTR [rax]
  00064	ff 15 00 00 00
	00		 call	 QWORD PTR __imp_?_Ipfx@?$basic_istream@DU?$char_traits@D@std@@@std@@QEAA_N_N@Z
  0006a	48 8b 8d 00 01
	00 00		 mov	 rcx, QWORD PTR this$[rbp]
  00071	88 41 08	 mov	 BYTE PTR [rcx+8], al
; Line 119
  00074	48 8b 85 00 01
	00 00		 mov	 rax, QWORD PTR this$[rbp]
  0007b	48 8d a5 e8 00
	00 00		 lea	 rsp, QWORD PTR [rbp+232]
  00082	5f		 pop	 rdi
  00083	5d		 pop	 rbp
  00084	c3		 ret	 0
??0sentry@?$basic_istream@DU?$char_traits@D@std@@@std@@QEAA@AEAV12@_N@Z ENDP ; std::basic_istream<char,std::char_traits<char> >::sentry::sentry
_TEXT	ENDS
;	COMDAT text$x
text$x	SEGMENT
$T1 = 200
this$ = 256
_Istr$ = 264
_Noskip$ = 272
?dtor$0@?0???0sentry@?$basic_istream@DU?$char_traits@D@std@@@std@@QEAA@AEAV12@_N@Z@4HA PROC ; `std::basic_istream<char,std::char_traits<char> >::sentry::sentry'::`1'::dtor$0
  00000	48 89 4c 24 08	 mov	 QWORD PTR [rsp+8], rcx
  00005	48 89 54 24 10	 mov	 QWORD PTR [rsp+16], rdx
  0000a	55		 push	 rbp
  0000b	57		 push	 rdi
  0000c	48 83 ec 28	 sub	 rsp, 40			; 00000028H
  00010	48 8d 6a 20	 lea	 rbp, QWORD PTR [rdx+32]
  00014	48 8b 8d 00 01
	00 00		 mov	 rcx, QWORD PTR this$[rbp]
  0001b	e8 00 00 00 00	 call	 ??1_Sentry_base@?$basic_istream@DU?$char_traits@D@std@@@std@@QEAA@XZ ; std::basic_istream<char,std::char_traits<char> >::_Sentry_base::~_Sentry_base
  00020	48 83 c4 28	 add	 rsp, 40			; 00000028H
  00024	5f		 pop	 rdi
  00025	5d		 pop	 rbp
  00026	c3		 ret	 0
?dtor$0@?0???0sentry@?$basic_istream@DU?$char_traits@D@std@@@std@@QEAA@AEAV12@_N@Z@4HA ENDP ; `std::basic_istream<char,std::char_traits<char> >::sentry::sentry'::`1'::dtor$0
text$x	ENDS
; Function compile flags: /Odtp /RTCsu /ZI
;	COMDAT text$x
text$x	SEGMENT
$T1 = 200
this$ = 256
_Istr$ = 264
_Noskip$ = 272
?dtor$0@?0???0sentry@?$basic_istream@DU?$char_traits@D@std@@@std@@QEAA@AEAV12@_N@Z@4HA PROC ; `std::basic_istream<char,std::char_traits<char> >::sentry::sentry'::`1'::dtor$0
  00000	48 89 4c 24 08	 mov	 QWORD PTR [rsp+8], rcx
  00005	48 89 54 24 10	 mov	 QWORD PTR [rsp+16], rdx
  0000a	55		 push	 rbp
  0000b	57		 push	 rdi
  0000c	48 83 ec 28	 sub	 rsp, 40			; 00000028H
  00010	48 8d 6a 20	 lea	 rbp, QWORD PTR [rdx+32]
  00014	48 8b 8d 00 01
	00 00		 mov	 rcx, QWORD PTR this$[rbp]
  0001b	e8 00 00 00 00	 call	 ??1_Sentry_base@?$basic_istream@DU?$char_traits@D@std@@@std@@QEAA@XZ ; std::basic_istream<char,std::char_traits<char> >::_Sentry_base::~_Sentry_base
  00020	48 83 c4 28	 add	 rsp, 40			; 00000028H
  00024	5f		 pop	 rdi
  00025	5d		 pop	 rbp
  00026	c3		 ret	 0
?dtor$0@?0???0sentry@?$basic_istream@DU?$char_traits@D@std@@@std@@QEAA@AEAV12@_N@Z@4HA ENDP ; `std::basic_istream<char,std::char_traits<char> >::sentry::sentry'::`1'::dtor$0
text$x	ENDS
; Function compile flags: /Odtp /RTCsu /ZI
;	COMDAT ??1_Sentry_base@?$basic_istream@DU?$char_traits@D@std@@@std@@QEAA@XZ
_TEXT	SEGMENT
$T1 = 200
tv87 = 216
tv72 = 216
tv94 = 224
this$ = 272
??1_Sentry_base@?$basic_istream@DU?$char_traits@D@std@@@std@@QEAA@XZ PROC ; std::basic_istream<char,std::char_traits<char> >::_Sentry_base::~_Sentry_base, COMDAT
; File d:\appdata\vsp\vc\include\istream
; Line 100
$LN4:
  00000	48 89 4c 24 08	 mov	 QWORD PTR [rsp+8], rcx
  00005	55		 push	 rbp
  00006	57		 push	 rdi
  00007	48 81 ec 18 01
	00 00		 sub	 rsp, 280		; 00000118H
  0000e	48 8d 6c 24 20	 lea	 rbp, QWORD PTR [rsp+32]
  00013	48 8b fc	 mov	 rdi, rsp
  00016	b9 46 00 00 00	 mov	 ecx, 70			; 00000046H
  0001b	b8 cc cc cc cc	 mov	 eax, -858993460		; ccccccccH
  00020	f3 ab		 rep stosd
  00022	48 8b 8c 24 38
	01 00 00	 mov	 rcx, QWORD PTR [rsp+312]
  0002a	48 c7 85 c8 00
	00 00 fe ff ff
	ff		 mov	 QWORD PTR $T1[rbp], -2
; Line 101
  00035	48 8b 85 10 01
	00 00		 mov	 rax, QWORD PTR this$[rbp]
  0003c	48 8b 00	 mov	 rax, QWORD PTR [rax]
  0003f	48 89 85 d8 00
	00 00		 mov	 QWORD PTR tv72[rbp], rax
  00046	48 8b 85 d8 00
	00 00		 mov	 rax, QWORD PTR tv72[rbp]
  0004d	48 8b 00	 mov	 rax, QWORD PTR [rax]
  00050	48 63 40 04	 movsxd	 rax, DWORD PTR [rax+4]
  00054	48 8b 8d d8 00
	00 00		 mov	 rcx, QWORD PTR tv72[rbp]
  0005b	48 03 c8	 add	 rcx, rax
  0005e	48 8b c1	 mov	 rax, rcx
  00061	48 8b c8	 mov	 rcx, rax
  00064	ff 15 00 00 00
	00		 call	 QWORD PTR __imp_?rdbuf@?$basic_ios@DU?$char_traits@D@std@@@std@@QEBAPEAV?$basic_streambuf@DU?$char_traits@D@std@@@2@XZ
  0006a	90		 npad	 1
  0006b	48 85 c0	 test	 rax, rax
  0006e	74 52		 je	 SHORT $LN2@Sentry_bas
; Line 102
  00070	48 8b 85 10 01
	00 00		 mov	 rax, QWORD PTR this$[rbp]
  00077	48 8b 00	 mov	 rax, QWORD PTR [rax]
  0007a	48 89 85 d8 00
	00 00		 mov	 QWORD PTR tv87[rbp], rax
  00081	48 8b 85 d8 00
	00 00		 mov	 rax, QWORD PTR tv87[rbp]
  00088	48 8b 00	 mov	 rax, QWORD PTR [rax]
  0008b	48 63 40 04	 movsxd	 rax, DWORD PTR [rax+4]
  0008f	48 8b 8d d8 00
	00 00		 mov	 rcx, QWORD PTR tv87[rbp]
  00096	48 03 c8	 add	 rcx, rax
  00099	48 8b c1	 mov	 rax, rcx
  0009c	48 8b c8	 mov	 rcx, rax
  0009f	ff 15 00 00 00
	00		 call	 QWORD PTR __imp_?rdbuf@?$basic_ios@DU?$char_traits@D@std@@@std@@QEBAPEAV?$basic_streambuf@DU?$char_traits@D@std@@@2@XZ
  000a5	90		 npad	 1
  000a6	48 89 85 e0 00
	00 00		 mov	 QWORD PTR tv94[rbp], rax
  000ad	48 8b 85 e0 00
	00 00		 mov	 rax, QWORD PTR tv94[rbp]
  000b4	48 8b 00	 mov	 rax, QWORD PTR [rax]
  000b7	48 8b 8d e0 00
	00 00		 mov	 rcx, QWORD PTR tv94[rbp]
  000be	ff 50 10	 call	 QWORD PTR [rax+16]
  000c1	90		 npad	 1
$LN2@Sentry_bas:
; Line 103
  000c2	48 8d a5 f8 00
	00 00		 lea	 rsp, QWORD PTR [rbp+248]
  000c9	5f		 pop	 rdi
  000ca	5d		 pop	 rbp
  000cb	c3		 ret	 0
??1_Sentry_base@?$basic_istream@DU?$char_traits@D@std@@@std@@QEAA@XZ ENDP ; std::basic_istream<char,std::char_traits<char> >::_Sentry_base::~_Sentry_base
_TEXT	ENDS
; Function compile flags: /Odtp /RTCsu /ZI
;	COMDAT ??0_Sentry_base@?$basic_istream@DU?$char_traits@D@std@@@std@@QEAA@AEAV12@@Z
_TEXT	SEGMENT
tv88 = 192
tv73 = 192
tv95 = 200
this$ = 240
_Istr$ = 248
??0_Sentry_base@?$basic_istream@DU?$char_traits@D@std@@@std@@QEAA@AEAV12@@Z PROC ; std::basic_istream<char,std::char_traits<char> >::_Sentry_base::_Sentry_base, COMDAT
; File d:\appdata\vsp\vc\include\istream
; Line 94
$LN4:
  00000	48 89 54 24 10	 mov	 QWORD PTR [rsp+16], rdx
  00005	48 89 4c 24 08	 mov	 QWORD PTR [rsp+8], rcx
  0000a	55		 push	 rbp
  0000b	57		 push	 rdi
  0000c	48 81 ec f8 00
	00 00		 sub	 rsp, 248		; 000000f8H
  00013	48 8d 6c 24 20	 lea	 rbp, QWORD PTR [rsp+32]
  00018	48 8b fc	 mov	 rdi, rsp
  0001b	b9 3e 00 00 00	 mov	 ecx, 62			; 0000003eH
  00020	b8 cc cc cc cc	 mov	 eax, -858993460		; ccccccccH
  00025	f3 ab		 rep stosd
  00027	48 8b 8c 24 18
	01 00 00	 mov	 rcx, QWORD PTR [rsp+280]
; Line 93
  0002f	48 8b 85 f0 00
	00 00		 mov	 rax, QWORD PTR this$[rbp]
  00036	48 8b 8d f8 00
	00 00		 mov	 rcx, QWORD PTR _Istr$[rbp]
  0003d	48 89 08	 mov	 QWORD PTR [rax], rcx
; Line 95
  00040	48 8b 85 f0 00
	00 00		 mov	 rax, QWORD PTR this$[rbp]
  00047	48 8b 00	 mov	 rax, QWORD PTR [rax]
  0004a	48 89 85 c0 00
	00 00		 mov	 QWORD PTR tv73[rbp], rax
  00051	48 8b 85 c0 00
	00 00		 mov	 rax, QWORD PTR tv73[rbp]
  00058	48 8b 00	 mov	 rax, QWORD PTR [rax]
  0005b	48 63 40 04	 movsxd	 rax, DWORD PTR [rax+4]
  0005f	48 8b 8d c0 00
	00 00		 mov	 rcx, QWORD PTR tv73[rbp]
  00066	48 03 c8	 add	 rcx, rax
  00069	48 8b c1	 mov	 rax, rcx
  0006c	48 8b c8	 mov	 rcx, rax
  0006f	ff 15 00 00 00
	00		 call	 QWORD PTR __imp_?rdbuf@?$basic_ios@DU?$char_traits@D@std@@@std@@QEBAPEAV?$basic_streambuf@DU?$char_traits@D@std@@@2@XZ
  00075	48 85 c0	 test	 rax, rax
  00078	74 50		 je	 SHORT $LN2@Sentry_bas
; Line 96
  0007a	48 8b 85 f0 00
	00 00		 mov	 rax, QWORD PTR this$[rbp]
  00081	48 8b 00	 mov	 rax, QWORD PTR [rax]
  00084	48 89 85 c0 00
	00 00		 mov	 QWORD PTR tv88[rbp], rax
  0008b	48 8b 85 c0 00
	00 00		 mov	 rax, QWORD PTR tv88[rbp]
  00092	48 8b 00	 mov	 rax, QWORD PTR [rax]
  00095	48 63 40 04	 movsxd	 rax, DWORD PTR [rax+4]
  00099	48 8b 8d c0 00
	00 00		 mov	 rcx, QWORD PTR tv88[rbp]
  000a0	48 03 c8	 add	 rcx, rax
  000a3	48 8b c1	 mov	 rax, rcx
  000a6	48 8b c8	 mov	 rcx, rax
  000a9	ff 15 00 00 00
	00		 call	 QWORD PTR __imp_?rdbuf@?$basic_ios@DU?$char_traits@D@std@@@std@@QEBAPEAV?$basic_streambuf@DU?$char_traits@D@std@@@2@XZ
  000af	48 89 85 c8 00
	00 00		 mov	 QWORD PTR tv95[rbp], rax
  000b6	48 8b 85 c8 00
	00 00		 mov	 rax, QWORD PTR tv95[rbp]
  000bd	48 8b 00	 mov	 rax, QWORD PTR [rax]
  000c0	48 8b 8d c8 00
	00 00		 mov	 rcx, QWORD PTR tv95[rbp]
  000c7	ff 50 08	 call	 QWORD PTR [rax+8]
$LN2@Sentry_bas:
; Line 97
  000ca	48 8b 85 f0 00
	00 00		 mov	 rax, QWORD PTR this$[rbp]
  000d1	48 8d a5 d8 00
	00 00		 lea	 rsp, QWORD PTR [rbp+216]
  000d8	5f		 pop	 rdi
  000d9	5d		 pop	 rbp
  000da	c3		 ret	 0
??0_Sentry_base@?$basic_istream@DU?$char_traits@D@std@@@std@@QEAA@AEAV12@@Z ENDP ; std::basic_istream<char,std::char_traits<char> >::_Sentry_base::_Sentry_base
_TEXT	ENDS
; Function compile flags: /Odtp /RTCsu /ZI
;	COMDAT ??$?0D@?$allocator@U_Container_proxy@std@@@std@@QEAA@AEBV?$allocator@D@1@@Z
_TEXT	SEGMENT
this$ = 224
__formal$ = 232
??$?0D@?$allocator@U_Container_proxy@std@@@std@@QEAA@AEBV?$allocator@D@1@@Z PROC ; std::allocator<std::_Container_proxy>::allocator<std::_Container_proxy><char>, COMDAT
; File d:\appdata\vsp\vc\include\xmemory0
; Line 627
$LN3:
  00000	48 89 54 24 10	 mov	 QWORD PTR [rsp+16], rdx
  00005	48 89 4c 24 08	 mov	 QWORD PTR [rsp+8], rcx
  0000a	55		 push	 rbp
  0000b	57		 push	 rdi
  0000c	48 81 ec c8 00
	00 00		 sub	 rsp, 200		; 000000c8H
  00013	48 8b ec	 mov	 rbp, rsp
  00016	48 8b fc	 mov	 rdi, rsp
  00019	b9 32 00 00 00	 mov	 ecx, 50			; 00000032H
  0001e	b8 cc cc cc cc	 mov	 eax, -858993460		; ccccccccH
  00023	f3 ab		 rep stosd
  00025	48 8b 8c 24 e8
	00 00 00	 mov	 rcx, QWORD PTR [rsp+232]
; Line 628
  0002d	48 8b 85 e0 00
	00 00		 mov	 rax, QWORD PTR this$[rbp]
  00034	48 8d a5 c8 00
	00 00		 lea	 rsp, QWORD PTR [rbp+200]
  0003b	5f		 pop	 rdi
  0003c	5d		 pop	 rbp
  0003d	c3		 ret	 0
??$?0D@?$allocator@U_Container_proxy@std@@@std@@QEAA@AEBV?$allocator@D@1@@Z ENDP ; std::allocator<std::_Container_proxy>::allocator<std::_Container_proxy><char>
_TEXT	ENDS
; Function compile flags: /Odtp /RTCsu /ZI
;	COMDAT ??$?0U?$_Wrap_alloc@V?$allocator@D@std@@@std@@@?$_Wrap_alloc@V?$allocator@U_Container_proxy@std@@@std@@@std@@QEAA@AEAU?$_Wrap_alloc@V?$allocator@D@std@@@1@@Z
_TEXT	SEGMENT
this$ = 224
_Right$ = 232
??$?0U?$_Wrap_alloc@V?$allocator@D@std@@@std@@@?$_Wrap_alloc@V?$allocator@U_Container_proxy@std@@@std@@@std@@QEAA@AEAU?$_Wrap_alloc@V?$allocator@D@std@@@1@@Z PROC ; std::_Wrap_alloc<std::allocator<std::_Container_proxy> >::_Wrap_alloc<std::allocator<std::_Container_proxy> ><std::_Wrap_alloc<std::allocator<char> > >, COMDAT
; File d:\appdata\vsp\vc\include\xmemory0
; Line 874
$LN3:
  00000	48 89 54 24 10	 mov	 QWORD PTR [rsp+16], rdx
  00005	48 89 4c 24 08	 mov	 QWORD PTR [rsp+8], rcx
  0000a	55		 push	 rbp
  0000b	57		 push	 rdi
  0000c	48 81 ec e8 00
	00 00		 sub	 rsp, 232		; 000000e8H
  00013	48 8d 6c 24 20	 lea	 rbp, QWORD PTR [rsp+32]
  00018	48 8b fc	 mov	 rdi, rsp
  0001b	b9 3a 00 00 00	 mov	 ecx, 58			; 0000003aH
  00020	b8 cc cc cc cc	 mov	 eax, -858993460		; ccccccccH
  00025	f3 ab		 rep stosd
  00027	48 8b 8c 24 08
	01 00 00	 mov	 rcx, QWORD PTR [rsp+264]
; Line 873
  0002f	48 8b 95 e8 00
	00 00		 mov	 rdx, QWORD PTR _Right$[rbp]
  00036	48 8b 8d e0 00
	00 00		 mov	 rcx, QWORD PTR this$[rbp]
  0003d	e8 00 00 00 00	 call	 ??$?0D@?$allocator@U_Container_proxy@std@@@std@@QEAA@AEBV?$allocator@D@1@@Z ; std::allocator<std::_Container_proxy>::allocator<std::_Container_proxy><char>
; Line 875
  00042	48 8b 85 e0 00
	00 00		 mov	 rax, QWORD PTR this$[rbp]
  00049	48 8d a5 c8 00
	00 00		 lea	 rsp, QWORD PTR [rbp+200]
  00050	5f		 pop	 rdi
  00051	5d		 pop	 rbp
  00052	c3		 ret	 0
??$?0U?$_Wrap_alloc@V?$allocator@D@std@@@std@@@?$_Wrap_alloc@V?$allocator@U_Container_proxy@std@@@std@@@std@@QEAA@AEAU?$_Wrap_alloc@V?$allocator@D@std@@@1@@Z ENDP ; std::_Wrap_alloc<std::allocator<std::_Container_proxy> >::_Wrap_alloc<std::allocator<std::_Container_proxy> ><std::_Wrap_alloc<std::allocator<char> > >
_TEXT	ENDS
; Function compile flags: /Odtp /RTCsu /ZI
;	COMDAT ??$construct@U_Container_proxy@std@@U12@@?$_Wrap_alloc@V?$allocator@U_Container_proxy@std@@@std@@@std@@QEAAXPEAU_Container_proxy@1@$$QEAU21@@Z
_TEXT	SEGMENT
this$ = 224
_Ptr$ = 232
<_Args_0>$ = 240
??$construct@U_Container_proxy@std@@U12@@?$_Wrap_alloc@V?$allocator@U_Container_proxy@std@@@std@@@std@@QEAAXPEAU_Container_proxy@1@$$QEAU21@@Z PROC ; std::_Wrap_alloc<std::allocator<std::_Container_proxy> >::construct<std::_Container_proxy,std::_Container_proxy>, COMDAT
; File d:\appdata\vsp\vc\include\xmemory0
; Line 916
$LN3:
  00000	4c 89 44 24 18	 mov	 QWORD PTR [rsp+24], r8
  00005	48 89 54 24 10	 mov	 QWORD PTR [rsp+16], rdx
  0000a	48 89 4c 24 08	 mov	 QWORD PTR [rsp+8], rcx
  0000f	55		 push	 rbp
  00010	57		 push	 rdi
  00011	48 81 ec e8 00
	00 00		 sub	 rsp, 232		; 000000e8H
  00018	48 8d 6c 24 20	 lea	 rbp, QWORD PTR [rsp+32]
  0001d	48 8b fc	 mov	 rdi, rsp
  00020	b9 3a 00 00 00	 mov	 ecx, 58			; 0000003aH
  00025	b8 cc cc cc cc	 mov	 eax, -858993460		; ccccccccH
  0002a	f3 ab		 rep stosd
  0002c	48 8b 8c 24 08
	01 00 00	 mov	 rcx, QWORD PTR [rsp+264]
; Line 917
  00034	48 8b 8d f0 00
	00 00		 mov	 rcx, QWORD PTR <_Args_0>$[rbp]
  0003b	e8 00 00 00 00	 call	 ??$forward@U_Container_proxy@std@@@std@@YA$$QEAU_Container_proxy@0@AEAU10@@Z ; std::forward<std::_Container_proxy>
  00040	4c 8b c0	 mov	 r8, rax
  00043	48 8b 95 e8 00
	00 00		 mov	 rdx, QWORD PTR _Ptr$[rbp]
  0004a	48 8b 8d e0 00
	00 00		 mov	 rcx, QWORD PTR this$[rbp]
  00051	e8 00 00 00 00	 call	 ??$construct@U_Container_proxy@std@@U12@@?$allocator_traits@V?$allocator@U_Container_proxy@std@@@std@@@std@@SAXAEAV?$allocator@U_Container_proxy@std@@@1@PEAU_Container_proxy@1@$$QEAU31@@Z ; std::allocator_traits<std::allocator<std::_Container_proxy> >::construct<std::_Container_proxy,std::_Container_proxy>
; Line 919
  00056	48 8d a5 c8 00
	00 00		 lea	 rsp, QWORD PTR [rbp+200]
  0005d	5f		 pop	 rdi
  0005e	5d		 pop	 rbp
  0005f	c3		 ret	 0
??$construct@U_Container_proxy@std@@U12@@?$_Wrap_alloc@V?$allocator@U_Container_proxy@std@@@std@@@std@@QEAAXPEAU_Container_proxy@1@$$QEAU21@@Z ENDP ; std::_Wrap_alloc<std::allocator<std::_Container_proxy> >::construct<std::_Container_proxy,std::_Container_proxy>
_TEXT	ENDS
; Function compile flags: /Odtp /RTCsu /ZI
;	COMDAT ??$destroy@U_Container_proxy@std@@@?$_Wrap_alloc@V?$allocator@U_Container_proxy@std@@@std@@@std@@QEAAXPEAU_Container_proxy@1@@Z
_TEXT	SEGMENT
this$ = 224
_Ptr$ = 232
??$destroy@U_Container_proxy@std@@@?$_Wrap_alloc@V?$allocator@U_Container_proxy@std@@@std@@@std@@QEAAXPEAU_Container_proxy@1@@Z PROC ; std::_Wrap_alloc<std::allocator<std::_Container_proxy> >::destroy<std::_Container_proxy>, COMDAT
; File d:\appdata\vsp\vc\include\xmemory0
; Line 924
$LN3:
  00000	48 89 54 24 10	 mov	 QWORD PTR [rsp+16], rdx
  00005	48 89 4c 24 08	 mov	 QWORD PTR [rsp+8], rcx
  0000a	55		 push	 rbp
  0000b	57		 push	 rdi
  0000c	48 81 ec e8 00
	00 00		 sub	 rsp, 232		; 000000e8H
  00013	48 8d 6c 24 20	 lea	 rbp, QWORD PTR [rsp+32]
  00018	48 8b fc	 mov	 rdi, rsp
  0001b	b9 3a 00 00 00	 mov	 ecx, 58			; 0000003aH
  00020	b8 cc cc cc cc	 mov	 eax, -858993460		; ccccccccH
  00025	f3 ab		 rep stosd
  00027	48 8b 8c 24 08
	01 00 00	 mov	 rcx, QWORD PTR [rsp+264]
; Line 925
  0002f	48 8b 95 e8 00
	00 00		 mov	 rdx, QWORD PTR _Ptr$[rbp]
  00036	48 8b 8d e0 00
	00 00		 mov	 rcx, QWORD PTR this$[rbp]
  0003d	e8 00 00 00 00	 call	 ??$destroy@U_Container_proxy@std@@@?$allocator_traits@V?$allocator@U_Container_proxy@std@@@std@@@std@@SAXAEAV?$allocator@U_Container_proxy@std@@@1@PEAU_Container_proxy@1@@Z ; std::allocator_traits<std::allocator<std::_Container_proxy> >::destroy<std::_Container_proxy>
; Line 926
  00042	48 8d a5 c8 00
	00 00		 lea	 rsp, QWORD PTR [rbp+200]
  00049	5f		 pop	 rdi
  0004a	5d		 pop	 rbp
  0004b	c3		 ret	 0
??$destroy@U_Container_proxy@std@@@?$_Wrap_alloc@V?$allocator@U_Container_proxy@std@@@std@@@std@@QEAAXPEAU_Container_proxy@1@@Z ENDP ; std::_Wrap_alloc<std::allocator<std::_Container_proxy> >::destroy<std::_Container_proxy>
_TEXT	ENDS
; Function compile flags: /Odtp /RTCsu /ZI
;	COMDAT ?deallocate@?$_Wrap_alloc@V?$allocator@U_Container_proxy@std@@@std@@@std@@QEAAXPEAU_Container_proxy@2@_K@Z
_TEXT	SEGMENT
this$ = 224
_Ptr$ = 232
_Count$ = 240
?deallocate@?$_Wrap_alloc@V?$allocator@U_Container_proxy@std@@@std@@@std@@QEAAXPEAU_Container_proxy@2@_K@Z PROC ; std::_Wrap_alloc<std::allocator<std::_Container_proxy> >::deallocate, COMDAT
; File d:\appdata\vsp\vc\include\xmemory0
; Line 908
$LN3:
  00000	4c 89 44 24 18	 mov	 QWORD PTR [rsp+24], r8
  00005	48 89 54 24 10	 mov	 QWORD PTR [rsp+16], rdx
  0000a	48 89 4c 24 08	 mov	 QWORD PTR [rsp+8], rcx
  0000f	55		 push	 rbp
  00010	57		 push	 rdi
  00011	48 81 ec e8 00
	00 00		 sub	 rsp, 232		; 000000e8H
  00018	48 8d 6c 24 20	 lea	 rbp, QWORD PTR [rsp+32]
  0001d	48 8b fc	 mov	 rdi, rsp
  00020	b9 3a 00 00 00	 mov	 ecx, 58			; 0000003aH
  00025	b8 cc cc cc cc	 mov	 eax, -858993460		; ccccccccH
  0002a	f3 ab		 rep stosd
  0002c	48 8b 8c 24 08
	01 00 00	 mov	 rcx, QWORD PTR [rsp+264]
; Line 909
  00034	4c 8b 85 f0 00
	00 00		 mov	 r8, QWORD PTR _Count$[rbp]
  0003b	48 8b 95 e8 00
	00 00		 mov	 rdx, QWORD PTR _Ptr$[rbp]
  00042	48 8b 8d e0 00
	00 00		 mov	 rcx, QWORD PTR this$[rbp]
  00049	e8 00 00 00 00	 call	 ?deallocate@?$allocator@U_Container_proxy@std@@@std@@QEAAXPEAU_Container_proxy@2@_K@Z ; std::allocator<std::_Container_proxy>::deallocate
; Line 910
  0004e	48 8d a5 c8 00
	00 00		 lea	 rsp, QWORD PTR [rbp+200]
  00055	5f		 pop	 rdi
  00056	5d		 pop	 rbp
  00057	c3		 ret	 0
?deallocate@?$_Wrap_alloc@V?$allocator@U_Container_proxy@std@@@std@@@std@@QEAAXPEAU_Container_proxy@2@_K@Z ENDP ; std::_Wrap_alloc<std::allocator<std::_Container_proxy> >::deallocate
_TEXT	ENDS
; Function compile flags: /Odtp /RTCsu /ZI
;	COMDAT ?allocate@?$_Wrap_alloc@V?$allocator@U_Container_proxy@std@@@std@@@std@@QEAAPEAU_Container_proxy@2@_K@Z
_TEXT	SEGMENT
this$ = 224
_Count$ = 232
?allocate@?$_Wrap_alloc@V?$allocator@U_Container_proxy@std@@@std@@@std@@QEAAPEAU_Container_proxy@2@_K@Z PROC ; std::_Wrap_alloc<std::allocator<std::_Container_proxy> >::allocate, COMDAT
; File d:\appdata\vsp\vc\include\xmemory0
; Line 897
$LN3:
  00000	48 89 54 24 10	 mov	 QWORD PTR [rsp+16], rdx
  00005	48 89 4c 24 08	 mov	 QWORD PTR [rsp+8], rcx
  0000a	55		 push	 rbp
  0000b	57		 push	 rdi
  0000c	48 81 ec e8 00
	00 00		 sub	 rsp, 232		; 000000e8H
  00013	48 8d 6c 24 20	 lea	 rbp, QWORD PTR [rsp+32]
  00018	48 8b fc	 mov	 rdi, rsp
  0001b	b9 3a 00 00 00	 mov	 ecx, 58			; 0000003aH
  00020	b8 cc cc cc cc	 mov	 eax, -858993460		; ccccccccH
  00025	f3 ab		 rep stosd
  00027	48 8b 8c 24 08
	01 00 00	 mov	 rcx, QWORD PTR [rsp+264]
; Line 898
  0002f	48 8b 95 e8 00
	00 00		 mov	 rdx, QWORD PTR _Count$[rbp]
  00036	48 8b 8d e0 00
	00 00		 mov	 rcx, QWORD PTR this$[rbp]
  0003d	e8 00 00 00 00	 call	 ?allocate@?$allocator@U_Container_proxy@std@@@std@@QEAAPEAU_Container_proxy@2@_K@Z ; std::allocator<std::_Container_proxy>::allocate
; Line 899
  00042	48 8d a5 c8 00
	00 00		 lea	 rsp, QWORD PTR [rbp+200]
  00049	5f		 pop	 rdi
  0004a	5d		 pop	 rbp
  0004b	c3		 ret	 0
?allocate@?$_Wrap_alloc@V?$allocator@U_Container_proxy@std@@@std@@@std@@QEAAPEAU_Container_proxy@2@_K@Z ENDP ; std::_Wrap_alloc<std::allocator<std::_Container_proxy> >::allocate
_TEXT	ENDS
; Function compile flags: /Odtp /RTCsu /ZI
;	COMDAT ?allocate@?$allocator@U_Container_proxy@std@@@std@@QEAAPEAU_Container_proxy@2@_K@Z
_TEXT	SEGMENT
this$ = 224
_Count$ = 232
?allocate@?$allocator@U_Container_proxy@std@@@std@@QEAAPEAU_Container_proxy@2@_K@Z PROC ; std::allocator<std::_Container_proxy>::allocate, COMDAT
; File d:\appdata\vsp\vc\include\xmemory0
; Line 642
$LN3:
  00000	48 89 54 24 10	 mov	 QWORD PTR [rsp+16], rdx
  00005	48 89 4c 24 08	 mov	 QWORD PTR [rsp+8], rcx
  0000a	55		 push	 rbp
  0000b	57		 push	 rdi
  0000c	48 81 ec e8 00
	00 00		 sub	 rsp, 232		; 000000e8H
  00013	48 8d 6c 24 20	 lea	 rbp, QWORD PTR [rsp+32]
  00018	48 8b fc	 mov	 rdi, rsp
  0001b	b9 3a 00 00 00	 mov	 ecx, 58			; 0000003aH
  00020	b8 cc cc cc cc	 mov	 eax, -858993460		; ccccccccH
  00025	f3 ab		 rep stosd
  00027	48 8b 8c 24 08
	01 00 00	 mov	 rcx, QWORD PTR [rsp+264]
; Line 643
  0002f	41 b0 01	 mov	 r8b, 1
  00032	ba 10 00 00 00	 mov	 edx, 16
  00037	48 8b 8d e8 00
	00 00		 mov	 rcx, QWORD PTR _Count$[rbp]
  0003e	e8 00 00 00 00	 call	 ?_Allocate@std@@YAPEAX_K0_N@Z ; std::_Allocate
; Line 644
  00043	48 8d a5 c8 00
	00 00		 lea	 rsp, QWORD PTR [rbp+200]
  0004a	5f		 pop	 rdi
  0004b	5d		 pop	 rbp
  0004c	c3		 ret	 0
?allocate@?$allocator@U_Container_proxy@std@@@std@@QEAAPEAU_Container_proxy@2@_K@Z ENDP ; std::allocator<std::_Container_proxy>::allocate
_TEXT	ENDS
; Function compile flags: /Odtp /RTCsu /ZI
;	COMDAT ?deallocate@?$allocator@U_Container_proxy@std@@@std@@QEAAXPEAU_Container_proxy@2@_K@Z
_TEXT	SEGMENT
this$ = 224
_Ptr$ = 232
_Count$ = 240
?deallocate@?$allocator@U_Container_proxy@std@@@std@@QEAAXPEAU_Container_proxy@2@_K@Z PROC ; std::allocator<std::_Container_proxy>::deallocate, COMDAT
; File d:\appdata\vsp\vc\include\xmemory0
; Line 637
$LN3:
  00000	4c 89 44 24 18	 mov	 QWORD PTR [rsp+24], r8
  00005	48 89 54 24 10	 mov	 QWORD PTR [rsp+16], rdx
  0000a	48 89 4c 24 08	 mov	 QWORD PTR [rsp+8], rcx
  0000f	55		 push	 rbp
  00010	57		 push	 rdi
  00011	48 81 ec e8 00
	00 00		 sub	 rsp, 232		; 000000e8H
  00018	48 8d 6c 24 20	 lea	 rbp, QWORD PTR [rsp+32]
  0001d	48 8b fc	 mov	 rdi, rsp
  00020	b9 3a 00 00 00	 mov	 ecx, 58			; 0000003aH
  00025	b8 cc cc cc cc	 mov	 eax, -858993460		; ccccccccH
  0002a	f3 ab		 rep stosd
  0002c	48 8b 8c 24 08
	01 00 00	 mov	 rcx, QWORD PTR [rsp+264]
; Line 638
  00034	41 b8 10 00 00
	00		 mov	 r8d, 16
  0003a	48 8b 95 f0 00
	00 00		 mov	 rdx, QWORD PTR _Count$[rbp]
  00041	48 8b 8d e8 00
	00 00		 mov	 rcx, QWORD PTR _Ptr$[rbp]
  00048	e8 00 00 00 00	 call	 ?_Deallocate@std@@YAXPEAX_K1@Z ; std::_Deallocate
; Line 639
  0004d	48 8d a5 c8 00
	00 00		 lea	 rsp, QWORD PTR [rbp+200]
  00054	5f		 pop	 rdi
  00055	5d		 pop	 rbp
  00056	c3		 ret	 0
?deallocate@?$allocator@U_Container_proxy@std@@@std@@QEAAXPEAU_Container_proxy@2@_K@Z ENDP ; std::allocator<std::_Container_proxy>::deallocate
_TEXT	ENDS
; Function compile flags: /Odtp /RTCsu /ZI
;	COMDAT ??$construct@PEADAEAPEAD@?$_Wrap_alloc@V?$allocator@D@std@@@std@@QEAAXPEAPEADAEAPEAD@Z
_TEXT	SEGMENT
this$ = 224
_Ptr$ = 232
<_Args_0>$ = 240
??$construct@PEADAEAPEAD@?$_Wrap_alloc@V?$allocator@D@std@@@std@@QEAAXPEAPEADAEAPEAD@Z PROC ; std::_Wrap_alloc<std::allocator<char> >::construct<char * __ptr64,char * __ptr64 & __ptr64>, COMDAT
; File d:\appdata\vsp\vc\include\xmemory0
; Line 916
$LN3:
  00000	4c 89 44 24 18	 mov	 QWORD PTR [rsp+24], r8
  00005	48 89 54 24 10	 mov	 QWORD PTR [rsp+16], rdx
  0000a	48 89 4c 24 08	 mov	 QWORD PTR [rsp+8], rcx
  0000f	55		 push	 rbp
  00010	57		 push	 rdi
  00011	48 81 ec e8 00
	00 00		 sub	 rsp, 232		; 000000e8H
  00018	48 8d 6c 24 20	 lea	 rbp, QWORD PTR [rsp+32]
  0001d	48 8b fc	 mov	 rdi, rsp
  00020	b9 3a 00 00 00	 mov	 ecx, 58			; 0000003aH
  00025	b8 cc cc cc cc	 mov	 eax, -858993460		; ccccccccH
  0002a	f3 ab		 rep stosd
  0002c	48 8b 8c 24 08
	01 00 00	 mov	 rcx, QWORD PTR [rsp+264]
; Line 917
  00034	48 8b 8d f0 00
	00 00		 mov	 rcx, QWORD PTR <_Args_0>$[rbp]
  0003b	e8 00 00 00 00	 call	 ??$forward@AEAPEAD@std@@YAAEAPEADAEAPEAD@Z ; std::forward<char * __ptr64 & __ptr64>
  00040	4c 8b c0	 mov	 r8, rax
  00043	48 8b 95 e8 00
	00 00		 mov	 rdx, QWORD PTR _Ptr$[rbp]
  0004a	48 8b 8d e0 00
	00 00		 mov	 rcx, QWORD PTR this$[rbp]
  00051	e8 00 00 00 00	 call	 ??$construct@PEADAEAPEAD@?$allocator_traits@V?$allocator@D@std@@@std@@SAXAEAV?$allocator@D@1@PEAPEADAEAPEAD@Z ; std::allocator_traits<std::allocator<char> >::construct<char * __ptr64,char * __ptr64 & __ptr64>
; Line 919
  00056	48 8d a5 c8 00
	00 00		 lea	 rsp, QWORD PTR [rbp+200]
  0005d	5f		 pop	 rdi
  0005e	5d		 pop	 rbp
  0005f	c3		 ret	 0
??$construct@PEADAEAPEAD@?$_Wrap_alloc@V?$allocator@D@std@@@std@@QEAAXPEAPEADAEAPEAD@Z ENDP ; std::_Wrap_alloc<std::allocator<char> >::construct<char * __ptr64,char * __ptr64 & __ptr64>
_TEXT	ENDS
; Function compile flags: /Odtp /RTCsu /ZI
;	COMDAT ??$_Debug_pointer_if@$$CBD@std@@YAX_NPEBDPEBGI@Z
_TEXT	SEGMENT
_Test$ = 224
_Ptr$ = 232
_File$ = 240
_Line$ = 248
??$_Debug_pointer_if@$$CBD@std@@YAX_NPEBDPEBGI@Z PROC	; std::_Debug_pointer_if<char const >, COMDAT
; File d:\appdata\vsp\vc\include\xutility
; Line 774
$LN4:
  00000	44 89 4c 24 20	 mov	 DWORD PTR [rsp+32], r9d
  00005	4c 89 44 24 18	 mov	 QWORD PTR [rsp+24], r8
  0000a	48 89 54 24 10	 mov	 QWORD PTR [rsp+16], rdx
  0000f	88 4c 24 08	 mov	 BYTE PTR [rsp+8], cl
  00013	55		 push	 rbp
  00014	57		 push	 rdi
  00015	48 81 ec e8 00
	00 00		 sub	 rsp, 232		; 000000e8H
  0001c	48 8d 6c 24 20	 lea	 rbp, QWORD PTR [rsp+32]
  00021	48 8b fc	 mov	 rdi, rsp
  00024	b9 3a 00 00 00	 mov	 ecx, 58			; 0000003aH
  00029	b8 cc cc cc cc	 mov	 eax, -858993460		; ccccccccH
  0002e	f3 ab		 rep stosd
  00030	0f b6 8c 24 08
	01 00 00	 movzx	 ecx, BYTE PTR [rsp+264]
; Line 775
  00038	0f b6 85 e0 00
	00 00		 movzx	 eax, BYTE PTR _Test$[rbp]
  0003f	85 c0		 test	 eax, eax
  00041	74 25		 je	 SHORT $LN2@Debug_poin
  00043	48 83 bd e8 00
	00 00 00	 cmp	 QWORD PTR _Ptr$[rbp], 0
  0004b	75 1b		 jne	 SHORT $LN2@Debug_poin
; Line 776
  0004d	44 8b 85 f8 00
	00 00		 mov	 r8d, DWORD PTR _Line$[rbp]
  00054	48 8b 95 f0 00
	00 00		 mov	 rdx, QWORD PTR _File$[rbp]
  0005b	48 8d 0d 00 00
	00 00		 lea	 rcx, OFFSET FLAT:??_C@_1CK@EOPGIILJ@?$AAi?$AAn?$AAv?$AAa?$AAl?$AAi?$AAd?$AA?5?$AAn?$AAu?$AAl?$AAl?$AA?5?$AAp?$AAo?$AAi?$AAn?$AAt?$AAe?$AAr?$AA?$AA@
  00062	ff 15 00 00 00
	00		 call	 QWORD PTR __imp_?_Debug_message@std@@YAXPEBG0I@Z
$LN2@Debug_poin:
; Line 777
  00068	48 8d a5 c8 00
	00 00		 lea	 rsp, QWORD PTR [rbp+200]
  0006f	5f		 pop	 rdi
  00070	5d		 pop	 rbp
  00071	c3		 ret	 0
??$_Debug_pointer_if@$$CBD@std@@YAX_NPEBDPEBGI@Z ENDP	; std::_Debug_pointer_if<char const >
_TEXT	ENDS
; Function compile flags: /Odtp /RTCsu /ZI
;	COMDAT ??$addressof@D@std@@YAPEADAEAD@Z
_TEXT	SEGMENT
$T1 = 228
_Val$ = 288
??$addressof@D@std@@YAPEADAEAD@Z PROC			; std::addressof<char>, COMDAT
; File d:\appdata\vsp\vc\include\xstddef
; Line 696
$LN3:
  00000	48 89 4c 24 08	 mov	 QWORD PTR [rsp+8], rcx
  00005	55		 push	 rbp
  00006	57		 push	 rdi
  00007	48 81 ec 28 01
	00 00		 sub	 rsp, 296		; 00000128H
  0000e	48 8d 6c 24 20	 lea	 rbp, QWORD PTR [rsp+32]
  00013	48 8b fc	 mov	 rdi, rsp
  00016	b9 4a 00 00 00	 mov	 ecx, 74			; 0000004aH
  0001b	b8 cc cc cc cc	 mov	 eax, -858993460		; ccccccccH
  00020	f3 ab		 rep stosd
  00022	48 8b 8c 24 48
	01 00 00	 mov	 rcx, QWORD PTR [rsp+328]
; Line 697
  0002a	0f b6 95 e4 00
	00 00		 movzx	 edx, BYTE PTR $T1[rbp]
  00031	48 8b 8d 20 01
	00 00		 mov	 rcx, QWORD PTR _Val$[rbp]
  00038	e8 00 00 00 00	 call	 ??$_Addressof@D@std@@YAPEADAEADU?$integral_constant@_N$0A@@0@@Z ; std::_Addressof<char>
; Line 698
  0003d	48 8d a5 08 01
	00 00		 lea	 rsp, QWORD PTR [rbp+264]
  00044	5f		 pop	 rdi
  00045	5d		 pop	 rbp
  00046	c3		 ret	 0
??$addressof@D@std@@YAPEADAEAD@Z ENDP			; std::addressof<char>
_TEXT	ENDS
; Function compile flags: /Odtp /RTCsu /ZI
;	COMDAT ??$destroy@PEAD@?$_Wrap_alloc@V?$allocator@D@std@@@std@@QEAAXPEAPEAD@Z
_TEXT	SEGMENT
this$ = 224
_Ptr$ = 232
??$destroy@PEAD@?$_Wrap_alloc@V?$allocator@D@std@@@std@@QEAAXPEAPEAD@Z PROC ; std::_Wrap_alloc<std::allocator<char> >::destroy<char * __ptr64>, COMDAT
; File d:\appdata\vsp\vc\include\xmemory0
; Line 924
$LN3:
  00000	48 89 54 24 10	 mov	 QWORD PTR [rsp+16], rdx
  00005	48 89 4c 24 08	 mov	 QWORD PTR [rsp+8], rcx
  0000a	55		 push	 rbp
  0000b	57		 push	 rdi
  0000c	48 81 ec e8 00
	00 00		 sub	 rsp, 232		; 000000e8H
  00013	48 8d 6c 24 20	 lea	 rbp, QWORD PTR [rsp+32]
  00018	48 8b fc	 mov	 rdi, rsp
  0001b	b9 3a 00 00 00	 mov	 ecx, 58			; 0000003aH
  00020	b8 cc cc cc cc	 mov	 eax, -858993460		; ccccccccH
  00025	f3 ab		 rep stosd
  00027	48 8b 8c 24 08
	01 00 00	 mov	 rcx, QWORD PTR [rsp+264]
; Line 925
  0002f	48 8b 95 e8 00
	00 00		 mov	 rdx, QWORD PTR _Ptr$[rbp]
  00036	48 8b 8d e0 00
	00 00		 mov	 rcx, QWORD PTR this$[rbp]
  0003d	e8 00 00 00 00	 call	 ??$destroy@PEAD@?$allocator_traits@V?$allocator@D@std@@@std@@SAXAEAV?$allocator@D@1@PEAPEAD@Z ; std::allocator_traits<std::allocator<char> >::destroy<char * __ptr64>
; Line 926
  00042	48 8d a5 c8 00
	00 00		 lea	 rsp, QWORD PTR [rbp+200]
  00049	5f		 pop	 rdi
  0004a	5d		 pop	 rbp
  0004b	c3		 ret	 0
??$destroy@PEAD@?$_Wrap_alloc@V?$allocator@D@std@@@std@@QEAAXPEAPEAD@Z ENDP ; std::_Wrap_alloc<std::allocator<char> >::destroy<char * __ptr64>
_TEXT	ENDS
; Function compile flags: /Odtp /RTCsu /ZI
;	COMDAT ??$?0AEBV?$allocator@D@std@@$$V@?$_Compressed_pair@U?$_Wrap_alloc@V?$allocator@D@std@@@std@@V?$_String_val@U?$_Simple_types@D@std@@@2@$00@std@@QEAA@U_One_then_variadic_args_t@1@AEBV?$allocator@D@1@@Z
_TEXT	SEGMENT
this$ = 224
__formal$ = 232
_Val1$ = 240
??$?0AEBV?$allocator@D@std@@$$V@?$_Compressed_pair@U?$_Wrap_alloc@V?$allocator@D@std@@@std@@V?$_String_val@U?$_Simple_types@D@std@@@2@$00@std@@QEAA@U_One_then_variadic_args_t@1@AEBV?$allocator@D@1@@Z PROC ; std::_Compressed_pair<std::_Wrap_alloc<std::allocator<char> >,std::_String_val<std::_Simple_types<char> >,1>::_Compressed_pair<std::_Wrap_alloc<std::allocator<char> >,std::_String_val<std::_Simple_types<char> >,1><std::allocator<char> const & __ptr64>, COMDAT
; File d:\appdata\vsp\vc\include\xutility
; Line 288
$LN4:
  00000	4c 89 44 24 18	 mov	 QWORD PTR [rsp+24], r8
  00005	88 54 24 10	 mov	 BYTE PTR [rsp+16], dl
  00009	48 89 4c 24 08	 mov	 QWORD PTR [rsp+8], rcx
  0000e	55		 push	 rbp
  0000f	57		 push	 rdi
  00010	48 81 ec e8 00
	00 00		 sub	 rsp, 232		; 000000e8H
  00017	48 8d 6c 24 20	 lea	 rbp, QWORD PTR [rsp+32]
  0001c	48 8b fc	 mov	 rdi, rsp
  0001f	b9 3a 00 00 00	 mov	 ecx, 58			; 0000003aH
  00024	b8 cc cc cc cc	 mov	 eax, -858993460		; ccccccccH
  00029	f3 ab		 rep stosd
  0002b	48 8b 8c 24 08
	01 00 00	 mov	 rcx, QWORD PTR [rsp+264]
; Line 286
  00033	48 8b 8d f0 00
	00 00		 mov	 rcx, QWORD PTR _Val1$[rbp]
  0003a	e8 00 00 00 00	 call	 ??$forward@AEBV?$allocator@D@std@@@std@@YAAEBV?$allocator@D@0@AEBV10@@Z ; std::forward<std::allocator<char> const & __ptr64>
  0003f	48 8b d0	 mov	 rdx, rax
  00042	48 8b 8d e0 00
	00 00		 mov	 rcx, QWORD PTR this$[rbp]
  00049	e8 00 00 00 00	 call	 ??0?$_Wrap_alloc@V?$allocator@D@std@@@std@@QEAA@AEBV?$allocator@D@1@@Z ; std::_Wrap_alloc<std::allocator<char> >::_Wrap_alloc<std::allocator<char> >
; Line 287
  0004e	48 8b 85 e0 00
	00 00		 mov	 rax, QWORD PTR this$[rbp]
  00055	48 8b c8	 mov	 rcx, rax
  00058	e8 00 00 00 00	 call	 ??0?$_String_val@U?$_Simple_types@D@std@@@std@@QEAA@XZ ; std::_String_val<std::_Simple_types<char> >::_String_val<std::_Simple_types<char> >
; Line 289
  0005d	48 8b 85 e0 00
	00 00		 mov	 rax, QWORD PTR this$[rbp]
  00064	48 8d a5 c8 00
	00 00		 lea	 rsp, QWORD PTR [rbp+200]
  0006b	5f		 pop	 rdi
  0006c	5d		 pop	 rbp
  0006d	c3		 ret	 0
??$?0AEBV?$allocator@D@std@@$$V@?$_Compressed_pair@U?$_Wrap_alloc@V?$allocator@D@std@@@std@@V?$_String_val@U?$_Simple_types@D@std@@@2@$00@std@@QEAA@U_One_then_variadic_args_t@1@AEBV?$allocator@D@1@@Z ENDP ; std::_Compressed_pair<std::_Wrap_alloc<std::allocator<char> >,std::_String_val<std::_Simple_types<char> >,1>::_Compressed_pair<std::_Wrap_alloc<std::allocator<char> >,std::_String_val<std::_Simple_types<char> >,1><std::allocator<char> const & __ptr64>
_TEXT	ENDS
; Function compile flags: /Odtp /RTCsu /ZI
;	COMDAT ??$?0V?$allocator@D@std@@$$V@?$_Compressed_pair@U?$_Wrap_alloc@V?$allocator@D@std@@@std@@V?$_String_val@U?$_Simple_types@D@std@@@2@$00@std@@QEAA@U_One_then_variadic_args_t@1@$$QEAV?$allocator@D@1@@Z
_TEXT	SEGMENT
this$ = 224
__formal$ = 232
_Val1$ = 240
??$?0V?$allocator@D@std@@$$V@?$_Compressed_pair@U?$_Wrap_alloc@V?$allocator@D@std@@@std@@V?$_String_val@U?$_Simple_types@D@std@@@2@$00@std@@QEAA@U_One_then_variadic_args_t@1@$$QEAV?$allocator@D@1@@Z PROC ; std::_Compressed_pair<std::_Wrap_alloc<std::allocator<char> >,std::_String_val<std::_Simple_types<char> >,1>::_Compressed_pair<std::_Wrap_alloc<std::allocator<char> >,std::_String_val<std::_Simple_types<char> >,1><std::allocator<char> >, COMDAT
; File d:\appdata\vsp\vc\include\xutility
; Line 288
$LN4:
  00000	4c 89 44 24 18	 mov	 QWORD PTR [rsp+24], r8
  00005	88 54 24 10	 mov	 BYTE PTR [rsp+16], dl
  00009	48 89 4c 24 08	 mov	 QWORD PTR [rsp+8], rcx
  0000e	55		 push	 rbp
  0000f	57		 push	 rdi
  00010	48 81 ec e8 00
	00 00		 sub	 rsp, 232		; 000000e8H
  00017	48 8d 6c 24 20	 lea	 rbp, QWORD PTR [rsp+32]
  0001c	48 8b fc	 mov	 rdi, rsp
  0001f	b9 3a 00 00 00	 mov	 ecx, 58			; 0000003aH
  00024	b8 cc cc cc cc	 mov	 eax, -858993460		; ccccccccH
  00029	f3 ab		 rep stosd
  0002b	48 8b 8c 24 08
	01 00 00	 mov	 rcx, QWORD PTR [rsp+264]
; Line 286
  00033	48 8b 8d f0 00
	00 00		 mov	 rcx, QWORD PTR _Val1$[rbp]
  0003a	e8 00 00 00 00	 call	 ??$forward@V?$allocator@D@std@@@std@@YA$$QEAV?$allocator@D@0@AEAV10@@Z ; std::forward<std::allocator<char> >
  0003f	48 8b d0	 mov	 rdx, rax
  00042	48 8b 8d e0 00
	00 00		 mov	 rcx, QWORD PTR this$[rbp]
  00049	e8 00 00 00 00	 call	 ??0?$_Wrap_alloc@V?$allocator@D@std@@@std@@QEAA@AEBV?$allocator@D@1@@Z ; std::_Wrap_alloc<std::allocator<char> >::_Wrap_alloc<std::allocator<char> >
; Line 287
  0004e	48 8b 85 e0 00
	00 00		 mov	 rax, QWORD PTR this$[rbp]
  00055	48 8b c8	 mov	 rcx, rax
  00058	e8 00 00 00 00	 call	 ??0?$_String_val@U?$_Simple_types@D@std@@@std@@QEAA@XZ ; std::_String_val<std::_Simple_types<char> >::_String_val<std::_Simple_types<char> >
; Line 289
  0005d	48 8b 85 e0 00
	00 00		 mov	 rax, QWORD PTR this$[rbp]
  00064	48 8d a5 c8 00
	00 00		 lea	 rsp, QWORD PTR [rbp+200]
  0006b	5f		 pop	 rdi
  0006c	5d		 pop	 rbp
  0006d	c3		 ret	 0
??$?0V?$allocator@D@std@@$$V@?$_Compressed_pair@U?$_Wrap_alloc@V?$allocator@D@std@@@std@@V?$_String_val@U?$_Simple_types@D@std@@@2@$00@std@@QEAA@U_One_then_variadic_args_t@1@$$QEAV?$allocator@D@1@@Z ENDP ; std::_Compressed_pair<std::_Wrap_alloc<std::allocator<char> >,std::_String_val<std::_Simple_types<char> >,1>::_Compressed_pair<std::_Wrap_alloc<std::allocator<char> >,std::_String_val<std::_Simple_types<char> >,1><std::allocator<char> >
_TEXT	ENDS
; Function compile flags: /Odtp /RTCsu /ZI
;	COMDAT ??$move@AEAV?$allocator@D@std@@@std@@YA$$QEAV?$allocator@D@0@AEAV10@@Z
_TEXT	SEGMENT
_Arg$ = 224
??$move@AEAV?$allocator@D@std@@@std@@YA$$QEAV?$allocator@D@0@AEAV10@@Z PROC ; std::move<std::allocator<char> & __ptr64>, COMDAT
; File d:\appdata\vsp\vc\include\type_traits
; Line 1249
$LN3:
  00000	48 89 4c 24 08	 mov	 QWORD PTR [rsp+8], rcx
  00005	55		 push	 rbp
  00006	57		 push	 rdi
  00007	48 81 ec c8 00
	00 00		 sub	 rsp, 200		; 000000c8H
  0000e	48 8b ec	 mov	 rbp, rsp
  00011	48 8b fc	 mov	 rdi, rsp
  00014	b9 32 00 00 00	 mov	 ecx, 50			; 00000032H
  00019	b8 cc cc cc cc	 mov	 eax, -858993460		; ccccccccH
  0001e	f3 ab		 rep stosd
  00020	48 8b 8c 24 e8
	00 00 00	 mov	 rcx, QWORD PTR [rsp+232]
; Line 1250
  00028	48 8b 85 e0 00
	00 00		 mov	 rax, QWORD PTR _Arg$[rbp]
; Line 1251
  0002f	48 8d a5 c8 00
	00 00		 lea	 rsp, QWORD PTR [rbp+200]
  00036	5f		 pop	 rdi
  00037	5d		 pop	 rbp
  00038	c3		 ret	 0
??$move@AEAV?$allocator@D@std@@@std@@YA$$QEAV?$allocator@D@0@AEAV10@@Z ENDP ; std::move<std::allocator<char> & __ptr64>
_TEXT	ENDS
; Function compile flags: /Odtp /RTCsu /ZI
;	COMDAT ??$_Debug_pointer@$$CBD@std@@YAXPEBDPEBGI@Z
_TEXT	SEGMENT
_Ptr$ = 224
_File$ = 232
_Line$ = 240
??$_Debug_pointer@$$CBD@std@@YAXPEBDPEBGI@Z PROC	; std::_Debug_pointer<char const >, COMDAT
; File d:\appdata\vsp\vc\include\xutility
; Line 760
$LN4:
  00000	44 89 44 24 18	 mov	 DWORD PTR [rsp+24], r8d
  00005	48 89 54 24 10	 mov	 QWORD PTR [rsp+16], rdx
  0000a	48 89 4c 24 08	 mov	 QWORD PTR [rsp+8], rcx
  0000f	55		 push	 rbp
  00010	57		 push	 rdi
  00011	48 81 ec e8 00
	00 00		 sub	 rsp, 232		; 000000e8H
  00018	48 8d 6c 24 20	 lea	 rbp, QWORD PTR [rsp+32]
  0001d	48 8b fc	 mov	 rdi, rsp
  00020	b9 3a 00 00 00	 mov	 ecx, 58			; 0000003aH
  00025	b8 cc cc cc cc	 mov	 eax, -858993460		; ccccccccH
  0002a	f3 ab		 rep stosd
  0002c	48 8b 8c 24 08
	01 00 00	 mov	 rcx, QWORD PTR [rsp+264]
; Line 761
  00034	48 83 bd e0 00
	00 00 00	 cmp	 QWORD PTR _Ptr$[rbp], 0
  0003c	75 1b		 jne	 SHORT $LN2@Debug_poin
; Line 762
  0003e	44 8b 85 f0 00
	00 00		 mov	 r8d, DWORD PTR _Line$[rbp]
  00045	48 8b 95 e8 00
	00 00		 mov	 rdx, QWORD PTR _File$[rbp]
  0004c	48 8d 0d 00 00
	00 00		 lea	 rcx, OFFSET FLAT:??_C@_1CK@EOPGIILJ@?$AAi?$AAn?$AAv?$AAa?$AAl?$AAi?$AAd?$AA?5?$AAn?$AAu?$AAl?$AAl?$AA?5?$AAp?$AAo?$AAi?$AAn?$AAt?$AAe?$AAr?$AA?$AA@
  00053	ff 15 00 00 00
	00		 call	 QWORD PTR __imp_?_Debug_message@std@@YAXPEBG0I@Z
$LN2@Debug_poin:
; Line 763
  00059	48 8d a5 c8 00
	00 00		 lea	 rsp, QWORD PTR [rbp+200]
  00060	5f		 pop	 rdi
  00061	5d		 pop	 rbp
  00062	c3		 ret	 0
??$_Debug_pointer@$$CBD@std@@YAXPEBDPEBGI@Z ENDP	; std::_Debug_pointer<char const >
_TEXT	ENDS
; Function compile flags: /Odtp /RTCsu /ZI
;	COMDAT ??$pow@HH@@YANHH@Z
_TEXT	SEGMENT
tv67 = 192
_Left$ = 240
_Right$ = 248
??$pow@HH@@YANHH@Z PROC					; pow<int,int>, COMDAT
; File d:\appdata\vsp\vc\include\xtgmath.h
; Line 82
$LN3:
  00000	89 54 24 10	 mov	 DWORD PTR [rsp+16], edx
  00004	89 4c 24 08	 mov	 DWORD PTR [rsp+8], ecx
  00008	55		 push	 rbp
  00009	57		 push	 rdi
  0000a	48 81 ec 08 01
	00 00		 sub	 rsp, 264		; 00000108H
  00011	48 8d 6c 24 30	 lea	 rbp, QWORD PTR [rsp+48]
  00016	48 8b fc	 mov	 rdi, rsp
  00019	b9 42 00 00 00	 mov	 ecx, 66			; 00000042H
  0001e	b8 cc cc cc cc	 mov	 eax, -858993460		; ccccccccH
  00023	f3 ab		 rep stosd
  00025	8b 8c 24 28 01
	00 00		 mov	 ecx, DWORD PTR [rsp+296]
; Line 84
  0002c	f2 0f 2a 85 f8
	00 00 00	 cvtsi2sd xmm0, DWORD PTR _Right$[rbp]
  00034	f2 0f 2a 8d f0
	00 00 00	 cvtsi2sd xmm1, DWORD PTR _Left$[rbp]
  0003c	f2 0f 11 8d c0
	00 00 00	 movsd	 QWORD PTR tv67[rbp], xmm1
  00044	0f 28 c8	 movaps	 xmm1, xmm0
  00047	f2 0f 10 85 c0
	00 00 00	 movsd	 xmm0, QWORD PTR tv67[rbp]
  0004f	e8 00 00 00 00	 call	 pow
; Line 85
  00054	48 8d a5 d8 00
	00 00		 lea	 rsp, QWORD PTR [rbp+216]
  0005b	5f		 pop	 rdi
  0005c	5d		 pop	 rbp
  0005d	c3		 ret	 0
??$pow@HH@@YANHH@Z ENDP					; pow<int,int>
_TEXT	ENDS
; Function compile flags: /Odtp /RTCsu /ZI
;	COMDAT ?MessageHandler@Cy@@YA_JPEAUHWND__@@I_K_J@Z
_TEXT	SEGMENT
input$ = 8
cs$1 = 40
tracked$2 = 68
$T3 = 292
tv67 = 308
hwnd$ = 352
msg$ = 360
wP$ = 368
lP$ = 376
?MessageHandler@Cy@@YA_JPEAUHWND__@@I_K_J@Z PROC	; Cy::MessageHandler, COMDAT
; File d:\scottsdocs\sourcecode\vulkanengine\vulkanengine\code\commonwindows.cpp
; Line 22
$LN20:
  00000	4c 89 4c 24 20	 mov	 QWORD PTR [rsp+32], r9
  00005	4c 89 44 24 18	 mov	 QWORD PTR [rsp+24], r8
  0000a	89 54 24 10	 mov	 DWORD PTR [rsp+16], edx
  0000e	48 89 4c 24 08	 mov	 QWORD PTR [rsp+8], rcx
  00013	55		 push	 rbp
  00014	57		 push	 rdi
  00015	48 81 ec 68 01
	00 00		 sub	 rsp, 360		; 00000168H
  0001c	48 8d 6c 24 20	 lea	 rbp, QWORD PTR [rsp+32]
  00021	48 8b fc	 mov	 rdi, rsp
  00024	b9 5a 00 00 00	 mov	 ecx, 90			; 0000005aH
  00029	b8 cc cc cc cc	 mov	 eax, -858993460		; ccccccccH
  0002e	f3 ab		 rep stosd
  00030	48 8b 8c 24 88
	01 00 00	 mov	 rcx, QWORD PTR [rsp+392]
; Line 23
  00038	33 d2		 xor	 edx, edx
  0003a	48 8b 8d 60 01
	00 00		 mov	 rcx, QWORD PTR hwnd$[rbp]
  00041	ff 15 00 00 00
	00		 call	 QWORD PTR __imp_GetWindowLongPtrW
  00047	48 89 45 08	 mov	 QWORD PTR input$[rbp], rax
; Line 24
  0004b	8b 85 68 01 00
	00		 mov	 eax, DWORD PTR msg$[rbp]
  00051	89 85 34 01 00
	00		 mov	 DWORD PTR tv67[rbp], eax
  00057	81 bd 34 01 00
	00 00 02 00 00	 cmp	 DWORD PTR tv67[rbp], 512 ; 00000200H
  00061	77 54		 ja	 SHORT $LN17@MessageHan
  00063	81 bd 34 01 00
	00 00 02 00 00	 cmp	 DWORD PTR tv67[rbp], 512 ; 00000200H
  0006d	0f 84 00 01 00
	00		 je	 $LN10@MessageHan
  00073	83 bd 34 01 00
	00 01		 cmp	 DWORD PTR tv67[rbp], 1
  0007a	74 7d		 je	 SHORT $LN4@MessageHan
  0007c	83 bd 34 01 00
	00 02		 cmp	 DWORD PTR tv67[rbp], 2
  00083	0f 84 96 00 00
	00		 je	 $LN5@MessageHan
  00089	83 bd 34 01 00
	00 10		 cmp	 DWORD PTR tv67[rbp], 16
  00090	0f 84 89 00 00
	00		 je	 $LN5@MessageHan
  00096	81 bd 34 01 00
	00 00 01 00 00	 cmp	 DWORD PTR tv67[rbp], 256 ; 00000100H
  000a0	0f 84 a9 00 00
	00		 je	 $LN8@MessageHan
  000a6	81 bd 34 01 00
	00 01 01 00 00	 cmp	 DWORD PTR tv67[rbp], 257 ; 00000101H
  000b0	74 79		 je	 SHORT $LN6@MessageHan
  000b2	e9 64 01 00 00	 jmp	 $LN15@MessageHan
$LN17@MessageHan:
  000b7	8b 85 34 01 00
	00		 mov	 eax, DWORD PTR tv67[rbp]
  000bd	2d 01 02 00 00	 sub	 eax, 513		; 00000201H
  000c2	89 85 34 01 00
	00		 mov	 DWORD PTR tv67[rbp], eax
  000c8	81 bd 34 01 00
	00 a1 00 00 00	 cmp	 DWORD PTR tv67[rbp], 161 ; 000000a1H
  000d2	0f 87 43 01 00
	00		 ja	 $LN15@MessageHan
  000d8	8b 85 34 01 00
	00		 mov	 eax, DWORD PTR tv67[rbp]
  000de	48 8d 0d 00 00
	00 00		 lea	 rcx, OFFSET FLAT:__ImageBase
  000e5	0f b6 84 01 00
	00 00 00	 movzx	 eax, BYTE PTR $LN18@MessageHan[rcx+rax]
  000ed	8b 84 81 00 00
	00 00		 mov	 eax, DWORD PTR $LN19@MessageHan[rcx+rax*4]
  000f4	48 03 c1	 add	 rax, rcx
  000f7	ff e0		 jmp	 rax
$LN4@MessageHan:
; Line 28
  000f9	48 8b 85 78 01
	00 00		 mov	 rax, QWORD PTR lP$[rbp]
  00100	48 89 45 28	 mov	 QWORD PTR cs$1[rbp], rax
; Line 29
  00104	48 8b 45 28	 mov	 rax, QWORD PTR cs$1[rbp]
  00108	4c 8b 00	 mov	 r8, QWORD PTR [rax]
  0010b	33 d2		 xor	 edx, edx
  0010d	48 8b 8d 60 01
	00 00		 mov	 rcx, QWORD PTR hwnd$[rbp]
  00114	ff 15 00 00 00
	00		 call	 QWORD PTR __imp_SetWindowLongPtrW
; Line 31
  0011a	e9 1f 01 00 00	 jmp	 $LN2@MessageHan
$LN5@MessageHan:
; Line 35
  0011f	48 8b 45 08	 mov	 rax, QWORD PTR input$[rbp]
  00123	c6 00 00	 mov	 BYTE PTR [rax], 0
; Line 37
  00126	e9 13 01 00 00	 jmp	 $LN2@MessageHan
$LN6@MessageHan:
; Line 43
  0012b	48 83 bd 70 01
	00 00 5b	 cmp	 QWORD PTR wP$[rbp], 91	; 0000005bH
  00133	73 15		 jae	 SHORT $LN7@MessageHan
; Line 45
  00135	48 8b 85 70 01
	00 00		 mov	 rax, QWORD PTR wP$[rbp]
  0013c	48 8b 4d 08	 mov	 rcx, QWORD PTR input$[rbp]
  00140	48 03 c8	 add	 rcx, rax
  00143	48 8b c1	 mov	 rax, rcx
  00146	c6 40 01 00	 mov	 BYTE PTR [rax+1], 0
$LN7@MessageHan:
; Line 48
  0014a	e9 ef 00 00 00	 jmp	 $LN2@MessageHan
$LN8@MessageHan:
; Line 54
  0014f	48 83 bd 70 01
	00 00 5b	 cmp	 QWORD PTR wP$[rbp], 91	; 0000005bH
  00157	73 15		 jae	 SHORT $LN9@MessageHan
; Line 56
  00159	48 8b 85 70 01
	00 00		 mov	 rax, QWORD PTR wP$[rbp]
  00160	48 8b 4d 08	 mov	 rcx, QWORD PTR input$[rbp]
  00164	48 03 c8	 add	 rcx, rax
  00167	48 8b c1	 mov	 rax, rcx
  0016a	c6 40 01 01	 mov	 BYTE PTR [rax+1], 1
$LN9@MessageHan:
; Line 59
  0016e	e9 cb 00 00 00	 jmp	 $LN2@MessageHan
$LN10@MessageHan:
; Line 65
  00173	48 8b 45 08	 mov	 rax, QWORD PTR input$[rbp]
  00177	48 83 c0 70	 add	 rax, 112		; 00000070H
  0017b	48 8b c8	 mov	 rcx, rax
  0017e	ff 15 00 00 00
	00		 call	 QWORD PTR __imp_TrackMouseEvent
  00184	89 45 44	 mov	 DWORD PTR tracked$2[rbp], eax
; Line 66
  00187	83 7d 44 01	 cmp	 DWORD PTR tracked$2[rbp], 1
  0018b	75 0a		 jne	 SHORT $LN11@MessageHan
; Line 68
  0018d	48 8b 45 08	 mov	 rax, QWORD PTR input$[rbp]
  00191	c6 40 6c 01	 mov	 BYTE PTR [rax+108], 1
; Line 70
  00195	eb 08		 jmp	 SHORT $LN12@MessageHan
$LN11@MessageHan:
; Line 72
  00197	48 8b 45 08	 mov	 rax, QWORD PTR input$[rbp]
  0019b	c6 40 6c 00	 mov	 BYTE PTR [rax+108], 0
$LN12@MessageHan:
; Line 76
  0019f	48 8b 45 08	 mov	 rax, QWORD PTR input$[rbp]
  001a3	48 8b 40 5c	 mov	 rax, QWORD PTR [rax+92]
  001a7	48 8b 4d 08	 mov	 rcx, QWORD PTR input$[rbp]
  001ab	48 89 41 64	 mov	 QWORD PTR [rcx+100], rax
; Line 77
  001af	48 8b 85 78 01
	00 00		 mov	 rax, QWORD PTR lP$[rbp]
  001b6	48 c1 e8 10	 shr	 rax, 16
  001ba	48 25 ff ff 00
	00		 and	 rax, 65535		; 0000ffffH
  001c0	98		 cwde
  001c1	f3 0f 2a c0	 cvtsi2ss xmm0, eax
  001c5	48 8b 85 78 01
	00 00		 mov	 rax, QWORD PTR lP$[rbp]
  001cc	48 25 ff ff 00
	00		 and	 rax, 65535		; 0000ffffH
  001d2	98		 cwde
  001d3	f3 0f 2a c8	 cvtsi2ss xmm1, eax
  001d7	0f 28 d0	 movaps	 xmm2, xmm0
  001da	48 8d 8d 24 01
	00 00		 lea	 rcx, QWORD PTR $T3[rbp]
  001e1	e8 00 00 00 00	 call	 ??0v2@Cy@@QEAA@MM@Z	; Cy::v2::v2
  001e6	48 8b 00	 mov	 rax, QWORD PTR [rax]
  001e9	48 8b 4d 08	 mov	 rcx, QWORD PTR input$[rbp]
  001ed	48 89 41 5c	 mov	 QWORD PTR [rcx+92], rax
; Line 79
  001f1	eb 4b		 jmp	 SHORT $LN2@MessageHan
$LN13@MessageHan:
; Line 82
  001f3	b8 01 00 00 00	 mov	 eax, 1
  001f8	48 6b c0 01	 imul	 rax, rax, 1
  001fc	48 8b 4d 08	 mov	 rcx, QWORD PTR input$[rbp]
  00200	c6 44 01 01 01	 mov	 BYTE PTR [rcx+rax+1], 1
; Line 84
  00205	eb 37		 jmp	 SHORT $LN2@MessageHan
$LN14@MessageHan:
; Line 87
  00207	b8 01 00 00 00	 mov	 eax, 1
  0020c	48 6b c0 01	 imul	 rax, rax, 1
  00210	48 8b 4d 08	 mov	 rcx, QWORD PTR input$[rbp]
  00214	c6 44 01 01 00	 mov	 BYTE PTR [rcx+rax+1], 0
; Line 89
  00219	eb 23		 jmp	 SHORT $LN2@MessageHan
$LN15@MessageHan:
; Line 92
  0021b	4c 8b 8d 78 01
	00 00		 mov	 r9, QWORD PTR lP$[rbp]
  00222	4c 8b 85 70 01
	00 00		 mov	 r8, QWORD PTR wP$[rbp]
  00229	8b 95 68 01 00
	00		 mov	 edx, DWORD PTR msg$[rbp]
  0022f	48 8b 8d 60 01
	00 00		 mov	 rcx, QWORD PTR hwnd$[rbp]
  00236	ff 15 00 00 00
	00		 call	 QWORD PTR __imp_DefWindowProcW
  0023c	eb 02		 jmp	 SHORT $LN1@MessageHan
$LN2@MessageHan:
; Line 95
  0023e	33 c0		 xor	 eax, eax
$LN1@MessageHan:
; Line 96
  00240	48 8d a5 48 01
	00 00		 lea	 rsp, QWORD PTR [rbp+328]
  00247	5f		 pop	 rdi
  00248	5d		 pop	 rbp
  00249	c3		 ret	 0
  0024a	66 90		 npad	 2
$LN19@MessageHan:
  0024c	00 00 00 00	 DD	 $LN13@MessageHan
  00250	00 00 00 00	 DD	 $LN14@MessageHan
  00254	00 00 00 00	 DD	 $LN8@MessageHan
  00258	00 00 00 00	 DD	 $LN6@MessageHan
  0025c	00 00 00 00	 DD	 $LN10@MessageHan
  00260	00 00 00 00	 DD	 $LN15@MessageHan
$LN18@MessageHan:
  00264	00		 DB	 0
  00265	01		 DB	 1
  00266	05		 DB	 5
  00267	05		 DB	 5
  00268	05		 DB	 5
  00269	05		 DB	 5
  0026a	05		 DB	 5
  0026b	05		 DB	 5
  0026c	05		 DB	 5
  0026d	05		 DB	 5
  0026e	05		 DB	 5
  0026f	05		 DB	 5
  00270	05		 DB	 5
  00271	05		 DB	 5
  00272	05		 DB	 5
  00273	05		 DB	 5
  00274	05		 DB	 5
  00275	05		 DB	 5
  00276	05		 DB	 5
  00277	05		 DB	 5
  00278	05		 DB	 5
  00279	05		 DB	 5
  0027a	05		 DB	 5
  0027b	05		 DB	 5
  0027c	05		 DB	 5
  0027d	05		 DB	 5
  0027e	05		 DB	 5
  0027f	05		 DB	 5
  00280	05		 DB	 5
  00281	05		 DB	 5
  00282	05		 DB	 5
  00283	05		 DB	 5
  00284	05		 DB	 5
  00285	05		 DB	 5
  00286	05		 DB	 5
  00287	05		 DB	 5
  00288	05		 DB	 5
  00289	05		 DB	 5
  0028a	05		 DB	 5
  0028b	05		 DB	 5
  0028c	05		 DB	 5
  0028d	05		 DB	 5
  0028e	05		 DB	 5
  0028f	05		 DB	 5
  00290	05		 DB	 5
  00291	05		 DB	 5
  00292	05		 DB	 5
  00293	05		 DB	 5
  00294	05		 DB	 5
  00295	05		 DB	 5
  00296	05		 DB	 5
  00297	05		 DB	 5
  00298	05		 DB	 5
  00299	05		 DB	 5
  0029a	05		 DB	 5
  0029b	05		 DB	 5
  0029c	05		 DB	 5
  0029d	05		 DB	 5
  0029e	05		 DB	 5
  0029f	05		 DB	 5
  002a0	05		 DB	 5
  002a1	05		 DB	 5
  002a2	05		 DB	 5
  002a3	05		 DB	 5
  002a4	05		 DB	 5
  002a5	05		 DB	 5
  002a6	05		 DB	 5
  002a7	05		 DB	 5
  002a8	05		 DB	 5
  002a9	05		 DB	 5
  002aa	05		 DB	 5
  002ab	05		 DB	 5
  002ac	05		 DB	 5
  002ad	05		 DB	 5
  002ae	05		 DB	 5
  002af	05		 DB	 5
  002b0	05		 DB	 5
  002b1	05		 DB	 5
  002b2	05		 DB	 5
  002b3	05		 DB	 5
  002b4	05		 DB	 5
  002b5	05		 DB	 5
  002b6	05		 DB	 5
  002b7	05		 DB	 5
  002b8	05		 DB	 5
  002b9	05		 DB	 5
  002ba	05		 DB	 5
  002bb	05		 DB	 5
  002bc	05		 DB	 5
  002bd	05		 DB	 5
  002be	05		 DB	 5
  002bf	05		 DB	 5
  002c0	05		 DB	 5
  002c1	05		 DB	 5
  002c2	05		 DB	 5
  002c3	05		 DB	 5
  002c4	05		 DB	 5
  002c5	05		 DB	 5
  002c6	05		 DB	 5
  002c7	05		 DB	 5
  002c8	05		 DB	 5
  002c9	05		 DB	 5
  002ca	05		 DB	 5
  002cb	05		 DB	 5
  002cc	05		 DB	 5
  002cd	05		 DB	 5
  002ce	05		 DB	 5
  002cf	05		 DB	 5
  002d0	05		 DB	 5
  002d1	05		 DB	 5
  002d2	05		 DB	 5
  002d3	05		 DB	 5
  002d4	05		 DB	 5
  002d5	05		 DB	 5
  002d6	05		 DB	 5
  002d7	05		 DB	 5
  002d8	05		 DB	 5
  002d9	05		 DB	 5
  002da	05		 DB	 5
  002db	05		 DB	 5
  002dc	05		 DB	 5
  002dd	05		 DB	 5
  002de	05		 DB	 5
  002df	05		 DB	 5
  002e0	05		 DB	 5
  002e1	05		 DB	 5
  002e2	05		 DB	 5
  002e3	05		 DB	 5
  002e4	05		 DB	 5
  002e5	05		 DB	 5
  002e6	05		 DB	 5
  002e7	05		 DB	 5
  002e8	05		 DB	 5
  002e9	05		 DB	 5
  002ea	05		 DB	 5
  002eb	05		 DB	 5
  002ec	05		 DB	 5
  002ed	05		 DB	 5
  002ee	05		 DB	 5
  002ef	05		 DB	 5
  002f0	05		 DB	 5
  002f1	05		 DB	 5
  002f2	05		 DB	 5
  002f3	02		 DB	 2
  002f4	03		 DB	 3
  002f5	05		 DB	 5
  002f6	05		 DB	 5
  002f7	05		 DB	 5
  002f8	05		 DB	 5
  002f9	05		 DB	 5
  002fa	05		 DB	 5
  002fb	05		 DB	 5
  002fc	05		 DB	 5
  002fd	05		 DB	 5
  002fe	05		 DB	 5
  002ff	05		 DB	 5
  00300	05		 DB	 5
  00301	05		 DB	 5
  00302	05		 DB	 5
  00303	04		 DB	 4
  00304	04		 DB	 4
  00305	04		 DB	 4
?MessageHandler@Cy@@YA_JPEAUHWND__@@I_K_J@Z ENDP	; Cy::MessageHandler
_TEXT	ENDS
; Function compile flags: /Odtp /RTCsu /ZI
;	COMDAT ?WindowsSleep@Windows@@YAXI@Z
_TEXT	SEGMENT
sleepInMilli$ = 224
?WindowsSleep@Windows@@YAXI@Z PROC			; Windows::WindowsSleep, COMDAT
; File d:\scottsdocs\sourcecode\vulkanengine\vulkanengine\code\commonwindows.cpp
; Line 13
$LN3:
  00000	89 4c 24 08	 mov	 DWORD PTR [rsp+8], ecx
  00004	55		 push	 rbp
  00005	57		 push	 rdi
  00006	48 81 ec e8 00
	00 00		 sub	 rsp, 232		; 000000e8H
  0000d	48 8d 6c 24 20	 lea	 rbp, QWORD PTR [rsp+32]
  00012	48 8b fc	 mov	 rdi, rsp
  00015	b9 3a 00 00 00	 mov	 ecx, 58			; 0000003aH
  0001a	b8 cc cc cc cc	 mov	 eax, -858993460		; ccccccccH
  0001f	f3 ab		 rep stosd
  00021	8b 8c 24 08 01
	00 00		 mov	 ecx, DWORD PTR [rsp+264]
; Line 14
  00028	8b 8d e0 00 00
	00		 mov	 ecx, DWORD PTR sleepInMilli$[rbp]
  0002e	ff 15 00 00 00
	00		 call	 QWORD PTR __imp_Sleep
; Line 15
  00034	48 8d a5 c8 00
	00 00		 lea	 rsp, QWORD PTR [rbp+200]
  0003b	5f		 pop	 rdi
  0003c	5d		 pop	 rbp
  0003d	c3		 ret	 0
?WindowsSleep@Windows@@YAXI@Z ENDP			; Windows::WindowsSleep
_TEXT	ENDS
; Function compile flags: /Odtp /RTCsu /ZI
;	COMDAT ?SafeTruncate@Cy@@YAH_J@Z
_TEXT	SEGMENT
safe$1 = 4
safe$2 = 36
$T3 = 264
$T4 = 328
$T5 = 360
$T6 = 424
tv85 = 436
tv69 = 436
tv133 = 440
tv91 = 440
value$ = 480
?SafeTruncate@Cy@@YAH_J@Z PROC				; Cy::SafeTruncate, COMDAT
; File d:\scottsdocs\sourcecode\vulkanengine\vulkanengine\code\util.h
; Line 104
$LN11:
  00000	48 89 4c 24 08	 mov	 QWORD PTR [rsp+8], rcx
  00005	55		 push	 rbp
  00006	57		 push	 rdi
  00007	48 81 ec e8 01
	00 00		 sub	 rsp, 488		; 000001e8H
  0000e	48 8d 6c 24 20	 lea	 rbp, QWORD PTR [rsp+32]
  00013	48 8b fc	 mov	 rdi, rsp
  00016	b9 7a 00 00 00	 mov	 ecx, 122		; 0000007aH
  0001b	b8 cc cc cc cc	 mov	 eax, -858993460		; ccccccccH
  00020	f3 ab		 rep stosd
  00022	48 8b 8c 24 08
	02 00 00	 mov	 rcx, QWORD PTR [rsp+520]
; Line 105
  0002a	48 8b 85 e0 01
	00 00		 mov	 rax, QWORD PTR value$[rbp]
  00031	48 c1 f8 3f	 sar	 rax, 63			; 0000003fH
  00035	48 85 c0	 test	 rax, rax
  00038	74 79		 je	 SHORT $LN2@SafeTrunca
; Line 107
  0003a	48 8b 85 e0 01
	00 00		 mov	 rax, QWORD PTR value$[rbp]
  00041	48 c1 f8 20	 sar	 rax, 32			; 00000020H
  00045	48 85 c0	 test	 rax, rax
  00048	75 13		 jne	 SHORT $LN5@SafeTrunca
  0004a	33 c0		 xor	 eax, eax
  0004c	83 f8 ff	 cmp	 eax, -1			; ffffffffH
  0004f	74 0c		 je	 SHORT $LN5@SafeTrunca
  00051	c7 85 b4 01 00
	00 00 00 00 00	 mov	 DWORD PTR tv69[rbp], 0
  0005b	eb 0a		 jmp	 SHORT $LN6@SafeTrunca
$LN5@SafeTrunca:
  0005d	c7 85 b4 01 00
	00 01 00 00 00	 mov	 DWORD PTR tv69[rbp], 1
$LN6@SafeTrunca:
  00067	0f b6 85 b4 01
	00 00		 movzx	 eax, BYTE PTR tv69[rbp]
  0006e	88 45 04	 mov	 BYTE PTR safe$1[rbp], al
; Line 108
  00071	48 8d 85 08 01
	00 00		 lea	 rax, QWORD PTR $T3[rbp]
  00078	48 89 85 48 01
	00 00		 mov	 QWORD PTR $T4[rbp], rax
  0007f	48 8d 15 00 00
	00 00		 lea	 rdx, OFFSET FLAT:??_C@_0BC@BJEMDEOO@truncate?5NOT?5SAFE?$AA@
  00086	48 8b 8d 48 01
	00 00		 mov	 rcx, QWORD PTR $T4[rbp]
  0008d	e8 00 00 00 00	 call	 ??0?$basic_string@DU?$char_traits@D@std@@V?$allocator@D@2@@std@@QEAA@PEBD@Z ; std::basic_string<char,std::char_traits<char>,std::allocator<char> >::basic_string<char,std::char_traits<char>,std::allocator<char> >
  00092	48 89 85 b8 01
	00 00		 mov	 QWORD PTR tv91[rbp], rax
  00099	48 8b 95 b8 01
	00 00		 mov	 rdx, QWORD PTR tv91[rbp]
  000a0	0f b6 4d 04	 movzx	 ecx, BYTE PTR safe$1[rbp]
  000a4	e8 00 00 00 00	 call	 ?Assert@Cy@@YAX_NV?$basic_string@DU?$char_traits@D@std@@V?$allocator@D@2@@std@@@Z ; Cy::Assert
; Line 109
  000a9	8b 85 e0 01 00
	00		 mov	 eax, DWORD PTR value$[rbp]
  000af	eb 77		 jmp	 SHORT $LN1@SafeTrunca
; Line 111
  000b1	eb 75		 jmp	 SHORT $LN1@SafeTrunca
$LN2@SafeTrunca:
; Line 113
  000b3	48 8b 85 e0 01
	00 00		 mov	 rax, QWORD PTR value$[rbp]
  000ba	48 c1 f8 20	 sar	 rax, 32			; 00000020H
  000be	48 85 c0	 test	 rax, rax
  000c1	74 13		 je	 SHORT $LN7@SafeTrunca
  000c3	33 c0		 xor	 eax, eax
  000c5	83 f8 ff	 cmp	 eax, -1			; ffffffffH
  000c8	74 0c		 je	 SHORT $LN7@SafeTrunca
  000ca	c7 85 b4 01 00
	00 00 00 00 00	 mov	 DWORD PTR tv85[rbp], 0
  000d4	eb 0a		 jmp	 SHORT $LN8@SafeTrunca
$LN7@SafeTrunca:
  000d6	c7 85 b4 01 00
	00 01 00 00 00	 mov	 DWORD PTR tv85[rbp], 1
$LN8@SafeTrunca:
  000e0	0f b6 85 b4 01
	00 00		 movzx	 eax, BYTE PTR tv85[rbp]
  000e7	88 45 24	 mov	 BYTE PTR safe$2[rbp], al
; Line 114
  000ea	48 8d 85 68 01
	00 00		 lea	 rax, QWORD PTR $T5[rbp]
  000f1	48 89 85 a8 01
	00 00		 mov	 QWORD PTR $T6[rbp], rax
  000f8	48 8d 15 00 00
	00 00		 lea	 rdx, OFFSET FLAT:??_C@_0BC@BJEMDEOO@truncate?5NOT?5SAFE?$AA@
  000ff	48 8b 8d a8 01
	00 00		 mov	 rcx, QWORD PTR $T6[rbp]
  00106	e8 00 00 00 00	 call	 ??0?$basic_string@DU?$char_traits@D@std@@V?$allocator@D@2@@std@@QEAA@PEBD@Z ; std::basic_string<char,std::char_traits<char>,std::allocator<char> >::basic_string<char,std::char_traits<char>,std::allocator<char> >
  0010b	48 89 85 b8 01
	00 00		 mov	 QWORD PTR tv133[rbp], rax
  00112	48 8b 95 b8 01
	00 00		 mov	 rdx, QWORD PTR tv133[rbp]
  00119	0f b6 4d 24	 movzx	 ecx, BYTE PTR safe$2[rbp]
  0011d	e8 00 00 00 00	 call	 ?Assert@Cy@@YAX_NV?$basic_string@DU?$char_traits@D@std@@V?$allocator@D@2@@std@@@Z ; Cy::Assert
; Line 115
  00122	8b 85 e0 01 00
	00		 mov	 eax, DWORD PTR value$[rbp]
$LN1@SafeTrunca:
; Line 117
  00128	48 8d a5 c8 01
	00 00		 lea	 rsp, QWORD PTR [rbp+456]
  0012f	5f		 pop	 rdi
  00130	5d		 pop	 rbp
  00131	c3		 ret	 0
?SafeTruncate@Cy@@YAH_J@Z ENDP				; Cy::SafeTruncate
_TEXT	ENDS
; Function compile flags: /Odtp /RTCsu /ZI
;	COMDAT ?SafeTruncate@Cy@@YAI_K@Z
_TEXT	SEGMENT
safe$ = 4
$T1 = 232
$T2 = 296
tv67 = 308
tv73 = 312
value$ = 352
?SafeTruncate@Cy@@YAI_K@Z PROC				; Cy::SafeTruncate, COMDAT
; File d:\scottsdocs\sourcecode\vulkanengine\vulkanengine\code\util.h
; Line 86
$LN6:
  00000	48 89 4c 24 08	 mov	 QWORD PTR [rsp+8], rcx
  00005	55		 push	 rbp
  00006	57		 push	 rdi
  00007	48 81 ec 68 01
	00 00		 sub	 rsp, 360		; 00000168H
  0000e	48 8d 6c 24 20	 lea	 rbp, QWORD PTR [rsp+32]
  00013	48 8b fc	 mov	 rdi, rsp
  00016	b9 5a 00 00 00	 mov	 ecx, 90			; 0000005aH
  0001b	b8 cc cc cc cc	 mov	 eax, -858993460		; ccccccccH
  00020	f3 ab		 rep stosd
  00022	48 8b 8c 24 88
	01 00 00	 mov	 rcx, QWORD PTR [rsp+392]
; Line 87
  0002a	48 8b 85 60 01
	00 00		 mov	 rax, QWORD PTR value$[rbp]
  00031	48 c1 e8 20	 shr	 rax, 32			; 00000020H
  00035	48 85 c0	 test	 rax, rax
  00038	74 13		 je	 SHORT $LN3@SafeTrunca
  0003a	33 c0		 xor	 eax, eax
  0003c	83 f8 ff	 cmp	 eax, -1			; ffffffffH
  0003f	74 0c		 je	 SHORT $LN3@SafeTrunca
  00041	c7 85 34 01 00
	00 00 00 00 00	 mov	 DWORD PTR tv67[rbp], 0
  0004b	eb 0a		 jmp	 SHORT $LN4@SafeTrunca
$LN3@SafeTrunca:
  0004d	c7 85 34 01 00
	00 01 00 00 00	 mov	 DWORD PTR tv67[rbp], 1
$LN4@SafeTrunca:
  00057	0f b6 85 34 01
	00 00		 movzx	 eax, BYTE PTR tv67[rbp]
  0005e	88 45 04	 mov	 BYTE PTR safe$[rbp], al
; Line 88
  00061	48 8d 85 e8 00
	00 00		 lea	 rax, QWORD PTR $T1[rbp]
  00068	48 89 85 28 01
	00 00		 mov	 QWORD PTR $T2[rbp], rax
  0006f	48 8d 15 00 00
	00 00		 lea	 rdx, OFFSET FLAT:??_C@_0BC@BJEMDEOO@truncate?5NOT?5SAFE?$AA@
  00076	48 8b 8d 28 01
	00 00		 mov	 rcx, QWORD PTR $T2[rbp]
  0007d	e8 00 00 00 00	 call	 ??0?$basic_string@DU?$char_traits@D@std@@V?$allocator@D@2@@std@@QEAA@PEBD@Z ; std::basic_string<char,std::char_traits<char>,std::allocator<char> >::basic_string<char,std::char_traits<char>,std::allocator<char> >
  00082	48 89 85 38 01
	00 00		 mov	 QWORD PTR tv73[rbp], rax
  00089	48 8b 95 38 01
	00 00		 mov	 rdx, QWORD PTR tv73[rbp]
  00090	0f b6 4d 04	 movzx	 ecx, BYTE PTR safe$[rbp]
  00094	e8 00 00 00 00	 call	 ?Assert@Cy@@YAX_NV?$basic_string@DU?$char_traits@D@std@@V?$allocator@D@2@@std@@@Z ; Cy::Assert
; Line 89
  00099	8b 85 60 01 00
	00		 mov	 eax, DWORD PTR value$[rbp]
; Line 90
  0009f	48 8d a5 48 01
	00 00		 lea	 rsp, QWORD PTR [rbp+328]
  000a6	5f		 pop	 rdi
  000a7	5d		 pop	 rbp
  000a8	c3		 ret	 0
?SafeTruncate@Cy@@YAI_K@Z ENDP				; Cy::SafeTruncate
_TEXT	ENDS
; Function compile flags: /Odtp /RTCsu /ZI
;	COMDAT ??$?5DU?$char_traits@D@std@@@std@@YAAEAV?$basic_istream@DU?$char_traits@D@std@@@0@AEAV10@AEAD@Z
_TEXT	SEGMENT
_Meta$ = 4
_State$ = 36
_Ok$ = 72
$T5 = 308
$T6 = 344
$T7 = 376
tv65 = 392
tv157 = 400
__$ArrayPad$ = 408
_Istr$ = 448
_Ch$ = 456
??$?5DU?$char_traits@D@std@@@std@@YAAEAV?$basic_istream@DU?$char_traits@D@std@@@0@AEAV10@AEAD@Z PROC ; std::operator>><char,std::char_traits<char> >, COMDAT
; File d:\appdata\vsp\vc\include\istream
; Line 1052
$LN13:
  00000	48 89 54 24 10	 mov	 QWORD PTR [rsp+16], rdx
  00005	48 89 4c 24 08	 mov	 QWORD PTR [rsp+8], rcx
  0000a	55		 push	 rbp
  0000b	57		 push	 rdi
  0000c	48 81 ec c8 01
	00 00		 sub	 rsp, 456		; 000001c8H
  00013	48 8d 6c 24 20	 lea	 rbp, QWORD PTR [rsp+32]
  00018	48 8b fc	 mov	 rdi, rsp
  0001b	b9 72 00 00 00	 mov	 ecx, 114		; 00000072H
  00020	b8 cc cc cc cc	 mov	 eax, -858993460		; ccccccccH
  00025	f3 ab		 rep stosd
  00027	48 8b 8c 24 e8
	01 00 00	 mov	 rcx, QWORD PTR [rsp+488]
  0002f	48 c7 85 78 01
	00 00 fe ff ff
	ff		 mov	 QWORD PTR $T7[rbp], -2
  0003a	48 8b 05 00 00
	00 00		 mov	 rax, QWORD PTR __security_cookie
  00041	48 33 c5	 xor	 rax, rbp
  00044	48 89 85 98 01
	00 00		 mov	 QWORD PTR __$ArrayPad$[rbp], rax
; Line 1056
  0004b	c7 45 24 00 00
	00 00		 mov	 DWORD PTR _State$[rbp], 0
; Line 1057
  00052	45 33 c0	 xor	 r8d, r8d
  00055	48 8b 95 c0 01
	00 00		 mov	 rdx, QWORD PTR _Istr$[rbp]
  0005c	48 8d 4d 48	 lea	 rcx, QWORD PTR _Ok$[rbp]
  00060	e8 00 00 00 00	 call	 ??0sentry@?$basic_istream@DU?$char_traits@D@std@@@std@@QEAA@AEAV12@_N@Z ; std::basic_istream<char,std::char_traits<char> >::sentry::sentry
  00065	90		 npad	 1
; Line 1059
  00066	48 8d 4d 48	 lea	 rcx, QWORD PTR _Ok$[rbp]
  0006a	e8 00 00 00 00	 call	 ??Bsentry@?$basic_istream@DU?$char_traits@D@std@@@std@@QEBA_NXZ ; std::basic_istream<char,std::char_traits<char> >::sentry::operator bool
  0006f	0f b6 c0	 movzx	 eax, al
  00072	85 c0		 test	 eax, eax
  00074	0f 84 88 00 00
	00		 je	 $LN2@operator
; Line 1062
  0007a	48 8b 85 c0 01
	00 00		 mov	 rax, QWORD PTR _Istr$[rbp]
  00081	48 8b 00	 mov	 rax, QWORD PTR [rax]
  00084	48 63 40 04	 movsxd	 rax, DWORD PTR [rax+4]
  00088	48 8b 8d c0 01
	00 00		 mov	 rcx, QWORD PTR _Istr$[rbp]
  0008f	48 03 c8	 add	 rcx, rax
  00092	48 8b c1	 mov	 rax, rcx
  00095	48 8b c8	 mov	 rcx, rax
  00098	ff 15 00 00 00
	00		 call	 QWORD PTR __imp_?rdbuf@?$basic_ios@DU?$char_traits@D@std@@@std@@QEBAPEAV?$basic_streambuf@DU?$char_traits@D@std@@@2@XZ
  0009e	48 89 85 88 01
	00 00		 mov	 QWORD PTR tv65[rbp], rax
  000a5	48 8b 8d 88 01
	00 00		 mov	 rcx, QWORD PTR tv65[rbp]
  000ac	ff 15 00 00 00
	00		 call	 QWORD PTR __imp_?sbumpc@?$basic_streambuf@DU?$char_traits@D@std@@@std@@QEAAHXZ
  000b2	89 85 90 01 00
	00		 mov	 DWORD PTR tv157[rbp], eax
  000b8	8b 85 90 01 00
	00		 mov	 eax, DWORD PTR tv157[rbp]
  000be	89 45 04	 mov	 DWORD PTR _Meta$[rbp], eax
; Line 1063
  000c1	e8 00 00 00 00	 call	 ?eof@?$char_traits@D@std@@SAHXZ ; std::char_traits<char>::eof
  000c6	89 85 34 01 00
	00		 mov	 DWORD PTR $T5[rbp], eax
  000cc	48 8d 55 04	 lea	 rdx, QWORD PTR _Meta$[rbp]
  000d0	48 8d 8d 34 01
	00 00		 lea	 rcx, QWORD PTR $T5[rbp]
  000d7	e8 00 00 00 00	 call	 ?eq_int_type@?$char_traits@D@std@@SA_NAEBH0@Z ; std::char_traits<char>::eq_int_type
  000dc	0f b6 c0	 movzx	 eax, al
  000df	85 c0		 test	 eax, eax
  000e1	74 0b		 je	 SHORT $LN4@operator
; Line 1064
  000e3	8b 45 24	 mov	 eax, DWORD PTR _State$[rbp]
  000e6	83 c8 03	 or	 eax, 3
  000e9	89 45 24	 mov	 DWORD PTR _State$[rbp], eax
; Line 1065
  000ec	eb 12		 jmp	 SHORT $LN5@operator
$LN4@operator:
; Line 1066
  000ee	48 8d 4d 04	 lea	 rcx, QWORD PTR _Meta$[rbp]
  000f2	e8 00 00 00 00	 call	 ?to_char_type@?$char_traits@D@std@@SADAEBH@Z ; std::char_traits<char>::to_char_type
  000f7	48 8b 8d c8 01
	00 00		 mov	 rcx, QWORD PTR _Ch$[rbp]
  000fe	88 01		 mov	 BYTE PTR [rcx], al
$LN5@operator:
  00100	eb 00		 jmp	 SHORT $LN2@operator
$LN11@operator:
$LN2@operator:
; Line 1070
  00102	48 8b 85 c0 01
	00 00		 mov	 rax, QWORD PTR _Istr$[rbp]
  00109	48 8b 00	 mov	 rax, QWORD PTR [rax]
  0010c	48 63 40 04	 movsxd	 rax, DWORD PTR [rax+4]
  00110	48 8b 8d c0 01
	00 00		 mov	 rcx, QWORD PTR _Istr$[rbp]
  00117	48 03 c8	 add	 rcx, rax
  0011a	48 8b c1	 mov	 rax, rcx
  0011d	45 33 c0	 xor	 r8d, r8d
  00120	8b 55 24	 mov	 edx, DWORD PTR _State$[rbp]
  00123	48 8b c8	 mov	 rcx, rax
  00126	ff 15 00 00 00
	00		 call	 QWORD PTR __imp_?setstate@?$basic_ios@DU?$char_traits@D@std@@@std@@QEAAXH_N@Z
; Line 1071
  0012c	48 8b 85 c0 01
	00 00		 mov	 rax, QWORD PTR _Istr$[rbp]
  00133	48 89 85 58 01
	00 00		 mov	 QWORD PTR $T6[rbp], rax
  0013a	48 8d 4d 48	 lea	 rcx, QWORD PTR _Ok$[rbp]
  0013e	e8 00 00 00 00	 call	 ??1sentry@?$basic_istream@DU?$char_traits@D@std@@@std@@QEAA@XZ
  00143	48 8b 85 58 01
	00 00		 mov	 rax, QWORD PTR $T6[rbp]
; Line 1072
  0014a	48 8b f8	 mov	 rdi, rax
  0014d	48 8d 4d e0	 lea	 rcx, QWORD PTR [rbp-32]
  00151	48 8d 15 00 00
	00 00		 lea	 rdx, OFFSET FLAT:??$?5DU?$char_traits@D@std@@@std@@YAAEAV?$basic_istream@DU?$char_traits@D@std@@@0@AEAV10@AEAD@Z$rtcFrameData
  00158	e8 00 00 00 00	 call	 _RTC_CheckStackVars
  0015d	48 8b c7	 mov	 rax, rdi
  00160	48 8b 8d 98 01
	00 00		 mov	 rcx, QWORD PTR __$ArrayPad$[rbp]
  00167	48 33 cd	 xor	 rcx, rbp
  0016a	e8 00 00 00 00	 call	 __security_check_cookie
  0016f	48 8d a5 a8 01
	00 00		 lea	 rsp, QWORD PTR [rbp+424]
  00176	5f		 pop	 rdi
  00177	5d		 pop	 rbp
  00178	c3		 ret	 0
??$?5DU?$char_traits@D@std@@@std@@YAAEAV?$basic_istream@DU?$char_traits@D@std@@@0@AEAV10@AEAD@Z ENDP ; std::operator>><char,std::char_traits<char> >
_TEXT	ENDS
;	COMDAT text$x
text$x	SEGMENT
_Meta$ = 4
_State$ = 36
_Ok$ = 72
$T5 = 308
$T6 = 344
$T7 = 376
tv65 = 392
tv157 = 400
__$ArrayPad$ = 408
_Istr$ = 448
_Ch$ = 456
?dtor$0@?0???$?5DU?$char_traits@D@std@@@std@@YAAEAV?$basic_istream@DU?$char_traits@D@std@@@0@AEAV10@AEAD@Z@4HA PROC ; `std::operator>><char,std::char_traits<char> >'::`1'::dtor$0
  00000	48 89 4c 24 08	 mov	 QWORD PTR [rsp+8], rcx
  00005	48 89 54 24 10	 mov	 QWORD PTR [rsp+16], rdx
  0000a	55		 push	 rbp
  0000b	57		 push	 rdi
  0000c	48 83 ec 28	 sub	 rsp, 40			; 00000028H
  00010	48 8d 6a 20	 lea	 rbp, QWORD PTR [rdx+32]
  00014	48 8d 4d 48	 lea	 rcx, QWORD PTR _Ok$[rbp]
  00018	e8 00 00 00 00	 call	 ??1sentry@?$basic_istream@DU?$char_traits@D@std@@@std@@QEAA@XZ
  0001d	48 83 c4 28	 add	 rsp, 40			; 00000028H
  00021	5f		 pop	 rdi
  00022	5d		 pop	 rbp
  00023	c3		 ret	 0
?dtor$0@?0???$?5DU?$char_traits@D@std@@@std@@YAAEAV?$basic_istream@DU?$char_traits@D@std@@@0@AEAV10@AEAD@Z@4HA ENDP ; `std::operator>><char,std::char_traits<char> >'::`1'::dtor$0
_Meta$ = 4
_State$ = 36
_Ok$ = 72
$T5 = 308
$T6 = 344
$T7 = 376
tv65 = 392
tv157 = 400
__$ArrayPad$ = 408
_Istr$ = 448
_Ch$ = 456
?catch$0@?0???$?5DU?$char_traits@D@std@@@std@@YAAEAV?$basic_istream@DU?$char_traits@D@std@@@0@AEAV10@AEAD@Z@4HA PROC ; `std::operator>><char,std::char_traits<char> >'::`1'::catch$0
; Line 1067
  00024	48 89 4c 24 08	 mov	 QWORD PTR [rsp+8], rcx
  00029	48 89 54 24 10	 mov	 QWORD PTR [rsp+16], rdx
  0002e	55		 push	 rbp
  0002f	57		 push	 rdi
  00030	48 83 ec 28	 sub	 rsp, 40			; 00000028H
  00034	48 8d 6a 20	 lea	 rbp, QWORD PTR [rdx+32]
__catch$??$?5DU?$char_traits@D@std@@@std@@YAAEAV?$basic_istream@DU?$char_traits@D@std@@@0@AEAV10@AEAD@Z$0:
  00038	48 8b 85 c0 01
	00 00		 mov	 rax, QWORD PTR _Istr$[rbp]
  0003f	48 8b 00	 mov	 rax, QWORD PTR [rax]
  00042	48 63 40 04	 movsxd	 rax, DWORD PTR [rax+4]
  00046	48 8b 8d c0 01
	00 00		 mov	 rcx, QWORD PTR _Istr$[rbp]
  0004d	48 03 c8	 add	 rcx, rax
  00050	48 8b c1	 mov	 rax, rcx
  00053	41 b0 01	 mov	 r8b, 1
  00056	ba 04 00 00 00	 mov	 edx, 4
  0005b	48 8b c8	 mov	 rcx, rax
  0005e	ff 15 00 00 00
	00		 call	 QWORD PTR __imp_?setstate@?$basic_ios@DU?$char_traits@D@std@@@std@@QEAAXH_N@Z
  00064	90		 npad	 1
  00065	48 8d 05 00 00
	00 00		 lea	 rax, $LN11@catch$0
  0006c	48 83 c4 28	 add	 rsp, 40			; 00000028H
  00070	5f		 pop	 rdi
  00071	5d		 pop	 rbp
  00072	c3		 ret	 0
  00073	cc		 int	 3
?catch$0@?0???$?5DU?$char_traits@D@std@@@std@@YAAEAV?$basic_istream@DU?$char_traits@D@std@@@0@AEAV10@AEAD@Z@4HA ENDP ; `std::operator>><char,std::char_traits<char> >'::`1'::catch$0
text$x	ENDS
; Function compile flags: /Odtp /RTCsu /ZI
;	COMDAT text$x
text$x	SEGMENT
_Meta$ = 4
_State$ = 36
_Ok$ = 72
$T5 = 308
$T6 = 344
$T7 = 376
tv65 = 392
tv157 = 400
__$ArrayPad$ = 408
_Istr$ = 448
_Ch$ = 456
?dtor$0@?0???$?5DU?$char_traits@D@std@@@std@@YAAEAV?$basic_istream@DU?$char_traits@D@std@@@0@AEAV10@AEAD@Z@4HA PROC ; `std::operator>><char,std::char_traits<char> >'::`1'::dtor$0
  00000	48 89 4c 24 08	 mov	 QWORD PTR [rsp+8], rcx
  00005	48 89 54 24 10	 mov	 QWORD PTR [rsp+16], rdx
  0000a	55		 push	 rbp
  0000b	57		 push	 rdi
  0000c	48 83 ec 28	 sub	 rsp, 40			; 00000028H
  00010	48 8d 6a 20	 lea	 rbp, QWORD PTR [rdx+32]
  00014	48 8d 4d 48	 lea	 rcx, QWORD PTR _Ok$[rbp]
  00018	e8 00 00 00 00	 call	 ??1sentry@?$basic_istream@DU?$char_traits@D@std@@@std@@QEAA@XZ
  0001d	48 83 c4 28	 add	 rsp, 40			; 00000028H
  00021	5f		 pop	 rdi
  00022	5d		 pop	 rbp
  00023	c3		 ret	 0
?dtor$0@?0???$?5DU?$char_traits@D@std@@@std@@YAAEAV?$basic_istream@DU?$char_traits@D@std@@@0@AEAV10@AEAD@Z@4HA ENDP ; `std::operator>><char,std::char_traits<char> >'::`1'::dtor$0
text$x	ENDS
; Function compile flags: /Odtp /RTCsu /ZI
;	COMDAT text$x
text$x	SEGMENT
_Meta$ = 4
_State$ = 36
_Ok$ = 72
$T5 = 308
$T6 = 344
$T7 = 376
tv65 = 392
tv157 = 400
__$ArrayPad$ = 408
_Istr$ = 448
_Ch$ = 456
?catch$0@?0???$?5DU?$char_traits@D@std@@@std@@YAAEAV?$basic_istream@DU?$char_traits@D@std@@@0@AEAV10@AEAD@Z@4HA PROC ; `std::operator>><char,std::char_traits<char> >'::`1'::catch$0
; Line 1067
  00024	48 89 4c 24 08	 mov	 QWORD PTR [rsp+8], rcx
  00029	48 89 54 24 10	 mov	 QWORD PTR [rsp+16], rdx
  0002e	55		 push	 rbp
  0002f	57		 push	 rdi
  00030	48 83 ec 28	 sub	 rsp, 40			; 00000028H
  00034	48 8d 6a 20	 lea	 rbp, QWORD PTR [rdx+32]
__catch$??$?5DU?$char_traits@D@std@@@std@@YAAEAV?$basic_istream@DU?$char_traits@D@std@@@0@AEAV10@AEAD@Z$0:
  00038	48 8b 85 c0 01
	00 00		 mov	 rax, QWORD PTR _Istr$[rbp]
  0003f	48 8b 00	 mov	 rax, QWORD PTR [rax]
  00042	48 63 40 04	 movsxd	 rax, DWORD PTR [rax+4]
  00046	48 8b 8d c0 01
	00 00		 mov	 rcx, QWORD PTR _Istr$[rbp]
  0004d	48 03 c8	 add	 rcx, rax
  00050	48 8b c1	 mov	 rax, rcx
  00053	41 b0 01	 mov	 r8b, 1
  00056	ba 04 00 00 00	 mov	 edx, 4
  0005b	48 8b c8	 mov	 rcx, rax
  0005e	ff 15 00 00 00
	00		 call	 QWORD PTR __imp_?setstate@?$basic_ios@DU?$char_traits@D@std@@@std@@QEAAXH_N@Z
  00064	90		 npad	 1
  00065	48 8d 05 00 00
	00 00		 lea	 rax, $LN11@catch$0
  0006c	48 83 c4 28	 add	 rsp, 40			; 00000028H
  00070	5f		 pop	 rdi
  00071	5d		 pop	 rbp
  00072	c3		 ret	 0
  00073	cc		 int	 3
?catch$0@?0???$?5DU?$char_traits@D@std@@@std@@YAAEAV?$basic_istream@DU?$char_traits@D@std@@@0@AEAV10@AEAD@Z@4HA ENDP ; `std::operator>><char,std::char_traits<char> >'::`1'::catch$0
text$x	ENDS
; Function compile flags: /Odtp /RTCsu /ZI
;	COMDAT ?Assert@Cy@@YAX_NV?$basic_string@DU?$char_traits@D@std@@V?$allocator@D@2@@std@@@Z
_TEXT	SEGMENT
x$ = 4
consoleHandle$4 = 40
$T5 = 264
$T6 = 328
$T7 = 360
tv85 = 376
__$ArrayPad$ = 384
test$ = 432
message$ = 440
?Assert@Cy@@YAX_NV?$basic_string@DU?$char_traits@D@std@@V?$allocator@D@2@@std@@@Z PROC ; Cy::Assert, COMDAT
; File d:\scottsdocs\sourcecode\vulkanengine\vulkanengine\code\util.h
; Line 65
$LN6:
  00000	48 89 54 24 10	 mov	 QWORD PTR [rsp+16], rdx
  00005	88 4c 24 08	 mov	 BYTE PTR [rsp+8], cl
  00009	55		 push	 rbp
  0000a	57		 push	 rdi
  0000b	48 81 ec b8 01
	00 00		 sub	 rsp, 440		; 000001b8H
  00012	48 8d 6c 24 20	 lea	 rbp, QWORD PTR [rsp+32]
  00017	48 8b fc	 mov	 rdi, rsp
  0001a	b9 6e 00 00 00	 mov	 ecx, 110		; 0000006eH
  0001f	b8 cc cc cc cc	 mov	 eax, -858993460		; ccccccccH
  00024	f3 ab		 rep stosd
  00026	0f b6 8c 24 d8
	01 00 00	 movzx	 ecx, BYTE PTR [rsp+472]
  0002e	48 c7 85 68 01
	00 00 fe ff ff
	ff		 mov	 QWORD PTR $T7[rbp], -2
  00039	48 8b 05 00 00
	00 00		 mov	 rax, QWORD PTR __security_cookie
  00040	48 33 c5	 xor	 rax, rbp
  00043	48 89 85 80 01
	00 00		 mov	 QWORD PTR __$ArrayPad$[rbp], rax
; Line 68
  0004a	0f b6 85 b0 01
	00 00		 movzx	 eax, BYTE PTR test$[rbp]
  00051	85 c0		 test	 eax, eax
  00053	75 68		 jne	 SHORT $LN2@Assert
; Line 70
  00055	ff 15 00 00 00
	00		 call	 QWORD PTR __imp_GetConsoleWindow
  0005b	48 89 45 28	 mov	 QWORD PTR consoleHandle$4[rbp], rax
; Line 71
  0005f	ba 05 00 00 00	 mov	 edx, 5
  00064	48 8b 4d 28	 mov	 rcx, QWORD PTR consoleHandle$4[rbp]
  00068	ff 15 00 00 00
	00		 call	 QWORD PTR __imp_ShowWindow
; Line 72
  0006e	48 8b 4d 28	 mov	 rcx, QWORD PTR consoleHandle$4[rbp]
  00072	ff 15 00 00 00
	00		 call	 QWORD PTR __imp_SetFocus
; Line 73
  00078	48 8d 85 08 01
	00 00		 lea	 rax, QWORD PTR $T5[rbp]
  0007f	48 89 85 48 01
	00 00		 mov	 QWORD PTR $T6[rbp], rax
  00086	48 8b 95 b8 01
	00 00		 mov	 rdx, QWORD PTR message$[rbp]
  0008d	48 8b 8d 48 01
	00 00		 mov	 rcx, QWORD PTR $T6[rbp]
  00094	e8 00 00 00 00	 call	 ??0?$basic_string@DU?$char_traits@D@std@@V?$allocator@D@2@@std@@QEAA@AEBV01@@Z ; std::basic_string<char,std::char_traits<char>,std::allocator<char> >::basic_string<char,std::char_traits<char>,std::allocator<char> >
  00099	48 89 85 78 01
	00 00		 mov	 QWORD PTR tv85[rbp], rax
  000a0	48 8b 8d 78 01
	00 00		 mov	 rcx, QWORD PTR tv85[rbp]
  000a7	e8 00 00 00 00	 call	 ?Message@Cy@@YAXV?$basic_string@DU?$char_traits@D@std@@V?$allocator@D@2@@std@@@Z ; Cy::Message
; Line 74
  000ac	48 8d 55 04	 lea	 rdx, QWORD PTR x$[rbp]
  000b0	48 8b 0d 00 00
	00 00		 mov	 rcx, QWORD PTR __imp_?cin@std@@3V?$basic_istream@DU?$char_traits@D@std@@@1@A
  000b7	e8 00 00 00 00	 call	 ??$?5DU?$char_traits@D@std@@@std@@YAAEAV?$basic_istream@DU?$char_traits@D@std@@@0@AEAV10@AEAD@Z ; std::operator>><char,std::char_traits<char> >
  000bc	90		 npad	 1
$LN2@Assert:
; Line 78
  000bd	48 8b 8d b8 01
	00 00		 mov	 rcx, QWORD PTR message$[rbp]
  000c4	e8 00 00 00 00	 call	 ??1?$basic_string@DU?$char_traits@D@std@@V?$allocator@D@2@@std@@QEAA@XZ ; std::basic_string<char,std::char_traits<char>,std::allocator<char> >::~basic_string<char,std::char_traits<char>,std::allocator<char> >
  000c9	48 8d 4d e0	 lea	 rcx, QWORD PTR [rbp-32]
  000cd	48 8d 15 00 00
	00 00		 lea	 rdx, OFFSET FLAT:?Assert@Cy@@YAX_NV?$basic_string@DU?$char_traits@D@std@@V?$allocator@D@2@@std@@@Z$rtcFrameData
  000d4	e8 00 00 00 00	 call	 _RTC_CheckStackVars
  000d9	48 8b 8d 80 01
	00 00		 mov	 rcx, QWORD PTR __$ArrayPad$[rbp]
  000e0	48 33 cd	 xor	 rcx, rbp
  000e3	e8 00 00 00 00	 call	 __security_check_cookie
  000e8	48 8d a5 98 01
	00 00		 lea	 rsp, QWORD PTR [rbp+408]
  000ef	5f		 pop	 rdi
  000f0	5d		 pop	 rbp
  000f1	c3		 ret	 0
?Assert@Cy@@YAX_NV?$basic_string@DU?$char_traits@D@std@@V?$allocator@D@2@@std@@@Z ENDP ; Cy::Assert
_TEXT	ENDS
;	COMDAT text$x
text$x	SEGMENT
x$ = 4
consoleHandle$4 = 40
$T5 = 264
$T6 = 328
$T7 = 360
tv85 = 376
__$ArrayPad$ = 384
test$ = 432
message$ = 440
?dtor$0@?0??Assert@Cy@@YAX_NV?$basic_string@DU?$char_traits@D@std@@V?$allocator@D@2@@std@@@Z@4HA PROC ; `Cy::Assert'::`1'::dtor$0
  00000	48 89 4c 24 08	 mov	 QWORD PTR [rsp+8], rcx
  00005	48 89 54 24 10	 mov	 QWORD PTR [rsp+16], rdx
  0000a	55		 push	 rbp
  0000b	57		 push	 rdi
  0000c	48 83 ec 28	 sub	 rsp, 40			; 00000028H
  00010	48 8d 6a 20	 lea	 rbp, QWORD PTR [rdx+32]
  00014	48 8b 8d b8 01
	00 00		 mov	 rcx, QWORD PTR message$[rbp]
  0001b	e8 00 00 00 00	 call	 ??1?$basic_string@DU?$char_traits@D@std@@V?$allocator@D@2@@std@@QEAA@XZ ; std::basic_string<char,std::char_traits<char>,std::allocator<char> >::~basic_string<char,std::char_traits<char>,std::allocator<char> >
  00020	48 83 c4 28	 add	 rsp, 40			; 00000028H
  00024	5f		 pop	 rdi
  00025	5d		 pop	 rbp
  00026	c3		 ret	 0
?dtor$0@?0??Assert@Cy@@YAX_NV?$basic_string@DU?$char_traits@D@std@@V?$allocator@D@2@@std@@@Z@4HA ENDP ; `Cy::Assert'::`1'::dtor$0
text$x	ENDS
; Function compile flags: /Odtp /RTCsu /ZI
;	COMDAT text$x
text$x	SEGMENT
x$ = 4
consoleHandle$4 = 40
$T5 = 264
$T6 = 328
$T7 = 360
tv85 = 376
__$ArrayPad$ = 384
test$ = 432
message$ = 440
?dtor$0@?0??Assert@Cy@@YAX_NV?$basic_string@DU?$char_traits@D@std@@V?$allocator@D@2@@std@@@Z@4HA PROC ; `Cy::Assert'::`1'::dtor$0
  00000	48 89 4c 24 08	 mov	 QWORD PTR [rsp+8], rcx
  00005	48 89 54 24 10	 mov	 QWORD PTR [rsp+16], rdx
  0000a	55		 push	 rbp
  0000b	57		 push	 rdi
  0000c	48 83 ec 28	 sub	 rsp, 40			; 00000028H
  00010	48 8d 6a 20	 lea	 rbp, QWORD PTR [rdx+32]
  00014	48 8b 8d b8 01
	00 00		 mov	 rcx, QWORD PTR message$[rbp]
  0001b	e8 00 00 00 00	 call	 ??1?$basic_string@DU?$char_traits@D@std@@V?$allocator@D@2@@std@@QEAA@XZ ; std::basic_string<char,std::char_traits<char>,std::allocator<char> >::~basic_string<char,std::char_traits<char>,std::allocator<char> >
  00020	48 83 c4 28	 add	 rsp, 40			; 00000028H
  00024	5f		 pop	 rdi
  00025	5d		 pop	 rbp
  00026	c3		 ret	 0
?dtor$0@?0??Assert@Cy@@YAX_NV?$basic_string@DU?$char_traits@D@std@@V?$allocator@D@2@@std@@@Z@4HA ENDP ; `Cy::Assert'::`1'::dtor$0
text$x	ENDS
; Function compile flags: /Odtp /RTCsu /ZI
;	COMDAT ?Message@Cy@@YAXV?$basic_string@DU?$char_traits@D@std@@V?$allocator@D@2@@std@@@Z
_TEXT	SEGMENT
$T1 = 200
tv69 = 216
message$ = 256
?Message@Cy@@YAXV?$basic_string@DU?$char_traits@D@std@@V?$allocator@D@2@@std@@@Z PROC ; Cy::Message, COMDAT
; File d:\scottsdocs\sourcecode\vulkanengine\vulkanengine\code\util.h
; Line 41
$LN4:
  00000	48 89 4c 24 08	 mov	 QWORD PTR [rsp+8], rcx
  00005	55		 push	 rbp
  00006	57		 push	 rdi
  00007	48 81 ec 08 01
	00 00		 sub	 rsp, 264		; 00000108H
  0000e	48 8d 6c 24 20	 lea	 rbp, QWORD PTR [rsp+32]
  00013	48 8b fc	 mov	 rdi, rsp
  00016	b9 42 00 00 00	 mov	 ecx, 66			; 00000042H
  0001b	b8 cc cc cc cc	 mov	 eax, -858993460		; ccccccccH
  00020	f3 ab		 rep stosd
  00022	48 8b 8c 24 28
	01 00 00	 mov	 rcx, QWORD PTR [rsp+296]
  0002a	48 c7 85 c8 00
	00 00 fe ff ff
	ff		 mov	 QWORD PTR $T1[rbp], -2
; Line 42
  00035	48 8d 15 00 00
	00 00		 lea	 rdx, OFFSET FLAT:??_C@_01EEMJAFIK@?6?$AA@
  0003c	48 8b 8d 00 01
	00 00		 mov	 rcx, QWORD PTR message$[rbp]
  00043	e8 00 00 00 00	 call	 ??Y?$basic_string@DU?$char_traits@D@std@@V?$allocator@D@2@@std@@QEAAAEAV01@PEBD@Z ; std::basic_string<char,std::char_traits<char>,std::allocator<char> >::operator+=
; Line 44
  00048	48 8b 8d 00 01
	00 00		 mov	 rcx, QWORD PTR message$[rbp]
  0004f	e8 00 00 00 00	 call	 ?c_str@?$basic_string@DU?$char_traits@D@std@@V?$allocator@D@2@@std@@QEBAPEBDXZ ; std::basic_string<char,std::char_traits<char>,std::allocator<char> >::c_str
  00054	48 89 85 d8 00
	00 00		 mov	 QWORD PTR tv69[rbp], rax
  0005b	b9 01 00 00 00	 mov	 ecx, 1
  00060	ff 15 00 00 00
	00		 call	 QWORD PTR __imp___acrt_iob_func
  00066	48 8b 8d d8 00
	00 00		 mov	 rcx, QWORD PTR tv69[rbp]
  0006d	48 8b d1	 mov	 rdx, rcx
  00070	48 8b c8	 mov	 rcx, rax
  00073	e8 00 00 00 00	 call	 fprintf
  00078	90		 npad	 1
; Line 48
  00079	48 8b 8d 00 01
	00 00		 mov	 rcx, QWORD PTR message$[rbp]
  00080	e8 00 00 00 00	 call	 ??1?$basic_string@DU?$char_traits@D@std@@V?$allocator@D@2@@std@@QEAA@XZ ; std::basic_string<char,std::char_traits<char>,std::allocator<char> >::~basic_string<char,std::char_traits<char>,std::allocator<char> >
  00085	48 8d a5 e8 00
	00 00		 lea	 rsp, QWORD PTR [rbp+232]
  0008c	5f		 pop	 rdi
  0008d	5d		 pop	 rbp
  0008e	c3		 ret	 0
?Message@Cy@@YAXV?$basic_string@DU?$char_traits@D@std@@V?$allocator@D@2@@std@@@Z ENDP ; Cy::Message
_TEXT	ENDS
;	COMDAT text$x
text$x	SEGMENT
$T1 = 200
tv69 = 216
message$ = 256
?dtor$0@?0??Message@Cy@@YAXV?$basic_string@DU?$char_traits@D@std@@V?$allocator@D@2@@std@@@Z@4HA PROC ; `Cy::Message'::`1'::dtor$0
  00000	48 89 4c 24 08	 mov	 QWORD PTR [rsp+8], rcx
  00005	48 89 54 24 10	 mov	 QWORD PTR [rsp+16], rdx
  0000a	55		 push	 rbp
  0000b	57		 push	 rdi
  0000c	48 83 ec 28	 sub	 rsp, 40			; 00000028H
  00010	48 8d 6a 20	 lea	 rbp, QWORD PTR [rdx+32]
  00014	48 8b 8d 00 01
	00 00		 mov	 rcx, QWORD PTR message$[rbp]
  0001b	e8 00 00 00 00	 call	 ??1?$basic_string@DU?$char_traits@D@std@@V?$allocator@D@2@@std@@QEAA@XZ ; std::basic_string<char,std::char_traits<char>,std::allocator<char> >::~basic_string<char,std::char_traits<char>,std::allocator<char> >
  00020	48 83 c4 28	 add	 rsp, 40			; 00000028H
  00024	5f		 pop	 rdi
  00025	5d		 pop	 rbp
  00026	c3		 ret	 0
?dtor$0@?0??Message@Cy@@YAXV?$basic_string@DU?$char_traits@D@std@@V?$allocator@D@2@@std@@@Z@4HA ENDP ; `Cy::Message'::`1'::dtor$0
text$x	ENDS
; Function compile flags: /Odtp /RTCsu /ZI
;	COMDAT text$x
text$x	SEGMENT
$T1 = 200
tv69 = 216
message$ = 256
?dtor$0@?0??Message@Cy@@YAXV?$basic_string@DU?$char_traits@D@std@@V?$allocator@D@2@@std@@@Z@4HA PROC ; `Cy::Message'::`1'::dtor$0
  00000	48 89 4c 24 08	 mov	 QWORD PTR [rsp+8], rcx
  00005	48 89 54 24 10	 mov	 QWORD PTR [rsp+16], rdx
  0000a	55		 push	 rbp
  0000b	57		 push	 rdi
  0000c	48 83 ec 28	 sub	 rsp, 40			; 00000028H
  00010	48 8d 6a 20	 lea	 rbp, QWORD PTR [rdx+32]
  00014	48 8b 8d 00 01
	00 00		 mov	 rcx, QWORD PTR message$[rbp]
  0001b	e8 00 00 00 00	 call	 ??1?$basic_string@DU?$char_traits@D@std@@V?$allocator@D@2@@std@@QEAA@XZ ; std::basic_string<char,std::char_traits<char>,std::allocator<char> >::~basic_string<char,std::char_traits<char>,std::allocator<char> >
  00020	48 83 c4 28	 add	 rsp, 40			; 00000028H
  00024	5f		 pop	 rdi
  00025	5d		 pop	 rbp
  00026	c3		 ret	 0
?dtor$0@?0??Message@Cy@@YAXV?$basic_string@DU?$char_traits@D@std@@V?$allocator@D@2@@std@@@Z@4HA ENDP ; `Cy::Message'::`1'::dtor$0
text$x	ENDS
; Function compile flags: /Odtp /RTCsu /ZI
;	COMDAT ?DestroyTimerInfo@Cy@@YAXPEAUTimerInfo@1@@Z
_TEXT	SEGMENT
timerInfo$ = 224
?DestroyTimerInfo@Cy@@YAXPEAUTimerInfo@1@@Z PROC	; Cy::DestroyTimerInfo, COMDAT
; File d:\scottsdocs\sourcecode\vulkanengine\vulkanengine\code\commonwindows.cpp
; Line 283
$LN3:
  00000	48 89 4c 24 08	 mov	 QWORD PTR [rsp+8], rcx
  00005	55		 push	 rbp
  00006	57		 push	 rdi
  00007	48 81 ec e8 00
	00 00		 sub	 rsp, 232		; 000000e8H
  0000e	48 8d 6c 24 20	 lea	 rbp, QWORD PTR [rsp+32]
  00013	48 8b fc	 mov	 rdi, rsp
  00016	b9 3a 00 00 00	 mov	 ecx, 58			; 0000003aH
  0001b	b8 cc cc cc cc	 mov	 eax, -858993460		; ccccccccH
  00020	f3 ab		 rep stosd
  00022	48 8b 8c 24 08
	01 00 00	 mov	 rcx, QWORD PTR [rsp+264]
; Line 284
  0002a	48 8b 85 e0 00
	00 00		 mov	 rax, QWORD PTR timerInfo$[rbp]
  00031	8b 48 08	 mov	 ecx, DWORD PTR [rax+8]
  00034	ff 15 00 00 00
	00		 call	 QWORD PTR __imp_timeEndPeriod
; Line 285
  0003a	48 8d a5 c8 00
	00 00		 lea	 rsp, QWORD PTR [rbp+200]
  00041	5f		 pop	 rdi
  00042	5d		 pop	 rbp
  00043	c3		 ret	 0
?DestroyTimerInfo@Cy@@YAXPEAUTimerInfo@1@@Z ENDP	; Cy::DestroyTimerInfo
_TEXT	ENDS
; Function compile flags: /Odtp /RTCsu /ZI
;	COMDAT ?Tock@Cy@@YAXPEAUTimerInfo@1@@Z
_TEXT	SEGMENT
frameClocks$ = 8
timerInfo$ = 256
?Tock@Cy@@YAXPEAUTimerInfo@1@@Z PROC			; Cy::Tock, COMDAT
; File d:\scottsdocs\sourcecode\vulkanengine\vulkanengine\code\commonwindows.cpp
; Line 249
$LN4:
  00000	48 89 4c 24 08	 mov	 QWORD PTR [rsp+8], rcx
  00005	55		 push	 rbp
  00006	57		 push	 rdi
  00007	48 81 ec 08 01
	00 00		 sub	 rsp, 264		; 00000108H
  0000e	48 8d 6c 24 20	 lea	 rbp, QWORD PTR [rsp+32]
  00013	48 8b fc	 mov	 rdi, rsp
  00016	b9 42 00 00 00	 mov	 ecx, 66			; 00000042H
  0001b	b8 cc cc cc cc	 mov	 eax, -858993460		; ccccccccH
  00020	f3 ab		 rep stosd
  00022	48 8b 8c 24 28
	01 00 00	 mov	 rcx, QWORD PTR [rsp+296]
; Line 250
  0002a	e8 00 00 00 00	 call	 ?GetClockCount@Cy@@YA_JXZ ; Cy::GetClockCount
  0002f	48 8b 8d 00 01
	00 00		 mov	 rcx, QWORD PTR timerInfo$[rbp]
  00036	48 89 41 48	 mov	 QWORD PTR [rcx+72], rax
; Line 251
  0003a	48 8b 85 00 01
	00 00		 mov	 rax, QWORD PTR timerInfo$[rbp]
  00041	48 8b 8d 00 01
	00 00		 mov	 rcx, QWORD PTR timerInfo$[rbp]
  00048	48 8b 49 40	 mov	 rcx, QWORD PTR [rcx+64]
  0004c	48 8b 40 48	 mov	 rax, QWORD PTR [rax+72]
  00050	48 2b c1	 sub	 rax, rcx
  00053	48 89 45 08	 mov	 QWORD PTR frameClocks$[rbp], rax
; Line 252
  00057	48 69 45 08 e8
	03 00 00	 imul	 rax, QWORD PTR frameClocks$[rbp], 1000 ; 000003e8H
  0005f	33 d2		 xor	 edx, edx
  00061	48 8b 8d 00 01
	00 00		 mov	 rcx, QWORD PTR timerInfo$[rbp]
  00068	48 f7 31	 div	 QWORD PTR [rcx]
  0006b	48 8b 8d 00 01
	00 00		 mov	 rcx, QWORD PTR timerInfo$[rbp]
  00072	48 89 41 50	 mov	 QWORD PTR [rcx+80], rax
; Line 253
  00076	48 8b 85 00 01
	00 00		 mov	 rax, QWORD PTR timerInfo$[rbp]
  0007d	48 8b 00	 mov	 rax, QWORD PTR [rax]
  00080	f3 48 0f 2a c0	 cvtsi2ss xmm0, rax
  00085	48 85 c0	 test	 rax, rax
  00088	7d 08		 jge	 SHORT $LN3@Tock
  0008a	f3 0f 58 05 00
	00 00 00	 addss	 xmm0, DWORD PTR __real@5f800000
$LN3@Tock:
  00092	f3 48 0f 2a 4d
	08		 cvtsi2ss xmm1, QWORD PTR frameClocks$[rbp]
  00098	f3 0f 5e c1	 divss	 xmm0, xmm1
  0009c	33 d2		 xor	 edx, edx
  0009e	48 8b 85 00 01
	00 00		 mov	 rax, QWORD PTR timerInfo$[rbp]
  000a5	48 8b 40 38	 mov	 rax, QWORD PTR [rax+56]
  000a9	b9 0a 00 00 00	 mov	 ecx, 10
  000ae	48 f7 f1	 div	 rcx
  000b1	48 8b c2	 mov	 rax, rdx
  000b4	48 8b 8d 00 01
	00 00		 mov	 rcx, QWORD PTR timerInfo$[rbp]
  000bb	f3 0f 11 44 81
	0c		 movss	 DWORD PTR [rcx+rax*4+12], xmm0
; Line 254
  000c1	48 8d a5 e8 00
	00 00		 lea	 rsp, QWORD PTR [rbp+232]
  000c8	5f		 pop	 rdi
  000c9	5d		 pop	 rbp
  000ca	c3		 ret	 0
?Tock@Cy@@YAXPEAUTimerInfo@1@@Z ENDP			; Cy::Tock
_TEXT	ENDS
; Function compile flags: /Odtp /RTCsu /ZI
;	COMDAT ?Tick@Cy@@YAXPEAUTimerInfo@1@@Z
_TEXT	SEGMENT
timerInfo$ = 224
?Tick@Cy@@YAXPEAUTimerInfo@1@@Z PROC			; Cy::Tick, COMDAT
; File d:\scottsdocs\sourcecode\vulkanengine\vulkanengine\code\commonwindows.cpp
; Line 242
$LN3:
  00000	48 89 4c 24 08	 mov	 QWORD PTR [rsp+8], rcx
  00005	55		 push	 rbp
  00006	57		 push	 rdi
  00007	48 81 ec e8 00
	00 00		 sub	 rsp, 232		; 000000e8H
  0000e	48 8d 6c 24 20	 lea	 rbp, QWORD PTR [rsp+32]
  00013	48 8b fc	 mov	 rdi, rsp
  00016	b9 3a 00 00 00	 mov	 ecx, 58			; 0000003aH
  0001b	b8 cc cc cc cc	 mov	 eax, -858993460		; ccccccccH
  00020	f3 ab		 rep stosd
  00022	48 8b 8c 24 08
	01 00 00	 mov	 rcx, QWORD PTR [rsp+264]
; Line 243
  0002a	e8 00 00 00 00	 call	 ?GetClockCount@Cy@@YA_JXZ ; Cy::GetClockCount
  0002f	48 8b 8d e0 00
	00 00		 mov	 rcx, QWORD PTR timerInfo$[rbp]
  00036	48 89 41 40	 mov	 QWORD PTR [rcx+64], rax
; Line 244
  0003a	48 8b 85 e0 00
	00 00		 mov	 rax, QWORD PTR timerInfo$[rbp]
  00041	48 8b 40 38	 mov	 rax, QWORD PTR [rax+56]
  00045	48 ff c0	 inc	 rax
  00048	48 8b 8d e0 00
	00 00		 mov	 rcx, QWORD PTR timerInfo$[rbp]
  0004f	48 89 41 38	 mov	 QWORD PTR [rcx+56], rax
; Line 245
  00053	48 8d a5 c8 00
	00 00		 lea	 rsp, QWORD PTR [rbp+200]
  0005a	5f		 pop	 rdi
  0005b	5d		 pop	 rbp
  0005c	c3		 ret	 0
?Tick@Cy@@YAXPEAUTimerInfo@1@@Z ENDP			; Cy::Tick
_TEXT	ENDS
; Function compile flags: /Odtp /RTCsu /ZI
;	COMDAT ?Sleep@Cy@@YAXPEAUTimerInfo@1@H@Z
_TEXT	SEGMENT
desiredFrameDurationMilliSec$ = 4
frameTimeRemainingMilliSec$ = 36
sleepTimeMilliSec$1 = 72
timerInfo$ = 320
desiredFps$ = 328
?Sleep@Cy@@YAXPEAUTimerInfo@1@H@Z PROC			; Cy::Sleep, COMDAT
; File d:\scottsdocs\sourcecode\vulkanengine\vulkanengine\code\commonwindows.cpp
; Line 258
$LN7:
  00000	89 54 24 10	 mov	 DWORD PTR [rsp+16], edx
  00004	48 89 4c 24 08	 mov	 QWORD PTR [rsp+8], rcx
  00009	55		 push	 rbp
  0000a	57		 push	 rdi
  0000b	48 81 ec 48 01
	00 00		 sub	 rsp, 328		; 00000148H
  00012	48 8d 6c 24 20	 lea	 rbp, QWORD PTR [rsp+32]
  00017	48 8b fc	 mov	 rdi, rsp
  0001a	b9 52 00 00 00	 mov	 ecx, 82			; 00000052H
  0001f	b8 cc cc cc cc	 mov	 eax, -858993460		; ccccccccH
  00024	f3 ab		 rep stosd
  00026	48 8b 8c 24 68
	01 00 00	 mov	 rcx, QWORD PTR [rsp+360]
; Line 259
  0002e	b8 e8 03 00 00	 mov	 eax, 1000		; 000003e8H
  00033	99		 cdq
  00034	f7 bd 48 01 00
	00		 idiv	 DWORD PTR desiredFps$[rbp]
  0003a	89 45 04	 mov	 DWORD PTR desiredFrameDurationMilliSec$[rbp], eax
; Line 260
  0003d	48 8b 85 40 01
	00 00		 mov	 rax, QWORD PTR timerInfo$[rbp]
  00044	48 8b 48 50	 mov	 rcx, QWORD PTR [rax+80]
  00048	e8 00 00 00 00	 call	 ?SafeTruncate@Cy@@YAH_J@Z ; Cy::SafeTruncate
  0004d	8b 4d 04	 mov	 ecx, DWORD PTR desiredFrameDurationMilliSec$[rbp]
  00050	2b c8		 sub	 ecx, eax
  00052	8b c1		 mov	 eax, ecx
  00054	89 45 24	 mov	 DWORD PTR frameTimeRemainingMilliSec$[rbp], eax
; Line 261
  00057	83 7d 24 01	 cmp	 DWORD PTR frameTimeRemainingMilliSec$[rbp], 1
  0005b	7e 3a		 jle	 SHORT $LN2@Sleep
  0005d	8b 45 04	 mov	 eax, DWORD PTR desiredFrameDurationMilliSec$[rbp]
  00060	39 45 24	 cmp	 DWORD PTR frameTimeRemainingMilliSec$[rbp], eax
  00063	7d 32		 jge	 SHORT $LN2@Sleep
; Line 266
  00065	33 d2		 xor	 edx, edx
  00067	8b 45 24	 mov	 eax, DWORD PTR frameTimeRemainingMilliSec$[rbp]
  0006a	48 8b 8d 40 01
	00 00		 mov	 rcx, QWORD PTR timerInfo$[rbp]
  00071	f7 71 08	 div	 DWORD PTR [rcx+8]
  00074	8b c2		 mov	 eax, edx
  00076	8b 4d 24	 mov	 ecx, DWORD PTR frameTimeRemainingMilliSec$[rbp]
  00079	2b c8		 sub	 ecx, eax
  0007b	8b c1		 mov	 eax, ecx
  0007d	8b c0		 mov	 eax, eax
  0007f	48 89 45 48	 mov	 QWORD PTR sleepTimeMilliSec$1[rbp], rax
; Line 267
  00083	8b 4d 48	 mov	 ecx, DWORD PTR sleepTimeMilliSec$1[rbp]
  00086	e8 00 00 00 00	 call	 ?WindowsSleep@Windows@@YAXI@Z ; Windows::WindowsSleep
; Line 269
  0008b	48 8b 8d 40 01
	00 00		 mov	 rcx, QWORD PTR timerInfo$[rbp]
  00092	e8 00 00 00 00	 call	 ?Tock@Cy@@YAXPEAUTimerInfo@1@@Z ; Cy::Tock
$LN2@Sleep:
; Line 280
  00097	48 8d a5 28 01
	00 00		 lea	 rsp, QWORD PTR [rbp+296]
  0009e	5f		 pop	 rdi
  0009f	5d		 pop	 rbp
  000a0	c3		 ret	 0
?Sleep@Cy@@YAXPEAUTimerInfo@1@H@Z ENDP			; Cy::Sleep
_TEXT	ENDS
; Function compile flags: /Odtp /RTCsu /ZI
;	COMDAT ?GetClockCount@Cy@@YA_JXZ
_TEXT	SEGMENT
clockCount$ = 8
__$ArrayPad$ = 216
?GetClockCount@Cy@@YA_JXZ PROC				; Cy::GetClockCount, COMDAT
; File d:\scottsdocs\sourcecode\vulkanengine\vulkanengine\code\commonwindows.cpp
; Line 210
$LN3:
  00000	40 55		 push	 rbp
  00002	57		 push	 rdi
  00003	48 81 ec 08 01
	00 00		 sub	 rsp, 264		; 00000108H
