; Listing generated by Microsoft (R) Optimizing Compiler Version 19.00.23506.0 

include listing.inc

INCLUDELIB MSVCRTD
INCLUDELIB OLDNAMES

PUBLIC	?CreateDebugReportCallbackEXT@Cy@@3P6A?AW4VkResult@@PEAUVkInstance_T@@PEBUVkDebugReportCallbackCreateInfoEXT@@PEBUVkAllocationCallbacks@@PEAPEAUVkDebugReportCallbackEXT_T@@@ZEA ; Cy::CreateDebugReportCallbackEXT
PUBLIC	?DestroyDebugReportCallbackEXT@Cy@@3P6AXPEAUVkInstance_T@@PEAUVkDebugReportCallbackEXT_T@@PEBUVkAllocationCallbacks@@@ZEA ; Cy::DestroyDebugReportCallbackEXT
_BSS	SEGMENT
?CreateDebugReportCallbackEXT@Cy@@3P6A?AW4VkResult@@PEAUVkInstance_T@@PEBUVkDebugReportCallbackCreateInfoEXT@@PEBUVkAllocationCallbacks@@PEAPEAUVkDebugReportCallbackEXT_T@@@ZEA DQ 01H DUP (?) ; Cy::CreateDebugReportCallbackEXT
?DestroyDebugReportCallbackEXT@Cy@@3P6AXPEAUVkInstance_T@@PEAUVkDebugReportCallbackEXT_T@@PEBUVkAllocationCallbacks@@@ZEA DQ 01H DUP (?) ; Cy::DestroyDebugReportCallbackEXT
_BSS	ENDS
PUBLIC	?__empty_global_delete@@YAXPEAX@Z		; __empty_global_delete
PUBLIC	?__empty_global_delete@@YAXPEAX_K@Z		; __empty_global_delete
PUBLIC	__local_stdio_printf_options
PUBLIC	??2@YAPEAX_KPEAX@Z				; operator new
PUBLIC	_vfprintf_l
PUBLIC	fprintf
PUBLIC	??$__vcrt_va_start_verify_argument_type@QEBD@@YAXXZ ; __vcrt_va_start_verify_argument_type<char const * __ptr64 const>
PUBLIC	_vsprintf_s_l
PUBLIC	sprintf_s
PUBLIC	?length@?$char_traits@D@std@@SA_KPEBD@Z		; std::char_traits<char>::length
PUBLIC	?copy@?$char_traits@D@std@@SAPEADPEADPEBD_K@Z	; std::char_traits<char>::copy
PUBLIC	?move@?$char_traits@D@std@@SAPEADPEADPEBD_K@Z	; std::char_traits<char>::move
PUBLIC	?assign@?$char_traits@D@std@@SAXAEADAEBD@Z	; std::char_traits<char>::assign
PUBLIC	?to_char_type@?$char_traits@D@std@@SADAEBH@Z	; std::char_traits<char>::to_char_type
PUBLIC	?eq_int_type@?$char_traits@D@std@@SA_NAEBH0@Z	; std::char_traits<char>::eq_int_type
PUBLIC	?eof@?$char_traits@D@std@@SAHXZ			; std::char_traits<char>::eof
PUBLIC	??0_Container_proxy@std@@QEAA@XZ		; std::_Container_proxy::_Container_proxy
PUBLIC	??0_Container_base12@std@@QEAA@XZ		; std::_Container_base12::_Container_base12
PUBLIC	??1_Container_base12@std@@QEAA@XZ		; std::_Container_base12::~_Container_base12
PUBLIC	?_Getpfirst@_Container_base12@std@@QEBAPEAPEAU_Iterator_base12@2@XZ ; std::_Container_base12::_Getpfirst
PUBLIC	?_Orphan_all@_Container_base12@std@@QEAAXXZ	; std::_Container_base12::_Orphan_all
PUBLIC	?_Swap_all@_Container_base12@std@@QEAAXAEAU12@@Z ; std::_Container_base12::_Swap_all
PUBLIC	??0_Iterator_base12@std@@QEAA@XZ		; std::_Iterator_base12::_Iterator_base12
PUBLIC	??1_Iterator_base12@std@@QEAA@XZ		; std::_Iterator_base12::~_Iterator_base12
PUBLIC	?_Adopt@_Iterator_base12@std@@QEAAXPEBU_Container_base12@2@@Z ; std::_Iterator_base12::_Adopt
PUBLIC	?_Clrcont@_Iterator_base12@std@@QEAAXXZ		; std::_Iterator_base12::_Clrcont
PUBLIC	?_Getcont@_Iterator_base12@std@@QEBAPEBU_Container_base12@2@XZ ; std::_Iterator_base12::_Getcont
PUBLIC	?_Getpnext@_Iterator_base12@std@@QEAAPEAPEAU12@XZ ; std::_Iterator_base12::_Getpnext
PUBLIC	?_Orphan_me@_Iterator_base12@std@@QEAAXXZ	; std::_Iterator_base12::_Orphan_me
PUBLIC	?_Allocate@std@@YAPEAX_K0_N@Z			; std::_Allocate
PUBLIC	?_Deallocate@std@@YAXPEAX_K1@Z			; std::_Deallocate
PUBLIC	??0?$allocator@D@std@@QEAA@XZ			; std::allocator<char>::allocator<char>
PUBLIC	??0?$allocator@D@std@@QEAA@AEBV01@@Z		; std::allocator<char>::allocator<char>
PUBLIC	?deallocate@?$allocator@D@std@@QEAAXPEAD_K@Z	; std::allocator<char>::deallocate
PUBLIC	?allocate@?$allocator@D@std@@QEAAPEAD_K@Z	; std::allocator<char>::allocate
PUBLIC	?max_size@?$allocator@D@std@@QEBA_KXZ		; std::allocator<char>::max_size
PUBLIC	?max_size@?$allocator_traits@V?$allocator@D@std@@@std@@SA_KAEBV?$allocator@D@2@@Z ; std::allocator_traits<std::allocator<char> >::max_size
PUBLIC	?select_on_container_copy_construction@?$allocator_traits@V?$allocator@D@std@@@std@@SA?AV?$allocator@D@2@AEBV32@@Z ; std::allocator_traits<std::allocator<char> >::select_on_container_copy_construction
PUBLIC	?select_on_container_copy_construction@?$_Wrap_alloc@V?$allocator@D@std@@@std@@QEBA?AU12@U_Nil@2@@Z ; std::_Wrap_alloc<std::allocator<char> >::select_on_container_copy_construction
PUBLIC	??0?$_Wrap_alloc@V?$allocator@D@std@@@std@@QEAA@AEBV?$allocator@D@1@@Z ; std::_Wrap_alloc<std::allocator<char> >::_Wrap_alloc<std::allocator<char> >
PUBLIC	?allocate@?$_Wrap_alloc@V?$allocator@D@std@@@std@@QEAAPEAD_K@Z ; std::_Wrap_alloc<std::allocator<char> >::allocate
PUBLIC	?deallocate@?$_Wrap_alloc@V?$allocator@D@std@@@std@@QEAAXPEAD_K@Z ; std::_Wrap_alloc<std::allocator<char> >::deallocate
PUBLIC	?max_size@?$_Wrap_alloc@V?$allocator@D@std@@@std@@QEBA_KU_Nil@2@@Z ; std::_Wrap_alloc<std::allocator<char> >::max_size
PUBLIC	??0?$_String_val@U?$_Simple_types@D@std@@@std@@QEAA@XZ ; std::_String_val<std::_Simple_types<char> >::_String_val<std::_Simple_types<char> >
PUBLIC	?_Myptr@?$_String_val@U?$_Simple_types@D@std@@@std@@QEAAPEADXZ ; std::_String_val<std::_Simple_types<char> >::_Myptr
PUBLIC	?_Myptr@?$_String_val@U?$_Simple_types@D@std@@@std@@QEBAPEBDXZ ; std::_String_val<std::_Simple_types<char> >::_Myptr
PUBLIC	??1?$_String_val@U?$_Simple_types@D@std@@@std@@QEAA@XZ ; std::_String_val<std::_Simple_types<char> >::~_String_val<std::_Simple_types<char> >
PUBLIC	?_Myptr@?$_String_alloc@U?$_String_base_types@DV?$allocator@D@std@@@std@@@std@@QEAAPEADXZ ; std::_String_alloc<std::_String_base_types<char,std::allocator<char> > >::_Myptr
PUBLIC	?_Myptr@?$_String_alloc@U?$_String_base_types@DV?$allocator@D@std@@@std@@@std@@QEBAPEBDXZ ; std::_String_alloc<std::_String_base_types<char,std::allocator<char> > >::_Myptr
PUBLIC	??0?$_String_alloc@U?$_String_base_types@DV?$allocator@D@std@@@std@@@std@@QEAA@AEBV?$allocator@D@1@@Z ; std::_String_alloc<std::_String_base_types<char,std::allocator<char> > >::_String_alloc<std::_String_base_types<char,std::allocator<char> > >
PUBLIC	??0?$_String_alloc@U?$_String_base_types@DV?$allocator@D@std@@@std@@@std@@QEAA@$$QEAV?$allocator@D@1@@Z ; std::_String_alloc<std::_String_base_types<char,std::allocator<char> > >::_String_alloc<std::_String_base_types<char,std::allocator<char> > >
PUBLIC	??1?$_String_alloc@U?$_String_base_types@DV?$allocator@D@std@@@std@@@std@@QEAA@XZ ; std::_String_alloc<std::_String_base_types<char,std::allocator<char> > >::~_String_alloc<std::_String_base_types<char,std::allocator<char> > >
PUBLIC	?_Alloc_proxy@?$_String_alloc@U?$_String_base_types@DV?$allocator@D@std@@@std@@@std@@QEAAXXZ ; std::_String_alloc<std::_String_base_types<char,std::allocator<char> > >::_Alloc_proxy
PUBLIC	?_Free_proxy@?$_String_alloc@U?$_String_base_types@DV?$allocator@D@std@@@std@@@std@@QEAAXXZ ; std::_String_alloc<std::_String_base_types<char,std::allocator<char> > >::_Free_proxy
PUBLIC	?_Myproxy@?$_String_alloc@U?$_String_base_types@DV?$allocator@D@std@@@std@@@std@@QEAAAEAPEAU_Container_proxy@2@XZ ; std::_String_alloc<std::_String_base_types<char,std::allocator<char> > >::_Myproxy
PUBLIC	?_Orphan_all@?$_String_alloc@U?$_String_base_types@DV?$allocator@D@std@@@std@@@std@@QEAAXXZ ; std::_String_alloc<std::_String_base_types<char,std::allocator<char> > >::_Orphan_all
PUBLIC	?_Getal@?$_String_alloc@U?$_String_base_types@DV?$allocator@D@std@@@std@@@std@@QEAAAEAU?$_Wrap_alloc@V?$allocator@D@std@@@2@XZ ; std::_String_alloc<std::_String_base_types<char,std::allocator<char> > >::_Getal
PUBLIC	?_Getal@?$_String_alloc@U?$_String_base_types@DV?$allocator@D@std@@@std@@@std@@QEBAAEBU?$_Wrap_alloc@V?$allocator@D@std@@@2@XZ ; std::_String_alloc<std::_String_base_types<char,std::allocator<char> > >::_Getal
PUBLIC	?_Get_data@?$_String_alloc@U?$_String_base_types@DV?$allocator@D@std@@@std@@@std@@QEAAAEAV?$_String_val@U?$_Simple_types@D@std@@@2@XZ ; std::_String_alloc<std::_String_base_types<char,std::allocator<char> > >::_Get_data
PUBLIC	?_Get_data@?$_String_alloc@U?$_String_base_types@DV?$allocator@D@std@@@std@@@std@@QEBAAEBV?$_String_val@U?$_Simple_types@D@std@@@2@XZ ; std::_String_alloc<std::_String_base_types<char,std::allocator<char> > >::_Get_data
PUBLIC	?_Bx@?$_String_alloc@U?$_String_base_types@DV?$allocator@D@std@@@std@@@std@@QEAAAEAT_Bxty@?$_String_val@U?$_Simple_types@D@std@@@2@XZ ; std::_String_alloc<std::_String_base_types<char,std::allocator<char> > >::_Bx
PUBLIC	?_Mysize@?$_String_alloc@U?$_String_base_types@DV?$allocator@D@std@@@std@@@std@@QEAAAEA_KXZ ; std::_String_alloc<std::_String_base_types<char,std::allocator<char> > >::_Mysize
PUBLIC	?_Mysize@?$_String_alloc@U?$_String_base_types@DV?$allocator@D@std@@@std@@@std@@QEBAAEB_KXZ ; std::_String_alloc<std::_String_base_types<char,std::allocator<char> > >::_Mysize
PUBLIC	?_Myres@?$_String_alloc@U?$_String_base_types@DV?$allocator@D@std@@@std@@@std@@QEAAAEA_KXZ ; std::_String_alloc<std::_String_base_types<char,std::allocator<char> > >::_Myres
PUBLIC	?_Get_first@?$_Compressed_pair@U?$_Wrap_alloc@V?$allocator@D@std@@@std@@V?$_String_val@U?$_Simple_types@D@std@@@2@$00@std@@QEAAAEAU?$_Wrap_alloc@V?$allocator@D@std@@@2@XZ ; std::_Compressed_pair<std::_Wrap_alloc<std::allocator<char> >,std::_String_val<std::_Simple_types<char> >,1>::_Get_first
PUBLIC	?_Get_first@?$_Compressed_pair@U?$_Wrap_alloc@V?$allocator@D@std@@@std@@V?$_String_val@U?$_Simple_types@D@std@@@2@$00@std@@QEBAAEBU?$_Wrap_alloc@V?$allocator@D@std@@@2@XZ ; std::_Compressed_pair<std::_Wrap_alloc<std::allocator<char> >,std::_String_val<std::_Simple_types<char> >,1>::_Get_first
PUBLIC	?_Get_second@?$_Compressed_pair@U?$_Wrap_alloc@V?$allocator@D@std@@@std@@V?$_String_val@U?$_Simple_types@D@std@@@2@$00@std@@QEAAAEAV?$_String_val@U?$_Simple_types@D@std@@@2@XZ ; std::_Compressed_pair<std::_Wrap_alloc<std::allocator<char> >,std::_String_val<std::_Simple_types<char> >,1>::_Get_second
PUBLIC	?_Get_second@?$_Compressed_pair@U?$_Wrap_alloc@V?$allocator@D@std@@@std@@V?$_String_val@U?$_Simple_types@D@std@@@2@$00@std@@QEBAAEBV?$_String_val@U?$_Simple_types@D@std@@@2@XZ ; std::_Compressed_pair<std::_Wrap_alloc<std::allocator<char> >,std::_String_val<std::_Simple_types<char> >,1>::_Get_second
PUBLIC	??1?$_Compressed_pair@U?$_Wrap_alloc@V?$allocator@D@std@@@std@@V?$_String_val@U?$_Simple_types@D@std@@@2@$00@std@@QEAA@XZ ; std::_Compressed_pair<std::_Wrap_alloc<std::allocator<char> >,std::_String_val<std::_Simple_types<char> >,1>::~_Compressed_pair<std::_Wrap_alloc<std::allocator<char> >,std::_String_val<std::_Simple_types<char> >,1>
PUBLIC	??0?$basic_string@DU?$char_traits@D@std@@V?$allocator@D@2@@std@@QEAA@AEBV01@@Z ; std::basic_string<char,std::char_traits<char>,std::allocator<char> >::basic_string<char,std::char_traits<char>,std::allocator<char> >
PUBLIC	??0?$basic_string@DU?$char_traits@D@std@@V?$allocator@D@2@@std@@QEAA@XZ ; std::basic_string<char,std::char_traits<char>,std::allocator<char> >::basic_string<char,std::char_traits<char>,std::allocator<char> >
PUBLIC	??0?$basic_string@DU?$char_traits@D@std@@V?$allocator@D@2@@std@@QEAA@PEBD_K@Z ; std::basic_string<char,std::char_traits<char>,std::allocator<char> >::basic_string<char,std::char_traits<char>,std::allocator<char> >
PUBLIC	??0?$basic_string@DU?$char_traits@D@std@@V?$allocator@D@2@@std@@QEAA@PEBD@Z ; std::basic_string<char,std::char_traits<char>,std::allocator<char> >::basic_string<char,std::char_traits<char>,std::allocator<char> >
PUBLIC	??0?$basic_string@DU?$char_traits@D@std@@V?$allocator@D@2@@std@@QEAA@$$QEAV01@@Z ; std::basic_string<char,std::char_traits<char>,std::allocator<char> >::basic_string<char,std::char_traits<char>,std::allocator<char> >
PUBLIC	?_Assign_rv@?$basic_string@DU?$char_traits@D@std@@V?$allocator@D@2@@std@@QEAAX$$QEAV12@@Z ; std::basic_string<char,std::char_traits<char>,std::allocator<char> >::_Assign_rv
PUBLIC	??1?$basic_string@DU?$char_traits@D@std@@V?$allocator@D@2@@std@@QEAA@XZ ; std::basic_string<char,std::char_traits<char>,std::allocator<char> >::~basic_string<char,std::char_traits<char>,std::allocator<char> >
PUBLIC	??Y?$basic_string@DU?$char_traits@D@std@@V?$allocator@D@2@@std@@QEAAAEAV01@PEBD@Z ; std::basic_string<char,std::char_traits<char>,std::allocator<char> >::operator+=
PUBLIC	?append@?$basic_string@DU?$char_traits@D@std@@V?$allocator@D@2@@std@@QEAAAEAV12@AEBV12@_K1@Z ; std::basic_string<char,std::char_traits<char>,std::allocator<char> >::append
PUBLIC	?append@?$basic_string@DU?$char_traits@D@std@@V?$allocator@D@2@@std@@QEAAAEAV12@PEBD_K@Z ; std::basic_string<char,std::char_traits<char>,std::allocator<char> >::append
PUBLIC	?append@?$basic_string@DU?$char_traits@D@std@@V?$allocator@D@2@@std@@QEAAAEAV12@PEBD@Z ; std::basic_string<char,std::char_traits<char>,std::allocator<char> >::append
PUBLIC	?assign@?$basic_string@DU?$char_traits@D@std@@V?$allocator@D@2@@std@@QEAAAEAV12@AEBV12@_K1@Z ; std::basic_string<char,std::char_traits<char>,std::allocator<char> >::assign
PUBLIC	?assign@?$basic_string@DU?$char_traits@D@std@@V?$allocator@D@2@@std@@QEAAAEAV12@PEBD_K@Z ; std::basic_string<char,std::char_traits<char>,std::allocator<char> >::assign
PUBLIC	?assign@?$basic_string@DU?$char_traits@D@std@@V?$allocator@D@2@@std@@QEAAAEAV12@PEBD@Z ; std::basic_string<char,std::char_traits<char>,std::allocator<char> >::assign
PUBLIC	?insert@?$basic_string@DU?$char_traits@D@std@@V?$allocator@D@2@@std@@QEAAAEAV12@_KAEBV12@00@Z ; std::basic_string<char,std::char_traits<char>,std::allocator<char> >::insert
PUBLIC	?insert@?$basic_string@DU?$char_traits@D@std@@V?$allocator@D@2@@std@@QEAAAEAV12@_KPEBD0@Z ; std::basic_string<char,std::char_traits<char>,std::allocator<char> >::insert
PUBLIC	?insert@?$basic_string@DU?$char_traits@D@std@@V?$allocator@D@2@@std@@QEAAAEAV12@_KPEBD@Z ; std::basic_string<char,std::char_traits<char>,std::allocator<char> >::insert
PUBLIC	?erase@?$basic_string@DU?$char_traits@D@std@@V?$allocator@D@2@@std@@QEAAAEAV12@_K@Z ; std::basic_string<char,std::char_traits<char>,std::allocator<char> >::erase
PUBLIC	?erase@?$basic_string@DU?$char_traits@D@std@@V?$allocator@D@2@@std@@QEAAAEAV12@_K0@Z ; std::basic_string<char,std::char_traits<char>,std::allocator<char> >::erase
PUBLIC	?c_str@?$basic_string@DU?$char_traits@D@std@@V?$allocator@D@2@@std@@QEBAPEBDXZ ; std::basic_string<char,std::char_traits<char>,std::allocator<char> >::c_str
PUBLIC	?size@?$basic_string@DU?$char_traits@D@std@@V?$allocator@D@2@@std@@QEBA_KXZ ; std::basic_string<char,std::char_traits<char>,std::allocator<char> >::size
PUBLIC	?max_size@?$basic_string@DU?$char_traits@D@std@@V?$allocator@D@2@@std@@QEBA_KXZ ; std::basic_string<char,std::char_traits<char>,std::allocator<char> >::max_size
PUBLIC	?_Copy@?$basic_string@DU?$char_traits@D@std@@V?$allocator@D@2@@std@@QEAAX_K0@Z ; std::basic_string<char,std::char_traits<char>,std::allocator<char> >::_Copy
PUBLIC	?_Eos@?$basic_string@DU?$char_traits@D@std@@V?$allocator@D@2@@std@@QEAAX_K@Z ; std::basic_string<char,std::char_traits<char>,std::allocator<char> >::_Eos
PUBLIC	?_Grow@?$basic_string@DU?$char_traits@D@std@@V?$allocator@D@2@@std@@QEAA_N_K_N@Z ; std::basic_string<char,std::char_traits<char>,std::allocator<char> >::_Grow
PUBLIC	?_Inside@?$basic_string@DU?$char_traits@D@std@@V?$allocator@D@2@@std@@QEAA_NPEBD@Z ; std::basic_string<char,std::char_traits<char>,std::allocator<char> >::_Inside
PUBLIC	?_Tidy@?$basic_string@DU?$char_traits@D@std@@V?$allocator@D@2@@std@@QEAAX_N_K@Z ; std::basic_string<char,std::char_traits<char>,std::allocator<char> >::_Tidy
PUBLIC	?_Xlen@?$basic_string@DU?$char_traits@D@std@@V?$allocator@D@2@@std@@QEBAXXZ ; std::basic_string<char,std::char_traits<char>,std::allocator<char> >::_Xlen
PUBLIC	?_Xran@?$basic_string@DU?$char_traits@D@std@@V?$allocator@D@2@@std@@QEBAXXZ ; std::basic_string<char,std::char_traits<char>,std::allocator<char> >::_Xran
PUBLIC	??0?$allocator@PEAUVkCommandBuffer_T@@@std@@QEAA@XZ ; std::allocator<VkCommandBuffer_T * __ptr64>::allocator<VkCommandBuffer_T * __ptr64>
PUBLIC	??0?$allocator@PEAUVkCommandBuffer_T@@@std@@QEAA@AEBV01@@Z ; std::allocator<VkCommandBuffer_T * __ptr64>::allocator<VkCommandBuffer_T * __ptr64>
PUBLIC	?deallocate@?$allocator@PEAUVkCommandBuffer_T@@@std@@QEAAXPEAPEAUVkCommandBuffer_T@@_K@Z ; std::allocator<VkCommandBuffer_T * __ptr64>::deallocate
PUBLIC	?allocate@?$allocator@PEAUVkCommandBuffer_T@@@std@@QEAAPEAPEAUVkCommandBuffer_T@@_K@Z ; std::allocator<VkCommandBuffer_T * __ptr64>::allocate
PUBLIC	?max_size@?$allocator@PEAUVkCommandBuffer_T@@@std@@QEBA_KXZ ; std::allocator<VkCommandBuffer_T * __ptr64>::max_size
PUBLIC	?max_size@?$allocator_traits@V?$allocator@PEAUVkCommandBuffer_T@@@std@@@std@@SA_KAEBV?$allocator@PEAUVkCommandBuffer_T@@@2@@Z ; std::allocator_traits<std::allocator<VkCommandBuffer_T * __ptr64> >::max_size
PUBLIC	??0?$_Wrap_alloc@V?$allocator@PEAUVkCommandBuffer_T@@@std@@@std@@QEAA@AEBV?$allocator@PEAUVkCommandBuffer_T@@@1@@Z ; std::_Wrap_alloc<std::allocator<VkCommandBuffer_T * __ptr64> >::_Wrap_alloc<std::allocator<VkCommandBuffer_T * __ptr64> >
PUBLIC	?allocate@?$_Wrap_alloc@V?$allocator@PEAUVkCommandBuffer_T@@@std@@@std@@QEAAPEAPEAUVkCommandBuffer_T@@_K@Z ; std::_Wrap_alloc<std::allocator<VkCommandBuffer_T * __ptr64> >::allocate
PUBLIC	?deallocate@?$_Wrap_alloc@V?$allocator@PEAUVkCommandBuffer_T@@@std@@@std@@QEAAXPEAPEAUVkCommandBuffer_T@@_K@Z ; std::_Wrap_alloc<std::allocator<VkCommandBuffer_T * __ptr64> >::deallocate
PUBLIC	?max_size@?$_Wrap_alloc@V?$allocator@PEAUVkCommandBuffer_T@@@std@@@std@@QEBA_KU_Nil@2@@Z ; std::_Wrap_alloc<std::allocator<VkCommandBuffer_T * __ptr64> >::max_size
PUBLIC	??0?$_Vector_alloc@U?$_Vec_base_types@PEAUVkCommandBuffer_T@@V?$allocator@PEAUVkCommandBuffer_T@@@std@@@std@@@std@@QEAA@AEBV?$allocator@PEAUVkCommandBuffer_T@@@1@@Z ; std::_Vector_alloc<std::_Vec_base_types<VkCommandBuffer_T * __ptr64,std::allocator<VkCommandBuffer_T * __ptr64> > >::_Vector_alloc<std::_Vec_base_types<VkCommandBuffer_T * __ptr64,std::allocator<VkCommandBuffer_T * __ptr64> > >
PUBLIC	??0?$_Vector_alloc@U?$_Vec_base_types@PEAUVkCommandBuffer_T@@V?$allocator@PEAUVkCommandBuffer_T@@@std@@@std@@@std@@QEAA@$$QEAV?$allocator@PEAUVkCommandBuffer_T@@@1@@Z ; std::_Vector_alloc<std::_Vec_base_types<VkCommandBuffer_T * __ptr64,std::allocator<VkCommandBuffer_T * __ptr64> > >::_Vector_alloc<std::_Vec_base_types<VkCommandBuffer_T * __ptr64,std::allocator<VkCommandBuffer_T * __ptr64> > >
PUBLIC	??1?$_Vector_alloc@U?$_Vec_base_types@PEAUVkCommandBuffer_T@@V?$allocator@PEAUVkCommandBuffer_T@@@std@@@std@@@std@@QEAA@XZ ; std::_Vector_alloc<std::_Vec_base_types<VkCommandBuffer_T * __ptr64,std::allocator<VkCommandBuffer_T * __ptr64> > >::~_Vector_alloc<std::_Vec_base_types<VkCommandBuffer_T * __ptr64,std::allocator<VkCommandBuffer_T * __ptr64> > >
PUBLIC	?_Alloc_proxy@?$_Vector_alloc@U?$_Vec_base_types@PEAUVkCommandBuffer_T@@V?$allocator@PEAUVkCommandBuffer_T@@@std@@@std@@@std@@QEAAXXZ ; std::_Vector_alloc<std::_Vec_base_types<VkCommandBuffer_T * __ptr64,std::allocator<VkCommandBuffer_T * __ptr64> > >::_Alloc_proxy
PUBLIC	?_Free_proxy@?$_Vector_alloc@U?$_Vec_base_types@PEAUVkCommandBuffer_T@@V?$allocator@PEAUVkCommandBuffer_T@@@std@@@std@@@std@@QEAAXXZ ; std::_Vector_alloc<std::_Vec_base_types<VkCommandBuffer_T * __ptr64,std::allocator<VkCommandBuffer_T * __ptr64> > >::_Free_proxy
PUBLIC	?_Myproxy@?$_Vector_alloc@U?$_Vec_base_types@PEAUVkCommandBuffer_T@@V?$allocator@PEAUVkCommandBuffer_T@@@std@@@std@@@std@@QEAAAEAPEAU_Container_proxy@2@XZ ; std::_Vector_alloc<std::_Vec_base_types<VkCommandBuffer_T * __ptr64,std::allocator<VkCommandBuffer_T * __ptr64> > >::_Myproxy
PUBLIC	?_Orphan_all@?$_Vector_alloc@U?$_Vec_base_types@PEAUVkCommandBuffer_T@@V?$allocator@PEAUVkCommandBuffer_T@@@std@@@std@@@std@@QEAAXXZ ; std::_Vector_alloc<std::_Vec_base_types<VkCommandBuffer_T * __ptr64,std::allocator<VkCommandBuffer_T * __ptr64> > >::_Orphan_all
PUBLIC	?_Swap_all@?$_Vector_alloc@U?$_Vec_base_types@PEAUVkCommandBuffer_T@@V?$allocator@PEAUVkCommandBuffer_T@@@std@@@std@@@std@@QEAAXAEAV12@@Z ; std::_Vector_alloc<std::_Vec_base_types<VkCommandBuffer_T * __ptr64,std::allocator<VkCommandBuffer_T * __ptr64> > >::_Swap_all
PUBLIC	?_Getal@?$_Vector_alloc@U?$_Vec_base_types@PEAUVkCommandBuffer_T@@V?$allocator@PEAUVkCommandBuffer_T@@@std@@@std@@@std@@QEAAAEAU?$_Wrap_alloc@V?$allocator@PEAUVkCommandBuffer_T@@@std@@@2@XZ ; std::_Vector_alloc<std::_Vec_base_types<VkCommandBuffer_T * __ptr64,std::allocator<VkCommandBuffer_T * __ptr64> > >::_Getal
PUBLIC	?_Getal@?$_Vector_alloc@U?$_Vec_base_types@PEAUVkCommandBuffer_T@@V?$allocator@PEAUVkCommandBuffer_T@@@std@@@std@@@std@@QEBAAEBU?$_Wrap_alloc@V?$allocator@PEAUVkCommandBuffer_T@@@std@@@2@XZ ; std::_Vector_alloc<std::_Vec_base_types<VkCommandBuffer_T * __ptr64,std::allocator<VkCommandBuffer_T * __ptr64> > >::_Getal
PUBLIC	?_Get_data@?$_Vector_alloc@U?$_Vec_base_types@PEAUVkCommandBuffer_T@@V?$allocator@PEAUVkCommandBuffer_T@@@std@@@std@@@std@@QEAAAEAV?$_Vector_val@U?$_Simple_types@PEAUVkCommandBuffer_T@@@std@@@2@XZ ; std::_Vector_alloc<std::_Vec_base_types<VkCommandBuffer_T * __ptr64,std::allocator<VkCommandBuffer_T * __ptr64> > >::_Get_data
PUBLIC	?_Get_data@?$_Vector_alloc@U?$_Vec_base_types@PEAUVkCommandBuffer_T@@V?$allocator@PEAUVkCommandBuffer_T@@@std@@@std@@@std@@QEBAAEBV?$_Vector_val@U?$_Simple_types@PEAUVkCommandBuffer_T@@@std@@@2@XZ ; std::_Vector_alloc<std::_Vec_base_types<VkCommandBuffer_T * __ptr64,std::allocator<VkCommandBuffer_T * __ptr64> > >::_Get_data
PUBLIC	?_Myfirst@?$_Vector_alloc@U?$_Vec_base_types@PEAUVkCommandBuffer_T@@V?$allocator@PEAUVkCommandBuffer_T@@@std@@@std@@@std@@QEAAAEAPEAPEAUVkCommandBuffer_T@@XZ ; std::_Vector_alloc<std::_Vec_base_types<VkCommandBuffer_T * __ptr64,std::allocator<VkCommandBuffer_T * __ptr64> > >::_Myfirst
PUBLIC	?_Myfirst@?$_Vector_alloc@U?$_Vec_base_types@PEAUVkCommandBuffer_T@@V?$allocator@PEAUVkCommandBuffer_T@@@std@@@std@@@std@@QEBAAEBQEAPEAUVkCommandBuffer_T@@XZ ; std::_Vector_alloc<std::_Vec_base_types<VkCommandBuffer_T * __ptr64,std::allocator<VkCommandBuffer_T * __ptr64> > >::_Myfirst
PUBLIC	?_Mylast@?$_Vector_alloc@U?$_Vec_base_types@PEAUVkCommandBuffer_T@@V?$allocator@PEAUVkCommandBuffer_T@@@std@@@std@@@std@@QEAAAEAPEAPEAUVkCommandBuffer_T@@XZ ; std::_Vector_alloc<std::_Vec_base_types<VkCommandBuffer_T * __ptr64,std::allocator<VkCommandBuffer_T * __ptr64> > >::_Mylast
PUBLIC	?_Mylast@?$_Vector_alloc@U?$_Vec_base_types@PEAUVkCommandBuffer_T@@V?$allocator@PEAUVkCommandBuffer_T@@@std@@@std@@@std@@QEBAAEBQEAPEAUVkCommandBuffer_T@@XZ ; std::_Vector_alloc<std::_Vec_base_types<VkCommandBuffer_T * __ptr64,std::allocator<VkCommandBuffer_T * __ptr64> > >::_Mylast
PUBLIC	?_Myend@?$_Vector_alloc@U?$_Vec_base_types@PEAUVkCommandBuffer_T@@V?$allocator@PEAUVkCommandBuffer_T@@@std@@@std@@@std@@QEAAAEAPEAPEAUVkCommandBuffer_T@@XZ ; std::_Vector_alloc<std::_Vec_base_types<VkCommandBuffer_T * __ptr64,std::allocator<VkCommandBuffer_T * __ptr64> > >::_Myend
PUBLIC	??0?$_Vector_val@U?$_Simple_types@PEAUVkCommandBuffer_T@@@std@@@std@@QEAA@XZ ; std::_Vector_val<std::_Simple_types<VkCommandBuffer_T * __ptr64> >::_Vector_val<std::_Simple_types<VkCommandBuffer_T * __ptr64> >
PUBLIC	??1?$_Vector_val@U?$_Simple_types@PEAUVkCommandBuffer_T@@@std@@@std@@QEAA@XZ ; std::_Vector_val<std::_Simple_types<VkCommandBuffer_T * __ptr64> >::~_Vector_val<std::_Simple_types<VkCommandBuffer_T * __ptr64> >
PUBLIC	?_Get_first@?$_Compressed_pair@U?$_Wrap_alloc@V?$allocator@PEAUVkCommandBuffer_T@@@std@@@std@@V?$_Vector_val@U?$_Simple_types@PEAUVkCommandBuffer_T@@@std@@@2@$00@std@@QEAAAEAU?$_Wrap_alloc@V?$allocator@PEAUVkCommandBuffer_T@@@std@@@2@XZ ; std::_Compressed_pair<std::_Wrap_alloc<std::allocator<VkCommandBuffer_T * __ptr64> >,std::_Vector_val<std::_Simple_types<VkCommandBuffer_T * __ptr64> >,1>::_Get_first
PUBLIC	?_Get_first@?$_Compressed_pair@U?$_Wrap_alloc@V?$allocator@PEAUVkCommandBuffer_T@@@std@@@std@@V?$_Vector_val@U?$_Simple_types@PEAUVkCommandBuffer_T@@@std@@@2@$00@std@@QEBAAEBU?$_Wrap_alloc@V?$allocator@PEAUVkCommandBuffer_T@@@std@@@2@XZ ; std::_Compressed_pair<std::_Wrap_alloc<std::allocator<VkCommandBuffer_T * __ptr64> >,std::_Vector_val<std::_Simple_types<VkCommandBuffer_T * __ptr64> >,1>::_Get_first
PUBLIC	?_Get_second@?$_Compressed_pair@U?$_Wrap_alloc@V?$allocator@PEAUVkCommandBuffer_T@@@std@@@std@@V?$_Vector_val@U?$_Simple_types@PEAUVkCommandBuffer_T@@@std@@@2@$00@std@@QEAAAEAV?$_Vector_val@U?$_Simple_types@PEAUVkCommandBuffer_T@@@std@@@2@XZ ; std::_Compressed_pair<std::_Wrap_alloc<std::allocator<VkCommandBuffer_T * __ptr64> >,std::_Vector_val<std::_Simple_types<VkCommandBuffer_T * __ptr64> >,1>::_Get_second
PUBLIC	?_Get_second@?$_Compressed_pair@U?$_Wrap_alloc@V?$allocator@PEAUVkCommandBuffer_T@@@std@@@std@@V?$_Vector_val@U?$_Simple_types@PEAUVkCommandBuffer_T@@@std@@@2@$00@std@@QEBAAEBV?$_Vector_val@U?$_Simple_types@PEAUVkCommandBuffer_T@@@std@@@2@XZ ; std::_Compressed_pair<std::_Wrap_alloc<std::allocator<VkCommandBuffer_T * __ptr64> >,std::_Vector_val<std::_Simple_types<VkCommandBuffer_T * __ptr64> >,1>::_Get_second
PUBLIC	??1?$_Compressed_pair@U?$_Wrap_alloc@V?$allocator@PEAUVkCommandBuffer_T@@@std@@@std@@V?$_Vector_val@U?$_Simple_types@PEAUVkCommandBuffer_T@@@std@@@2@$00@std@@QEAA@XZ ; std::_Compressed_pair<std::_Wrap_alloc<std::allocator<VkCommandBuffer_T * __ptr64> >,std::_Vector_val<std::_Simple_types<VkCommandBuffer_T * __ptr64> >,1>::~_Compressed_pair<std::_Wrap_alloc<std::allocator<VkCommandBuffer_T * __ptr64> >,std::_Vector_val<std::_Simple_types<VkCommandBuffer_T * __ptr64> >,1>
PUBLIC	??0?$vector@PEAUVkCommandBuffer_T@@V?$allocator@PEAUVkCommandBuffer_T@@@std@@@std@@QEAA@_K@Z ; std::vector<VkCommandBuffer_T * __ptr64,std::allocator<VkCommandBuffer_T * __ptr64> >::vector<VkCommandBuffer_T * __ptr64,std::allocator<VkCommandBuffer_T * __ptr64> >
PUBLIC	??0?$vector@PEAUVkCommandBuffer_T@@V?$allocator@PEAUVkCommandBuffer_T@@@std@@@std@@QEAA@$$QEAV01@@Z ; std::vector<VkCommandBuffer_T * __ptr64,std::allocator<VkCommandBuffer_T * __ptr64> >::vector<VkCommandBuffer_T * __ptr64,std::allocator<VkCommandBuffer_T * __ptr64> >
PUBLIC	?_Assign_rv@?$vector@PEAUVkCommandBuffer_T@@V?$allocator@PEAUVkCommandBuffer_T@@@std@@@std@@QEAAX$$QEAV12@U?$integral_constant@_N$00@2@@Z ; std::vector<VkCommandBuffer_T * __ptr64,std::allocator<VkCommandBuffer_T * __ptr64> >::_Assign_rv
PUBLIC	??1?$vector@PEAUVkCommandBuffer_T@@V?$allocator@PEAUVkCommandBuffer_T@@@std@@@std@@QEAA@XZ ; std::vector<VkCommandBuffer_T * __ptr64,std::allocator<VkCommandBuffer_T * __ptr64> >::~vector<VkCommandBuffer_T * __ptr64,std::allocator<VkCommandBuffer_T * __ptr64> >
PUBLIC	?size@?$vector@PEAUVkCommandBuffer_T@@V?$allocator@PEAUVkCommandBuffer_T@@@std@@@std@@QEBA_KXZ ; std::vector<VkCommandBuffer_T * __ptr64,std::allocator<VkCommandBuffer_T * __ptr64> >::size
PUBLIC	?max_size@?$vector@PEAUVkCommandBuffer_T@@V?$allocator@PEAUVkCommandBuffer_T@@@std@@@std@@QEBA_KXZ ; std::vector<VkCommandBuffer_T * __ptr64,std::allocator<VkCommandBuffer_T * __ptr64> >::max_size
PUBLIC	?data@?$vector@PEAUVkCommandBuffer_T@@V?$allocator@PEAUVkCommandBuffer_T@@@std@@@std@@QEAAPEAPEAUVkCommandBuffer_T@@XZ ; std::vector<VkCommandBuffer_T * __ptr64,std::allocator<VkCommandBuffer_T * __ptr64> >::data
PUBLIC	?_Buy@?$vector@PEAUVkCommandBuffer_T@@V?$allocator@PEAUVkCommandBuffer_T@@@std@@@std@@IEAA_N_K@Z ; std::vector<VkCommandBuffer_T * __ptr64,std::allocator<VkCommandBuffer_T * __ptr64> >::_Buy
PUBLIC	?_Destroy@?$vector@PEAUVkCommandBuffer_T@@V?$allocator@PEAUVkCommandBuffer_T@@@std@@@std@@IEAAXPEAPEAUVkCommandBuffer_T@@0@Z ; std::vector<VkCommandBuffer_T * __ptr64,std::allocator<VkCommandBuffer_T * __ptr64> >::_Destroy
PUBLIC	?_Tidy@?$vector@PEAUVkCommandBuffer_T@@V?$allocator@PEAUVkCommandBuffer_T@@@std@@@std@@IEAAXXZ ; std::vector<VkCommandBuffer_T * __ptr64,std::allocator<VkCommandBuffer_T * __ptr64> >::_Tidy
PUBLIC	?_Xlen@?$vector@PEAUVkCommandBuffer_T@@V?$allocator@PEAUVkCommandBuffer_T@@@std@@@std@@IEBAXXZ ; std::vector<VkCommandBuffer_T * __ptr64,std::allocator<VkCommandBuffer_T * __ptr64> >::_Xlen
PUBLIC	?__autoclassinit2@?$vector@PEAUVkCommandBuffer_T@@V?$allocator@PEAUVkCommandBuffer_T@@@std@@@std@@QEAAX_K@Z ; std::vector<VkCommandBuffer_T * __ptr64,std::allocator<VkCommandBuffer_T * __ptr64> >::__autoclassinit2
PUBLIC	??0?$allocator@PEAUVkFramebuffer_T@@@std@@QEAA@XZ ; std::allocator<VkFramebuffer_T * __ptr64>::allocator<VkFramebuffer_T * __ptr64>
PUBLIC	??0?$allocator@PEAUVkFramebuffer_T@@@std@@QEAA@AEBV01@@Z ; std::allocator<VkFramebuffer_T * __ptr64>::allocator<VkFramebuffer_T * __ptr64>
PUBLIC	?deallocate@?$allocator@PEAUVkFramebuffer_T@@@std@@QEAAXPEAPEAUVkFramebuffer_T@@_K@Z ; std::allocator<VkFramebuffer_T * __ptr64>::deallocate
PUBLIC	?allocate@?$allocator@PEAUVkFramebuffer_T@@@std@@QEAAPEAPEAUVkFramebuffer_T@@_K@Z ; std::allocator<VkFramebuffer_T * __ptr64>::allocate
PUBLIC	?max_size@?$allocator@PEAUVkFramebuffer_T@@@std@@QEBA_KXZ ; std::allocator<VkFramebuffer_T * __ptr64>::max_size
PUBLIC	?max_size@?$allocator_traits@V?$allocator@PEAUVkFramebuffer_T@@@std@@@std@@SA_KAEBV?$allocator@PEAUVkFramebuffer_T@@@2@@Z ; std::allocator_traits<std::allocator<VkFramebuffer_T * __ptr64> >::max_size
PUBLIC	??0?$_Wrap_alloc@V?$allocator@PEAUVkFramebuffer_T@@@std@@@std@@QEAA@AEBV?$allocator@PEAUVkFramebuffer_T@@@1@@Z ; std::_Wrap_alloc<std::allocator<VkFramebuffer_T * __ptr64> >::_Wrap_alloc<std::allocator<VkFramebuffer_T * __ptr64> >
PUBLIC	?allocate@?$_Wrap_alloc@V?$allocator@PEAUVkFramebuffer_T@@@std@@@std@@QEAAPEAPEAUVkFramebuffer_T@@_K@Z ; std::_Wrap_alloc<std::allocator<VkFramebuffer_T * __ptr64> >::allocate
PUBLIC	?deallocate@?$_Wrap_alloc@V?$allocator@PEAUVkFramebuffer_T@@@std@@@std@@QEAAXPEAPEAUVkFramebuffer_T@@_K@Z ; std::_Wrap_alloc<std::allocator<VkFramebuffer_T * __ptr64> >::deallocate
PUBLIC	?max_size@?$_Wrap_alloc@V?$allocator@PEAUVkFramebuffer_T@@@std@@@std@@QEBA_KU_Nil@2@@Z ; std::_Wrap_alloc<std::allocator<VkFramebuffer_T * __ptr64> >::max_size
PUBLIC	??0?$_Vector_alloc@U?$_Vec_base_types@PEAUVkFramebuffer_T@@V?$allocator@PEAUVkFramebuffer_T@@@std@@@std@@@std@@QEAA@AEBV?$allocator@PEAUVkFramebuffer_T@@@1@@Z ; std::_Vector_alloc<std::_Vec_base_types<VkFramebuffer_T * __ptr64,std::allocator<VkFramebuffer_T * __ptr64> > >::_Vector_alloc<std::_Vec_base_types<VkFramebuffer_T * __ptr64,std::allocator<VkFramebuffer_T * __ptr64> > >
PUBLIC	??0?$_Vector_alloc@U?$_Vec_base_types@PEAUVkFramebuffer_T@@V?$allocator@PEAUVkFramebuffer_T@@@std@@@std@@@std@@QEAA@$$QEAV?$allocator@PEAUVkFramebuffer_T@@@1@@Z ; std::_Vector_alloc<std::_Vec_base_types<VkFramebuffer_T * __ptr64,std::allocator<VkFramebuffer_T * __ptr64> > >::_Vector_alloc<std::_Vec_base_types<VkFramebuffer_T * __ptr64,std::allocator<VkFramebuffer_T * __ptr64> > >
PUBLIC	??1?$_Vector_alloc@U?$_Vec_base_types@PEAUVkFramebuffer_T@@V?$allocator@PEAUVkFramebuffer_T@@@std@@@std@@@std@@QEAA@XZ ; std::_Vector_alloc<std::_Vec_base_types<VkFramebuffer_T * __ptr64,std::allocator<VkFramebuffer_T * __ptr64> > >::~_Vector_alloc<std::_Vec_base_types<VkFramebuffer_T * __ptr64,std::allocator<VkFramebuffer_T * __ptr64> > >
PUBLIC	?_Alloc_proxy@?$_Vector_alloc@U?$_Vec_base_types@PEAUVkFramebuffer_T@@V?$allocator@PEAUVkFramebuffer_T@@@std@@@std@@@std@@QEAAXXZ ; std::_Vector_alloc<std::_Vec_base_types<VkFramebuffer_T * __ptr64,std::allocator<VkFramebuffer_T * __ptr64> > >::_Alloc_proxy
PUBLIC	?_Free_proxy@?$_Vector_alloc@U?$_Vec_base_types@PEAUVkFramebuffer_T@@V?$allocator@PEAUVkFramebuffer_T@@@std@@@std@@@std@@QEAAXXZ ; std::_Vector_alloc<std::_Vec_base_types<VkFramebuffer_T * __ptr64,std::allocator<VkFramebuffer_T * __ptr64> > >::_Free_proxy
PUBLIC	?_Myproxy@?$_Vector_alloc@U?$_Vec_base_types@PEAUVkFramebuffer_T@@V?$allocator@PEAUVkFramebuffer_T@@@std@@@std@@@std@@QEAAAEAPEAU_Container_proxy@2@XZ ; std::_Vector_alloc<std::_Vec_base_types<VkFramebuffer_T * __ptr64,std::allocator<VkFramebuffer_T * __ptr64> > >::_Myproxy
PUBLIC	?_Orphan_all@?$_Vector_alloc@U?$_Vec_base_types@PEAUVkFramebuffer_T@@V?$allocator@PEAUVkFramebuffer_T@@@std@@@std@@@std@@QEAAXXZ ; std::_Vector_alloc<std::_Vec_base_types<VkFramebuffer_T * __ptr64,std::allocator<VkFramebuffer_T * __ptr64> > >::_Orphan_all
PUBLIC	?_Swap_all@?$_Vector_alloc@U?$_Vec_base_types@PEAUVkFramebuffer_T@@V?$allocator@PEAUVkFramebuffer_T@@@std@@@std@@@std@@QEAAXAEAV12@@Z ; std::_Vector_alloc<std::_Vec_base_types<VkFramebuffer_T * __ptr64,std::allocator<VkFramebuffer_T * __ptr64> > >::_Swap_all
PUBLIC	?_Getal@?$_Vector_alloc@U?$_Vec_base_types@PEAUVkFramebuffer_T@@V?$allocator@PEAUVkFramebuffer_T@@@std@@@std@@@std@@QEAAAEAU?$_Wrap_alloc@V?$allocator@PEAUVkFramebuffer_T@@@std@@@2@XZ ; std::_Vector_alloc<std::_Vec_base_types<VkFramebuffer_T * __ptr64,std::allocator<VkFramebuffer_T * __ptr64> > >::_Getal
PUBLIC	?_Getal@?$_Vector_alloc@U?$_Vec_base_types@PEAUVkFramebuffer_T@@V?$allocator@PEAUVkFramebuffer_T@@@std@@@std@@@std@@QEBAAEBU?$_Wrap_alloc@V?$allocator@PEAUVkFramebuffer_T@@@std@@@2@XZ ; std::_Vector_alloc<std::_Vec_base_types<VkFramebuffer_T * __ptr64,std::allocator<VkFramebuffer_T * __ptr64> > >::_Getal
PUBLIC	?_Get_data@?$_Vector_alloc@U?$_Vec_base_types@PEAUVkFramebuffer_T@@V?$allocator@PEAUVkFramebuffer_T@@@std@@@std@@@std@@QEAAAEAV?$_Vector_val@U?$_Simple_types@PEAUVkFramebuffer_T@@@std@@@2@XZ ; std::_Vector_alloc<std::_Vec_base_types<VkFramebuffer_T * __ptr64,std::allocator<VkFramebuffer_T * __ptr64> > >::_Get_data
PUBLIC	?_Get_data@?$_Vector_alloc@U?$_Vec_base_types@PEAUVkFramebuffer_T@@V?$allocator@PEAUVkFramebuffer_T@@@std@@@std@@@std@@QEBAAEBV?$_Vector_val@U?$_Simple_types@PEAUVkFramebuffer_T@@@std@@@2@XZ ; std::_Vector_alloc<std::_Vec_base_types<VkFramebuffer_T * __ptr64,std::allocator<VkFramebuffer_T * __ptr64> > >::_Get_data
PUBLIC	?_Myfirst@?$_Vector_alloc@U?$_Vec_base_types@PEAUVkFramebuffer_T@@V?$allocator@PEAUVkFramebuffer_T@@@std@@@std@@@std@@QEAAAEAPEAPEAUVkFramebuffer_T@@XZ ; std::_Vector_alloc<std::_Vec_base_types<VkFramebuffer_T * __ptr64,std::allocator<VkFramebuffer_T * __ptr64> > >::_Myfirst
PUBLIC	?_Myfirst@?$_Vector_alloc@U?$_Vec_base_types@PEAUVkFramebuffer_T@@V?$allocator@PEAUVkFramebuffer_T@@@std@@@std@@@std@@QEBAAEBQEAPEAUVkFramebuffer_T@@XZ ; std::_Vector_alloc<std::_Vec_base_types<VkFramebuffer_T * __ptr64,std::allocator<VkFramebuffer_T * __ptr64> > >::_Myfirst
PUBLIC	?_Mylast@?$_Vector_alloc@U?$_Vec_base_types@PEAUVkFramebuffer_T@@V?$allocator@PEAUVkFramebuffer_T@@@std@@@std@@@std@@QEAAAEAPEAPEAUVkFramebuffer_T@@XZ ; std::_Vector_alloc<std::_Vec_base_types<VkFramebuffer_T * __ptr64,std::allocator<VkFramebuffer_T * __ptr64> > >::_Mylast
PUBLIC	?_Mylast@?$_Vector_alloc@U?$_Vec_base_types@PEAUVkFramebuffer_T@@V?$allocator@PEAUVkFramebuffer_T@@@std@@@std@@@std@@QEBAAEBQEAPEAUVkFramebuffer_T@@XZ ; std::_Vector_alloc<std::_Vec_base_types<VkFramebuffer_T * __ptr64,std::allocator<VkFramebuffer_T * __ptr64> > >::_Mylast
PUBLIC	?_Myend@?$_Vector_alloc@U?$_Vec_base_types@PEAUVkFramebuffer_T@@V?$allocator@PEAUVkFramebuffer_T@@@std@@@std@@@std@@QEAAAEAPEAPEAUVkFramebuffer_T@@XZ ; std::_Vector_alloc<std::_Vec_base_types<VkFramebuffer_T * __ptr64,std::allocator<VkFramebuffer_T * __ptr64> > >::_Myend
PUBLIC	??0?$_Vector_val@U?$_Simple_types@PEAUVkFramebuffer_T@@@std@@@std@@QEAA@XZ ; std::_Vector_val<std::_Simple_types<VkFramebuffer_T * __ptr64> >::_Vector_val<std::_Simple_types<VkFramebuffer_T * __ptr64> >
PUBLIC	??1?$_Vector_val@U?$_Simple_types@PEAUVkFramebuffer_T@@@std@@@std@@QEAA@XZ ; std::_Vector_val<std::_Simple_types<VkFramebuffer_T * __ptr64> >::~_Vector_val<std::_Simple_types<VkFramebuffer_T * __ptr64> >
PUBLIC	?_Get_first@?$_Compressed_pair@U?$_Wrap_alloc@V?$allocator@PEAUVkFramebuffer_T@@@std@@@std@@V?$_Vector_val@U?$_Simple_types@PEAUVkFramebuffer_T@@@std@@@2@$00@std@@QEAAAEAU?$_Wrap_alloc@V?$allocator@PEAUVkFramebuffer_T@@@std@@@2@XZ ; std::_Compressed_pair<std::_Wrap_alloc<std::allocator<VkFramebuffer_T * __ptr64> >,std::_Vector_val<std::_Simple_types<VkFramebuffer_T * __ptr64> >,1>::_Get_first
PUBLIC	?_Get_first@?$_Compressed_pair@U?$_Wrap_alloc@V?$allocator@PEAUVkFramebuffer_T@@@std@@@std@@V?$_Vector_val@U?$_Simple_types@PEAUVkFramebuffer_T@@@std@@@2@$00@std@@QEBAAEBU?$_Wrap_alloc@V?$allocator@PEAUVkFramebuffer_T@@@std@@@2@XZ ; std::_Compressed_pair<std::_Wrap_alloc<std::allocator<VkFramebuffer_T * __ptr64> >,std::_Vector_val<std::_Simple_types<VkFramebuffer_T * __ptr64> >,1>::_Get_first
PUBLIC	?_Get_second@?$_Compressed_pair@U?$_Wrap_alloc@V?$allocator@PEAUVkFramebuffer_T@@@std@@@std@@V?$_Vector_val@U?$_Simple_types@PEAUVkFramebuffer_T@@@std@@@2@$00@std@@QEAAAEAV?$_Vector_val@U?$_Simple_types@PEAUVkFramebuffer_T@@@std@@@2@XZ ; std::_Compressed_pair<std::_Wrap_alloc<std::allocator<VkFramebuffer_T * __ptr64> >,std::_Vector_val<std::_Simple_types<VkFramebuffer_T * __ptr64> >,1>::_Get_second
PUBLIC	?_Get_second@?$_Compressed_pair@U?$_Wrap_alloc@V?$allocator@PEAUVkFramebuffer_T@@@std@@@std@@V?$_Vector_val@U?$_Simple_types@PEAUVkFramebuffer_T@@@std@@@2@$00@std@@QEBAAEBV?$_Vector_val@U?$_Simple_types@PEAUVkFramebuffer_T@@@std@@@2@XZ ; std::_Compressed_pair<std::_Wrap_alloc<std::allocator<VkFramebuffer_T * __ptr64> >,std::_Vector_val<std::_Simple_types<VkFramebuffer_T * __ptr64> >,1>::_Get_second
PUBLIC	??1?$_Compressed_pair@U?$_Wrap_alloc@V?$allocator@PEAUVkFramebuffer_T@@@std@@@std@@V?$_Vector_val@U?$_Simple_types@PEAUVkFramebuffer_T@@@std@@@2@$00@std@@QEAA@XZ ; std::_Compressed_pair<std::_Wrap_alloc<std::allocator<VkFramebuffer_T * __ptr64> >,std::_Vector_val<std::_Simple_types<VkFramebuffer_T * __ptr64> >,1>::~_Compressed_pair<std::_Wrap_alloc<std::allocator<VkFramebuffer_T * __ptr64> >,std::_Vector_val<std::_Simple_types<VkFramebuffer_T * __ptr64> >,1>
PUBLIC	??0?$vector@PEAUVkFramebuffer_T@@V?$allocator@PEAUVkFramebuffer_T@@@std@@@std@@QEAA@_K@Z ; std::vector<VkFramebuffer_T * __ptr64,std::allocator<VkFramebuffer_T * __ptr64> >::vector<VkFramebuffer_T * __ptr64,std::allocator<VkFramebuffer_T * __ptr64> >
PUBLIC	??0?$vector@PEAUVkFramebuffer_T@@V?$allocator@PEAUVkFramebuffer_T@@@std@@@std@@QEAA@$$QEAV01@@Z ; std::vector<VkFramebuffer_T * __ptr64,std::allocator<VkFramebuffer_T * __ptr64> >::vector<VkFramebuffer_T * __ptr64,std::allocator<VkFramebuffer_T * __ptr64> >
PUBLIC	?_Assign_rv@?$vector@PEAUVkFramebuffer_T@@V?$allocator@PEAUVkFramebuffer_T@@@std@@@std@@QEAAX$$QEAV12@U?$integral_constant@_N$00@2@@Z ; std::vector<VkFramebuffer_T * __ptr64,std::allocator<VkFramebuffer_T * __ptr64> >::_Assign_rv
PUBLIC	??1?$vector@PEAUVkFramebuffer_T@@V?$allocator@PEAUVkFramebuffer_T@@@std@@@std@@QEAA@XZ ; std::vector<VkFramebuffer_T * __ptr64,std::allocator<VkFramebuffer_T * __ptr64> >::~vector<VkFramebuffer_T * __ptr64,std::allocator<VkFramebuffer_T * __ptr64> >
PUBLIC	?size@?$vector@PEAUVkFramebuffer_T@@V?$allocator@PEAUVkFramebuffer_T@@@std@@@std@@QEBA_KXZ ; std::vector<VkFramebuffer_T * __ptr64,std::allocator<VkFramebuffer_T * __ptr64> >::size
PUBLIC	?max_size@?$vector@PEAUVkFramebuffer_T@@V?$allocator@PEAUVkFramebuffer_T@@@std@@@std@@QEBA_KXZ ; std::vector<VkFramebuffer_T * __ptr64,std::allocator<VkFramebuffer_T * __ptr64> >::max_size
PUBLIC	??A?$vector@PEAUVkFramebuffer_T@@V?$allocator@PEAUVkFramebuffer_T@@@std@@@std@@QEAAAEAPEAUVkFramebuffer_T@@_K@Z ; std::vector<VkFramebuffer_T * __ptr64,std::allocator<VkFramebuffer_T * __ptr64> >::operator[]
PUBLIC	?_Buy@?$vector@PEAUVkFramebuffer_T@@V?$allocator@PEAUVkFramebuffer_T@@@std@@@std@@IEAA_N_K@Z ; std::vector<VkFramebuffer_T * __ptr64,std::allocator<VkFramebuffer_T * __ptr64> >::_Buy
PUBLIC	?_Destroy@?$vector@PEAUVkFramebuffer_T@@V?$allocator@PEAUVkFramebuffer_T@@@std@@@std@@IEAAXPEAPEAUVkFramebuffer_T@@0@Z ; std::vector<VkFramebuffer_T * __ptr64,std::allocator<VkFramebuffer_T * __ptr64> >::_Destroy
PUBLIC	?_Tidy@?$vector@PEAUVkFramebuffer_T@@V?$allocator@PEAUVkFramebuffer_T@@@std@@@std@@IEAAXXZ ; std::vector<VkFramebuffer_T * __ptr64,std::allocator<VkFramebuffer_T * __ptr64> >::_Tidy
PUBLIC	?_Xlen@?$vector@PEAUVkFramebuffer_T@@V?$allocator@PEAUVkFramebuffer_T@@@std@@@std@@IEBAXXZ ; std::vector<VkFramebuffer_T * __ptr64,std::allocator<VkFramebuffer_T * __ptr64> >::_Xlen
PUBLIC	?__autoclassinit2@?$vector@PEAUVkFramebuffer_T@@V?$allocator@PEAUVkFramebuffer_T@@@std@@@std@@QEAAX_K@Z ; std::vector<VkFramebuffer_T * __ptr64,std::allocator<VkFramebuffer_T * __ptr64> >::__autoclassinit2
PUBLIC	?deallocate@?$allocator@PEAUVkShaderModule_T@@@std@@QEAAXPEAPEAUVkShaderModule_T@@_K@Z ; std::allocator<VkShaderModule_T * __ptr64>::deallocate
PUBLIC	?allocate@?$allocator@PEAUVkShaderModule_T@@@std@@QEAAPEAPEAUVkShaderModule_T@@_K@Z ; std::allocator<VkShaderModule_T * __ptr64>::allocate
PUBLIC	?max_size@?$allocator@PEAUVkShaderModule_T@@@std@@QEBA_KXZ ; std::allocator<VkShaderModule_T * __ptr64>::max_size
PUBLIC	?max_size@?$allocator_traits@V?$allocator@PEAUVkShaderModule_T@@@std@@@std@@SA_KAEBV?$allocator@PEAUVkShaderModule_T@@@2@@Z ; std::allocator_traits<std::allocator<VkShaderModule_T * __ptr64> >::max_size
PUBLIC	?allocate@?$_Wrap_alloc@V?$allocator@PEAUVkShaderModule_T@@@std@@@std@@QEAAPEAPEAUVkShaderModule_T@@_K@Z ; std::_Wrap_alloc<std::allocator<VkShaderModule_T * __ptr64> >::allocate
PUBLIC	?deallocate@?$_Wrap_alloc@V?$allocator@PEAUVkShaderModule_T@@@std@@@std@@QEAAXPEAPEAUVkShaderModule_T@@_K@Z ; std::_Wrap_alloc<std::allocator<VkShaderModule_T * __ptr64> >::deallocate
PUBLIC	?max_size@?$_Wrap_alloc@V?$allocator@PEAUVkShaderModule_T@@@std@@@std@@QEBA_KU_Nil@2@@Z ; std::_Wrap_alloc<std::allocator<VkShaderModule_T * __ptr64> >::max_size
PUBLIC	?_Getpfirst@?$_Vector_alloc@U?$_Vec_base_types@PEAUVkShaderModule_T@@V?$allocator@PEAUVkShaderModule_T@@@std@@@std@@@std@@QEBAPEAPEAU_Iterator_base12@2@XZ ; std::_Vector_alloc<std::_Vec_base_types<VkShaderModule_T * __ptr64,std::allocator<VkShaderModule_T * __ptr64> > >::_Getpfirst
PUBLIC	?_Orphan_all@?$_Vector_alloc@U?$_Vec_base_types@PEAUVkShaderModule_T@@V?$allocator@PEAUVkShaderModule_T@@@std@@@std@@@std@@QEAAXXZ ; std::_Vector_alloc<std::_Vec_base_types<VkShaderModule_T * __ptr64,std::allocator<VkShaderModule_T * __ptr64> > >::_Orphan_all
PUBLIC	?_Getal@?$_Vector_alloc@U?$_Vec_base_types@PEAUVkShaderModule_T@@V?$allocator@PEAUVkShaderModule_T@@@std@@@std@@@std@@QEAAAEAU?$_Wrap_alloc@V?$allocator@PEAUVkShaderModule_T@@@std@@@2@XZ ; std::_Vector_alloc<std::_Vec_base_types<VkShaderModule_T * __ptr64,std::allocator<VkShaderModule_T * __ptr64> > >::_Getal
PUBLIC	?_Getal@?$_Vector_alloc@U?$_Vec_base_types@PEAUVkShaderModule_T@@V?$allocator@PEAUVkShaderModule_T@@@std@@@std@@@std@@QEBAAEBU?$_Wrap_alloc@V?$allocator@PEAUVkShaderModule_T@@@std@@@2@XZ ; std::_Vector_alloc<std::_Vec_base_types<VkShaderModule_T * __ptr64,std::allocator<VkShaderModule_T * __ptr64> > >::_Getal
PUBLIC	?_Get_data@?$_Vector_alloc@U?$_Vec_base_types@PEAUVkShaderModule_T@@V?$allocator@PEAUVkShaderModule_T@@@std@@@std@@@std@@QEAAAEAV?$_Vector_val@U?$_Simple_types@PEAUVkShaderModule_T@@@std@@@2@XZ ; std::_Vector_alloc<std::_Vec_base_types<VkShaderModule_T * __ptr64,std::allocator<VkShaderModule_T * __ptr64> > >::_Get_data
PUBLIC	?_Get_data@?$_Vector_alloc@U?$_Vec_base_types@PEAUVkShaderModule_T@@V?$allocator@PEAUVkShaderModule_T@@@std@@@std@@@std@@QEBAAEBV?$_Vector_val@U?$_Simple_types@PEAUVkShaderModule_T@@@std@@@2@XZ ; std::_Vector_alloc<std::_Vec_base_types<VkShaderModule_T * __ptr64,std::allocator<VkShaderModule_T * __ptr64> > >::_Get_data
PUBLIC	?_Myfirst@?$_Vector_alloc@U?$_Vec_base_types@PEAUVkShaderModule_T@@V?$allocator@PEAUVkShaderModule_T@@@std@@@std@@@std@@QEAAAEAPEAPEAUVkShaderModule_T@@XZ ; std::_Vector_alloc<std::_Vec_base_types<VkShaderModule_T * __ptr64,std::allocator<VkShaderModule_T * __ptr64> > >::_Myfirst
PUBLIC	?_Myfirst@?$_Vector_alloc@U?$_Vec_base_types@PEAUVkShaderModule_T@@V?$allocator@PEAUVkShaderModule_T@@@std@@@std@@@std@@QEBAAEBQEAPEAUVkShaderModule_T@@XZ ; std::_Vector_alloc<std::_Vec_base_types<VkShaderModule_T * __ptr64,std::allocator<VkShaderModule_T * __ptr64> > >::_Myfirst
PUBLIC	?_Mylast@?$_Vector_alloc@U?$_Vec_base_types@PEAUVkShaderModule_T@@V?$allocator@PEAUVkShaderModule_T@@@std@@@std@@@std@@QEAAAEAPEAPEAUVkShaderModule_T@@XZ ; std::_Vector_alloc<std::_Vec_base_types<VkShaderModule_T * __ptr64,std::allocator<VkShaderModule_T * __ptr64> > >::_Mylast
PUBLIC	?_Mylast@?$_Vector_alloc@U?$_Vec_base_types@PEAUVkShaderModule_T@@V?$allocator@PEAUVkShaderModule_T@@@std@@@std@@@std@@QEBAAEBQEAPEAUVkShaderModule_T@@XZ ; std::_Vector_alloc<std::_Vec_base_types<VkShaderModule_T * __ptr64,std::allocator<VkShaderModule_T * __ptr64> > >::_Mylast
PUBLIC	?_Myend@?$_Vector_alloc@U?$_Vec_base_types@PEAUVkShaderModule_T@@V?$allocator@PEAUVkShaderModule_T@@@std@@@std@@@std@@QEAAAEAPEAPEAUVkShaderModule_T@@XZ ; std::_Vector_alloc<std::_Vec_base_types<VkShaderModule_T * __ptr64,std::allocator<VkShaderModule_T * __ptr64> > >::_Myend
PUBLIC	?_Myend@?$_Vector_alloc@U?$_Vec_base_types@PEAUVkShaderModule_T@@V?$allocator@PEAUVkShaderModule_T@@@std@@@std@@@std@@QEBAAEBQEAPEAUVkShaderModule_T@@XZ ; std::_Vector_alloc<std::_Vec_base_types<VkShaderModule_T * __ptr64,std::allocator<VkShaderModule_T * __ptr64> > >::_Myend
PUBLIC	?_Get_first@?$_Compressed_pair@U?$_Wrap_alloc@V?$allocator@PEAUVkShaderModule_T@@@std@@@std@@V?$_Vector_val@U?$_Simple_types@PEAUVkShaderModule_T@@@std@@@2@$00@std@@QEAAAEAU?$_Wrap_alloc@V?$allocator@PEAUVkShaderModule_T@@@std@@@2@XZ ; std::_Compressed_pair<std::_Wrap_alloc<std::allocator<VkShaderModule_T * __ptr64> >,std::_Vector_val<std::_Simple_types<VkShaderModule_T * __ptr64> >,1>::_Get_first
PUBLIC	?_Get_first@?$_Compressed_pair@U?$_Wrap_alloc@V?$allocator@PEAUVkShaderModule_T@@@std@@@std@@V?$_Vector_val@U?$_Simple_types@PEAUVkShaderModule_T@@@std@@@2@$00@std@@QEBAAEBU?$_Wrap_alloc@V?$allocator@PEAUVkShaderModule_T@@@std@@@2@XZ ; std::_Compressed_pair<std::_Wrap_alloc<std::allocator<VkShaderModule_T * __ptr64> >,std::_Vector_val<std::_Simple_types<VkShaderModule_T * __ptr64> >,1>::_Get_first
PUBLIC	?_Get_second@?$_Compressed_pair@U?$_Wrap_alloc@V?$allocator@PEAUVkShaderModule_T@@@std@@@std@@V?$_Vector_val@U?$_Simple_types@PEAUVkShaderModule_T@@@std@@@2@$00@std@@QEAAAEAV?$_Vector_val@U?$_Simple_types@PEAUVkShaderModule_T@@@std@@@2@XZ ; std::_Compressed_pair<std::_Wrap_alloc<std::allocator<VkShaderModule_T * __ptr64> >,std::_Vector_val<std::_Simple_types<VkShaderModule_T * __ptr64> >,1>::_Get_second
PUBLIC	?_Get_second@?$_Compressed_pair@U?$_Wrap_alloc@V?$allocator@PEAUVkShaderModule_T@@@std@@@std@@V?$_Vector_val@U?$_Simple_types@PEAUVkShaderModule_T@@@std@@@2@$00@std@@QEBAAEBV?$_Vector_val@U?$_Simple_types@PEAUVkShaderModule_T@@@std@@@2@XZ ; std::_Compressed_pair<std::_Wrap_alloc<std::allocator<VkShaderModule_T * __ptr64> >,std::_Vector_val<std::_Simple_types<VkShaderModule_T * __ptr64> >,1>::_Get_second
PUBLIC	?capacity@?$vector@PEAUVkShaderModule_T@@V?$allocator@PEAUVkShaderModule_T@@@std@@@std@@QEBA_KXZ ; std::vector<VkShaderModule_T * __ptr64,std::allocator<VkShaderModule_T * __ptr64> >::capacity
PUBLIC	?_Unused_capacity@?$vector@PEAUVkShaderModule_T@@V?$allocator@PEAUVkShaderModule_T@@@std@@@std@@QEBA_KXZ ; std::vector<VkShaderModule_T * __ptr64,std::allocator<VkShaderModule_T * __ptr64> >::_Unused_capacity
PUBLIC	?begin@?$vector@PEAUVkShaderModule_T@@V?$allocator@PEAUVkShaderModule_T@@@std@@@std@@QEAA?AV?$_Vector_iterator@V?$_Vector_val@U?$_Simple_types@PEAUVkShaderModule_T@@@std@@@std@@@2@XZ ; std::vector<VkShaderModule_T * __ptr64,std::allocator<VkShaderModule_T * __ptr64> >::begin
PUBLIC	?end@?$vector@PEAUVkShaderModule_T@@V?$allocator@PEAUVkShaderModule_T@@@std@@@std@@QEAA?AV?$_Vector_iterator@V?$_Vector_val@U?$_Simple_types@PEAUVkShaderModule_T@@@std@@@std@@@2@XZ ; std::vector<VkShaderModule_T * __ptr64,std::allocator<VkShaderModule_T * __ptr64> >::end
PUBLIC	?size@?$vector@PEAUVkShaderModule_T@@V?$allocator@PEAUVkShaderModule_T@@@std@@@std@@QEBA_KXZ ; std::vector<VkShaderModule_T * __ptr64,std::allocator<VkShaderModule_T * __ptr64> >::size
PUBLIC	?max_size@?$vector@PEAUVkShaderModule_T@@V?$allocator@PEAUVkShaderModule_T@@@std@@@std@@QEBA_KXZ ; std::vector<VkShaderModule_T * __ptr64,std::allocator<VkShaderModule_T * __ptr64> >::max_size
PUBLIC	?push_back@?$vector@PEAUVkShaderModule_T@@V?$allocator@PEAUVkShaderModule_T@@@std@@@std@@QEAAXAEBQEAUVkShaderModule_T@@@Z ; std::vector<VkShaderModule_T * __ptr64,std::allocator<VkShaderModule_T * __ptr64> >::push_back
PUBLIC	?_Destroy@?$vector@PEAUVkShaderModule_T@@V?$allocator@PEAUVkShaderModule_T@@@std@@@std@@IEAAXPEAPEAUVkShaderModule_T@@0@Z ; std::vector<VkShaderModule_T * __ptr64,std::allocator<VkShaderModule_T * __ptr64> >::_Destroy
PUBLIC	?_Grow_to@?$vector@PEAUVkShaderModule_T@@V?$allocator@PEAUVkShaderModule_T@@@std@@@std@@IEBA_K_K@Z ; std::vector<VkShaderModule_T * __ptr64,std::allocator<VkShaderModule_T * __ptr64> >::_Grow_to
PUBLIC	?_Inside@?$vector@PEAUVkShaderModule_T@@V?$allocator@PEAUVkShaderModule_T@@@std@@@std@@IEBA_NPEBQEAUVkShaderModule_T@@@Z ; std::vector<VkShaderModule_T * __ptr64,std::allocator<VkShaderModule_T * __ptr64> >::_Inside
PUBLIC	?_Reallocate@?$vector@PEAUVkShaderModule_T@@V?$allocator@PEAUVkShaderModule_T@@@std@@@std@@IEAAX_K@Z ; std::vector<VkShaderModule_T * __ptr64,std::allocator<VkShaderModule_T * __ptr64> >::_Reallocate
PUBLIC	?_Reserve@?$vector@PEAUVkShaderModule_T@@V?$allocator@PEAUVkShaderModule_T@@@std@@@std@@IEAAX_K@Z ; std::vector<VkShaderModule_T * __ptr64,std::allocator<VkShaderModule_T * __ptr64> >::_Reserve
PUBLIC	?_Xlen@?$vector@PEAUVkShaderModule_T@@V?$allocator@PEAUVkShaderModule_T@@@std@@@std@@IEBAXXZ ; std::vector<VkShaderModule_T * __ptr64,std::allocator<VkShaderModule_T * __ptr64> >::_Xlen
PUBLIC	?_Orphan_range@?$vector@PEAUVkShaderModule_T@@V?$allocator@PEAUVkShaderModule_T@@@std@@@std@@IEBAXPEAPEAUVkShaderModule_T@@0@Z ; std::vector<VkShaderModule_T * __ptr64,std::allocator<VkShaderModule_T * __ptr64> >::_Orphan_range
PUBLIC	??0?$allocator@PEBD@std@@QEAA@XZ		; std::allocator<char const * __ptr64>::allocator<char const * __ptr64>
PUBLIC	??0?$allocator@PEBD@std@@QEAA@AEBV01@@Z		; std::allocator<char const * __ptr64>::allocator<char const * __ptr64>
PUBLIC	?deallocate@?$allocator@PEBD@std@@QEAAXPEAPEBD_K@Z ; std::allocator<char const * __ptr64>::deallocate
PUBLIC	?allocate@?$allocator@PEBD@std@@QEAAPEAPEBD_K@Z	; std::allocator<char const * __ptr64>::allocate
PUBLIC	?max_size@?$allocator@PEBD@std@@QEBA_KXZ	; std::allocator<char const * __ptr64>::max_size
PUBLIC	?max_size@?$allocator_traits@V?$allocator@PEBD@std@@@std@@SA_KAEBV?$allocator@PEBD@2@@Z ; std::allocator_traits<std::allocator<char const * __ptr64> >::max_size
PUBLIC	??0?$_Wrap_alloc@V?$allocator@PEBD@std@@@std@@QEAA@AEBV?$allocator@PEBD@1@@Z ; std::_Wrap_alloc<std::allocator<char const * __ptr64> >::_Wrap_alloc<std::allocator<char const * __ptr64> >
PUBLIC	?allocate@?$_Wrap_alloc@V?$allocator@PEBD@std@@@std@@QEAAPEAPEBD_K@Z ; std::_Wrap_alloc<std::allocator<char const * __ptr64> >::allocate
PUBLIC	?deallocate@?$_Wrap_alloc@V?$allocator@PEBD@std@@@std@@QEAAXPEAPEBD_K@Z ; std::_Wrap_alloc<std::allocator<char const * __ptr64> >::deallocate
PUBLIC	?max_size@?$_Wrap_alloc@V?$allocator@PEBD@std@@@std@@QEBA_KU_Nil@2@@Z ; std::_Wrap_alloc<std::allocator<char const * __ptr64> >::max_size
PUBLIC	??0?$_Vector_alloc@U?$_Vec_base_types@PEBDV?$allocator@PEBD@std@@@std@@@std@@QEAA@AEBV?$allocator@PEBD@1@@Z ; std::_Vector_alloc<std::_Vec_base_types<char const * __ptr64,std::allocator<char const * __ptr64> > >::_Vector_alloc<std::_Vec_base_types<char const * __ptr64,std::allocator<char const * __ptr64> > >
PUBLIC	??1?$_Vector_alloc@U?$_Vec_base_types@PEBDV?$allocator@PEBD@std@@@std@@@std@@QEAA@XZ ; std::_Vector_alloc<std::_Vec_base_types<char const * __ptr64,std::allocator<char const * __ptr64> > >::~_Vector_alloc<std::_Vec_base_types<char const * __ptr64,std::allocator<char const * __ptr64> > >
PUBLIC	?_Alloc_proxy@?$_Vector_alloc@U?$_Vec_base_types@PEBDV?$allocator@PEBD@std@@@std@@@std@@QEAAXXZ ; std::_Vector_alloc<std::_Vec_base_types<char const * __ptr64,std::allocator<char const * __ptr64> > >::_Alloc_proxy
PUBLIC	?_Free_proxy@?$_Vector_alloc@U?$_Vec_base_types@PEBDV?$allocator@PEBD@std@@@std@@@std@@QEAAXXZ ; std::_Vector_alloc<std::_Vec_base_types<char const * __ptr64,std::allocator<char const * __ptr64> > >::_Free_proxy
PUBLIC	?_Getpfirst@?$_Vector_alloc@U?$_Vec_base_types@PEBDV?$allocator@PEBD@std@@@std@@@std@@QEBAPEAPEAU_Iterator_base12@2@XZ ; std::_Vector_alloc<std::_Vec_base_types<char const * __ptr64,std::allocator<char const * __ptr64> > >::_Getpfirst
PUBLIC	?_Myproxy@?$_Vector_alloc@U?$_Vec_base_types@PEBDV?$allocator@PEBD@std@@@std@@@std@@QEAAAEAPEAU_Container_proxy@2@XZ ; std::_Vector_alloc<std::_Vec_base_types<char const * __ptr64,std::allocator<char const * __ptr64> > >::_Myproxy
PUBLIC	?_Orphan_all@?$_Vector_alloc@U?$_Vec_base_types@PEBDV?$allocator@PEBD@std@@@std@@@std@@QEAAXXZ ; std::_Vector_alloc<std::_Vec_base_types<char const * __ptr64,std::allocator<char const * __ptr64> > >::_Orphan_all
PUBLIC	?_Getal@?$_Vector_alloc@U?$_Vec_base_types@PEBDV?$allocator@PEBD@std@@@std@@@std@@QEAAAEAU?$_Wrap_alloc@V?$allocator@PEBD@std@@@2@XZ ; std::_Vector_alloc<std::_Vec_base_types<char const * __ptr64,std::allocator<char const * __ptr64> > >::_Getal
PUBLIC	?_Getal@?$_Vector_alloc@U?$_Vec_base_types@PEBDV?$allocator@PEBD@std@@@std@@@std@@QEBAAEBU?$_Wrap_alloc@V?$allocator@PEBD@std@@@2@XZ ; std::_Vector_alloc<std::_Vec_base_types<char const * __ptr64,std::allocator<char const * __ptr64> > >::_Getal
PUBLIC	?_Get_data@?$_Vector_alloc@U?$_Vec_base_types@PEBDV?$allocator@PEBD@std@@@std@@@std@@QEAAAEAV?$_Vector_val@U?$_Simple_types@PEBD@std@@@2@XZ ; std::_Vector_alloc<std::_Vec_base_types<char const * __ptr64,std::allocator<char const * __ptr64> > >::_Get_data
PUBLIC	?_Get_data@?$_Vector_alloc@U?$_Vec_base_types@PEBDV?$allocator@PEBD@std@@@std@@@std@@QEBAAEBV?$_Vector_val@U?$_Simple_types@PEBD@std@@@2@XZ ; std::_Vector_alloc<std::_Vec_base_types<char const * __ptr64,std::allocator<char const * __ptr64> > >::_Get_data
PUBLIC	?_Myfirst@?$_Vector_alloc@U?$_Vec_base_types@PEBDV?$allocator@PEBD@std@@@std@@@std@@QEAAAEAPEAPEBDXZ ; std::_Vector_alloc<std::_Vec_base_types<char const * __ptr64,std::allocator<char const * __ptr64> > >::_Myfirst
PUBLIC	?_Myfirst@?$_Vector_alloc@U?$_Vec_base_types@PEBDV?$allocator@PEBD@std@@@std@@@std@@QEBAAEBQEAPEBDXZ ; std::_Vector_alloc<std::_Vec_base_types<char const * __ptr64,std::allocator<char const * __ptr64> > >::_Myfirst
PUBLIC	?_Mylast@?$_Vector_alloc@U?$_Vec_base_types@PEBDV?$allocator@PEBD@std@@@std@@@std@@QEAAAEAPEAPEBDXZ ; std::_Vector_alloc<std::_Vec_base_types<char const * __ptr64,std::allocator<char const * __ptr64> > >::_Mylast
PUBLIC	?_Mylast@?$_Vector_alloc@U?$_Vec_base_types@PEBDV?$allocator@PEBD@std@@@std@@@std@@QEBAAEBQEAPEBDXZ ; std::_Vector_alloc<std::_Vec_base_types<char const * __ptr64,std::allocator<char const * __ptr64> > >::_Mylast
PUBLIC	?_Myend@?$_Vector_alloc@U?$_Vec_base_types@PEBDV?$allocator@PEBD@std@@@std@@@std@@QEAAAEAPEAPEBDXZ ; std::_Vector_alloc<std::_Vec_base_types<char const * __ptr64,std::allocator<char const * __ptr64> > >::_Myend
PUBLIC	?_Myend@?$_Vector_alloc@U?$_Vec_base_types@PEBDV?$allocator@PEBD@std@@@std@@@std@@QEBAAEBQEAPEBDXZ ; std::_Vector_alloc<std::_Vec_base_types<char const * __ptr64,std::allocator<char const * __ptr64> > >::_Myend
PUBLIC	??0?$_Vector_val@U?$_Simple_types@PEBD@std@@@std@@QEAA@XZ ; std::_Vector_val<std::_Simple_types<char const * __ptr64> >::_Vector_val<std::_Simple_types<char const * __ptr64> >
PUBLIC	??1?$_Vector_val@U?$_Simple_types@PEBD@std@@@std@@QEAA@XZ ; std::_Vector_val<std::_Simple_types<char const * __ptr64> >::~_Vector_val<std::_Simple_types<char const * __ptr64> >
PUBLIC	?_Get_first@?$_Compressed_pair@U?$_Wrap_alloc@V?$allocator@PEBD@std@@@std@@V?$_Vector_val@U?$_Simple_types@PEBD@std@@@2@$00@std@@QEAAAEAU?$_Wrap_alloc@V?$allocator@PEBD@std@@@2@XZ ; std::_Compressed_pair<std::_Wrap_alloc<std::allocator<char const * __ptr64> >,std::_Vector_val<std::_Simple_types<char const * __ptr64> >,1>::_Get_first
PUBLIC	?_Get_first@?$_Compressed_pair@U?$_Wrap_alloc@V?$allocator@PEBD@std@@@std@@V?$_Vector_val@U?$_Simple_types@PEBD@std@@@2@$00@std@@QEBAAEBU?$_Wrap_alloc@V?$allocator@PEBD@std@@@2@XZ ; std::_Compressed_pair<std::_Wrap_alloc<std::allocator<char const * __ptr64> >,std::_Vector_val<std::_Simple_types<char const * __ptr64> >,1>::_Get_first
PUBLIC	?_Get_second@?$_Compressed_pair@U?$_Wrap_alloc@V?$allocator@PEBD@std@@@std@@V?$_Vector_val@U?$_Simple_types@PEBD@std@@@2@$00@std@@QEAAAEAV?$_Vector_val@U?$_Simple_types@PEBD@std@@@2@XZ ; std::_Compressed_pair<std::_Wrap_alloc<std::allocator<char const * __ptr64> >,std::_Vector_val<std::_Simple_types<char const * __ptr64> >,1>::_Get_second
PUBLIC	?_Get_second@?$_Compressed_pair@U?$_Wrap_alloc@V?$allocator@PEBD@std@@@std@@V?$_Vector_val@U?$_Simple_types@PEBD@std@@@2@$00@std@@QEBAAEBV?$_Vector_val@U?$_Simple_types@PEBD@std@@@2@XZ ; std::_Compressed_pair<std::_Wrap_alloc<std::allocator<char const * __ptr64> >,std::_Vector_val<std::_Simple_types<char const * __ptr64> >,1>::_Get_second
PUBLIC	??1?$_Compressed_pair@U?$_Wrap_alloc@V?$allocator@PEBD@std@@@std@@V?$_Vector_val@U?$_Simple_types@PEBD@std@@@2@$00@std@@QEAA@XZ ; std::_Compressed_pair<std::_Wrap_alloc<std::allocator<char const * __ptr64> >,std::_Vector_val<std::_Simple_types<char const * __ptr64> >,1>::~_Compressed_pair<std::_Wrap_alloc<std::allocator<char const * __ptr64> >,std::_Vector_val<std::_Simple_types<char const * __ptr64> >,1>
PUBLIC	??0?$vector@PEBDV?$allocator@PEBD@std@@@std@@QEAA@XZ ; std::vector<char const * __ptr64,std::allocator<char const * __ptr64> >::vector<char const * __ptr64,std::allocator<char const * __ptr64> >
PUBLIC	??1?$vector@PEBDV?$allocator@PEBD@std@@@std@@QEAA@XZ ; std::vector<char const * __ptr64,std::allocator<char const * __ptr64> >::~vector<char const * __ptr64,std::allocator<char const * __ptr64> >
PUBLIC	?capacity@?$vector@PEBDV?$allocator@PEBD@std@@@std@@QEBA_KXZ ; std::vector<char const * __ptr64,std::allocator<char const * __ptr64> >::capacity
PUBLIC	?_Unused_capacity@?$vector@PEBDV?$allocator@PEBD@std@@@std@@QEBA_KXZ ; std::vector<char const * __ptr64,std::allocator<char const * __ptr64> >::_Unused_capacity
PUBLIC	?size@?$vector@PEBDV?$allocator@PEBD@std@@@std@@QEBA_KXZ ; std::vector<char const * __ptr64,std::allocator<char const * __ptr64> >::size
PUBLIC	?max_size@?$vector@PEBDV?$allocator@PEBD@std@@@std@@QEBA_KXZ ; std::vector<char const * __ptr64,std::allocator<char const * __ptr64> >::max_size
PUBLIC	?data@?$vector@PEBDV?$allocator@PEBD@std@@@std@@QEAAPEAPEBDXZ ; std::vector<char const * __ptr64,std::allocator<char const * __ptr64> >::data
PUBLIC	?push_back@?$vector@PEBDV?$allocator@PEBD@std@@@std@@QEAAXAEBQEBD@Z ; std::vector<char const * __ptr64,std::allocator<char const * __ptr64> >::push_back
PUBLIC	?_Destroy@?$vector@PEBDV?$allocator@PEBD@std@@@std@@IEAAXPEAPEBD0@Z ; std::vector<char const * __ptr64,std::allocator<char const * __ptr64> >::_Destroy
PUBLIC	?_Grow_to@?$vector@PEBDV?$allocator@PEBD@std@@@std@@IEBA_K_K@Z ; std::vector<char const * __ptr64,std::allocator<char const * __ptr64> >::_Grow_to
PUBLIC	?_Inside@?$vector@PEBDV?$allocator@PEBD@std@@@std@@IEBA_NPEBQEBD@Z ; std::vector<char const * __ptr64,std::allocator<char const * __ptr64> >::_Inside
PUBLIC	?_Reallocate@?$vector@PEBDV?$allocator@PEBD@std@@@std@@IEAAX_K@Z ; std::vector<char const * __ptr64,std::allocator<char const * __ptr64> >::_Reallocate
PUBLIC	?_Reserve@?$vector@PEBDV?$allocator@PEBD@std@@@std@@IEAAX_K@Z ; std::vector<char const * __ptr64,std::allocator<char const * __ptr64> >::_Reserve
PUBLIC	?_Tidy@?$vector@PEBDV?$allocator@PEBD@std@@@std@@IEAAXXZ ; std::vector<char const * __ptr64,std::allocator<char const * __ptr64> >::_Tidy
PUBLIC	?_Xlen@?$vector@PEBDV?$allocator@PEBD@std@@@std@@IEBAXXZ ; std::vector<char const * __ptr64,std::allocator<char const * __ptr64> >::_Xlen
PUBLIC	?_Orphan_range@?$vector@PEBDV?$allocator@PEBD@std@@@std@@IEBAXPEAPEBD0@Z ; std::vector<char const * __ptr64,std::allocator<char const * __ptr64> >::_Orphan_range
PUBLIC	?__autoclassinit2@?$vector@PEBDV?$allocator@PEBD@std@@@std@@QEAAX_K@Z ; std::vector<char const * __ptr64,std::allocator<char const * __ptr64> >::__autoclassinit2
PUBLIC	?CreateDebugCallback@Cy@@YAXPEAUVkInstance_T@@PEAPEAUVkDebugReportCallbackEXT_T@@@Z ; Cy::CreateDebugCallback
PUBLIC	?NewDescriptorSetLayout@Cy@@YAPEAUVkDescriptorSetLayout_T@@PEAUVkDevice_T@@W4VkDescriptorType@@I@Z ; Cy::NewDescriptorSetLayout
PUBLIC	?NewPipelineLayout@Cy@@YAPEAUVkPipelineLayout_T@@PEAUVkDevice_T@@PEAUVkDescriptorSetLayout_T@@@Z ; Cy::NewPipelineLayout
PUBLIC	?NewVkInstance@Cy@@YAPEAUVkInstance_T@@PEBDPEAV?$vector@PEBDV?$allocator@PEBD@std@@@std@@1@Z ; Cy::NewVkInstance
PUBLIC	?NewVkInstance@Cy@@YAPEAUVkInstance_T@@PEBDW4VkInclude@1@@Z ; Cy::NewVkInstance
PUBLIC	?EnumeratePhysicalDevices@Cy@@YA?AV?$vector@PEAUVkPhysicalDevice_T@@V?$allocator@PEAUVkPhysicalDevice_T@@@std@@@std@@PEAUVkInstance_T@@PEAI@Z ; Cy::EnumeratePhysicalDevices
PUBLIC	?NewLogicalDevice@Cy@@YAPEAUVkDevice_T@@PEAUVkPhysicalDevice_T@@IV?$vector@PEBDV?$allocator@PEBD@std@@@std@@1PEAUVkPhysicalDeviceFeatures@@@Z ; Cy::NewLogicalDevice
PUBLIC	?GetSupportedDepthFormat@Cy@@YA?AW4VkFormat@@PEAUVkPhysicalDevice_T@@@Z ; Cy::GetSupportedDepthFormat
PUBLIC	?NewSemaphore@Cy@@YAPEAUVkSemaphore_T@@PEAUVkDevice_T@@@Z ; Cy::NewSemaphore
PUBLIC	?NewCommandPool@Cy@@YAPEAUVkCommandPool_T@@PEAUVkDevice_T@@I@Z ; Cy::NewCommandPool
PUBLIC	?NewSetupCommandBuffer@Cy@@YAPEAUVkCommandBuffer_T@@PEAUVkDevice_T@@PEAUVkCommandPool_T@@@Z ; Cy::NewSetupCommandBuffer
PUBLIC	?SetImageLayout@Cy@@YAXPEAUVkCommandBuffer_T@@PEAUVkImage_T@@IW4VkImageLayout@@2@Z ; Cy::SetImageLayout
PUBLIC	?GetInstalledVkLayers@Cy@@YA?AV?$vector@UVkLayerProperties@@V?$allocator@UVkLayerProperties@@@std@@@std@@XZ ; Cy::GetInstalledVkLayers
PUBLIC	?GetInstalledVkLayers@Cy@@YA?AV?$vector@UVkLayerProperties@@V?$allocator@UVkLayerProperties@@@std@@@std@@PEAUVkPhysicalDevice_T@@@Z ; Cy::GetInstalledVkLayers
PUBLIC	?GetInstalledVkExtensions@Cy@@YA?AV?$vector@UVkExtensionProperties@@V?$allocator@UVkExtensionProperties@@@std@@@std@@XZ ; Cy::GetInstalledVkExtensions
PUBLIC	?GetInstalledVkExtensions@Cy@@YA?AV?$vector@UVkExtensionProperties@@V?$allocator@UVkExtensionProperties@@@std@@@std@@PEAUVkPhysicalDevice_T@@@Z ; Cy::GetInstalledVkExtensions
PUBLIC	?VkDebugCallback@Cy@@YAIIW4VkDebugReportObjectTypeEXT@@_K1HPEBD2PEAX@Z ; Cy::VkDebugCallback
PUBLIC	?NewCommandBuffer@Cy@@YAPEAUVkCommandBuffer_T@@PEAUVkDevice_T@@PEAUVkCommandPool_T@@@Z ; Cy::NewCommandBuffer
PUBLIC	?NewCommandBuffer@Cy@@YA?AV?$vector@PEAUVkCommandBuffer_T@@V?$allocator@PEAUVkCommandBuffer_T@@@std@@@std@@PEAUVkDevice_T@@PEAUVkCommandPool_T@@I@Z ; Cy::NewCommandBuffer
PUBLIC	?GetMemoryType@Cy@@YAXUVkPhysicalDeviceMemoryProperties@@IIPEAI@Z ; Cy::GetMemoryType
PUBLIC	?setupDepthStencil@Cy@@YAXPEAUDeviceInfo@1@PEBUPhysDeviceInfo@1@II@Z ; Cy::setupDepthStencil
PUBLIC	?NewRenderPass@Cy@@YAPEAUVkRenderPass_T@@PEAUVkDevice_T@@W4VkFormat@@1@Z ; Cy::NewRenderPass
PUBLIC	?NewPipelineCache@Cy@@YAPEAUVkPipelineCache_T@@PEAUVkDevice_T@@@Z ; Cy::NewPipelineCache
PUBLIC	?NewFrameBuffer@Cy@@YA?AV?$vector@PEAUVkFramebuffer_T@@V?$allocator@PEAUVkFramebuffer_T@@@std@@@std@@PEAUVkDevice_T@@PEAV?$vector@PEAUVkImageView_T@@V?$allocator@PEAUVkImageView_T@@@std@@@3@PEAUVkRenderPass_T@@PEAUVkImageView_T@@III@Z ; Cy::NewFrameBuffer
PUBLIC	?FlushSetupCommandBuffer@Cy@@YAXPEAUDeviceInfo@1@@Z ; Cy::FlushSetupCommandBuffer
PUBLIC	?NewBuffer@Cy@@YAPEAUVkBuffer_T@@PEAUVkDevice_T@@II@Z ; Cy::NewBuffer
PUBLIC	?AllocBindDataToGPU@Cy@@YA?AUStagingBuffer@1@PEAUVkDevice_T@@UVkPhysicalDeviceMemoryProperties@@IPEAXPEAPEAUVkBuffer_T@@PEAPEAUVkDeviceMemory_T@@@Z ; Cy::AllocBindDataToGPU
PUBLIC	?NewMemoryAllocInfo@Cy@@YA?AUVkMemoryAllocateInfo@@PEAUVkDevice_T@@UVkPhysicalDeviceMemoryProperties@@PEAUVkBuffer_T@@II@Z ; Cy::NewMemoryAllocInfo
PUBLIC	?NewShaderStageInfo@Cy@@YA?AUVkPipelineShaderStageCreateInfo@@PEAUVkDevice_T@@PEAUPipelineInfo@1@PEAIIW4VkShaderStageFlagBits@@@Z ; Cy::NewShaderStageInfo
PUBLIC	?DestroyPipelineInfo@Cy@@YAXPEAUVkDevice_T@@PEAUPipelineInfo@1@@Z ; Cy::DestroyPipelineInfo
PUBLIC	?DestroyDeviceInfo@Cy@@YAXPEAUDeviceInfo@1@@Z	; Cy::DestroyDeviceInfo
PUBLIC	?DestroyDebugInfo@Cy@@YAXPEAUVkInstance_T@@PEAUDebugInfo@1@@Z ; Cy::DestroyDebugInfo
PUBLIC	?DestroyInstance@Cy@@YAXPEAUVkInstance_T@@@Z	; Cy::DestroyInstance
PUBLIC	?to_string@std@@YA?AV?$basic_string@DU?$char_traits@D@std@@V?$allocator@D@2@@1@I@Z ; std::to_string
PUBLIC	??$_Integral_to_string@I@std@@YA?AV?$basic_string@DU?$char_traits@D@std@@V?$allocator@D@2@@0@PEBDI@Z ; std::_Integral_to_string<unsigned int>
PUBLIC	?Message@Cy@@YAXV?$basic_string@DU?$char_traits@D@std@@V?$allocator@D@2@@std@@@Z ; Cy::Message
PUBLIC	??$?HDU?$char_traits@D@std@@V?$allocator@D@1@@std@@YA?AV?$basic_string@DU?$char_traits@D@std@@V?$allocator@D@2@@0@$$QEAV10@PEBD@Z ; std::operator+<char,std::char_traits<char>,std::allocator<char> >
PUBLIC	?Assert@Cy@@YAX_NV?$basic_string@DU?$char_traits@D@std@@V?$allocator@D@2@@std@@@Z ; Cy::Assert
PUBLIC	??$?5DU?$char_traits@D@std@@@std@@YAAEAV?$basic_istream@DU?$char_traits@D@std@@@0@AEAV10@AEAD@Z ; std::operator>><char,std::char_traits<char> >
PUBLIC	?Assert@Cy@@YAXW4VkResult@@V?$basic_string@DU?$char_traits@D@std@@V?$allocator@D@2@@std@@@Z ; Cy::Assert
PUBLIC	??0?$allocator@UVkExtensionProperties@@@std@@QEAA@XZ ; std::allocator<VkExtensionProperties>::allocator<VkExtensionProperties>
PUBLIC	??0?$allocator@UVkExtensionProperties@@@std@@QEAA@AEBV01@@Z ; std::allocator<VkExtensionProperties>::allocator<VkExtensionProperties>
PUBLIC	?deallocate@?$allocator@UVkExtensionProperties@@@std@@QEAAXPEAUVkExtensionProperties@@_K@Z ; std::allocator<VkExtensionProperties>::deallocate
PUBLIC	?allocate@?$allocator@UVkExtensionProperties@@@std@@QEAAPEAUVkExtensionProperties@@_K@Z ; std::allocator<VkExtensionProperties>::allocate
PUBLIC	?max_size@?$allocator@UVkExtensionProperties@@@std@@QEBA_KXZ ; std::allocator<VkExtensionProperties>::max_size
PUBLIC	?max_size@?$allocator_traits@V?$allocator@UVkExtensionProperties@@@std@@@std@@SA_KAEBV?$allocator@UVkExtensionProperties@@@2@@Z ; std::allocator_traits<std::allocator<VkExtensionProperties> >::max_size
PUBLIC	??0?$_Wrap_alloc@V?$allocator@UVkExtensionProperties@@@std@@@std@@QEAA@AEBV?$allocator@UVkExtensionProperties@@@1@@Z ; std::_Wrap_alloc<std::allocator<VkExtensionProperties> >::_Wrap_alloc<std::allocator<VkExtensionProperties> >
PUBLIC	?allocate@?$_Wrap_alloc@V?$allocator@UVkExtensionProperties@@@std@@@std@@QEAAPEAUVkExtensionProperties@@_K@Z ; std::_Wrap_alloc<std::allocator<VkExtensionProperties> >::allocate
PUBLIC	?deallocate@?$_Wrap_alloc@V?$allocator@UVkExtensionProperties@@@std@@@std@@QEAAXPEAUVkExtensionProperties@@_K@Z ; std::_Wrap_alloc<std::allocator<VkExtensionProperties> >::deallocate
PUBLIC	?max_size@?$_Wrap_alloc@V?$allocator@UVkExtensionProperties@@@std@@@std@@QEBA_KU_Nil@2@@Z ; std::_Wrap_alloc<std::allocator<VkExtensionProperties> >::max_size
PUBLIC	??0?$_Vector_alloc@U?$_Vec_base_types@UVkExtensionProperties@@V?$allocator@UVkExtensionProperties@@@std@@@std@@@std@@QEAA@AEBV?$allocator@UVkExtensionProperties@@@1@@Z ; std::_Vector_alloc<std::_Vec_base_types<VkExtensionProperties,std::allocator<VkExtensionProperties> > >::_Vector_alloc<std::_Vec_base_types<VkExtensionProperties,std::allocator<VkExtensionProperties> > >
PUBLIC	??0?$_Vector_alloc@U?$_Vec_base_types@UVkExtensionProperties@@V?$allocator@UVkExtensionProperties@@@std@@@std@@@std@@QEAA@$$QEAV?$allocator@UVkExtensionProperties@@@1@@Z ; std::_Vector_alloc<std::_Vec_base_types<VkExtensionProperties,std::allocator<VkExtensionProperties> > >::_Vector_alloc<std::_Vec_base_types<VkExtensionProperties,std::allocator<VkExtensionProperties> > >
PUBLIC	??1?$_Vector_alloc@U?$_Vec_base_types@UVkExtensionProperties@@V?$allocator@UVkExtensionProperties@@@std@@@std@@@std@@QEAA@XZ ; std::_Vector_alloc<std::_Vec_base_types<VkExtensionProperties,std::allocator<VkExtensionProperties> > >::~_Vector_alloc<std::_Vec_base_types<VkExtensionProperties,std::allocator<VkExtensionProperties> > >
PUBLIC	?_Alloc_proxy@?$_Vector_alloc@U?$_Vec_base_types@UVkExtensionProperties@@V?$allocator@UVkExtensionProperties@@@std@@@std@@@std@@QEAAXXZ ; std::_Vector_alloc<std::_Vec_base_types<VkExtensionProperties,std::allocator<VkExtensionProperties> > >::_Alloc_proxy
PUBLIC	?_Free_proxy@?$_Vector_alloc@U?$_Vec_base_types@UVkExtensionProperties@@V?$allocator@UVkExtensionProperties@@@std@@@std@@@std@@QEAAXXZ ; std::_Vector_alloc<std::_Vec_base_types<VkExtensionProperties,std::allocator<VkExtensionProperties> > >::_Free_proxy
PUBLIC	?_Myproxy@?$_Vector_alloc@U?$_Vec_base_types@UVkExtensionProperties@@V?$allocator@UVkExtensionProperties@@@std@@@std@@@std@@QEAAAEAPEAU_Container_proxy@2@XZ ; std::_Vector_alloc<std::_Vec_base_types<VkExtensionProperties,std::allocator<VkExtensionProperties> > >::_Myproxy
PUBLIC	?_Orphan_all@?$_Vector_alloc@U?$_Vec_base_types@UVkExtensionProperties@@V?$allocator@UVkExtensionProperties@@@std@@@std@@@std@@QEAAXXZ ; std::_Vector_alloc<std::_Vec_base_types<VkExtensionProperties,std::allocator<VkExtensionProperties> > >::_Orphan_all
PUBLIC	?_Swap_all@?$_Vector_alloc@U?$_Vec_base_types@UVkExtensionProperties@@V?$allocator@UVkExtensionProperties@@@std@@@std@@@std@@QEAAXAEAV12@@Z ; std::_Vector_alloc<std::_Vec_base_types<VkExtensionProperties,std::allocator<VkExtensionProperties> > >::_Swap_all
PUBLIC	?_Getal@?$_Vector_alloc@U?$_Vec_base_types@UVkExtensionProperties@@V?$allocator@UVkExtensionProperties@@@std@@@std@@@std@@QEAAAEAU?$_Wrap_alloc@V?$allocator@UVkExtensionProperties@@@std@@@2@XZ ; std::_Vector_alloc<std::_Vec_base_types<VkExtensionProperties,std::allocator<VkExtensionProperties> > >::_Getal
PUBLIC	?_Getal@?$_Vector_alloc@U?$_Vec_base_types@UVkExtensionProperties@@V?$allocator@UVkExtensionProperties@@@std@@@std@@@std@@QEBAAEBU?$_Wrap_alloc@V?$allocator@UVkExtensionProperties@@@std@@@2@XZ ; std::_Vector_alloc<std::_Vec_base_types<VkExtensionProperties,std::allocator<VkExtensionProperties> > >::_Getal
PUBLIC	?_Get_data@?$_Vector_alloc@U?$_Vec_base_types@UVkExtensionProperties@@V?$allocator@UVkExtensionProperties@@@std@@@std@@@std@@QEAAAEAV?$_Vector_val@U?$_Simple_types@UVkExtensionProperties@@@std@@@2@XZ ; std::_Vector_alloc<std::_Vec_base_types<VkExtensionProperties,std::allocator<VkExtensionProperties> > >::_Get_data
PUBLIC	?_Myfirst@?$_Vector_alloc@U?$_Vec_base_types@UVkExtensionProperties@@V?$allocator@UVkExtensionProperties@@@std@@@std@@@std@@QEAAAEAPEAUVkExtensionProperties@@XZ ; std::_Vector_alloc<std::_Vec_base_types<VkExtensionProperties,std::allocator<VkExtensionProperties> > >::_Myfirst
PUBLIC	?_Mylast@?$_Vector_alloc@U?$_Vec_base_types@UVkExtensionProperties@@V?$allocator@UVkExtensionProperties@@@std@@@std@@@std@@QEAAAEAPEAUVkExtensionProperties@@XZ ; std::_Vector_alloc<std::_Vec_base_types<VkExtensionProperties,std::allocator<VkExtensionProperties> > >::_Mylast
PUBLIC	?_Myend@?$_Vector_alloc@U?$_Vec_base_types@UVkExtensionProperties@@V?$allocator@UVkExtensionProperties@@@std@@@std@@@std@@QEAAAEAPEAUVkExtensionProperties@@XZ ; std::_Vector_alloc<std::_Vec_base_types<VkExtensionProperties,std::allocator<VkExtensionProperties> > >::_Myend
PUBLIC	??0?$_Vector_val@U?$_Simple_types@UVkExtensionProperties@@@std@@@std@@QEAA@XZ ; std::_Vector_val<std::_Simple_types<VkExtensionProperties> >::_Vector_val<std::_Simple_types<VkExtensionProperties> >
PUBLIC	??1?$_Vector_val@U?$_Simple_types@UVkExtensionProperties@@@std@@@std@@QEAA@XZ ; std::_Vector_val<std::_Simple_types<VkExtensionProperties> >::~_Vector_val<std::_Simple_types<VkExtensionProperties> >
PUBLIC	?_Get_first@?$_Compressed_pair@U?$_Wrap_alloc@V?$allocator@UVkExtensionProperties@@@std@@@std@@V?$_Vector_val@U?$_Simple_types@UVkExtensionProperties@@@std@@@2@$00@std@@QEAAAEAU?$_Wrap_alloc@V?$allocator@UVkExtensionProperties@@@std@@@2@XZ ; std::_Compressed_pair<std::_Wrap_alloc<std::allocator<VkExtensionProperties> >,std::_Vector_val<std::_Simple_types<VkExtensionProperties> >,1>::_Get_first
PUBLIC	?_Get_first@?$_Compressed_pair@U?$_Wrap_alloc@V?$allocator@UVkExtensionProperties@@@std@@@std@@V?$_Vector_val@U?$_Simple_types@UVkExtensionProperties@@@std@@@2@$00@std@@QEBAAEBU?$_Wrap_alloc@V?$allocator@UVkExtensionProperties@@@std@@@2@XZ ; std::_Compressed_pair<std::_Wrap_alloc<std::allocator<VkExtensionProperties> >,std::_Vector_val<std::_Simple_types<VkExtensionProperties> >,1>::_Get_first
PUBLIC	?_Get_second@?$_Compressed_pair@U?$_Wrap_alloc@V?$allocator@UVkExtensionProperties@@@std@@@std@@V?$_Vector_val@U?$_Simple_types@UVkExtensionProperties@@@std@@@2@$00@std@@QEAAAEAV?$_Vector_val@U?$_Simple_types@UVkExtensionProperties@@@std@@@2@XZ ; std::_Compressed_pair<std::_Wrap_alloc<std::allocator<VkExtensionProperties> >,std::_Vector_val<std::_Simple_types<VkExtensionProperties> >,1>::_Get_second
PUBLIC	??1?$_Compressed_pair@U?$_Wrap_alloc@V?$allocator@UVkExtensionProperties@@@std@@@std@@V?$_Vector_val@U?$_Simple_types@UVkExtensionProperties@@@std@@@2@$00@std@@QEAA@XZ ; std::_Compressed_pair<std::_Wrap_alloc<std::allocator<VkExtensionProperties> >,std::_Vector_val<std::_Simple_types<VkExtensionProperties> >,1>::~_Compressed_pair<std::_Wrap_alloc<std::allocator<VkExtensionProperties> >,std::_Vector_val<std::_Simple_types<VkExtensionProperties> >,1>
PUBLIC	??0?$vector@UVkExtensionProperties@@V?$allocator@UVkExtensionProperties@@@std@@@std@@QEAA@_K@Z ; std::vector<VkExtensionProperties,std::allocator<VkExtensionProperties> >::vector<VkExtensionProperties,std::allocator<VkExtensionProperties> >
PUBLIC	??0?$vector@UVkExtensionProperties@@V?$allocator@UVkExtensionProperties@@@std@@@std@@QEAA@$$QEAV01@@Z ; std::vector<VkExtensionProperties,std::allocator<VkExtensionProperties> >::vector<VkExtensionProperties,std::allocator<VkExtensionProperties> >
PUBLIC	?_Assign_rv@?$vector@UVkExtensionProperties@@V?$allocator@UVkExtensionProperties@@@std@@@std@@QEAAX$$QEAV12@U?$integral_constant@_N$00@2@@Z ; std::vector<VkExtensionProperties,std::allocator<VkExtensionProperties> >::_Assign_rv
PUBLIC	??1?$vector@UVkExtensionProperties@@V?$allocator@UVkExtensionProperties@@@std@@@std@@QEAA@XZ ; std::vector<VkExtensionProperties,std::allocator<VkExtensionProperties> >::~vector<VkExtensionProperties,std::allocator<VkExtensionProperties> >
PUBLIC	?max_size@?$vector@UVkExtensionProperties@@V?$allocator@UVkExtensionProperties@@@std@@@std@@QEBA_KXZ ; std::vector<VkExtensionProperties,std::allocator<VkExtensionProperties> >::max_size
PUBLIC	?data@?$vector@UVkExtensionProperties@@V?$allocator@UVkExtensionProperties@@@std@@@std@@QEAAPEAUVkExtensionProperties@@XZ ; std::vector<VkExtensionProperties,std::allocator<VkExtensionProperties> >::data
PUBLIC	?_Buy@?$vector@UVkExtensionProperties@@V?$allocator@UVkExtensionProperties@@@std@@@std@@IEAA_N_K@Z ; std::vector<VkExtensionProperties,std::allocator<VkExtensionProperties> >::_Buy
PUBLIC	?_Destroy@?$vector@UVkExtensionProperties@@V?$allocator@UVkExtensionProperties@@@std@@@std@@IEAAXPEAUVkExtensionProperties@@0@Z ; std::vector<VkExtensionProperties,std::allocator<VkExtensionProperties> >::_Destroy
PUBLIC	?_Tidy@?$vector@UVkExtensionProperties@@V?$allocator@UVkExtensionProperties@@@std@@@std@@IEAAXXZ ; std::vector<VkExtensionProperties,std::allocator<VkExtensionProperties> >::_Tidy
PUBLIC	?_Xlen@?$vector@UVkExtensionProperties@@V?$allocator@UVkExtensionProperties@@@std@@@std@@IEBAXXZ ; std::vector<VkExtensionProperties,std::allocator<VkExtensionProperties> >::_Xlen
PUBLIC	?__autoclassinit2@?$vector@UVkExtensionProperties@@V?$allocator@UVkExtensionProperties@@@std@@@std@@QEAAX_K@Z ; std::vector<VkExtensionProperties,std::allocator<VkExtensionProperties> >::__autoclassinit2
PUBLIC	??0?$allocator@UVkLayerProperties@@@std@@QEAA@XZ ; std::allocator<VkLayerProperties>::allocator<VkLayerProperties>
PUBLIC	??0?$allocator@UVkLayerProperties@@@std@@QEAA@AEBV01@@Z ; std::allocator<VkLayerProperties>::allocator<VkLayerProperties>
PUBLIC	?deallocate@?$allocator@UVkLayerProperties@@@std@@QEAAXPEAUVkLayerProperties@@_K@Z ; std::allocator<VkLayerProperties>::deallocate
PUBLIC	?allocate@?$allocator@UVkLayerProperties@@@std@@QEAAPEAUVkLayerProperties@@_K@Z ; std::allocator<VkLayerProperties>::allocate
PUBLIC	?max_size@?$allocator@UVkLayerProperties@@@std@@QEBA_KXZ ; std::allocator<VkLayerProperties>::max_size
PUBLIC	?max_size@?$allocator_traits@V?$allocator@UVkLayerProperties@@@std@@@std@@SA_KAEBV?$allocator@UVkLayerProperties@@@2@@Z ; std::allocator_traits<std::allocator<VkLayerProperties> >::max_size
PUBLIC	??0?$_Wrap_alloc@V?$allocator@UVkLayerProperties@@@std@@@std@@QEAA@AEBV?$allocator@UVkLayerProperties@@@1@@Z ; std::_Wrap_alloc<std::allocator<VkLayerProperties> >::_Wrap_alloc<std::allocator<VkLayerProperties> >
PUBLIC	?allocate@?$_Wrap_alloc@V?$allocator@UVkLayerProperties@@@std@@@std@@QEAAPEAUVkLayerProperties@@_K@Z ; std::_Wrap_alloc<std::allocator<VkLayerProperties> >::allocate
PUBLIC	?deallocate@?$_Wrap_alloc@V?$allocator@UVkLayerProperties@@@std@@@std@@QEAAXPEAUVkLayerProperties@@_K@Z ; std::_Wrap_alloc<std::allocator<VkLayerProperties> >::deallocate
PUBLIC	?max_size@?$_Wrap_alloc@V?$allocator@UVkLayerProperties@@@std@@@std@@QEBA_KU_Nil@2@@Z ; std::_Wrap_alloc<std::allocator<VkLayerProperties> >::max_size
PUBLIC	??0?$_Vector_alloc@U?$_Vec_base_types@UVkLayerProperties@@V?$allocator@UVkLayerProperties@@@std@@@std@@@std@@QEAA@AEBV?$allocator@UVkLayerProperties@@@1@@Z ; std::_Vector_alloc<std::_Vec_base_types<VkLayerProperties,std::allocator<VkLayerProperties> > >::_Vector_alloc<std::_Vec_base_types<VkLayerProperties,std::allocator<VkLayerProperties> > >
PUBLIC	??0?$_Vector_alloc@U?$_Vec_base_types@UVkLayerProperties@@V?$allocator@UVkLayerProperties@@@std@@@std@@@std@@QEAA@$$QEAV?$allocator@UVkLayerProperties@@@1@@Z ; std::_Vector_alloc<std::_Vec_base_types<VkLayerProperties,std::allocator<VkLayerProperties> > >::_Vector_alloc<std::_Vec_base_types<VkLayerProperties,std::allocator<VkLayerProperties> > >
PUBLIC	??1?$_Vector_alloc@U?$_Vec_base_types@UVkLayerProperties@@V?$allocator@UVkLayerProperties@@@std@@@std@@@std@@QEAA@XZ ; std::_Vector_alloc<std::_Vec_base_types<VkLayerProperties,std::allocator<VkLayerProperties> > >::~_Vector_alloc<std::_Vec_base_types<VkLayerProperties,std::allocator<VkLayerProperties> > >
PUBLIC	?_Alloc_proxy@?$_Vector_alloc@U?$_Vec_base_types@UVkLayerProperties@@V?$allocator@UVkLayerProperties@@@std@@@std@@@std@@QEAAXXZ ; std::_Vector_alloc<std::_Vec_base_types<VkLayerProperties,std::allocator<VkLayerProperties> > >::_Alloc_proxy
PUBLIC	?_Free_proxy@?$_Vector_alloc@U?$_Vec_base_types@UVkLayerProperties@@V?$allocator@UVkLayerProperties@@@std@@@std@@@std@@QEAAXXZ ; std::_Vector_alloc<std::_Vec_base_types<VkLayerProperties,std::allocator<VkLayerProperties> > >::_Free_proxy
PUBLIC	?_Myproxy@?$_Vector_alloc@U?$_Vec_base_types@UVkLayerProperties@@V?$allocator@UVkLayerProperties@@@std@@@std@@@std@@QEAAAEAPEAU_Container_proxy@2@XZ ; std::_Vector_alloc<std::_Vec_base_types<VkLayerProperties,std::allocator<VkLayerProperties> > >::_Myproxy
PUBLIC	?_Orphan_all@?$_Vector_alloc@U?$_Vec_base_types@UVkLayerProperties@@V?$allocator@UVkLayerProperties@@@std@@@std@@@std@@QEAAXXZ ; std::_Vector_alloc<std::_Vec_base_types<VkLayerProperties,std::allocator<VkLayerProperties> > >::_Orphan_all
PUBLIC	?_Swap_all@?$_Vector_alloc@U?$_Vec_base_types@UVkLayerProperties@@V?$allocator@UVkLayerProperties@@@std@@@std@@@std@@QEAAXAEAV12@@Z ; std::_Vector_alloc<std::_Vec_base_types<VkLayerProperties,std::allocator<VkLayerProperties> > >::_Swap_all
PUBLIC	?_Getal@?$_Vector_alloc@U?$_Vec_base_types@UVkLayerProperties@@V?$allocator@UVkLayerProperties@@@std@@@std@@@std@@QEAAAEAU?$_Wrap_alloc@V?$allocator@UVkLayerProperties@@@std@@@2@XZ ; std::_Vector_alloc<std::_Vec_base_types<VkLayerProperties,std::allocator<VkLayerProperties> > >::_Getal
PUBLIC	?_Getal@?$_Vector_alloc@U?$_Vec_base_types@UVkLayerProperties@@V?$allocator@UVkLayerProperties@@@std@@@std@@@std@@QEBAAEBU?$_Wrap_alloc@V?$allocator@UVkLayerProperties@@@std@@@2@XZ ; std::_Vector_alloc<std::_Vec_base_types<VkLayerProperties,std::allocator<VkLayerProperties> > >::_Getal
PUBLIC	?_Get_data@?$_Vector_alloc@U?$_Vec_base_types@UVkLayerProperties@@V?$allocator@UVkLayerProperties@@@std@@@std@@@std@@QEAAAEAV?$_Vector_val@U?$_Simple_types@UVkLayerProperties@@@std@@@2@XZ ; std::_Vector_alloc<std::_Vec_base_types<VkLayerProperties,std::allocator<VkLayerProperties> > >::_Get_data
PUBLIC	?_Myfirst@?$_Vector_alloc@U?$_Vec_base_types@UVkLayerProperties@@V?$allocator@UVkLayerProperties@@@std@@@std@@@std@@QEAAAEAPEAUVkLayerProperties@@XZ ; std::_Vector_alloc<std::_Vec_base_types<VkLayerProperties,std::allocator<VkLayerProperties> > >::_Myfirst
PUBLIC	?_Mylast@?$_Vector_alloc@U?$_Vec_base_types@UVkLayerProperties@@V?$allocator@UVkLayerProperties@@@std@@@std@@@std@@QEAAAEAPEAUVkLayerProperties@@XZ ; std::_Vector_alloc<std::_Vec_base_types<VkLayerProperties,std::allocator<VkLayerProperties> > >::_Mylast
PUBLIC	?_Myend@?$_Vector_alloc@U?$_Vec_base_types@UVkLayerProperties@@V?$allocator@UVkLayerProperties@@@std@@@std@@@std@@QEAAAEAPEAUVkLayerProperties@@XZ ; std::_Vector_alloc<std::_Vec_base_types<VkLayerProperties,std::allocator<VkLayerProperties> > >::_Myend
PUBLIC	??0?$_Vector_val@U?$_Simple_types@UVkLayerProperties@@@std@@@std@@QEAA@XZ ; std::_Vector_val<std::_Simple_types<VkLayerProperties> >::_Vector_val<std::_Simple_types<VkLayerProperties> >
PUBLIC	??1?$_Vector_val@U?$_Simple_types@UVkLayerProperties@@@std@@@std@@QEAA@XZ ; std::_Vector_val<std::_Simple_types<VkLayerProperties> >::~_Vector_val<std::_Simple_types<VkLayerProperties> >
PUBLIC	?_Get_first@?$_Compressed_pair@U?$_Wrap_alloc@V?$allocator@UVkLayerProperties@@@std@@@std@@V?$_Vector_val@U?$_Simple_types@UVkLayerProperties@@@std@@@2@$00@std@@QEAAAEAU?$_Wrap_alloc@V?$allocator@UVkLayerProperties@@@std@@@2@XZ ; std::_Compressed_pair<std::_Wrap_alloc<std::allocator<VkLayerProperties> >,std::_Vector_val<std::_Simple_types<VkLayerProperties> >,1>::_Get_first
PUBLIC	?_Get_first@?$_Compressed_pair@U?$_Wrap_alloc@V?$allocator@UVkLayerProperties@@@std@@@std@@V?$_Vector_val@U?$_Simple_types@UVkLayerProperties@@@std@@@2@$00@std@@QEBAAEBU?$_Wrap_alloc@V?$allocator@UVkLayerProperties@@@std@@@2@XZ ; std::_Compressed_pair<std::_Wrap_alloc<std::allocator<VkLayerProperties> >,std::_Vector_val<std::_Simple_types<VkLayerProperties> >,1>::_Get_first
PUBLIC	?_Get_second@?$_Compressed_pair@U?$_Wrap_alloc@V?$allocator@UVkLayerProperties@@@std@@@std@@V?$_Vector_val@U?$_Simple_types@UVkLayerProperties@@@std@@@2@$00@std@@QEAAAEAV?$_Vector_val@U?$_Simple_types@UVkLayerProperties@@@std@@@2@XZ ; std::_Compressed_pair<std::_Wrap_alloc<std::allocator<VkLayerProperties> >,std::_Vector_val<std::_Simple_types<VkLayerProperties> >,1>::_Get_second
PUBLIC	??1?$_Compressed_pair@U?$_Wrap_alloc@V?$allocator@UVkLayerProperties@@@std@@@std@@V?$_Vector_val@U?$_Simple_types@UVkLayerProperties@@@std@@@2@$00@std@@QEAA@XZ ; std::_Compressed_pair<std::_Wrap_alloc<std::allocator<VkLayerProperties> >,std::_Vector_val<std::_Simple_types<VkLayerProperties> >,1>::~_Compressed_pair<std::_Wrap_alloc<std::allocator<VkLayerProperties> >,std::_Vector_val<std::_Simple_types<VkLayerProperties> >,1>
PUBLIC	??0?$vector@UVkLayerProperties@@V?$allocator@UVkLayerProperties@@@std@@@std@@QEAA@_K@Z ; std::vector<VkLayerProperties,std::allocator<VkLayerProperties> >::vector<VkLayerProperties,std::allocator<VkLayerProperties> >
PUBLIC	??0?$vector@UVkLayerProperties@@V?$allocator@UVkLayerProperties@@@std@@@std@@QEAA@$$QEAV01@@Z ; std::vector<VkLayerProperties,std::allocator<VkLayerProperties> >::vector<VkLayerProperties,std::allocator<VkLayerProperties> >
PUBLIC	?_Assign_rv@?$vector@UVkLayerProperties@@V?$allocator@UVkLayerProperties@@@std@@@std@@QEAAX$$QEAV12@U?$integral_constant@_N$00@2@@Z ; std::vector<VkLayerProperties,std::allocator<VkLayerProperties> >::_Assign_rv
PUBLIC	??1?$vector@UVkLayerProperties@@V?$allocator@UVkLayerProperties@@@std@@@std@@QEAA@XZ ; std::vector<VkLayerProperties,std::allocator<VkLayerProperties> >::~vector<VkLayerProperties,std::allocator<VkLayerProperties> >
PUBLIC	?max_size@?$vector@UVkLayerProperties@@V?$allocator@UVkLayerProperties@@@std@@@std@@QEBA_KXZ ; std::vector<VkLayerProperties,std::allocator<VkLayerProperties> >::max_size
PUBLIC	?data@?$vector@UVkLayerProperties@@V?$allocator@UVkLayerProperties@@@std@@@std@@QEAAPEAUVkLayerProperties@@XZ ; std::vector<VkLayerProperties,std::allocator<VkLayerProperties> >::data
PUBLIC	?_Buy@?$vector@UVkLayerProperties@@V?$allocator@UVkLayerProperties@@@std@@@std@@IEAA_N_K@Z ; std::vector<VkLayerProperties,std::allocator<VkLayerProperties> >::_Buy
PUBLIC	?_Destroy@?$vector@UVkLayerProperties@@V?$allocator@UVkLayerProperties@@@std@@@std@@IEAAXPEAUVkLayerProperties@@0@Z ; std::vector<VkLayerProperties,std::allocator<VkLayerProperties> >::_Destroy
PUBLIC	?_Tidy@?$vector@UVkLayerProperties@@V?$allocator@UVkLayerProperties@@@std@@@std@@IEAAXXZ ; std::vector<VkLayerProperties,std::allocator<VkLayerProperties> >::_Tidy
PUBLIC	?_Xlen@?$vector@UVkLayerProperties@@V?$allocator@UVkLayerProperties@@@std@@@std@@IEBAXXZ ; std::vector<VkLayerProperties,std::allocator<VkLayerProperties> >::_Xlen
PUBLIC	?__autoclassinit2@?$vector@UVkLayerProperties@@V?$allocator@UVkLayerProperties@@@std@@@std@@QEAAX_K@Z ; std::vector<VkLayerProperties,std::allocator<VkLayerProperties> >::__autoclassinit2
PUBLIC	??$?HDU?$char_traits@D@std@@V?$allocator@D@1@@std@@YA?AV?$basic_string@DU?$char_traits@D@std@@V?$allocator@D@2@@0@PEBD$$QEAV10@@Z ; std::operator+<char,std::char_traits<char>,std::allocator<char> >
PUBLIC	??0?$allocator@PEAUVkPhysicalDevice_T@@@std@@QEAA@XZ ; std::allocator<VkPhysicalDevice_T * __ptr64>::allocator<VkPhysicalDevice_T * __ptr64>
PUBLIC	??0?$allocator@PEAUVkPhysicalDevice_T@@@std@@QEAA@AEBV01@@Z ; std::allocator<VkPhysicalDevice_T * __ptr64>::allocator<VkPhysicalDevice_T * __ptr64>
PUBLIC	?deallocate@?$allocator@PEAUVkPhysicalDevice_T@@@std@@QEAAXPEAPEAUVkPhysicalDevice_T@@_K@Z ; std::allocator<VkPhysicalDevice_T * __ptr64>::deallocate
PUBLIC	?allocate@?$allocator@PEAUVkPhysicalDevice_T@@@std@@QEAAPEAPEAUVkPhysicalDevice_T@@_K@Z ; std::allocator<VkPhysicalDevice_T * __ptr64>::allocate
PUBLIC	?max_size@?$allocator@PEAUVkPhysicalDevice_T@@@std@@QEBA_KXZ ; std::allocator<VkPhysicalDevice_T * __ptr64>::max_size
PUBLIC	?max_size@?$allocator_traits@V?$allocator@PEAUVkPhysicalDevice_T@@@std@@@std@@SA_KAEBV?$allocator@PEAUVkPhysicalDevice_T@@@2@@Z ; std::allocator_traits<std::allocator<VkPhysicalDevice_T * __ptr64> >::max_size
PUBLIC	??0?$_Wrap_alloc@V?$allocator@PEAUVkPhysicalDevice_T@@@std@@@std@@QEAA@AEBV?$allocator@PEAUVkPhysicalDevice_T@@@1@@Z ; std::_Wrap_alloc<std::allocator<VkPhysicalDevice_T * __ptr64> >::_Wrap_alloc<std::allocator<VkPhysicalDevice_T * __ptr64> >
PUBLIC	?allocate@?$_Wrap_alloc@V?$allocator@PEAUVkPhysicalDevice_T@@@std@@@std@@QEAAPEAPEAUVkPhysicalDevice_T@@_K@Z ; std::_Wrap_alloc<std::allocator<VkPhysicalDevice_T * __ptr64> >::allocate
PUBLIC	?deallocate@?$_Wrap_alloc@V?$allocator@PEAUVkPhysicalDevice_T@@@std@@@std@@QEAAXPEAPEAUVkPhysicalDevice_T@@_K@Z ; std::_Wrap_alloc<std::allocator<VkPhysicalDevice_T * __ptr64> >::deallocate
PUBLIC	?max_size@?$_Wrap_alloc@V?$allocator@PEAUVkPhysicalDevice_T@@@std@@@std@@QEBA_KU_Nil@2@@Z ; std::_Wrap_alloc<std::allocator<VkPhysicalDevice_T * __ptr64> >::max_size
PUBLIC	??0?$_Vector_alloc@U?$_Vec_base_types@PEAUVkPhysicalDevice_T@@V?$allocator@PEAUVkPhysicalDevice_T@@@std@@@std@@@std@@QEAA@AEBV?$allocator@PEAUVkPhysicalDevice_T@@@1@@Z ; std::_Vector_alloc<std::_Vec_base_types<VkPhysicalDevice_T * __ptr64,std::allocator<VkPhysicalDevice_T * __ptr64> > >::_Vector_alloc<std::_Vec_base_types<VkPhysicalDevice_T * __ptr64,std::allocator<VkPhysicalDevice_T * __ptr64> > >
PUBLIC	??0?$_Vector_alloc@U?$_Vec_base_types@PEAUVkPhysicalDevice_T@@V?$allocator@PEAUVkPhysicalDevice_T@@@std@@@std@@@std@@QEAA@$$QEAV?$allocator@PEAUVkPhysicalDevice_T@@@1@@Z ; std::_Vector_alloc<std::_Vec_base_types<VkPhysicalDevice_T * __ptr64,std::allocator<VkPhysicalDevice_T * __ptr64> > >::_Vector_alloc<std::_Vec_base_types<VkPhysicalDevice_T * __ptr64,std::allocator<VkPhysicalDevice_T * __ptr64> > >
PUBLIC	??1?$_Vector_alloc@U?$_Vec_base_types@PEAUVkPhysicalDevice_T@@V?$allocator@PEAUVkPhysicalDevice_T@@@std@@@std@@@std@@QEAA@XZ ; std::_Vector_alloc<std::_Vec_base_types<VkPhysicalDevice_T * __ptr64,std::allocator<VkPhysicalDevice_T * __ptr64> > >::~_Vector_alloc<std::_Vec_base_types<VkPhysicalDevice_T * __ptr64,std::allocator<VkPhysicalDevice_T * __ptr64> > >
PUBLIC	?_Alloc_proxy@?$_Vector_alloc@U?$_Vec_base_types@PEAUVkPhysicalDevice_T@@V?$allocator@PEAUVkPhysicalDevice_T@@@std@@@std@@@std@@QEAAXXZ ; std::_Vector_alloc<std::_Vec_base_types<VkPhysicalDevice_T * __ptr64,std::allocator<VkPhysicalDevice_T * __ptr64> > >::_Alloc_proxy
PUBLIC	?_Free_proxy@?$_Vector_alloc@U?$_Vec_base_types@PEAUVkPhysicalDevice_T@@V?$allocator@PEAUVkPhysicalDevice_T@@@std@@@std@@@std@@QEAAXXZ ; std::_Vector_alloc<std::_Vec_base_types<VkPhysicalDevice_T * __ptr64,std::allocator<VkPhysicalDevice_T * __ptr64> > >::_Free_proxy
PUBLIC	?_Myproxy@?$_Vector_alloc@U?$_Vec_base_types@PEAUVkPhysicalDevice_T@@V?$allocator@PEAUVkPhysicalDevice_T@@@std@@@std@@@std@@QEAAAEAPEAU_Container_proxy@2@XZ ; std::_Vector_alloc<std::_Vec_base_types<VkPhysicalDevice_T * __ptr64,std::allocator<VkPhysicalDevice_T * __ptr64> > >::_Myproxy
PUBLIC	?_Orphan_all@?$_Vector_alloc@U?$_Vec_base_types@PEAUVkPhysicalDevice_T@@V?$allocator@PEAUVkPhysicalDevice_T@@@std@@@std@@@std@@QEAAXXZ ; std::_Vector_alloc<std::_Vec_base_types<VkPhysicalDevice_T * __ptr64,std::allocator<VkPhysicalDevice_T * __ptr64> > >::_Orphan_all
PUBLIC	?_Swap_all@?$_Vector_alloc@U?$_Vec_base_types@PEAUVkPhysicalDevice_T@@V?$allocator@PEAUVkPhysicalDevice_T@@@std@@@std@@@std@@QEAAXAEAV12@@Z ; std::_Vector_alloc<std::_Vec_base_types<VkPhysicalDevice_T * __ptr64,std::allocator<VkPhysicalDevice_T * __ptr64> > >::_Swap_all
PUBLIC	?_Getal@?$_Vector_alloc@U?$_Vec_base_types@PEAUVkPhysicalDevice_T@@V?$allocator@PEAUVkPhysicalDevice_T@@@std@@@std@@@std@@QEAAAEAU?$_Wrap_alloc@V?$allocator@PEAUVkPhysicalDevice_T@@@std@@@2@XZ ; std::_Vector_alloc<std::_Vec_base_types<VkPhysicalDevice_T * __ptr64,std::allocator<VkPhysicalDevice_T * __ptr64> > >::_Getal
PUBLIC	?_Getal@?$_Vector_alloc@U?$_Vec_base_types@PEAUVkPhysicalDevice_T@@V?$allocator@PEAUVkPhysicalDevice_T@@@std@@@std@@@std@@QEBAAEBU?$_Wrap_alloc@V?$allocator@PEAUVkPhysicalDevice_T@@@std@@@2@XZ ; std::_Vector_alloc<std::_Vec_base_types<VkPhysicalDevice_T * __ptr64,std::allocator<VkPhysicalDevice_T * __ptr64> > >::_Getal
PUBLIC	?_Get_data@?$_Vector_alloc@U?$_Vec_base_types@PEAUVkPhysicalDevice_T@@V?$allocator@PEAUVkPhysicalDevice_T@@@std@@@std@@@std@@QEAAAEAV?$_Vector_val@U?$_Simple_types@PEAUVkPhysicalDevice_T@@@std@@@2@XZ ; std::_Vector_alloc<std::_Vec_base_types<VkPhysicalDevice_T * __ptr64,std::allocator<VkPhysicalDevice_T * __ptr64> > >::_Get_data
PUBLIC	?_Myfirst@?$_Vector_alloc@U?$_Vec_base_types@PEAUVkPhysicalDevice_T@@V?$allocator@PEAUVkPhysicalDevice_T@@@std@@@std@@@std@@QEAAAEAPEAPEAUVkPhysicalDevice_T@@XZ ; std::_Vector_alloc<std::_Vec_base_types<VkPhysicalDevice_T * __ptr64,std::allocator<VkPhysicalDevice_T * __ptr64> > >::_Myfirst
PUBLIC	?_Mylast@?$_Vector_alloc@U?$_Vec_base_types@PEAUVkPhysicalDevice_T@@V?$allocator@PEAUVkPhysicalDevice_T@@@std@@@std@@@std@@QEAAAEAPEAPEAUVkPhysicalDevice_T@@XZ ; std::_Vector_alloc<std::_Vec_base_types<VkPhysicalDevice_T * __ptr64,std::allocator<VkPhysicalDevice_T * __ptr64> > >::_Mylast
PUBLIC	?_Myend@?$_Vector_alloc@U?$_Vec_base_types@PEAUVkPhysicalDevice_T@@V?$allocator@PEAUVkPhysicalDevice_T@@@std@@@std@@@std@@QEAAAEAPEAPEAUVkPhysicalDevice_T@@XZ ; std::_Vector_alloc<std::_Vec_base_types<VkPhysicalDevice_T * __ptr64,std::allocator<VkPhysicalDevice_T * __ptr64> > >::_Myend
PUBLIC	??0?$_Vector_val@U?$_Simple_types@PEAUVkPhysicalDevice_T@@@std@@@std@@QEAA@XZ ; std::_Vector_val<std::_Simple_types<VkPhysicalDevice_T * __ptr64> >::_Vector_val<std::_Simple_types<VkPhysicalDevice_T * __ptr64> >
PUBLIC	??1?$_Vector_val@U?$_Simple_types@PEAUVkPhysicalDevice_T@@@std@@@std@@QEAA@XZ ; std::_Vector_val<std::_Simple_types<VkPhysicalDevice_T * __ptr64> >::~_Vector_val<std::_Simple_types<VkPhysicalDevice_T * __ptr64> >
PUBLIC	?_Get_first@?$_Compressed_pair@U?$_Wrap_alloc@V?$allocator@PEAUVkPhysicalDevice_T@@@std@@@std@@V?$_Vector_val@U?$_Simple_types@PEAUVkPhysicalDevice_T@@@std@@@2@$00@std@@QEAAAEAU?$_Wrap_alloc@V?$allocator@PEAUVkPhysicalDevice_T@@@std@@@2@XZ ; std::_Compressed_pair<std::_Wrap_alloc<std::allocator<VkPhysicalDevice_T * __ptr64> >,std::_Vector_val<std::_Simple_types<VkPhysicalDevice_T * __ptr64> >,1>::_Get_first
PUBLIC	?_Get_first@?$_Compressed_pair@U?$_Wrap_alloc@V?$allocator@PEAUVkPhysicalDevice_T@@@std@@@std@@V?$_Vector_val@U?$_Simple_types@PEAUVkPhysicalDevice_T@@@std@@@2@$00@std@@QEBAAEBU?$_Wrap_alloc@V?$allocator@PEAUVkPhysicalDevice_T@@@std@@@2@XZ ; std::_Compressed_pair<std::_Wrap_alloc<std::allocator<VkPhysicalDevice_T * __ptr64> >,std::_Vector_val<std::_Simple_types<VkPhysicalDevice_T * __ptr64> >,1>::_Get_first
PUBLIC	?_Get_second@?$_Compressed_pair@U?$_Wrap_alloc@V?$allocator@PEAUVkPhysicalDevice_T@@@std@@@std@@V?$_Vector_val@U?$_Simple_types@PEAUVkPhysicalDevice_T@@@std@@@2@$00@std@@QEAAAEAV?$_Vector_val@U?$_Simple_types@PEAUVkPhysicalDevice_T@@@std@@@2@XZ ; std::_Compressed_pair<std::_Wrap_alloc<std::allocator<VkPhysicalDevice_T * __ptr64> >,std::_Vector_val<std::_Simple_types<VkPhysicalDevice_T * __ptr64> >,1>::_Get_second
PUBLIC	??1?$_Compressed_pair@U?$_Wrap_alloc@V?$allocator@PEAUVkPhysicalDevice_T@@@std@@@std@@V?$_Vector_val@U?$_Simple_types@PEAUVkPhysicalDevice_T@@@std@@@2@$00@std@@QEAA@XZ ; std::_Compressed_pair<std::_Wrap_alloc<std::allocator<VkPhysicalDevice_T * __ptr64> >,std::_Vector_val<std::_Simple_types<VkPhysicalDevice_T * __ptr64> >,1>::~_Compressed_pair<std::_Wrap_alloc<std::allocator<VkPhysicalDevice_T * __ptr64> >,std::_Vector_val<std::_Simple_types<VkPhysicalDevice_T * __ptr64> >,1>
PUBLIC	??0?$vector@PEAUVkPhysicalDevice_T@@V?$allocator@PEAUVkPhysicalDevice_T@@@std@@@std@@QEAA@_K@Z ; std::vector<VkPhysicalDevice_T * __ptr64,std::allocator<VkPhysicalDevice_T * __ptr64> >::vector<VkPhysicalDevice_T * __ptr64,std::allocator<VkPhysicalDevice_T * __ptr64> >
PUBLIC	??0?$vector@PEAUVkPhysicalDevice_T@@V?$allocator@PEAUVkPhysicalDevice_T@@@std@@@std@@QEAA@$$QEAV01@@Z ; std::vector<VkPhysicalDevice_T * __ptr64,std::allocator<VkPhysicalDevice_T * __ptr64> >::vector<VkPhysicalDevice_T * __ptr64,std::allocator<VkPhysicalDevice_T * __ptr64> >
PUBLIC	?_Assign_rv@?$vector@PEAUVkPhysicalDevice_T@@V?$allocator@PEAUVkPhysicalDevice_T@@@std@@@std@@QEAAX$$QEAV12@U?$integral_constant@_N$00@2@@Z ; std::vector<VkPhysicalDevice_T * __ptr64,std::allocator<VkPhysicalDevice_T * __ptr64> >::_Assign_rv
PUBLIC	??1?$vector@PEAUVkPhysicalDevice_T@@V?$allocator@PEAUVkPhysicalDevice_T@@@std@@@std@@QEAA@XZ ; std::vector<VkPhysicalDevice_T * __ptr64,std::allocator<VkPhysicalDevice_T * __ptr64> >::~vector<VkPhysicalDevice_T * __ptr64,std::allocator<VkPhysicalDevice_T * __ptr64> >
PUBLIC	?max_size@?$vector@PEAUVkPhysicalDevice_T@@V?$allocator@PEAUVkPhysicalDevice_T@@@std@@@std@@QEBA_KXZ ; std::vector<VkPhysicalDevice_T * __ptr64,std::allocator<VkPhysicalDevice_T * __ptr64> >::max_size
PUBLIC	?data@?$vector@PEAUVkPhysicalDevice_T@@V?$allocator@PEAUVkPhysicalDevice_T@@@std@@@std@@QEAAPEAPEAUVkPhysicalDevice_T@@XZ ; std::vector<VkPhysicalDevice_T * __ptr64,std::allocator<VkPhysicalDevice_T * __ptr64> >::data
PUBLIC	?_Buy@?$vector@PEAUVkPhysicalDevice_T@@V?$allocator@PEAUVkPhysicalDevice_T@@@std@@@std@@IEAA_N_K@Z ; std::vector<VkPhysicalDevice_T * __ptr64,std::allocator<VkPhysicalDevice_T * __ptr64> >::_Buy
PUBLIC	?_Destroy@?$vector@PEAUVkPhysicalDevice_T@@V?$allocator@PEAUVkPhysicalDevice_T@@@std@@@std@@IEAAXPEAPEAUVkPhysicalDevice_T@@0@Z ; std::vector<VkPhysicalDevice_T * __ptr64,std::allocator<VkPhysicalDevice_T * __ptr64> >::_Destroy
PUBLIC	?_Tidy@?$vector@PEAUVkPhysicalDevice_T@@V?$allocator@PEAUVkPhysicalDevice_T@@@std@@@std@@IEAAXXZ ; std::vector<VkPhysicalDevice_T * __ptr64,std::allocator<VkPhysicalDevice_T * __ptr64> >::_Tidy
PUBLIC	?_Xlen@?$vector@PEAUVkPhysicalDevice_T@@V?$allocator@PEAUVkPhysicalDevice_T@@@std@@@std@@IEBAXXZ ; std::vector<VkPhysicalDevice_T * __ptr64,std::allocator<VkPhysicalDevice_T * __ptr64> >::_Xlen
PUBLIC	?__autoclassinit2@?$vector@PEAUVkPhysicalDevice_T@@V?$allocator@PEAUVkPhysicalDevice_T@@@std@@@std@@QEAAX_K@Z ; std::vector<VkPhysicalDevice_T * __ptr64,std::allocator<VkPhysicalDevice_T * __ptr64> >::__autoclassinit2
PUBLIC	??0?$allocator@PEAUVkImageView_T@@@std@@QEAA@XZ	; std::allocator<VkImageView_T * __ptr64>::allocator<VkImageView_T * __ptr64>
PUBLIC	??0?$allocator@PEAUVkImageView_T@@@std@@QEAA@AEBV01@@Z ; std::allocator<VkImageView_T * __ptr64>::allocator<VkImageView_T * __ptr64>
PUBLIC	?deallocate@?$allocator@PEAUVkImageView_T@@@std@@QEAAXPEAPEAUVkImageView_T@@_K@Z ; std::allocator<VkImageView_T * __ptr64>::deallocate
PUBLIC	?allocate@?$allocator@PEAUVkImageView_T@@@std@@QEAAPEAPEAUVkImageView_T@@_K@Z ; std::allocator<VkImageView_T * __ptr64>::allocate
PUBLIC	?max_size@?$allocator@PEAUVkImageView_T@@@std@@QEBA_KXZ ; std::allocator<VkImageView_T * __ptr64>::max_size
PUBLIC	?max_size@?$allocator_traits@V?$allocator@PEAUVkImageView_T@@@std@@@std@@SA_KAEBV?$allocator@PEAUVkImageView_T@@@2@@Z ; std::allocator_traits<std::allocator<VkImageView_T * __ptr64> >::max_size
PUBLIC	??0?$_Wrap_alloc@V?$allocator@PEAUVkImageView_T@@@std@@@std@@QEAA@AEBV?$allocator@PEAUVkImageView_T@@@1@@Z ; std::_Wrap_alloc<std::allocator<VkImageView_T * __ptr64> >::_Wrap_alloc<std::allocator<VkImageView_T * __ptr64> >
PUBLIC	?allocate@?$_Wrap_alloc@V?$allocator@PEAUVkImageView_T@@@std@@@std@@QEAAPEAPEAUVkImageView_T@@_K@Z ; std::_Wrap_alloc<std::allocator<VkImageView_T * __ptr64> >::allocate
PUBLIC	?deallocate@?$_Wrap_alloc@V?$allocator@PEAUVkImageView_T@@@std@@@std@@QEAAXPEAPEAUVkImageView_T@@_K@Z ; std::_Wrap_alloc<std::allocator<VkImageView_T * __ptr64> >::deallocate
PUBLIC	?max_size@?$_Wrap_alloc@V?$allocator@PEAUVkImageView_T@@@std@@@std@@QEBA_KU_Nil@2@@Z ; std::_Wrap_alloc<std::allocator<VkImageView_T * __ptr64> >::max_size
PUBLIC	??0?$_Vector_alloc@U?$_Vec_base_types@PEAUVkImageView_T@@V?$allocator@PEAUVkImageView_T@@@std@@@std@@@std@@QEAA@AEBV?$allocator@PEAUVkImageView_T@@@1@@Z ; std::_Vector_alloc<std::_Vec_base_types<VkImageView_T * __ptr64,std::allocator<VkImageView_T * __ptr64> > >::_Vector_alloc<std::_Vec_base_types<VkImageView_T * __ptr64,std::allocator<VkImageView_T * __ptr64> > >
PUBLIC	??1?$_Vector_alloc@U?$_Vec_base_types@PEAUVkImageView_T@@V?$allocator@PEAUVkImageView_T@@@std@@@std@@@std@@QEAA@XZ ; std::_Vector_alloc<std::_Vec_base_types<VkImageView_T * __ptr64,std::allocator<VkImageView_T * __ptr64> > >::~_Vector_alloc<std::_Vec_base_types<VkImageView_T * __ptr64,std::allocator<VkImageView_T * __ptr64> > >
PUBLIC	?_Alloc_proxy@?$_Vector_alloc@U?$_Vec_base_types@PEAUVkImageView_T@@V?$allocator@PEAUVkImageView_T@@@std@@@std@@@std@@QEAAXXZ ; std::_Vector_alloc<std::_Vec_base_types<VkImageView_T * __ptr64,std::allocator<VkImageView_T * __ptr64> > >::_Alloc_proxy
PUBLIC	?_Free_proxy@?$_Vector_alloc@U?$_Vec_base_types@PEAUVkImageView_T@@V?$allocator@PEAUVkImageView_T@@@std@@@std@@@std@@QEAAXXZ ; std::_Vector_alloc<std::_Vec_base_types<VkImageView_T * __ptr64,std::allocator<VkImageView_T * __ptr64> > >::_Free_proxy
PUBLIC	?_Myproxy@?$_Vector_alloc@U?$_Vec_base_types@PEAUVkImageView_T@@V?$allocator@PEAUVkImageView_T@@@std@@@std@@@std@@QEAAAEAPEAU_Container_proxy@2@XZ ; std::_Vector_alloc<std::_Vec_base_types<VkImageView_T * __ptr64,std::allocator<VkImageView_T * __ptr64> > >::_Myproxy
PUBLIC	?_Orphan_all@?$_Vector_alloc@U?$_Vec_base_types@PEAUVkImageView_T@@V?$allocator@PEAUVkImageView_T@@@std@@@std@@@std@@QEAAXXZ ; std::_Vector_alloc<std::_Vec_base_types<VkImageView_T * __ptr64,std::allocator<VkImageView_T * __ptr64> > >::_Orphan_all
PUBLIC	?_Getal@?$_Vector_alloc@U?$_Vec_base_types@PEAUVkImageView_T@@V?$allocator@PEAUVkImageView_T@@@std@@@std@@@std@@QEAAAEAU?$_Wrap_alloc@V?$allocator@PEAUVkImageView_T@@@std@@@2@XZ ; std::_Vector_alloc<std::_Vec_base_types<VkImageView_T * __ptr64,std::allocator<VkImageView_T * __ptr64> > >::_Getal
PUBLIC	?_Getal@?$_Vector_alloc@U?$_Vec_base_types@PEAUVkImageView_T@@V?$allocator@PEAUVkImageView_T@@@std@@@std@@@std@@QEBAAEBU?$_Wrap_alloc@V?$allocator@PEAUVkImageView_T@@@std@@@2@XZ ; std::_Vector_alloc<std::_Vec_base_types<VkImageView_T * __ptr64,std::allocator<VkImageView_T * __ptr64> > >::_Getal
PUBLIC	?_Get_data@?$_Vector_alloc@U?$_Vec_base_types@PEAUVkImageView_T@@V?$allocator@PEAUVkImageView_T@@@std@@@std@@@std@@QEAAAEAV?$_Vector_val@U?$_Simple_types@PEAUVkImageView_T@@@std@@@2@XZ ; std::_Vector_alloc<std::_Vec_base_types<VkImageView_T * __ptr64,std::allocator<VkImageView_T * __ptr64> > >::_Get_data
PUBLIC	?_Get_data@?$_Vector_alloc@U?$_Vec_base_types@PEAUVkImageView_T@@V?$allocator@PEAUVkImageView_T@@@std@@@std@@@std@@QEBAAEBV?$_Vector_val@U?$_Simple_types@PEAUVkImageView_T@@@std@@@2@XZ ; std::_Vector_alloc<std::_Vec_base_types<VkImageView_T * __ptr64,std::allocator<VkImageView_T * __ptr64> > >::_Get_data
PUBLIC	?_Myfirst@?$_Vector_alloc@U?$_Vec_base_types@PEAUVkImageView_T@@V?$allocator@PEAUVkImageView_T@@@std@@@std@@@std@@QEAAAEAPEAPEAUVkImageView_T@@XZ ; std::_Vector_alloc<std::_Vec_base_types<VkImageView_T * __ptr64,std::allocator<VkImageView_T * __ptr64> > >::_Myfirst
PUBLIC	?_Myfirst@?$_Vector_alloc@U?$_Vec_base_types@PEAUVkImageView_T@@V?$allocator@PEAUVkImageView_T@@@std@@@std@@@std@@QEBAAEBQEAPEAUVkImageView_T@@XZ ; std::_Vector_alloc<std::_Vec_base_types<VkImageView_T * __ptr64,std::allocator<VkImageView_T * __ptr64> > >::_Myfirst
PUBLIC	?_Mylast@?$_Vector_alloc@U?$_Vec_base_types@PEAUVkImageView_T@@V?$allocator@PEAUVkImageView_T@@@std@@@std@@@std@@QEAAAEAPEAPEAUVkImageView_T@@XZ ; std::_Vector_alloc<std::_Vec_base_types<VkImageView_T * __ptr64,std::allocator<VkImageView_T * __ptr64> > >::_Mylast
PUBLIC	?_Mylast@?$_Vector_alloc@U?$_Vec_base_types@PEAUVkImageView_T@@V?$allocator@PEAUVkImageView_T@@@std@@@std@@@std@@QEBAAEBQEAPEAUVkImageView_T@@XZ ; std::_Vector_alloc<std::_Vec_base_types<VkImageView_T * __ptr64,std::allocator<VkImageView_T * __ptr64> > >::_Mylast
PUBLIC	?_Myend@?$_Vector_alloc@U?$_Vec_base_types@PEAUVkImageView_T@@V?$allocator@PEAUVkImageView_T@@@std@@@std@@@std@@QEAAAEAPEAPEAUVkImageView_T@@XZ ; std::_Vector_alloc<std::_Vec_base_types<VkImageView_T * __ptr64,std::allocator<VkImageView_T * __ptr64> > >::_Myend
PUBLIC	??0?$_Vector_val@U?$_Simple_types@PEAUVkImageView_T@@@std@@@std@@QEAA@XZ ; std::_Vector_val<std::_Simple_types<VkImageView_T * __ptr64> >::_Vector_val<std::_Simple_types<VkImageView_T * __ptr64> >
PUBLIC	??1?$_Vector_val@U?$_Simple_types@PEAUVkImageView_T@@@std@@@std@@QEAA@XZ ; std::_Vector_val<std::_Simple_types<VkImageView_T * __ptr64> >::~_Vector_val<std::_Simple_types<VkImageView_T * __ptr64> >
PUBLIC	?_Get_first@?$_Compressed_pair@U?$_Wrap_alloc@V?$allocator@PEAUVkImageView_T@@@std@@@std@@V?$_Vector_val@U?$_Simple_types@PEAUVkImageView_T@@@std@@@2@$00@std@@QEAAAEAU?$_Wrap_alloc@V?$allocator@PEAUVkImageView_T@@@std@@@2@XZ ; std::_Compressed_pair<std::_Wrap_alloc<std::allocator<VkImageView_T * __ptr64> >,std::_Vector_val<std::_Simple_types<VkImageView_T * __ptr64> >,1>::_Get_first
PUBLIC	?_Get_first@?$_Compressed_pair@U?$_Wrap_alloc@V?$allocator@PEAUVkImageView_T@@@std@@@std@@V?$_Vector_val@U?$_Simple_types@PEAUVkImageView_T@@@std@@@2@$00@std@@QEBAAEBU?$_Wrap_alloc@V?$allocator@PEAUVkImageView_T@@@std@@@2@XZ ; std::_Compressed_pair<std::_Wrap_alloc<std::allocator<VkImageView_T * __ptr64> >,std::_Vector_val<std::_Simple_types<VkImageView_T * __ptr64> >,1>::_Get_first
PUBLIC	?_Get_second@?$_Compressed_pair@U?$_Wrap_alloc@V?$allocator@PEAUVkImageView_T@@@std@@@std@@V?$_Vector_val@U?$_Simple_types@PEAUVkImageView_T@@@std@@@2@$00@std@@QEAAAEAV?$_Vector_val@U?$_Simple_types@PEAUVkImageView_T@@@std@@@2@XZ ; std::_Compressed_pair<std::_Wrap_alloc<std::allocator<VkImageView_T * __ptr64> >,std::_Vector_val<std::_Simple_types<VkImageView_T * __ptr64> >,1>::_Get_second
PUBLIC	?_Get_second@?$_Compressed_pair@U?$_Wrap_alloc@V?$allocator@PEAUVkImageView_T@@@std@@@std@@V?$_Vector_val@U?$_Simple_types@PEAUVkImageView_T@@@std@@@2@$00@std@@QEBAAEBV?$_Vector_val@U?$_Simple_types@PEAUVkImageView_T@@@std@@@2@XZ ; std::_Compressed_pair<std::_Wrap_alloc<std::allocator<VkImageView_T * __ptr64> >,std::_Vector_val<std::_Simple_types<VkImageView_T * __ptr64> >,1>::_Get_second
PUBLIC	??1?$_Compressed_pair@U?$_Wrap_alloc@V?$allocator@PEAUVkImageView_T@@@std@@@std@@V?$_Vector_val@U?$_Simple_types@PEAUVkImageView_T@@@std@@@2@$00@std@@QEAA@XZ ; std::_Compressed_pair<std::_Wrap_alloc<std::allocator<VkImageView_T * __ptr64> >,std::_Vector_val<std::_Simple_types<VkImageView_T * __ptr64> >,1>::~_Compressed_pair<std::_Wrap_alloc<std::allocator<VkImageView_T * __ptr64> >,std::_Vector_val<std::_Simple_types<VkImageView_T * __ptr64> >,1>
PUBLIC	??0?$vector@PEAUVkImageView_T@@V?$allocator@PEAUVkImageView_T@@@std@@@std@@QEAA@_K@Z ; std::vector<VkImageView_T * __ptr64,std::allocator<VkImageView_T * __ptr64> >::vector<VkImageView_T * __ptr64,std::allocator<VkImageView_T * __ptr64> >
PUBLIC	??1?$vector@PEAUVkImageView_T@@V?$allocator@PEAUVkImageView_T@@@std@@@std@@QEAA@XZ ; std::vector<VkImageView_T * __ptr64,std::allocator<VkImageView_T * __ptr64> >::~vector<VkImageView_T * __ptr64,std::allocator<VkImageView_T * __ptr64> >
PUBLIC	?size@?$vector@PEAUVkImageView_T@@V?$allocator@PEAUVkImageView_T@@@std@@@std@@QEBA_KXZ ; std::vector<VkImageView_T * __ptr64,std::allocator<VkImageView_T * __ptr64> >::size
PUBLIC	?max_size@?$vector@PEAUVkImageView_T@@V?$allocator@PEAUVkImageView_T@@@std@@@std@@QEBA_KXZ ; std::vector<VkImageView_T * __ptr64,std::allocator<VkImageView_T * __ptr64> >::max_size
PUBLIC	?at@?$vector@PEAUVkImageView_T@@V?$allocator@PEAUVkImageView_T@@@std@@@std@@QEAAAEAPEAUVkImageView_T@@_K@Z ; std::vector<VkImageView_T * __ptr64,std::allocator<VkImageView_T * __ptr64> >::at
PUBLIC	??A?$vector@PEAUVkImageView_T@@V?$allocator@PEAUVkImageView_T@@@std@@@std@@QEAAAEAPEAUVkImageView_T@@_K@Z ; std::vector<VkImageView_T * __ptr64,std::allocator<VkImageView_T * __ptr64> >::operator[]
PUBLIC	?data@?$vector@PEAUVkImageView_T@@V?$allocator@PEAUVkImageView_T@@@std@@@std@@QEAAPEAPEAUVkImageView_T@@XZ ; std::vector<VkImageView_T * __ptr64,std::allocator<VkImageView_T * __ptr64> >::data
PUBLIC	?_Buy@?$vector@PEAUVkImageView_T@@V?$allocator@PEAUVkImageView_T@@@std@@@std@@IEAA_N_K@Z ; std::vector<VkImageView_T * __ptr64,std::allocator<VkImageView_T * __ptr64> >::_Buy
PUBLIC	?_Destroy@?$vector@PEAUVkImageView_T@@V?$allocator@PEAUVkImageView_T@@@std@@@std@@IEAAXPEAPEAUVkImageView_T@@0@Z ; std::vector<VkImageView_T * __ptr64,std::allocator<VkImageView_T * __ptr64> >::_Destroy
PUBLIC	?_Tidy@?$vector@PEAUVkImageView_T@@V?$allocator@PEAUVkImageView_T@@@std@@@std@@IEAAXXZ ; std::vector<VkImageView_T * __ptr64,std::allocator<VkImageView_T * __ptr64> >::_Tidy
PUBLIC	?_Xlen@?$vector@PEAUVkImageView_T@@V?$allocator@PEAUVkImageView_T@@@std@@@std@@IEBAXXZ ; std::vector<VkImageView_T * __ptr64,std::allocator<VkImageView_T * __ptr64> >::_Xlen
PUBLIC	?_Xran@?$vector@PEAUVkImageView_T@@V?$allocator@PEAUVkImageView_T@@@std@@@std@@IEBAXXZ ; std::vector<VkImageView_T * __ptr64,std::allocator<VkImageView_T * __ptr64> >::_Xran
PUBLIC	?__autoclassinit2@?$vector@PEAUVkImageView_T@@V?$allocator@PEAUVkImageView_T@@@std@@@std@@QEAAX_K@Z ; std::vector<VkImageView_T * __ptr64,std::allocator<VkImageView_T * __ptr64> >::__autoclassinit2
PUBLIC	?NewShaderModule@Cy@@YAPEAUVkShaderModule_T@@PEAUVkDevice_T@@PEAII@Z ; Cy::NewShaderModule
PUBLIC	??0?$_Iterator012@Urandom_access_iterator_tag@std@@PEAUVkShaderModule_T@@_JPEBQEAU3@AEBQEAU3@U_Iterator_base12@2@@std@@QEAA@XZ ; std::_Iterator012<std::random_access_iterator_tag,VkShaderModule_T * __ptr64,__int64,VkShaderModule_T * __ptr64 const * __ptr64,VkShaderModule_T * __ptr64 const & __ptr64,std::_Iterator_base12>::_Iterator012<std::random_access_iterator_tag,VkShaderModule_T * __ptr64,__int64,VkShaderModule_T * __ptr64 const * __ptr64,VkShaderModule_T * __ptr64 const & __ptr64,std::_Iterator_base12>
PUBLIC	??1?$_Iterator012@Urandom_access_iterator_tag@std@@PEAUVkShaderModule_T@@_JPEBQEAU3@AEBQEAU3@U_Iterator_base12@2@@std@@QEAA@XZ ; std::_Iterator012<std::random_access_iterator_tag,VkShaderModule_T * __ptr64,__int64,VkShaderModule_T * __ptr64 const * __ptr64,VkShaderModule_T * __ptr64 const & __ptr64,std::_Iterator_base12>::~_Iterator012<std::random_access_iterator_tag,VkShaderModule_T * __ptr64,__int64,VkShaderModule_T * __ptr64 const * __ptr64,VkShaderModule_T * __ptr64 const & __ptr64,std::_Iterator_base12>
PUBLIC	??0?$_Vector_const_iterator@V?$_Vector_val@U?$_Simple_types@PEAUVkShaderModule_T@@@std@@@std@@@std@@QEAA@PEAPEAUVkShaderModule_T@@PEBU_Container_base12@1@@Z ; std::_Vector_const_iterator<std::_Vector_val<std::_Simple_types<VkShaderModule_T * __ptr64> > >::_Vector_const_iterator<std::_Vector_val<std::_Simple_types<VkShaderModule_T * __ptr64> > >
PUBLIC	??D?$_Vector_const_iterator@V?$_Vector_val@U?$_Simple_types@PEAUVkShaderModule_T@@@std@@@std@@@std@@QEBAAEBQEAUVkShaderModule_T@@XZ ; std::_Vector_const_iterator<std::_Vector_val<std::_Simple_types<VkShaderModule_T * __ptr64> > >::operator*
PUBLIC	??E?$_Vector_const_iterator@V?$_Vector_val@U?$_Simple_types@PEAUVkShaderModule_T@@@std@@@std@@@std@@QEAAAEAV01@XZ ; std::_Vector_const_iterator<std::_Vector_val<std::_Simple_types<VkShaderModule_T * __ptr64> > >::operator++
PUBLIC	??8?$_Vector_const_iterator@V?$_Vector_val@U?$_Simple_types@PEAUVkShaderModule_T@@@std@@@std@@@std@@QEBA_NAEBV01@@Z ; std::_Vector_const_iterator<std::_Vector_val<std::_Simple_types<VkShaderModule_T * __ptr64> > >::operator==
PUBLIC	??9?$_Vector_const_iterator@V?$_Vector_val@U?$_Simple_types@PEAUVkShaderModule_T@@@std@@@std@@@std@@QEBA_NAEBV01@@Z ; std::_Vector_const_iterator<std::_Vector_val<std::_Simple_types<VkShaderModule_T * __ptr64> > >::operator!=
PUBLIC	?_Compat@?$_Vector_const_iterator@V?$_Vector_val@U?$_Simple_types@PEAUVkShaderModule_T@@@std@@@std@@@std@@QEBAXAEBV12@@Z ; std::_Vector_const_iterator<std::_Vector_val<std::_Simple_types<VkShaderModule_T * __ptr64> > >::_Compat
PUBLIC	??1?$_Vector_const_iterator@V?$_Vector_val@U?$_Simple_types@PEAUVkShaderModule_T@@@std@@@std@@@std@@QEAA@XZ ; std::_Vector_const_iterator<std::_Vector_val<std::_Simple_types<VkShaderModule_T * __ptr64> > >::~_Vector_const_iterator<std::_Vector_val<std::_Simple_types<VkShaderModule_T * __ptr64> > >
PUBLIC	??0?$_Vector_iterator@V?$_Vector_val@U?$_Simple_types@PEAUVkShaderModule_T@@@std@@@std@@@std@@QEAA@PEAPEAUVkShaderModule_T@@PEBU_Container_base12@1@@Z ; std::_Vector_iterator<std::_Vector_val<std::_Simple_types<VkShaderModule_T * __ptr64> > >::_Vector_iterator<std::_Vector_val<std::_Simple_types<VkShaderModule_T * __ptr64> > >
PUBLIC	??D?$_Vector_iterator@V?$_Vector_val@U?$_Simple_types@PEAUVkShaderModule_T@@@std@@@std@@@std@@QEBAAEAPEAUVkShaderModule_T@@XZ ; std::_Vector_iterator<std::_Vector_val<std::_Simple_types<VkShaderModule_T * __ptr64> > >::operator*
PUBLIC	??E?$_Vector_iterator@V?$_Vector_val@U?$_Simple_types@PEAUVkShaderModule_T@@@std@@@std@@@std@@QEAAAEAV01@XZ ; std::_Vector_iterator<std::_Vector_val<std::_Simple_types<VkShaderModule_T * __ptr64> > >::operator++
PUBLIC	??1?$_Vector_iterator@V?$_Vector_val@U?$_Simple_types@PEAUVkShaderModule_T@@@std@@@std@@@std@@QEAA@XZ ; std::_Vector_iterator<std::_Vector_val<std::_Simple_types<VkShaderModule_T * __ptr64> > >::~_Vector_iterator<std::_Vector_val<std::_Simple_types<VkShaderModule_T * __ptr64> > >
PUBLIC	?__autoclassinit2@?$_Vector_iterator@V?$_Vector_val@U?$_Simple_types@PEAUVkShaderModule_T@@@std@@@std@@@std@@QEAAX_K@Z ; std::_Vector_iterator<std::_Vector_val<std::_Simple_types<VkShaderModule_T * __ptr64> > >::__autoclassinit2
PUBLIC	??$_Uninitialized_default_fill_n@PEAPEAUVkImageView_T@@_KU?$_Wrap_alloc@V?$allocator@PEAUVkImageView_T@@@std@@@std@@@std@@YAXPEAPEAUVkImageView_T@@_KAEAU?$_Wrap_alloc@V?$allocator@PEAUVkImageView_T@@@std@@@0@@Z ; std::_Uninitialized_default_fill_n<VkImageView_T * __ptr64 * __ptr64,unsigned __int64,std::_Wrap_alloc<std::allocator<VkImageView_T * __ptr64> > >
PUBLIC	??$move@AEAU?$_Wrap_alloc@V?$allocator@UVkExtensionProperties@@@std@@@std@@@std@@YA$$QEAU?$_Wrap_alloc@V?$allocator@UVkExtensionProperties@@@std@@@0@AEAU10@@Z ; std::move<std::_Wrap_alloc<std::allocator<VkExtensionProperties> > & __ptr64>
PUBLIC	??$forward@V?$vector@UVkExtensionProperties@@V?$allocator@UVkExtensionProperties@@@std@@@std@@@std@@YA$$QEAV?$vector@UVkExtensionProperties@@V?$allocator@UVkExtensionProperties@@@std@@@0@AEAV10@@Z ; std::forward<std::vector<VkExtensionProperties,std::allocator<VkExtensionProperties> > >
PUBLIC	??$_Uninitialized_default_fill_n@PEAUVkExtensionProperties@@_KU?$_Wrap_alloc@V?$allocator@UVkExtensionProperties@@@std@@@std@@@std@@YAXPEAUVkExtensionProperties@@_KAEAU?$_Wrap_alloc@V?$allocator@UVkExtensionProperties@@@std@@@0@@Z ; std::_Uninitialized_default_fill_n<VkExtensionProperties * __ptr64,unsigned __int64,std::_Wrap_alloc<std::allocator<VkExtensionProperties> > >
PUBLIC	??$move@AEAU?$_Wrap_alloc@V?$allocator@UVkLayerProperties@@@std@@@std@@@std@@YA$$QEAU?$_Wrap_alloc@V?$allocator@UVkLayerProperties@@@std@@@0@AEAU10@@Z ; std::move<std::_Wrap_alloc<std::allocator<VkLayerProperties> > & __ptr64>
PUBLIC	??$forward@V?$vector@UVkLayerProperties@@V?$allocator@UVkLayerProperties@@@std@@@std@@@std@@YA$$QEAV?$vector@UVkLayerProperties@@V?$allocator@UVkLayerProperties@@@std@@@0@AEAV10@@Z ; std::forward<std::vector<VkLayerProperties,std::allocator<VkLayerProperties> > >
PUBLIC	??$_Uninitialized_default_fill_n@PEAUVkLayerProperties@@_KU?$_Wrap_alloc@V?$allocator@UVkLayerProperties@@@std@@@std@@@std@@YAXPEAUVkLayerProperties@@_KAEAU?$_Wrap_alloc@V?$allocator@UVkLayerProperties@@@std@@@0@@Z ; std::_Uninitialized_default_fill_n<VkLayerProperties * __ptr64,unsigned __int64,std::_Wrap_alloc<std::allocator<VkLayerProperties> > >
PUBLIC	??$move@AEAU?$_Wrap_alloc@V?$allocator@PEAUVkPhysicalDevice_T@@@std@@@std@@@std@@YA$$QEAU?$_Wrap_alloc@V?$allocator@PEAUVkPhysicalDevice_T@@@std@@@0@AEAU10@@Z ; std::move<std::_Wrap_alloc<std::allocator<VkPhysicalDevice_T * __ptr64> > & __ptr64>
PUBLIC	??$forward@V?$vector@PEAUVkPhysicalDevice_T@@V?$allocator@PEAUVkPhysicalDevice_T@@@std@@@std@@@std@@YA$$QEAV?$vector@PEAUVkPhysicalDevice_T@@V?$allocator@PEAUVkPhysicalDevice_T@@@std@@@0@AEAV10@@Z ; std::forward<std::vector<VkPhysicalDevice_T * __ptr64,std::allocator<VkPhysicalDevice_T * __ptr64> > >
PUBLIC	??$_Uninitialized_default_fill_n@PEAPEAUVkPhysicalDevice_T@@_KU?$_Wrap_alloc@V?$allocator@PEAUVkPhysicalDevice_T@@@std@@@std@@@std@@YAXPEAPEAUVkPhysicalDevice_T@@_KAEAU?$_Wrap_alloc@V?$allocator@PEAUVkPhysicalDevice_T@@@std@@@0@@Z ; std::_Uninitialized_default_fill_n<VkPhysicalDevice_T * __ptr64 * __ptr64,unsigned __int64,std::_Wrap_alloc<std::allocator<VkPhysicalDevice_T * __ptr64> > >
PUBLIC	??$addressof@QEBD@std@@YAPEBQEBDAEBQEBD@Z	; std::addressof<char const * __ptr64 const>
PUBLIC	??$construct@PEBDAEAPEBD@?$_Wrap_alloc@V?$allocator@PEBD@std@@@std@@QEAAXPEAPEBDAEAPEBD@Z ; std::_Wrap_alloc<std::allocator<char const * __ptr64> >::construct<char const * __ptr64,char const * __ptr64 & __ptr64>
PUBLIC	??$construct@PEBDAEBQEBD@?$_Wrap_alloc@V?$allocator@PEBD@std@@@std@@QEAAXPEAPEBDAEBQEBD@Z ; std::_Wrap_alloc<std::allocator<char const * __ptr64> >::construct<char const * __ptr64,char const * __ptr64 const & __ptr64>
PUBLIC	??$addressof@QEAUVkShaderModule_T@@@std@@YAPEBQEAUVkShaderModule_T@@AEBQEAU1@@Z ; std::addressof<VkShaderModule_T * __ptr64 const>
PUBLIC	??$construct@PEAUVkShaderModule_T@@AEAPEAU1@@?$_Wrap_alloc@V?$allocator@PEAUVkShaderModule_T@@@std@@@std@@QEAAXPEAPEAUVkShaderModule_T@@AEAPEAU2@@Z ; std::_Wrap_alloc<std::allocator<VkShaderModule_T * __ptr64> >::construct<VkShaderModule_T * __ptr64,VkShaderModule_T * __ptr64 & __ptr64>
PUBLIC	??$construct@PEAUVkShaderModule_T@@AEBQEAU1@@?$_Wrap_alloc@V?$allocator@PEAUVkShaderModule_T@@@std@@@std@@QEAAXPEAPEAUVkShaderModule_T@@AEBQEAU2@@Z ; std::_Wrap_alloc<std::allocator<VkShaderModule_T * __ptr64> >::construct<VkShaderModule_T * __ptr64,VkShaderModule_T * __ptr64 const & __ptr64>
PUBLIC	??$move@AEAU?$_Wrap_alloc@V?$allocator@PEAUVkFramebuffer_T@@@std@@@std@@@std@@YA$$QEAU?$_Wrap_alloc@V?$allocator@PEAUVkFramebuffer_T@@@std@@@0@AEAU10@@Z ; std::move<std::_Wrap_alloc<std::allocator<VkFramebuffer_T * __ptr64> > & __ptr64>
PUBLIC	??$forward@V?$vector@PEAUVkFramebuffer_T@@V?$allocator@PEAUVkFramebuffer_T@@@std@@@std@@@std@@YA$$QEAV?$vector@PEAUVkFramebuffer_T@@V?$allocator@PEAUVkFramebuffer_T@@@std@@@0@AEAV10@@Z ; std::forward<std::vector<VkFramebuffer_T * __ptr64,std::allocator<VkFramebuffer_T * __ptr64> > >
PUBLIC	??$_Uninitialized_default_fill_n@PEAPEAUVkFramebuffer_T@@_KU?$_Wrap_alloc@V?$allocator@PEAUVkFramebuffer_T@@@std@@@std@@@std@@YAXPEAPEAUVkFramebuffer_T@@_KAEAU?$_Wrap_alloc@V?$allocator@PEAUVkFramebuffer_T@@@std@@@0@@Z ; std::_Uninitialized_default_fill_n<VkFramebuffer_T * __ptr64 * __ptr64,unsigned __int64,std::_Wrap_alloc<std::allocator<VkFramebuffer_T * __ptr64> > >
PUBLIC	??$move@AEAU?$_Wrap_alloc@V?$allocator@PEAUVkCommandBuffer_T@@@std@@@std@@@std@@YA$$QEAU?$_Wrap_alloc@V?$allocator@PEAUVkCommandBuffer_T@@@std@@@0@AEAU10@@Z ; std::move<std::_Wrap_alloc<std::allocator<VkCommandBuffer_T * __ptr64> > & __ptr64>
PUBLIC	??$forward@V?$vector@PEAUVkCommandBuffer_T@@V?$allocator@PEAUVkCommandBuffer_T@@@std@@@std@@@std@@YA$$QEAV?$vector@PEAUVkCommandBuffer_T@@V?$allocator@PEAUVkCommandBuffer_T@@@std@@@0@AEAV10@@Z ; std::forward<std::vector<VkCommandBuffer_T * __ptr64,std::allocator<VkCommandBuffer_T * __ptr64> > >
PUBLIC	??$_Uninitialized_default_fill_n@PEAPEAUVkCommandBuffer_T@@_KU?$_Wrap_alloc@V?$allocator@PEAUVkCommandBuffer_T@@@std@@@std@@@std@@YAXPEAPEAUVkCommandBuffer_T@@_KAEAU?$_Wrap_alloc@V?$allocator@PEAUVkCommandBuffer_T@@@std@@@0@@Z ; std::_Uninitialized_default_fill_n<VkCommandBuffer_T * __ptr64 * __ptr64,unsigned __int64,std::_Wrap_alloc<std::allocator<VkCommandBuffer_T * __ptr64> > >
PUBLIC	??$_Debug_pointer@$$CBD@std@@YAXPEBDPEBGI@Z	; std::_Debug_pointer<char const >
PUBLIC	??$move@AEAU?$_Wrap_alloc@V?$allocator@D@std@@@std@@@std@@YA$$QEAU?$_Wrap_alloc@V?$allocator@D@std@@@0@AEAU10@@Z ; std::move<std::_Wrap_alloc<std::allocator<char> > & __ptr64>
PUBLIC	??$forward@V?$basic_string@DU?$char_traits@D@std@@V?$allocator@D@2@@std@@@std@@YA$$QEAV?$basic_string@DU?$char_traits@D@std@@V?$allocator@D@2@@0@AEAV10@@Z ; std::forward<std::basic_string<char,std::char_traits<char>,std::allocator<char> > >
PUBLIC	??$?0AEBV?$allocator@PEAUVkImageView_T@@@std@@$$V@?$_Compressed_pair@U?$_Wrap_alloc@V?$allocator@PEAUVkImageView_T@@@std@@@std@@V?$_Vector_val@U?$_Simple_types@PEAUVkImageView_T@@@std@@@2@$00@std@@QEAA@U_One_then_variadic_args_t@1@AEBV?$allocator@PEAUVkImageView_T@@@1@@Z ; std::_Compressed_pair<std::_Wrap_alloc<std::allocator<VkImageView_T * __ptr64> >,std::_Vector_val<std::_Simple_types<VkImageView_T * __ptr64> >,1>::_Compressed_pair<std::_Wrap_alloc<std::allocator<VkImageView_T * __ptr64> >,std::_Vector_val<std::_Simple_types<VkImageView_T * __ptr64> >,1><std::allocator<VkImageView_T * __ptr64> const & __ptr64>
PUBLIC	??$move@AEAV?$allocator@PEAUVkPhysicalDevice_T@@@std@@@std@@YA$$QEAV?$allocator@PEAUVkPhysicalDevice_T@@@0@AEAV10@@Z ; std::move<std::allocator<VkPhysicalDevice_T * __ptr64> & __ptr64>
PUBLIC	??$?0V?$allocator@PEAUVkPhysicalDevice_T@@@std@@$$V@?$_Compressed_pair@U?$_Wrap_alloc@V?$allocator@PEAUVkPhysicalDevice_T@@@std@@@std@@V?$_Vector_val@U?$_Simple_types@PEAUVkPhysicalDevice_T@@@std@@@2@$00@std@@QEAA@U_One_then_variadic_args_t@1@$$QEAV?$allocator@PEAUVkPhysicalDevice_T@@@1@@Z ; std::_Compressed_pair<std::_Wrap_alloc<std::allocator<VkPhysicalDevice_T * __ptr64> >,std::_Vector_val<std::_Simple_types<VkPhysicalDevice_T * __ptr64> >,1>::_Compressed_pair<std::_Wrap_alloc<std::allocator<VkPhysicalDevice_T * __ptr64> >,std::_Vector_val<std::_Simple_types<VkPhysicalDevice_T * __ptr64> >,1><std::allocator<VkPhysicalDevice_T * __ptr64> >
PUBLIC	??$?0AEBV?$allocator@PEAUVkPhysicalDevice_T@@@std@@$$V@?$_Compressed_pair@U?$_Wrap_alloc@V?$allocator@PEAUVkPhysicalDevice_T@@@std@@@std@@V?$_Vector_val@U?$_Simple_types@PEAUVkPhysicalDevice_T@@@std@@@2@$00@std@@QEAA@U_One_then_variadic_args_t@1@AEBV?$allocator@PEAUVkPhysicalDevice_T@@@1@@Z ; std::_Compressed_pair<std::_Wrap_alloc<std::allocator<VkPhysicalDevice_T * __ptr64> >,std::_Vector_val<std::_Simple_types<VkPhysicalDevice_T * __ptr64> >,1>::_Compressed_pair<std::_Wrap_alloc<std::allocator<VkPhysicalDevice_T * __ptr64> >,std::_Vector_val<std::_Simple_types<VkPhysicalDevice_T * __ptr64> >,1><std::allocator<VkPhysicalDevice_T * __ptr64> const & __ptr64>
PUBLIC	??$move@AEAV?$allocator@UVkLayerProperties@@@std@@@std@@YA$$QEAV?$allocator@UVkLayerProperties@@@0@AEAV10@@Z ; std::move<std::allocator<VkLayerProperties> & __ptr64>
PUBLIC	??$?0V?$allocator@UVkLayerProperties@@@std@@$$V@?$_Compressed_pair@U?$_Wrap_alloc@V?$allocator@UVkLayerProperties@@@std@@@std@@V?$_Vector_val@U?$_Simple_types@UVkLayerProperties@@@std@@@2@$00@std@@QEAA@U_One_then_variadic_args_t@1@$$QEAV?$allocator@UVkLayerProperties@@@1@@Z ; std::_Compressed_pair<std::_Wrap_alloc<std::allocator<VkLayerProperties> >,std::_Vector_val<std::_Simple_types<VkLayerProperties> >,1>::_Compressed_pair<std::_Wrap_alloc<std::allocator<VkLayerProperties> >,std::_Vector_val<std::_Simple_types<VkLayerProperties> >,1><std::allocator<VkLayerProperties> >
PUBLIC	??$?0AEBV?$allocator@UVkLayerProperties@@@std@@$$V@?$_Compressed_pair@U?$_Wrap_alloc@V?$allocator@UVkLayerProperties@@@std@@@std@@V?$_Vector_val@U?$_Simple_types@UVkLayerProperties@@@std@@@2@$00@std@@QEAA@U_One_then_variadic_args_t@1@AEBV?$allocator@UVkLayerProperties@@@1@@Z ; std::_Compressed_pair<std::_Wrap_alloc<std::allocator<VkLayerProperties> >,std::_Vector_val<std::_Simple_types<VkLayerProperties> >,1>::_Compressed_pair<std::_Wrap_alloc<std::allocator<VkLayerProperties> >,std::_Vector_val<std::_Simple_types<VkLayerProperties> >,1><std::allocator<VkLayerProperties> const & __ptr64>
PUBLIC	??$move@AEAV?$allocator@UVkExtensionProperties@@@std@@@std@@YA$$QEAV?$allocator@UVkExtensionProperties@@@0@AEAV10@@Z ; std::move<std::allocator<VkExtensionProperties> & __ptr64>
PUBLIC	??$?0V?$allocator@UVkExtensionProperties@@@std@@$$V@?$_Compressed_pair@U?$_Wrap_alloc@V?$allocator@UVkExtensionProperties@@@std@@@std@@V?$_Vector_val@U?$_Simple_types@UVkExtensionProperties@@@std@@@2@$00@std@@QEAA@U_One_then_variadic_args_t@1@$$QEAV?$allocator@UVkExtensionProperties@@@1@@Z ; std::_Compressed_pair<std::_Wrap_alloc<std::allocator<VkExtensionProperties> >,std::_Vector_val<std::_Simple_types<VkExtensionProperties> >,1>::_Compressed_pair<std::_Wrap_alloc<std::allocator<VkExtensionProperties> >,std::_Vector_val<std::_Simple_types<VkExtensionProperties> >,1><std::allocator<VkExtensionProperties> >
PUBLIC	??$?0AEBV?$allocator@UVkExtensionProperties@@@std@@$$V@?$_Compressed_pair@U?$_Wrap_alloc@V?$allocator@UVkExtensionProperties@@@std@@@std@@V?$_Vector_val@U?$_Simple_types@UVkExtensionProperties@@@std@@@2@$00@std@@QEAA@U_One_then_variadic_args_t@1@AEBV?$allocator@UVkExtensionProperties@@@1@@Z ; std::_Compressed_pair<std::_Wrap_alloc<std::allocator<VkExtensionProperties> >,std::_Vector_val<std::_Simple_types<VkExtensionProperties> >,1>::_Compressed_pair<std::_Wrap_alloc<std::allocator<VkExtensionProperties> >,std::_Vector_val<std::_Simple_types<VkExtensionProperties> >,1><std::allocator<VkExtensionProperties> const & __ptr64>
PUBLIC	??$?0AEBV?$allocator@PEBD@std@@$$V@?$_Compressed_pair@U?$_Wrap_alloc@V?$allocator@PEBD@std@@@std@@V?$_Vector_val@U?$_Simple_types@PEBD@std@@@2@$00@std@@QEAA@U_One_then_variadic_args_t@1@AEBV?$allocator@PEBD@1@@Z ; std::_Compressed_pair<std::_Wrap_alloc<std::allocator<char const * __ptr64> >,std::_Vector_val<std::_Simple_types<char const * __ptr64> >,1>::_Compressed_pair<std::_Wrap_alloc<std::allocator<char const * __ptr64> >,std::_Vector_val<std::_Simple_types<char const * __ptr64> >,1><std::allocator<char const * __ptr64> const & __ptr64>
PUBLIC	??$move@AEAV?$allocator@PEAUVkFramebuffer_T@@@std@@@std@@YA$$QEAV?$allocator@PEAUVkFramebuffer_T@@@0@AEAV10@@Z ; std::move<std::allocator<VkFramebuffer_T * __ptr64> & __ptr64>
PUBLIC	??$?0V?$allocator@PEAUVkFramebuffer_T@@@std@@$$V@?$_Compressed_pair@U?$_Wrap_alloc@V?$allocator@PEAUVkFramebuffer_T@@@std@@@std@@V?$_Vector_val@U?$_Simple_types@PEAUVkFramebuffer_T@@@std@@@2@$00@std@@QEAA@U_One_then_variadic_args_t@1@$$QEAV?$allocator@PEAUVkFramebuffer_T@@@1@@Z ; std::_Compressed_pair<std::_Wrap_alloc<std::allocator<VkFramebuffer_T * __ptr64> >,std::_Vector_val<std::_Simple_types<VkFramebuffer_T * __ptr64> >,1>::_Compressed_pair<std::_Wrap_alloc<std::allocator<VkFramebuffer_T * __ptr64> >,std::_Vector_val<std::_Simple_types<VkFramebuffer_T * __ptr64> >,1><std::allocator<VkFramebuffer_T * __ptr64> >
PUBLIC	??$?0AEBV?$allocator@PEAUVkFramebuffer_T@@@std@@$$V@?$_Compressed_pair@U?$_Wrap_alloc@V?$allocator@PEAUVkFramebuffer_T@@@std@@@std@@V?$_Vector_val@U?$_Simple_types@PEAUVkFramebuffer_T@@@std@@@2@$00@std@@QEAA@U_One_then_variadic_args_t@1@AEBV?$allocator@PEAUVkFramebuffer_T@@@1@@Z ; std::_Compressed_pair<std::_Wrap_alloc<std::allocator<VkFramebuffer_T * __ptr64> >,std::_Vector_val<std::_Simple_types<VkFramebuffer_T * __ptr64> >,1>::_Compressed_pair<std::_Wrap_alloc<std::allocator<VkFramebuffer_T * __ptr64> >,std::_Vector_val<std::_Simple_types<VkFramebuffer_T * __ptr64> >,1><std::allocator<VkFramebuffer_T * __ptr64> const & __ptr64>
PUBLIC	??$move@AEAV?$allocator@PEAUVkCommandBuffer_T@@@std@@@std@@YA$$QEAV?$allocator@PEAUVkCommandBuffer_T@@@0@AEAV10@@Z ; std::move<std::allocator<VkCommandBuffer_T * __ptr64> & __ptr64>
PUBLIC	??$?0V?$allocator@PEAUVkCommandBuffer_T@@@std@@$$V@?$_Compressed_pair@U?$_Wrap_alloc@V?$allocator@PEAUVkCommandBuffer_T@@@std@@@std@@V?$_Vector_val@U?$_Simple_types@PEAUVkCommandBuffer_T@@@std@@@2@$00@std@@QEAA@U_One_then_variadic_args_t@1@$$QEAV?$allocator@PEAUVkCommandBuffer_T@@@1@@Z ; std::_Compressed_pair<std::_Wrap_alloc<std::allocator<VkCommandBuffer_T * __ptr64> >,std::_Vector_val<std::_Simple_types<VkCommandBuffer_T * __ptr64> >,1>::_Compressed_pair<std::_Wrap_alloc<std::allocator<VkCommandBuffer_T * __ptr64> >,std::_Vector_val<std::_Simple_types<VkCommandBuffer_T * __ptr64> >,1><std::allocator<VkCommandBuffer_T * __ptr64> >
PUBLIC	??$?0AEBV?$allocator@PEAUVkCommandBuffer_T@@@std@@$$V@?$_Compressed_pair@U?$_Wrap_alloc@V?$allocator@PEAUVkCommandBuffer_T@@@std@@@std@@V?$_Vector_val@U?$_Simple_types@PEAUVkCommandBuffer_T@@@std@@@2@$00@std@@QEAA@U_One_then_variadic_args_t@1@AEBV?$allocator@PEAUVkCommandBuffer_T@@@1@@Z ; std::_Compressed_pair<std::_Wrap_alloc<std::allocator<VkCommandBuffer_T * __ptr64> >,std::_Vector_val<std::_Simple_types<VkCommandBuffer_T * __ptr64> >,1>::_Compressed_pair<std::_Wrap_alloc<std::allocator<VkCommandBuffer_T * __ptr64> >,std::_Vector_val<std::_Simple_types<VkCommandBuffer_T * __ptr64> >,1><std::allocator<VkCommandBuffer_T * __ptr64> const & __ptr64>
PUBLIC	??$move@AEAV?$allocator@D@std@@@std@@YA$$QEAV?$allocator@D@0@AEAV10@@Z ; std::move<std::allocator<char> & __ptr64>
PUBLIC	??$?0V?$allocator@D@std@@$$V@?$_Compressed_pair@U?$_Wrap_alloc@V?$allocator@D@std@@@std@@V?$_String_val@U?$_Simple_types@D@std@@@2@$00@std@@QEAA@U_One_then_variadic_args_t@1@$$QEAV?$allocator@D@1@@Z ; std::_Compressed_pair<std::_Wrap_alloc<std::allocator<char> >,std::_String_val<std::_Simple_types<char> >,1>::_Compressed_pair<std::_Wrap_alloc<std::allocator<char> >,std::_String_val<std::_Simple_types<char> >,1><std::allocator<char> >
PUBLIC	??$?0AEBV?$allocator@D@std@@$$V@?$_Compressed_pair@U?$_Wrap_alloc@V?$allocator@D@std@@@std@@V?$_String_val@U?$_Simple_types@D@std@@@2@$00@std@@QEAA@U_One_then_variadic_args_t@1@AEBV?$allocator@D@1@@Z ; std::_Compressed_pair<std::_Wrap_alloc<std::allocator<char> >,std::_String_val<std::_Simple_types<char> >,1>::_Compressed_pair<std::_Wrap_alloc<std::allocator<char> >,std::_String_val<std::_Simple_types<char> >,1><std::allocator<char> const & __ptr64>
PUBLIC	??$destroy@PEAD@?$_Wrap_alloc@V?$allocator@D@std@@@std@@QEAAXPEAPEAD@Z ; std::_Wrap_alloc<std::allocator<char> >::destroy<char * __ptr64>
PUBLIC	??$addressof@D@std@@YAPEADAEAD@Z		; std::addressof<char>
PUBLIC	??$_Debug_pointer_if@$$CBD@std@@YAX_NPEBDPEBGI@Z ; std::_Debug_pointer_if<char const >
PUBLIC	??$construct@PEADAEAPEAD@?$_Wrap_alloc@V?$allocator@D@std@@@std@@QEAAXPEAPEADAEAPEAD@Z ; std::_Wrap_alloc<std::allocator<char> >::construct<char * __ptr64,char * __ptr64 & __ptr64>
PUBLIC	?deallocate@?$allocator@U_Container_proxy@std@@@std@@QEAAXPEAU_Container_proxy@2@_K@Z ; std::allocator<std::_Container_proxy>::deallocate
PUBLIC	?allocate@?$allocator@U_Container_proxy@std@@@std@@QEAAPEAU_Container_proxy@2@_K@Z ; std::allocator<std::_Container_proxy>::allocate
PUBLIC	?allocate@?$_Wrap_alloc@V?$allocator@U_Container_proxy@std@@@std@@@std@@QEAAPEAU_Container_proxy@2@_K@Z ; std::_Wrap_alloc<std::allocator<std::_Container_proxy> >::allocate
PUBLIC	?deallocate@?$_Wrap_alloc@V?$allocator@U_Container_proxy@std@@@std@@@std@@QEAAXPEAU_Container_proxy@2@_K@Z ; std::_Wrap_alloc<std::allocator<std::_Container_proxy> >::deallocate
PUBLIC	??$?0U?$_Wrap_alloc@V?$allocator@PEAUVkImageView_T@@@std@@@std@@@?$_Wrap_alloc@V?$allocator@U_Container_proxy@std@@@std@@@std@@QEAA@AEAU?$_Wrap_alloc@V?$allocator@PEAUVkImageView_T@@@std@@@1@@Z ; std::_Wrap_alloc<std::allocator<std::_Container_proxy> >::_Wrap_alloc<std::allocator<std::_Container_proxy> ><std::_Wrap_alloc<std::allocator<VkImageView_T * __ptr64> > >
PUBLIC	??$?0PEAUVkImageView_T@@@?$allocator@U_Container_proxy@std@@@std@@QEAA@AEBV?$allocator@PEAUVkImageView_T@@@1@@Z ; std::allocator<std::_Container_proxy>::allocator<std::_Container_proxy><VkImageView_T * __ptr64>
PUBLIC	??$destroy@U_Container_proxy@std@@@?$_Wrap_alloc@V?$allocator@U_Container_proxy@std@@@std@@@std@@QEAAXPEAU_Container_proxy@1@@Z ; std::_Wrap_alloc<std::allocator<std::_Container_proxy> >::destroy<std::_Container_proxy>
PUBLIC	??$construct@U_Container_proxy@std@@U12@@?$_Wrap_alloc@V?$allocator@U_Container_proxy@std@@@std@@@std@@QEAAXPEAU_Container_proxy@1@$$QEAU21@@Z ; std::_Wrap_alloc<std::allocator<std::_Container_proxy> >::construct<std::_Container_proxy,std::_Container_proxy>
PUBLIC	??$?0U?$_Wrap_alloc@V?$allocator@PEAUVkPhysicalDevice_T@@@std@@@std@@@?$_Wrap_alloc@V?$allocator@U_Container_proxy@std@@@std@@@std@@QEAA@AEAU?$_Wrap_alloc@V?$allocator@PEAUVkPhysicalDevice_T@@@std@@@1@@Z ; std::_Wrap_alloc<std::allocator<std::_Container_proxy> >::_Wrap_alloc<std::allocator<std::_Container_proxy> ><std::_Wrap_alloc<std::allocator<VkPhysicalDevice_T * __ptr64> > >
PUBLIC	??$?0PEAUVkPhysicalDevice_T@@@?$allocator@U_Container_proxy@std@@@std@@QEAA@AEBV?$allocator@PEAUVkPhysicalDevice_T@@@1@@Z ; std::allocator<std::_Container_proxy>::allocator<std::_Container_proxy><VkPhysicalDevice_T * __ptr64>
PUBLIC	??$?0U?$_Wrap_alloc@V?$allocator@UVkLayerProperties@@@std@@@std@@@?$_Wrap_alloc@V?$allocator@U_Container_proxy@std@@@std@@@std@@QEAA@AEAU?$_Wrap_alloc@V?$allocator@UVkLayerProperties@@@std@@@1@@Z ; std::_Wrap_alloc<std::allocator<std::_Container_proxy> >::_Wrap_alloc<std::allocator<std::_Container_proxy> ><std::_Wrap_alloc<std::allocator<VkLayerProperties> > >
PUBLIC	??$?0UVkLayerProperties@@@?$allocator@U_Container_proxy@std@@@std@@QEAA@AEBV?$allocator@UVkLayerProperties@@@1@@Z ; std::allocator<std::_Container_proxy>::allocator<std::_Container_proxy><VkLayerProperties>
PUBLIC	??$?0U?$_Wrap_alloc@V?$allocator@UVkExtensionProperties@@@std@@@std@@@?$_Wrap_alloc@V?$allocator@U_Container_proxy@std@@@std@@@std@@QEAA@AEAU?$_Wrap_alloc@V?$allocator@UVkExtensionProperties@@@std@@@1@@Z ; std::_Wrap_alloc<std::allocator<std::_Container_proxy> >::_Wrap_alloc<std::allocator<std::_Container_proxy> ><std::_Wrap_alloc<std::allocator<VkExtensionProperties> > >
PUBLIC	??$?0UVkExtensionProperties@@@?$allocator@U_Container_proxy@std@@@std@@QEAA@AEBV?$allocator@UVkExtensionProperties@@@1@@Z ; std::allocator<std::_Container_proxy>::allocator<std::_Container_proxy><VkExtensionProperties>
PUBLIC	??$_Destroy_range@U?$_Wrap_alloc@V?$allocator@PEAUVkImageView_T@@@std@@@std@@@std@@YAXPEAPEAUVkImageView_T@@0AEAU?$_Wrap_alloc@V?$allocator@PEAUVkImageView_T@@@std@@@0@@Z ; std::_Destroy_range<std::_Wrap_alloc<std::allocator<VkImageView_T * __ptr64> > >
PUBLIC	??$_Destroy_range@U?$_Wrap_alloc@V?$allocator@UVkExtensionProperties@@@std@@@std@@@std@@YAXPEAUVkExtensionProperties@@0AEAU?$_Wrap_alloc@V?$allocator@UVkExtensionProperties@@@std@@@0@@Z ; std::_Destroy_range<std::_Wrap_alloc<std::allocator<VkExtensionProperties> > >
PUBLIC	??$_Destroy_range@U?$_Wrap_alloc@V?$allocator@UVkLayerProperties@@@std@@@std@@@std@@YAXPEAUVkLayerProperties@@0AEAU?$_Wrap_alloc@V?$allocator@UVkLayerProperties@@@std@@@0@@Z ; std::_Destroy_range<std::_Wrap_alloc<std::allocator<VkLayerProperties> > >
PUBLIC	??$_Destroy_range@U?$_Wrap_alloc@V?$allocator@PEAUVkPhysicalDevice_T@@@std@@@std@@@std@@YAXPEAPEAUVkPhysicalDevice_T@@0AEAU?$_Wrap_alloc@V?$allocator@PEAUVkPhysicalDevice_T@@@std@@@0@@Z ; std::_Destroy_range<std::_Wrap_alloc<std::allocator<VkPhysicalDevice_T * __ptr64> > >
PUBLIC	??$?0U?$_Wrap_alloc@V?$allocator@PEBD@std@@@std@@@?$_Wrap_alloc@V?$allocator@U_Container_proxy@std@@@std@@@std@@QEAA@AEAU?$_Wrap_alloc@V?$allocator@PEBD@std@@@1@@Z ; std::_Wrap_alloc<std::allocator<std::_Container_proxy> >::_Wrap_alloc<std::allocator<std::_Container_proxy> ><std::_Wrap_alloc<std::allocator<char const * __ptr64> > >
PUBLIC	??$?0PEBD@?$allocator@U_Container_proxy@std@@@std@@QEAA@AEBV?$allocator@PEBD@1@@Z ; std::allocator<std::_Container_proxy>::allocator<std::_Container_proxy><char const * __ptr64>
PUBLIC	??$_Umove@PEAPEBD@?$vector@PEBDV?$allocator@PEBD@std@@@std@@IEAAPEAPEBDPEAPEBD00@Z ; std::vector<char const * __ptr64,std::allocator<char const * __ptr64> >::_Umove<char const * __ptr64 * __ptr64>
PUBLIC	??$_Destroy_range@U?$_Wrap_alloc@V?$allocator@PEBD@std@@@std@@@std@@YAXPEAPEBD0AEAU?$_Wrap_alloc@V?$allocator@PEBD@std@@@0@@Z ; std::_Destroy_range<std::_Wrap_alloc<std::allocator<char const * __ptr64> > >
PUBLIC	??$_Umove@PEAPEAUVkShaderModule_T@@@?$vector@PEAUVkShaderModule_T@@V?$allocator@PEAUVkShaderModule_T@@@std@@@std@@IEAAPEAPEAUVkShaderModule_T@@PEAPEAU2@00@Z ; std::vector<VkShaderModule_T * __ptr64,std::allocator<VkShaderModule_T * __ptr64> >::_Umove<VkShaderModule_T * __ptr64 * __ptr64>
PUBLIC	??$?0U?$_Wrap_alloc@V?$allocator@PEAUVkFramebuffer_T@@@std@@@std@@@?$_Wrap_alloc@V?$allocator@U_Container_proxy@std@@@std@@@std@@QEAA@AEAU?$_Wrap_alloc@V?$allocator@PEAUVkFramebuffer_T@@@std@@@1@@Z ; std::_Wrap_alloc<std::allocator<std::_Container_proxy> >::_Wrap_alloc<std::allocator<std::_Container_proxy> ><std::_Wrap_alloc<std::allocator<VkFramebuffer_T * __ptr64> > >
PUBLIC	??$?0PEAUVkFramebuffer_T@@@?$allocator@U_Container_proxy@std@@@std@@QEAA@AEBV?$allocator@PEAUVkFramebuffer_T@@@1@@Z ; std::allocator<std::_Container_proxy>::allocator<std::_Container_proxy><VkFramebuffer_T * __ptr64>
PUBLIC	??$_Destroy_range@U?$_Wrap_alloc@V?$allocator@PEAUVkFramebuffer_T@@@std@@@std@@@std@@YAXPEAPEAUVkFramebuffer_T@@0AEAU?$_Wrap_alloc@V?$allocator@PEAUVkFramebuffer_T@@@std@@@0@@Z ; std::_Destroy_range<std::_Wrap_alloc<std::allocator<VkFramebuffer_T * __ptr64> > >
PUBLIC	??$?0U?$_Wrap_alloc@V?$allocator@PEAUVkCommandBuffer_T@@@std@@@std@@@?$_Wrap_alloc@V?$allocator@U_Container_proxy@std@@@std@@@std@@QEAA@AEAU?$_Wrap_alloc@V?$allocator@PEAUVkCommandBuffer_T@@@std@@@1@@Z ; std::_Wrap_alloc<std::allocator<std::_Container_proxy> >::_Wrap_alloc<std::allocator<std::_Container_proxy> ><std::_Wrap_alloc<std::allocator<VkCommandBuffer_T * __ptr64> > >
PUBLIC	??$?0PEAUVkCommandBuffer_T@@@?$allocator@U_Container_proxy@std@@@std@@QEAA@AEBV?$allocator@PEAUVkCommandBuffer_T@@@1@@Z ; std::allocator<std::_Container_proxy>::allocator<std::_Container_proxy><VkCommandBuffer_T * __ptr64>
PUBLIC	??$_Destroy_range@U?$_Wrap_alloc@V?$allocator@PEAUVkCommandBuffer_T@@@std@@@std@@@std@@YAXPEAPEAUVkCommandBuffer_T@@0AEAU?$_Wrap_alloc@V?$allocator@PEAUVkCommandBuffer_T@@@std@@@0@@Z ; std::_Destroy_range<std::_Wrap_alloc<std::allocator<VkCommandBuffer_T * __ptr64> > >
PUBLIC	??$?0U?$_Wrap_alloc@V?$allocator@D@std@@@std@@@?$_Wrap_alloc@V?$allocator@U_Container_proxy@std@@@std@@@std@@QEAA@AEAU?$_Wrap_alloc@V?$allocator@D@std@@@1@@Z ; std::_Wrap_alloc<std::allocator<std::_Container_proxy> >::_Wrap_alloc<std::allocator<std::_Container_proxy> ><std::_Wrap_alloc<std::allocator<char> > >
PUBLIC	??$?0D@?$allocator@U_Container_proxy@std@@@std@@QEAA@AEBV?$allocator@D@1@@Z ; std::allocator<std::_Container_proxy>::allocator<std::_Container_proxy><char>
PUBLIC	??$_Destroy_range@U?$_Wrap_alloc@V?$allocator@PEAUVkShaderModule_T@@@std@@@std@@@std@@YAXPEAPEAUVkShaderModule_T@@0AEAU?$_Wrap_alloc@V?$allocator@PEAUVkShaderModule_T@@@std@@@0@@Z ; std::_Destroy_range<std::_Wrap_alloc<std::allocator<VkShaderModule_T * __ptr64> > >
PUBLIC	??$move@AEAV?$basic_string@DU?$char_traits@D@std@@V?$allocator@D@2@@std@@@std@@YA$$QEAV?$basic_string@DU?$char_traits@D@std@@V?$allocator@D@2@@0@AEAV10@@Z ; std::move<std::basic_string<char,std::char_traits<char>,std::allocator<char> > & __ptr64>
PUBLIC	??0_Sentry_base@?$basic_istream@DU?$char_traits@D@std@@@std@@QEAA@AEAV12@@Z ; std::basic_istream<char,std::char_traits<char> >::_Sentry_base::_Sentry_base
PUBLIC	??1_Sentry_base@?$basic_istream@DU?$char_traits@D@std@@@std@@QEAA@XZ ; std::basic_istream<char,std::char_traits<char> >::_Sentry_base::~_Sentry_base
PUBLIC	??0sentry@?$basic_istream@DU?$char_traits@D@std@@@std@@QEAA@AEAV12@_N@Z ; std::basic_istream<char,std::char_traits<char> >::sentry::sentry
PUBLIC	??Bsentry@?$basic_istream@DU?$char_traits@D@std@@@std@@QEBA_NXZ ; std::basic_istream<char,std::char_traits<char> >::sentry::operator bool
PUBLIC	??1sentry@?$basic_istream@DU?$char_traits@D@std@@@std@@QEAA@XZ ; std::basic_istream<char,std::char_traits<char> >::sentry::~sentry
PUBLIC	??$_Val_type@PEAPEAUVkImageView_T@@@std@@YAPEAPEAUVkImageView_T@@PEAPEAU1@@Z ; std::_Val_type<VkImageView_T * __ptr64 * __ptr64>
PUBLIC	??$_Ptr_cat@PEAUVkImageView_T@@PEAU1@@std@@YA?AU_Scalar_ptr_iterator_tag@0@PEAPEAUVkImageView_T@@0@Z ; std::_Ptr_cat<VkImageView_T * __ptr64,VkImageView_T * __ptr64>
PUBLIC	??$_Uninit_def_fill_n@PEAUVkImageView_T@@_KPEAU1@@std@@YAXPEAPEAUVkImageView_T@@_KAEAU?$_Wrap_alloc@V?$allocator@PEAUVkImageView_T@@@std@@@0@0U_Scalar_ptr_iterator_tag@0@@Z ; std::_Uninit_def_fill_n<VkImageView_T * __ptr64,unsigned __int64,VkImageView_T * __ptr64>
PUBLIC	??$_Val_type@PEAUVkExtensionProperties@@@std@@YAPEAUVkExtensionProperties@@PEAU1@@Z ; std::_Val_type<VkExtensionProperties * __ptr64>
PUBLIC	??$_Ptr_cat@UVkExtensionProperties@@U1@@std@@YA?AU_Nonscalar_ptr_iterator_tag@0@PEAUVkExtensionProperties@@0@Z ; std::_Ptr_cat<VkExtensionProperties,VkExtensionProperties>
PUBLIC	??$_Uninit_def_fill_n@PEAUVkExtensionProperties@@_KV?$allocator@UVkExtensionProperties@@@std@@U1@@std@@YAXPEAUVkExtensionProperties@@_KAEAU?$_Wrap_alloc@V?$allocator@UVkExtensionProperties@@@std@@@0@0U_Nonscalar_ptr_iterator_tag@0@@Z ; std::_Uninit_def_fill_n<VkExtensionProperties * __ptr64,unsigned __int64,std::allocator<VkExtensionProperties>,VkExtensionProperties>
PUBLIC	??$_Val_type@PEAUVkLayerProperties@@@std@@YAPEAUVkLayerProperties@@PEAU1@@Z ; std::_Val_type<VkLayerProperties * __ptr64>
PUBLIC	??$_Ptr_cat@UVkLayerProperties@@U1@@std@@YA?AU_Nonscalar_ptr_iterator_tag@0@PEAUVkLayerProperties@@0@Z ; std::_Ptr_cat<VkLayerProperties,VkLayerProperties>
PUBLIC	??$_Uninit_def_fill_n@PEAUVkLayerProperties@@_KV?$allocator@UVkLayerProperties@@@std@@U1@@std@@YAXPEAUVkLayerProperties@@_KAEAU?$_Wrap_alloc@V?$allocator@UVkLayerProperties@@@std@@@0@0U_Nonscalar_ptr_iterator_tag@0@@Z ; std::_Uninit_def_fill_n<VkLayerProperties * __ptr64,unsigned __int64,std::allocator<VkLayerProperties>,VkLayerProperties>
PUBLIC	??$_Val_type@PEAPEAUVkPhysicalDevice_T@@@std@@YAPEAPEAUVkPhysicalDevice_T@@PEAPEAU1@@Z ; std::_Val_type<VkPhysicalDevice_T * __ptr64 * __ptr64>
PUBLIC	??$_Ptr_cat@PEAUVkPhysicalDevice_T@@PEAU1@@std@@YA?AU_Scalar_ptr_iterator_tag@0@PEAPEAUVkPhysicalDevice_T@@0@Z ; std::_Ptr_cat<VkPhysicalDevice_T * __ptr64,VkPhysicalDevice_T * __ptr64>
PUBLIC	??$_Uninit_def_fill_n@PEAUVkPhysicalDevice_T@@_KPEAU1@@std@@YAXPEAPEAUVkPhysicalDevice_T@@_KAEAU?$_Wrap_alloc@V?$allocator@PEAUVkPhysicalDevice_T@@@std@@@0@0U_Scalar_ptr_iterator_tag@0@@Z ; std::_Uninit_def_fill_n<VkPhysicalDevice_T * __ptr64,unsigned __int64,VkPhysicalDevice_T * __ptr64>
PUBLIC	??$_Addressof@QEBD@std@@YAPEBQEBDAEBQEBDU?$integral_constant@_N$0A@@0@@Z ; std::_Addressof<char const * __ptr64 const>
PUBLIC	??$forward@AEAPEBD@std@@YAAEAPEBDAEAPEBD@Z	; std::forward<char const * __ptr64 & __ptr64>
PUBLIC	??$construct@PEBDAEAPEBD@?$allocator_traits@V?$allocator@PEBD@std@@@std@@SAXAEAV?$allocator@PEBD@1@PEAPEBDAEAPEBD@Z ; std::allocator_traits<std::allocator<char const * __ptr64> >::construct<char const * __ptr64,char const * __ptr64 & __ptr64>
PUBLIC	??$forward@AEBQEBD@std@@YAAEBQEBDAEBQEBD@Z	; std::forward<char const * __ptr64 const & __ptr64>
PUBLIC	??$construct@PEBDAEBQEBD@?$allocator_traits@V?$allocator@PEBD@std@@@std@@SAXAEAV?$allocator@PEBD@1@PEAPEBDAEBQEBD@Z ; std::allocator_traits<std::allocator<char const * __ptr64> >::construct<char const * __ptr64,char const * __ptr64 const & __ptr64>
PUBLIC	??$_Addressof@QEAUVkShaderModule_T@@@std@@YAPEBQEAUVkShaderModule_T@@AEBQEAU1@U?$integral_constant@_N$0A@@0@@Z ; std::_Addressof<VkShaderModule_T * __ptr64 const>
PUBLIC	??$forward@AEAPEAUVkShaderModule_T@@@std@@YAAEAPEAUVkShaderModule_T@@AEAPEAU1@@Z ; std::forward<VkShaderModule_T * __ptr64 & __ptr64>
PUBLIC	??$construct@PEAUVkShaderModule_T@@AEAPEAU1@@?$allocator_traits@V?$allocator@PEAUVkShaderModule_T@@@std@@@std@@SAXAEAV?$allocator@PEAUVkShaderModule_T@@@1@PEAPEAUVkShaderModule_T@@AEAPEAU3@@Z ; std::allocator_traits<std::allocator<VkShaderModule_T * __ptr64> >::construct<VkShaderModule_T * __ptr64,VkShaderModule_T * __ptr64 & __ptr64>
PUBLIC	??$forward@AEBQEAUVkShaderModule_T@@@std@@YAAEBQEAUVkShaderModule_T@@AEBQEAU1@@Z ; std::forward<VkShaderModule_T * __ptr64 const & __ptr64>
PUBLIC	??$construct@PEAUVkShaderModule_T@@AEBQEAU1@@?$allocator_traits@V?$allocator@PEAUVkShaderModule_T@@@std@@@std@@SAXAEAV?$allocator@PEAUVkShaderModule_T@@@1@PEAPEAUVkShaderModule_T@@AEBQEAU3@@Z ; std::allocator_traits<std::allocator<VkShaderModule_T * __ptr64> >::construct<VkShaderModule_T * __ptr64,VkShaderModule_T * __ptr64 const & __ptr64>
PUBLIC	??$_Val_type@PEAPEAUVkFramebuffer_T@@@std@@YAPEAPEAUVkFramebuffer_T@@PEAPEAU1@@Z ; std::_Val_type<VkFramebuffer_T * __ptr64 * __ptr64>
PUBLIC	??$_Ptr_cat@PEAUVkFramebuffer_T@@PEAU1@@std@@YA?AU_Scalar_ptr_iterator_tag@0@PEAPEAUVkFramebuffer_T@@0@Z ; std::_Ptr_cat<VkFramebuffer_T * __ptr64,VkFramebuffer_T * __ptr64>
PUBLIC	??$_Uninit_def_fill_n@PEAUVkFramebuffer_T@@_KPEAU1@@std@@YAXPEAPEAUVkFramebuffer_T@@_KAEAU?$_Wrap_alloc@V?$allocator@PEAUVkFramebuffer_T@@@std@@@0@0U_Scalar_ptr_iterator_tag@0@@Z ; std::_Uninit_def_fill_n<VkFramebuffer_T * __ptr64,unsigned __int64,VkFramebuffer_T * __ptr64>
PUBLIC	??$_Val_type@PEAPEAUVkCommandBuffer_T@@@std@@YAPEAPEAUVkCommandBuffer_T@@PEAPEAU1@@Z ; std::_Val_type<VkCommandBuffer_T * __ptr64 * __ptr64>
PUBLIC	??$_Ptr_cat@PEAUVkCommandBuffer_T@@PEAU1@@std@@YA?AU_Scalar_ptr_iterator_tag@0@PEAPEAUVkCommandBuffer_T@@0@Z ; std::_Ptr_cat<VkCommandBuffer_T * __ptr64,VkCommandBuffer_T * __ptr64>
PUBLIC	??$_Uninit_def_fill_n@PEAUVkCommandBuffer_T@@_KPEAU1@@std@@YAXPEAPEAUVkCommandBuffer_T@@_KAEAU?$_Wrap_alloc@V?$allocator@PEAUVkCommandBuffer_T@@@std@@@0@0U_Scalar_ptr_iterator_tag@0@@Z ; std::_Uninit_def_fill_n<VkCommandBuffer_T * __ptr64,unsigned __int64,VkCommandBuffer_T * __ptr64>
PUBLIC	??$forward@AEBV?$allocator@PEAUVkImageView_T@@@std@@@std@@YAAEBV?$allocator@PEAUVkImageView_T@@@0@AEBV10@@Z ; std::forward<std::allocator<VkImageView_T * __ptr64> const & __ptr64>
PUBLIC	??$forward@V?$allocator@PEAUVkPhysicalDevice_T@@@std@@@std@@YA$$QEAV?$allocator@PEAUVkPhysicalDevice_T@@@0@AEAV10@@Z ; std::forward<std::allocator<VkPhysicalDevice_T * __ptr64> >
PUBLIC	??$forward@AEBV?$allocator@PEAUVkPhysicalDevice_T@@@std@@@std@@YAAEBV?$allocator@PEAUVkPhysicalDevice_T@@@0@AEBV10@@Z ; std::forward<std::allocator<VkPhysicalDevice_T * __ptr64> const & __ptr64>
PUBLIC	??$forward@V?$allocator@UVkLayerProperties@@@std@@@std@@YA$$QEAV?$allocator@UVkLayerProperties@@@0@AEAV10@@Z ; std::forward<std::allocator<VkLayerProperties> >
PUBLIC	??$forward@AEBV?$allocator@UVkLayerProperties@@@std@@@std@@YAAEBV?$allocator@UVkLayerProperties@@@0@AEBV10@@Z ; std::forward<std::allocator<VkLayerProperties> const & __ptr64>
PUBLIC	??$forward@V?$allocator@UVkExtensionProperties@@@std@@@std@@YA$$QEAV?$allocator@UVkExtensionProperties@@@0@AEAV10@@Z ; std::forward<std::allocator<VkExtensionProperties> >
PUBLIC	??$forward@AEBV?$allocator@UVkExtensionProperties@@@std@@@std@@YAAEBV?$allocator@UVkExtensionProperties@@@0@AEBV10@@Z ; std::forward<std::allocator<VkExtensionProperties> const & __ptr64>
PUBLIC	??$forward@AEBV?$allocator@PEBD@std@@@std@@YAAEBV?$allocator@PEBD@0@AEBV10@@Z ; std::forward<std::allocator<char const * __ptr64> const & __ptr64>
PUBLIC	??$forward@V?$allocator@PEAUVkFramebuffer_T@@@std@@@std@@YA$$QEAV?$allocator@PEAUVkFramebuffer_T@@@0@AEAV10@@Z ; std::forward<std::allocator<VkFramebuffer_T * __ptr64> >
PUBLIC	??$forward@AEBV?$allocator@PEAUVkFramebuffer_T@@@std@@@std@@YAAEBV?$allocator@PEAUVkFramebuffer_T@@@0@AEBV10@@Z ; std::forward<std::allocator<VkFramebuffer_T * __ptr64> const & __ptr64>
PUBLIC	??$forward@V?$allocator@PEAUVkCommandBuffer_T@@@std@@@std@@YA$$QEAV?$allocator@PEAUVkCommandBuffer_T@@@0@AEAV10@@Z ; std::forward<std::allocator<VkCommandBuffer_T * __ptr64> >
PUBLIC	??$forward@AEBV?$allocator@PEAUVkCommandBuffer_T@@@std@@@std@@YAAEBV?$allocator@PEAUVkCommandBuffer_T@@@0@AEBV10@@Z ; std::forward<std::allocator<VkCommandBuffer_T * __ptr64> const & __ptr64>
PUBLIC	??$forward@V?$allocator@D@std@@@std@@YA$$QEAV?$allocator@D@0@AEAV10@@Z ; std::forward<std::allocator<char> >
PUBLIC	??$forward@AEBV?$allocator@D@std@@@std@@YAAEBV?$allocator@D@0@AEBV10@@Z ; std::forward<std::allocator<char> const & __ptr64>
PUBLIC	??$destroy@PEAD@?$allocator_traits@V?$allocator@D@std@@@std@@SAXAEAV?$allocator@D@1@PEAPEAD@Z ; std::allocator_traits<std::allocator<char> >::destroy<char * __ptr64>
PUBLIC	??$_Addressof@D@std@@YAPEADAEADU?$integral_constant@_N$0A@@0@@Z ; std::_Addressof<char>
PUBLIC	??$forward@AEAPEAD@std@@YAAEAPEADAEAPEAD@Z	; std::forward<char * __ptr64 & __ptr64>
PUBLIC	??$construct@PEADAEAPEAD@?$allocator_traits@V?$allocator@D@std@@@std@@SAXAEAV?$allocator@D@1@PEAPEADAEAPEAD@Z ; std::allocator_traits<std::allocator<char> >::construct<char * __ptr64,char * __ptr64 & __ptr64>
PUBLIC	??$destroy@U_Container_proxy@std@@@?$allocator_traits@V?$allocator@U_Container_proxy@std@@@std@@@std@@SAXAEAV?$allocator@U_Container_proxy@std@@@1@PEAU_Container_proxy@1@@Z ; std::allocator_traits<std::allocator<std::_Container_proxy> >::destroy<std::_Container_proxy>
PUBLIC	??$forward@U_Container_proxy@std@@@std@@YA$$QEAU_Container_proxy@0@AEAU10@@Z ; std::forward<std::_Container_proxy>
PUBLIC	??$construct@U_Container_proxy@std@@U12@@?$allocator_traits@V?$allocator@U_Container_proxy@std@@@std@@@std@@SAXAEAV?$allocator@U_Container_proxy@std@@@1@PEAU_Container_proxy@1@$$QEAU31@@Z ; std::allocator_traits<std::allocator<std::_Container_proxy> >::construct<std::_Container_proxy,std::_Container_proxy>
PUBLIC	??$_Destroy_range@U?$_Wrap_alloc@V?$allocator@PEAUVkImageView_T@@@std@@@std@@@std@@YAXPEAPEAUVkImageView_T@@0AEAU?$_Wrap_alloc@V?$allocator@PEAUVkImageView_T@@@std@@@0@U_Scalar_ptr_iterator_tag@0@@Z ; std::_Destroy_range<std::_Wrap_alloc<std::allocator<VkImageView_T * __ptr64> > >
PUBLIC	??$_Destroy_range@U?$_Wrap_alloc@V?$allocator@UVkExtensionProperties@@@std@@@std@@@std@@YAXPEAUVkExtensionProperties@@0AEAU?$_Wrap_alloc@V?$allocator@UVkExtensionProperties@@@std@@@0@U_Nonscalar_ptr_iterator_tag@0@@Z ; std::_Destroy_range<std::_Wrap_alloc<std::allocator<VkExtensionProperties> > >
PUBLIC	??$_Destroy_range@U?$_Wrap_alloc@V?$allocator@UVkLayerProperties@@@std@@@std@@@std@@YAXPEAUVkLayerProperties@@0AEAU?$_Wrap_alloc@V?$allocator@UVkLayerProperties@@@std@@@0@U_Nonscalar_ptr_iterator_tag@0@@Z ; std::_Destroy_range<std::_Wrap_alloc<std::allocator<VkLayerProperties> > >
PUBLIC	??$_Destroy_range@U?$_Wrap_alloc@V?$allocator@PEAUVkPhysicalDevice_T@@@std@@@std@@@std@@YAXPEAPEAUVkPhysicalDevice_T@@0AEAU?$_Wrap_alloc@V?$allocator@PEAUVkPhysicalDevice_T@@@std@@@0@U_Scalar_ptr_iterator_tag@0@@Z ; std::_Destroy_range<std::_Wrap_alloc<std::allocator<VkPhysicalDevice_T * __ptr64> > >
PUBLIC	??$_Uninitialized_move@PEAPEBDPEAPEBDU?$_Wrap_alloc@V?$allocator@PEBD@std@@@std@@@std@@YAPEAPEBDPEAPEBD00AEAU?$_Wrap_alloc@V?$allocator@PEBD@std@@@0@@Z ; std::_Uninitialized_move<char const * __ptr64 * __ptr64,char const * __ptr64 * __ptr64,std::_Wrap_alloc<std::allocator<char const * __ptr64> > >
PUBLIC	??$_Ptr_cat@PEBDPEBD@std@@YA?AU_Scalar_ptr_iterator_tag@0@PEAPEBD0@Z ; std::_Ptr_cat<char const * __ptr64,char const * __ptr64>
PUBLIC	??$_Destroy_range@U?$_Wrap_alloc@V?$allocator@PEBD@std@@@std@@@std@@YAXPEAPEBD0AEAU?$_Wrap_alloc@V?$allocator@PEBD@std@@@0@U_Scalar_ptr_iterator_tag@0@@Z ; std::_Destroy_range<std::_Wrap_alloc<std::allocator<char const * __ptr64> > >
PUBLIC	??$_Uninitialized_move@PEAPEAUVkShaderModule_T@@PEAPEAU1@U?$_Wrap_alloc@V?$allocator@PEAUVkShaderModule_T@@@std@@@std@@@std@@YAPEAPEAUVkShaderModule_T@@PEAPEAU1@00AEAU?$_Wrap_alloc@V?$allocator@PEAUVkShaderModule_T@@@std@@@0@@Z ; std::_Uninitialized_move<VkShaderModule_T * __ptr64 * __ptr64,VkShaderModule_T * __ptr64 * __ptr64,std::_Wrap_alloc<std::allocator<VkShaderModule_T * __ptr64> > >
PUBLIC	??$_Destroy_range@U?$_Wrap_alloc@V?$allocator@PEAUVkFramebuffer_T@@@std@@@std@@@std@@YAXPEAPEAUVkFramebuffer_T@@0AEAU?$_Wrap_alloc@V?$allocator@PEAUVkFramebuffer_T@@@std@@@0@U_Scalar_ptr_iterator_tag@0@@Z ; std::_Destroy_range<std::_Wrap_alloc<std::allocator<VkFramebuffer_T * __ptr64> > >
PUBLIC	??$_Destroy_range@U?$_Wrap_alloc@V?$allocator@PEAUVkCommandBuffer_T@@@std@@@std@@@std@@YAXPEAPEAUVkCommandBuffer_T@@0AEAU?$_Wrap_alloc@V?$allocator@PEAUVkCommandBuffer_T@@@std@@@0@U_Scalar_ptr_iterator_tag@0@@Z ; std::_Destroy_range<std::_Wrap_alloc<std::allocator<VkCommandBuffer_T * __ptr64> > >
PUBLIC	??$_Ptr_cat@PEAUVkShaderModule_T@@PEAU1@@std@@YA?AU_Scalar_ptr_iterator_tag@0@PEAPEAUVkShaderModule_T@@0@Z ; std::_Ptr_cat<VkShaderModule_T * __ptr64,VkShaderModule_T * __ptr64>
PUBLIC	??$_Destroy_range@U?$_Wrap_alloc@V?$allocator@PEAUVkShaderModule_T@@@std@@@std@@@std@@YAXPEAPEAUVkShaderModule_T@@0AEAU?$_Wrap_alloc@V?$allocator@PEAUVkShaderModule_T@@@std@@@0@U_Scalar_ptr_iterator_tag@0@@Z ; std::_Destroy_range<std::_Wrap_alloc<std::allocator<VkShaderModule_T * __ptr64> > >
PUBLIC	??$_Fill_n@PEAPEAUVkImageView_T@@_KPEAU1@@std@@YAPEAPEAUVkImageView_T@@PEAPEAU1@_KAEBQEAU1@@Z ; std::_Fill_n<VkImageView_T * __ptr64 * __ptr64,unsigned __int64,VkImageView_T * __ptr64>
PUBLIC	??$construct@UVkExtensionProperties@@$$V@?$_Wrap_alloc@V?$allocator@UVkExtensionProperties@@@std@@@std@@QEAAXPEAUVkExtensionProperties@@@Z ; std::_Wrap_alloc<std::allocator<VkExtensionProperties> >::construct<VkExtensionProperties>
PUBLIC	??$destroy@UVkExtensionProperties@@@?$_Wrap_alloc@V?$allocator@UVkExtensionProperties@@@std@@@std@@QEAAXPEAUVkExtensionProperties@@@Z ; std::_Wrap_alloc<std::allocator<VkExtensionProperties> >::destroy<VkExtensionProperties>
PUBLIC	??$construct@UVkLayerProperties@@$$V@?$_Wrap_alloc@V?$allocator@UVkLayerProperties@@@std@@@std@@QEAAXPEAUVkLayerProperties@@@Z ; std::_Wrap_alloc<std::allocator<VkLayerProperties> >::construct<VkLayerProperties>
PUBLIC	??$destroy@UVkLayerProperties@@@?$_Wrap_alloc@V?$allocator@UVkLayerProperties@@@std@@@std@@QEAAXPEAUVkLayerProperties@@@Z ; std::_Wrap_alloc<std::allocator<VkLayerProperties> >::destroy<VkLayerProperties>
PUBLIC	??$_Fill_n@PEAPEAUVkPhysicalDevice_T@@_KPEAU1@@std@@YAPEAPEAUVkPhysicalDevice_T@@PEAPEAU1@_KAEBQEAU1@@Z ; std::_Fill_n<VkPhysicalDevice_T * __ptr64 * __ptr64,unsigned __int64,VkPhysicalDevice_T * __ptr64>
PUBLIC	??$construct@PEBDAEAPEBD@?$allocator@PEBD@std@@QEAAXPEAPEBDAEAPEBD@Z ; std::allocator<char const * __ptr64>::construct<char const * __ptr64,char const * __ptr64 & __ptr64>
PUBLIC	??$construct@PEBDAEBQEBD@?$allocator@PEBD@std@@QEAAXPEAPEBDAEBQEBD@Z ; std::allocator<char const * __ptr64>::construct<char const * __ptr64,char const * __ptr64 const & __ptr64>
PUBLIC	??$construct@PEAUVkShaderModule_T@@AEAPEAU1@@?$allocator@PEAUVkShaderModule_T@@@std@@QEAAXPEAPEAUVkShaderModule_T@@AEAPEAU2@@Z ; std::allocator<VkShaderModule_T * __ptr64>::construct<VkShaderModule_T * __ptr64,VkShaderModule_T * __ptr64 & __ptr64>
PUBLIC	??$construct@PEAUVkShaderModule_T@@AEBQEAU1@@?$allocator@PEAUVkShaderModule_T@@@std@@QEAAXPEAPEAUVkShaderModule_T@@AEBQEAU2@@Z ; std::allocator<VkShaderModule_T * __ptr64>::construct<VkShaderModule_T * __ptr64,VkShaderModule_T * __ptr64 const & __ptr64>
PUBLIC	??$_Fill_n@PEAPEAUVkFramebuffer_T@@_KPEAU1@@std@@YAPEAPEAUVkFramebuffer_T@@PEAPEAU1@_KAEBQEAU1@@Z ; std::_Fill_n<VkFramebuffer_T * __ptr64 * __ptr64,unsigned __int64,VkFramebuffer_T * __ptr64>
PUBLIC	??$_Fill_n@PEAPEAUVkCommandBuffer_T@@_KPEAU1@@std@@YAPEAPEAUVkCommandBuffer_T@@PEAPEAU1@_KAEBQEAU1@@Z ; std::_Fill_n<VkCommandBuffer_T * __ptr64 * __ptr64,unsigned __int64,VkCommandBuffer_T * __ptr64>
PUBLIC	??$destroy@PEAD@?$allocator@D@std@@QEAAXPEAPEAD@Z ; std::allocator<char>::destroy<char * __ptr64>
PUBLIC	??$construct@PEADAEAPEAD@?$allocator@D@std@@QEAAXPEAPEADAEAPEAD@Z ; std::allocator<char>::construct<char * __ptr64,char * __ptr64 & __ptr64>
PUBLIC	??$destroy@U_Container_proxy@std@@@?$allocator@U_Container_proxy@std@@@std@@QEAAXPEAU_Container_proxy@1@@Z ; std::allocator<std::_Container_proxy>::destroy<std::_Container_proxy>
PUBLIC	??$construct@U_Container_proxy@std@@U12@@?$allocator@U_Container_proxy@std@@@std@@QEAAXPEAU_Container_proxy@1@$$QEAU21@@Z ; std::allocator<std::_Container_proxy>::construct<std::_Container_proxy,std::_Container_proxy>
PUBLIC	??$addressof@UVkExtensionProperties@@@std@@YAPEAUVkExtensionProperties@@AEAU1@@Z ; std::addressof<VkExtensionProperties>
PUBLIC	??$addressof@UVkLayerProperties@@@std@@YAPEAUVkLayerProperties@@AEAU1@@Z ; std::addressof<VkLayerProperties>
PUBLIC	??$_Unchecked@PEAPEBD@std@@YAPEAPEBDPEAPEBD@Z	; std::_Unchecked<char const * __ptr64 * __ptr64>
PUBLIC	??$_Uninit_move@PEAPEBDPEAPEBDU?$_Wrap_alloc@V?$allocator@PEBD@std@@@std@@@std@@YAPEAPEBDPEAPEBD00AEAU?$_Wrap_alloc@V?$allocator@PEBD@std@@@0@@Z ; std::_Uninit_move<char const * __ptr64 * __ptr64,char const * __ptr64 * __ptr64,std::_Wrap_alloc<std::allocator<char const * __ptr64> > >
PUBLIC	??$_Rechecked@PEAPEBDPEAPEBD@std@@YAAEAPEAPEBDAEAPEAPEBDPEAPEBD@Z ; std::_Rechecked<char const * __ptr64 * __ptr64,char const * __ptr64 * __ptr64>
PUBLIC	??$_Unchecked@PEAPEAUVkShaderModule_T@@@std@@YAPEAPEAUVkShaderModule_T@@PEAPEAU1@@Z ; std::_Unchecked<VkShaderModule_T * __ptr64 * __ptr64>
PUBLIC	??$_Uninit_move@PEAPEAUVkShaderModule_T@@PEAPEAU1@U?$_Wrap_alloc@V?$allocator@PEAUVkShaderModule_T@@@std@@@std@@@std@@YAPEAPEAUVkShaderModule_T@@PEAPEAU1@00AEAU?$_Wrap_alloc@V?$allocator@PEAUVkShaderModule_T@@@std@@@0@@Z ; std::_Uninit_move<VkShaderModule_T * __ptr64 * __ptr64,VkShaderModule_T * __ptr64 * __ptr64,std::_Wrap_alloc<std::allocator<VkShaderModule_T * __ptr64> > >
PUBLIC	??$_Rechecked@PEAPEAUVkShaderModule_T@@PEAPEAU1@@std@@YAAEAPEAPEAUVkShaderModule_T@@AEAPEAPEAU1@PEAPEAU1@@Z ; std::_Rechecked<VkShaderModule_T * __ptr64 * __ptr64,VkShaderModule_T * __ptr64 * __ptr64>
PUBLIC	??$construct@UVkExtensionProperties@@$$V@?$allocator_traits@V?$allocator@UVkExtensionProperties@@@std@@@std@@SAXAEAV?$allocator@UVkExtensionProperties@@@1@PEAUVkExtensionProperties@@@Z ; std::allocator_traits<std::allocator<VkExtensionProperties> >::construct<VkExtensionProperties>
PUBLIC	??$destroy@UVkExtensionProperties@@@?$allocator_traits@V?$allocator@UVkExtensionProperties@@@std@@@std@@SAXAEAV?$allocator@UVkExtensionProperties@@@1@PEAUVkExtensionProperties@@@Z ; std::allocator_traits<std::allocator<VkExtensionProperties> >::destroy<VkExtensionProperties>
PUBLIC	??$construct@UVkLayerProperties@@$$V@?$allocator_traits@V?$allocator@UVkLayerProperties@@@std@@@std@@SAXAEAV?$allocator@UVkLayerProperties@@@1@PEAUVkLayerProperties@@@Z ; std::allocator_traits<std::allocator<VkLayerProperties> >::construct<VkLayerProperties>
PUBLIC	??$destroy@UVkLayerProperties@@@?$allocator_traits@V?$allocator@UVkLayerProperties@@@std@@@std@@SAXAEAV?$allocator@UVkLayerProperties@@@1@PEAUVkLayerProperties@@@Z ; std::allocator_traits<std::allocator<VkLayerProperties> >::destroy<VkLayerProperties>
PUBLIC	??$_Addressof@UVkExtensionProperties@@@std@@YAPEAUVkExtensionProperties@@AEAU1@U?$integral_constant@_N$0A@@0@@Z ; std::_Addressof<VkExtensionProperties>
PUBLIC	??$_Addressof@UVkLayerProperties@@@std@@YAPEAUVkLayerProperties@@AEAU1@U?$integral_constant@_N$0A@@0@@Z ; std::_Addressof<VkLayerProperties>
PUBLIC	??$_Val_type@PEAPEBD@std@@YAPEAPEBDPEAPEBD@Z	; std::_Val_type<char const * __ptr64 * __ptr64>
PUBLIC	??$_Uninit_move@PEBDPEBDPEBD@std@@YAPEAPEBDPEAPEBD00AEAU?$_Wrap_alloc@V?$allocator@PEBD@std@@@0@0U_Scalar_ptr_iterator_tag@0@@Z ; std::_Uninit_move<char const * __ptr64,char const * __ptr64,char const * __ptr64>
PUBLIC	??$_Val_type@PEAPEAUVkShaderModule_T@@@std@@YAPEAPEAUVkShaderModule_T@@PEAPEAU1@@Z ; std::_Val_type<VkShaderModule_T * __ptr64 * __ptr64>
PUBLIC	??$_Uninit_move@PEAUVkShaderModule_T@@PEAU1@PEAU1@@std@@YAPEAPEAUVkShaderModule_T@@PEAPEAU1@00AEAU?$_Wrap_alloc@V?$allocator@PEAUVkShaderModule_T@@@std@@@0@0U_Scalar_ptr_iterator_tag@0@@Z ; std::_Uninit_move<VkShaderModule_T * __ptr64,VkShaderModule_T * __ptr64,VkShaderModule_T * __ptr64>
PUBLIC	??$construct@UVkExtensionProperties@@$$V@?$allocator@UVkExtensionProperties@@@std@@QEAAXPEAUVkExtensionProperties@@@Z ; std::allocator<VkExtensionProperties>::construct<VkExtensionProperties>
PUBLIC	??$destroy@UVkExtensionProperties@@@?$allocator@UVkExtensionProperties@@@std@@QEAAXPEAUVkExtensionProperties@@@Z ; std::allocator<VkExtensionProperties>::destroy<VkExtensionProperties>
PUBLIC	??$construct@UVkLayerProperties@@$$V@?$allocator@UVkLayerProperties@@@std@@QEAAXPEAUVkLayerProperties@@@Z ; std::allocator<VkLayerProperties>::construct<VkLayerProperties>
PUBLIC	??$destroy@UVkLayerProperties@@@?$allocator@UVkLayerProperties@@@std@@QEAAXPEAUVkLayerProperties@@@Z ; std::allocator<VkLayerProperties>::destroy<VkLayerProperties>
PUBLIC	??$_Debug_range_ptr@PEAPEBDPEAPEBD@std@@YAXPEAPEBD0AEAPEAPEBDPEBGI@Z ; std::_Debug_range_ptr<char const * __ptr64 * __ptr64,char const * __ptr64 * __ptr64>
PUBLIC	??$_Debug_range_ptr@PEAPEAUVkShaderModule_T@@PEAPEAU1@@std@@YAXPEAPEAUVkShaderModule_T@@0AEAPEAPEAU1@PEBGI@Z ; std::_Debug_range_ptr<VkShaderModule_T * __ptr64 * __ptr64,VkShaderModule_T * __ptr64 * __ptr64>
PUBLIC	??$_Iter_cat@PEAPEBD@std@@YA?AUrandom_access_iterator_tag@0@AEBQEAPEBD@Z ; std::_Iter_cat<char const * __ptr64 * __ptr64>
PUBLIC	??$_Debug_range_ptr2@PEAPEBDPEAPEBD@std@@YAXPEAPEBD0AEAPEAPEBDPEBGIUrandom_access_iterator_tag@0@@Z ; std::_Debug_range_ptr2<char const * __ptr64 * __ptr64,char const * __ptr64 * __ptr64>
PUBLIC	??$_Iter_cat@PEAPEAUVkShaderModule_T@@@std@@YA?AUrandom_access_iterator_tag@0@AEBQEAPEAUVkShaderModule_T@@@Z ; std::_Iter_cat<VkShaderModule_T * __ptr64 * __ptr64>
PUBLIC	??$_Debug_range_ptr2@PEAPEAUVkShaderModule_T@@PEAPEAU1@@std@@YAXPEAPEAUVkShaderModule_T@@0AEAPEAPEAU1@PEBGIUrandom_access_iterator_tag@0@@Z ; std::_Debug_range_ptr2<VkShaderModule_T * __ptr64 * __ptr64,VkShaderModule_T * __ptr64 * __ptr64>
PUBLIC	??$_Debug_pointer@PEBD@std@@YAXPEAPEBDPEBGI@Z	; std::_Debug_pointer<char const * __ptr64>
PUBLIC	??$_Debug_pointer@PEAUVkShaderModule_T@@@std@@YAXPEAPEAUVkShaderModule_T@@PEBGI@Z ; std::_Debug_pointer<VkShaderModule_T * __ptr64>
PUBLIC	?_OptionsStorage@?1??__local_stdio_printf_options@@9@4_KA ; `__local_stdio_printf_options'::`2'::_OptionsStorage
PUBLIC	??_C@_1EG@MEOAMCJJ@?$AAd?$AA?3?$AA?2?$AAa?$AAp?$AAp?$AAd?$AAa?$AAt?$AAa?$AA?2?$AAv?$AAs?$AAp?$AA?2?$AAv?$AAc?$AA?2?$AAi?$AAn?$AAc?$AAl?$AAu?$AAd?$AAe?$AA?2?$AAx?$AAu?$AAt?$AAi?$AAl?$AAi@ ; `string'
PUBLIC	??_C@_1DC@POOIKBAO@?$AAI?$AAT?$AAE?$AAR?$AAA?$AAT?$AAO?$AAR?$AA?5?$AAL?$AAI?$AAS?$AAT?$AA?5?$AAC?$AAO?$AAR?$AAR?$AAU?$AAP?$AAT?$AAE?$AAD?$AA?$CB?$AA?$AA@ ; `string'
PUBLIC	?__LINE__Var@?0??_Allocate@std@@YAPEAX_K0_N@Z@4JA ; `std::_Allocate'::`1'::__LINE__Var
PUBLIC	??_C@_0BE@LMNLACIC@_Ptr_container?5?$CB?$DN?50?$AA@ ; `string'
PUBLIC	??_C@_1DG@HGDKEBPG@?$AA?$CC?$AA_?$AAP?$AAt?$AAr?$AA_?$AAc?$AAo?$AAn?$AAt?$AAa?$AAi?$AAn?$AAe?$AAr?$AA?5?$AA?$CB?$AA?$DN?$AA?5?$AA0?$AA?$CC?$AA?5?$AA?$CG?$AA?$CG?$AA?5?$AA0?$AA?$AA@ ; `string'
PUBLIC	??_C@_17CNPHIMPH@?$AA?$CF?$AAl?$AAs?$AA?$AA@	; `string'
PUBLIC	??_C@_1EG@DJALBHDK@?$AAd?$AA?3?$AA?2?$AAa?$AAp?$AAp?$AAd?$AAa?$AAt?$AAa?$AA?2?$AAv?$AAs?$AAp?$AA?2?$AAv?$AAc?$AA?2?$AAi?$AAn?$AAc?$AAl?$AAu?$AAd?$AAe?$AA?2?$AAx?$AAm?$AAe?$AAm?$AAo?$AAr@ ; `string'
PUBLIC	??_C@_1BO@NKFMJPA@?$AAs?$AAt?$AAd?$AA?3?$AA?3?$AA_?$AAA?$AAl?$AAl?$AAo?$AAc?$AAa?$AAt?$AAe?$AA?$AA@ ; `string'
PUBLIC	??_C@_1CG@JNLFBNGN@?$AA?$CC?$AAi?$AAn?$AAv?$AAa?$AAl?$AAi?$AAd?$AA?5?$AAa?$AAr?$AAg?$AAu?$AAm?$AAe?$AAn?$AAt?$AA?$CC?$AA?$AA@ ; `string'
PUBLIC	??_C@_09GLJCAGLP@_Ptr?5?$CB?$DN?50?$AA@		; `string'
PUBLIC	??_C@_1CC@GKJLLHIM@?$AA?$CC?$AA_?$AAP?$AAt?$AAr?$AA?5?$AA?$CB?$AA?$DN?$AA?5?$AA0?$AA?$CC?$AA?5?$AA?$CG?$AA?$CG?$AA?5?$AA0?$AA?$AA@ ; `string'
PUBLIC	?__LINE__Var@?0??_Deallocate@std@@YAXPEAX_K1@Z@4JA ; `std::_Deallocate'::`1'::__LINE__Var
PUBLIC	??_C@_0BN@HMCJOMKN@_Count?5?$DM?$DN?5?$CIsize_t?$CJ?$CI?91?$CJ?5?1?5_Sz?$AA@ ; `string'
PUBLIC	??_C@_1EI@MLOBABC@?$AA?$CC?$AA_?$AAC?$AAo?$AAu?$AAn?$AAt?$AA?5?$AA?$DM?$AA?$DN?$AA?5?$AA?$CI?$AAs?$AAi?$AAz?$AAe?$AA_?$AAt?$AA?$CJ?$AA?$CI?$AA?9?$AA1?$AA?$CJ?$AA?5?$AA?1?$AA?5?$AA_?$AAS?$AAz?$AA?$CC?$AA?5?$AA?$CG@ ; `string'
PUBLIC	??_C@_1CC@LOFJFFDB@?$AAs?$AAt?$AAd?$AA?3?$AA?3?$AA_?$AAD?$AAe?$AAa?$AAl?$AAl?$AAo?$AAc?$AAa?$AAt?$AAe?$AA?$AA@ ; `string'
PUBLIC	??_C@_0DD@GBGGGKGG@?$CI_Ptr_user?5?$CG?5?$CI_BIG_ALLOCATION_AL@ ; `string'
PUBLIC	??_C@_1HE@CDMBFOKC@?$AA?$CC?$AA?$CI?$AA_?$AAP?$AAt?$AAr?$AA_?$AAu?$AAs?$AAe?$AAr?$AA?5?$AA?$CG?$AA?5?$AA?$CI?$AA_?$AAB?$AAI?$AAG?$AA_?$AAA?$AAL?$AAL?$AAO?$AAC?$AAA?$AAT?$AAI?$AAO?$AAN?$AA_?$AAA@ ; `string'
PUBLIC	??_C@_0EI@NOJHEJCJ@reinterpret_cast?$DMuintptr_t?5?$CK?$DO?$CI_P@ ; `string'
PUBLIC	??_C@_1JO@EKLKIEHP@?$AA?$CC?$AAr?$AAe?$AAi?$AAn?$AAt?$AAe?$AAr?$AAp?$AAr?$AAe?$AAt?$AA_?$AAc?$AAa?$AAs?$AAt?$AA?$DM?$AAu?$AAi?$AAn?$AAt?$AAp?$AAt?$AAr?$AA_?$AAt?$AA?5?$AA?$CK?$AA?$DO?$AA?$CI?$AA_@ ; `string'
PUBLIC	??_C@_0BL@OCKMEJON@_Ptr_container?5?$DM?5_Ptr_user?$AA@ ; `string'
PUBLIC	??_C@_1EE@PDHAHDDC@?$AA?$CC?$AA_?$AAP?$AAt?$AAr?$AA_?$AAc?$AAo?$AAn?$AAt?$AAa?$AAi?$AAn?$AAe?$AAr?$AA?5?$AA?$DM?$AA?5?$AA_?$AAP?$AAt?$AAr?$AA_?$AAu?$AAs?$AAe?$AAr?$AA?$CC?$AA?5?$AA?$CG?$AA?$CG?$AA?5@ ; `string'
PUBLIC	??_C@_0DB@GLFJLNCE@2?5?$CK?5sizeof?$CIvoid?5?$CK?$CJ?5?$DM?$DN?5_Ptr_user?5@ ; `string'
PUBLIC	??_C@_1HA@NAPGMHAO@?$AA?$CC?$AA2?$AA?5?$AA?$CK?$AA?5?$AAs?$AAi?$AAz?$AAe?$AAo?$AAf?$AA?$CI?$AAv?$AAo?$AAi?$AAd?$AA?5?$AA?$CK?$AA?$CJ?$AA?5?$AA?$DM?$AA?$DN?$AA?5?$AA_?$AAP?$AAt?$AAr?$AA_?$AAu?$AAs?$AAe?$AAr@ ; `string'
PUBLIC	??_C@_0CN@BLHJCAL@_Ptr_user?5?9?5_Ptr_container?5?$DM?$DN?5_N@ ; `string'
PUBLIC	??_C@_1GI@DHJGPFNI@?$AA?$CC?$AA_?$AAP?$AAt?$AAr?$AA_?$AAu?$AAs?$AAe?$AAr?$AA?5?$AA?9?$AA?5?$AA_?$AAP?$AAt?$AAr?$AA_?$AAc?$AAo?$AAn?$AAt?$AAa?$AAi?$AAn?$AAe?$AAr?$AA?5?$AA?$DM?$AA?$DN?$AA?5?$AA_@ ; `string'
PUBLIC	?npos@?$basic_string@DU?$char_traits@D@std@@V?$allocator@D@2@@std@@2_KB ; std::basic_string<char,std::char_traits<char>,std::allocator<char> >::npos
PUBLIC	??_C@_02GMHACPFF@?$CFu?$AA@			; `string'
PUBLIC	??_C@_01EEMJAFIK@?6?$AA@			; `string'
PUBLIC	??_C@_0CH@JNKFFEJD@could?5not?5create?5vulkan?5error?5ca@ ; `string'
PUBLIC	??_C@_07CJOBHJOD@DEBUG?3?5?$AA@			; `string'
PUBLIC	??_C@_09PIEMHOIP@WARNING?3?5?$AA@		; `string'
PUBLIC	??_C@_0BG@EEGECCJM@PERFORMANCE?5WARNING?3?5?$AA@ ; `string'
PUBLIC	??_C@_07JHDPBCI@ERROR?3?5?$AA@			; `string'
PUBLIC	??_C@_0O@IJPIKOIP@INFORMATION?3?5?$AA@		; `string'
PUBLIC	??_C@_02CJGLCPLC@?$EA?$FL?$AA@			; `string'
PUBLIC	??_C@_02PBFOLPKM@?$FN?5?$AA@			; `string'
PUBLIC	??_C@_0M@BAEMIBFH@error?5in?5VK?$AA@		; `string'
PUBLIC	??_C@_0CH@IMNNPLLG@could?5not?5create?5descriptor?5set?5@ ; `string'
PUBLIC	??_C@_0CB@DIFLDPKN@could?5not?5create?5pipeline?5layout@ ; `string'
PUBLIC	??_C@_0N@LIPCFML@VulkanEngine?$AA@		; `string'
PUBLIC	??_C@_0CE@KFHHCAIE@could?5not?5create?5instance?5of?5vul@ ; `string'
PUBLIC	??_C@_0BP@OODKJHBP@vkCreateDebugReportCallbackEXT?$AA@ ; `string'
PUBLIC	??_C@_0DF@GEBHNGGD@could?5not?5find?5function?5CreateDe@ ; `string'
PUBLIC	??_C@_0CA@OOBFNGJP@vkDestroyDebugReportCallbackEXT?$AA@ ; `string'
PUBLIC	??_C@_0DG@LHCMMGMJ@could?5not?5find?5function?5DestroyD@ ; `string'
PUBLIC	??_C@_0BJ@KFNEMKOH@VK_LAYER_LUNARG_api_dump?$AA@ ; `string'
PUBLIC	??_C@_0CA@NOLPPOBH@VK_LAYER_LUNARG_core_validation?$AA@ ; `string'
PUBLIC	??_C@_0BO@DPDLAMHH@VK_LAYER_LUNARG_device_limits?$AA@ ; `string'
PUBLIC	??_C@_0BG@NBDDNMPP@VK_LAYER_LUNARG_image?$AA@	; `string'
PUBLIC	??_C@_0BP@GMJBNCNE@VK_LAYER_LUNARG_object_tracker?$AA@ ; `string'
PUBLIC	??_C@_0CF@NFGOPDCA@VK_LAYER_LUNARG_parameter_valida@ ; `string'
PUBLIC	??_C@_0BL@OHNGKADJ@VK_LAYER_LUNARG_screenshot?$AA@ ; `string'
PUBLIC	??_C@_0BK@LEMLMPCI@VK_LAYER_LUNARG_swapchain?$AA@ ; `string'
PUBLIC	??_C@_0BK@DPEACBHK@VK_LAYER_GOOGLE_threading?$AA@ ; `string'
PUBLIC	??_C@_0BP@CKNBOECO@VK_LAYER_GOOGLE_unique_objects?$AA@ ; `string'
PUBLIC	??_C@_0BL@JIDONAHO@VK_LAYER_RENDERDOC_Capture?$AA@ ; `string'
PUBLIC	??_C@_0BE@JFJAJHAO@VK_LAYER_NV_optimus?$AA@	; `string'
PUBLIC	??_C@_0BN@EFLDHONC@VK_LAYER_VALVE_steam_overlay?$AA@ ; `string'
PUBLIC	??_C@_0CE@HHEAAKPA@VK_LAYER_LUNARG_standard_validat@ ; `string'
PUBLIC	??_C@_0P@IENCOMCD@VK_KHR_surface?$AA@		; `string'
PUBLIC	??_C@_0BF@COCMEDFO@VK_KHR_win32_surface?$AA@	; `string'
PUBLIC	??_C@_0BE@DEFJLCKG@VK_EXT_debug_report?$AA@	; `string'
PUBLIC	??_C@_0FA@FHOBDPMH@VkInclude?3?3onlyExtensions?5cannot@ ; `string'
PUBLIC	??_C@_0BE@BOBMFHHC@not?5implemented?5yet?$AA@	; `string'
PUBLIC	??_C@_0L@FMPBHIJ@vkinclude?5?$AA@		; `string'
PUBLIC	??_C@_0BJ@PDKJAELE@could?5not?5enumerate?5gpus?$AA@ ; `string'
PUBLIC	??_C@_0CE@IMDCIDGA@no?5compatible?5vulkan?5gpus?5availa@ ; `string'
PUBLIC	??_C@_0DG@ICHMANDI@could?5not?5enumerate?5physical?5dev@ ; `string'
PUBLIC	??_C@_0CA@HIFAOLDO@could?5not?5create?5logical?5device?$AA@ ; `string'
PUBLIC	??_C@_0CI@PFGJOOMB@could?5not?5find?5a?5supported?5depth@ ; `string'
PUBLIC	??_C@_0BL@PHGBNEIE@could?5not?5create?5semaphore?$AA@ ; `string'
PUBLIC	??_C@_0BP@NCNDJBEJ@could?5not?5create?5command?5pool?4?$AA@ ; `string'
PUBLIC	??_C@_0CG@FIDBMIEI@could?5not?5create?5setup?5command?5b@ ; `string'
PUBLIC	??_C@_0CG@ONLIMIHO@could?5not?5begin?5setup?5command?5bu@ ; `string'
PUBLIC	??_C@_0CA@FOLFHNPP@could?5not?5create?5command?5buffer?$AA@ ; `string'
PUBLIC	??_C@_0CB@CJEOHAMF@could?5not?5create?5command?5buffers@ ; `string'
PUBLIC	??_C@_0BK@EGCBEEHN@could?5not?5create?5vk?5image?$AA@ ; `string'
PUBLIC	??_C@_0CE@JJOJAHDC@could?5not?5allocate?5memory?5on?5dev@ ; `string'
PUBLIC	??_C@_0BP@ENKLOPII@could?5not?5bind?5image?5to?5memory?$AA@ ; `string'
PUBLIC	??_C@_0BM@MJIMPBPB@could?5not?5create?5image?5view?$AA@ ; `string'
PUBLIC	??_C@_0BM@HBMPFEMN@could?5not?5create?5renderpass?$AA@ ; `string'
PUBLIC	??_C@_0CA@FFOKNNHN@could?5not?5create?5pipeline?5cache?$AA@ ; `string'
PUBLIC	??_C@_0BO@JCFGMOCD@could?5not?5create?5frame?5buffer?$AA@ ; `string'
PUBLIC	??_C@_0CD@OMIMHFF@could?5not?5end?5setup?5command?5buff@ ; `string'
PUBLIC	??_C@_0CL@KIGBHOD@could?5not?5submit?5queue?5to?5setup?5@ ; `string'
PUBLIC	??_C@_0CE@HNBBEKBE@wait?5idle?5failed?5for?5setupcmdbuf@ ; `string'
PUBLIC	??_C@_0BI@NBIFGGJK@could?5not?5create?5buffer?$AA@ ; `string'
PUBLIC	??_C@_0DA@MOOPMDMP@could?5not?5allocate?5memory?5in?5all@ ; `string'
PUBLIC	??_C@_0CL@CABACNDC@could?5not?5map?5memory?5in?5allocbin@ ; `string'
PUBLIC	??_C@_0CM@HKFMJGLE@could?5not?5bind?5memory?5in?5allocbi@ ; `string'
PUBLIC	??_C@_0BP@NFDILBKC@could?5not?5create?5shader?5module?$AA@ ; `string'
PUBLIC	??_C@_04GHJNJNPO@main?$AA@			; `string'
PUBLIC	??_C@_1EC@LPGLEOMF@?$AAd?$AA?3?$AA?2?$AAa?$AAp?$AAp?$AAd?$AAa?$AAt?$AAa?$AA?2?$AAv?$AAs?$AAp?$AA?2?$AAv?$AAc?$AA?2?$AAi?$AAn?$AAc?$AAl?$AAu?$AAd?$AAe?$AA?2?$AAv?$AAe?$AAc?$AAt?$AAo?$AAr@ ; `string'
PUBLIC	??_C@_1DM@LHGCHCBA@?$AAv?$AAe?$AAc?$AAt?$AAo?$AAr?$AA?5?$AAs?$AAu?$AAb?$AAs?$AAc?$AAr?$AAi?$AAp?$AAt?$AA?5?$AAo?$AAu?$AAt?$AA?5?$AAo?$AAf?$AA?5?$AAr?$AAa?$AAn?$AAg?$AAe?$AA?$AA@ ; `string'
PUBLIC	??_C@_0CE@OFMIGAMM@Standard?5C?$CL?$CL?5Libraries?5Out?5of?5Ra@ ; `string'
PUBLIC	??_C@_1FG@IBPIFFN@?$AA?$CC?$AAS?$AAt?$AAa?$AAn?$AAd?$AAa?$AAr?$AAd?$AA?5?$AAC?$AA?$CL?$AA?$CL?$AA?5?$AAL?$AAi?$AAb?$AAr?$AAa?$AAr?$AAi?$AAe?$AAs?$AA?5?$AAO?$AAu?$AAt?$AA?5?$AAo?$AAf?$AA?5?$AAR@ ; `string'
PUBLIC	??_C@_1LO@BKNBDONE@?$AAs?$AAt?$AAd?$AA?3?$AA?3?$AAv?$AAe?$AAc?$AAt?$AAo?$AAr?$AA?$DM?$AAs?$AAt?$AAr?$AAu?$AAc?$AAt?$AA?5?$AAV?$AAk?$AAI?$AAm?$AAa?$AAg?$AAe?$AAV?$AAi?$AAe?$AAw?$AA_?$AAT@ ; `string'
PUBLIC	??_C@_1BO@MEPPHOO@?$AA?$CC?$AAo?$AAu?$AAt?$AA?5?$AAo?$AAf?$AA?5?$AAr?$AAa?$AAn?$AAg?$AAe?$AA?$CC?$AA?$AA@ ; `string'
PUBLIC	??_C@_1MG@NLGFCCBM@?$AAs?$AAt?$AAd?$AA?3?$AA?3?$AAv?$AAe?$AAc?$AAt?$AAo?$AAr?$AA?$DM?$AAs?$AAt?$AAr?$AAu?$AAc?$AAt?$AA?5?$AAV?$AAk?$AAF?$AAr?$AAa?$AAm?$AAe?$AAb?$AAu?$AAf?$AAf?$AAe?$AAr@ ; `string'
PUBLIC	??_C@_1EE@PIAPABGP@?$AAd?$AA?3?$AA?2?$AAa?$AAp?$AAp?$AAd?$AAa?$AAt?$AAa?$AA?2?$AAv?$AAs?$AAp?$AA?2?$AAv?$AAc?$AA?2?$AAi?$AAn?$AAc?$AAl?$AAu?$AAd?$AAe?$AA?2?$AAx?$AAs?$AAt?$AAr?$AAi?$AAn@ ; `string'
PUBLIC	??_C@_0BM@NMJKDPPO@invalid?5vector?$DMT?$DO?5subscript?$AA@ ; `string'
PUBLIC	??_C@_1EE@EJDKCLKB@?$AAv?$AAe?$AAc?$AAt?$AAo?$AAr?$AA?5?$AAi?$AAt?$AAe?$AAr?$AAa?$AAt?$AAo?$AAr?$AA?5?$AAn?$AAo?$AAt?$AA?5?$AAi?$AAn?$AAc?$AAr?$AAe?$AAm?$AAe?$AAn?$AAt?$AAa?$AAb?$AAl@ ; `string'
PUBLIC	??_C@_1PC@KBOPDHDD@?$AAs?$AAt?$AAd?$AA?3?$AA?3?$AA_?$AAV?$AAe?$AAc?$AAt?$AAo?$AAr?$AA_?$AAc?$AAo?$AAn?$AAs?$AAt?$AA_?$AAi?$AAt?$AAe?$AAr?$AAa?$AAt?$AAo?$AAr?$AA?$DM?$AAc?$AAl?$AAa?$AAs@ ; `string'
PUBLIC	??_C@_1EG@FOHJJHAC@?$AAv?$AAe?$AAc?$AAt?$AAo?$AAr?$AA?5?$AAi?$AAt?$AAe?$AAr?$AAa?$AAt?$AAo?$AAr?$AA?5?$AAn?$AAo?$AAt?$AA?5?$AAd?$AAe?$AAr?$AAe?$AAf?$AAe?$AAr?$AAe?$AAn?$AAc?$AAa?$AAb@ ; `string'
PUBLIC	??_C@_1PA@EPGOAOL@?$AAs?$AAt?$AAd?$AA?3?$AA?3?$AA_?$AAV?$AAe?$AAc?$AAt?$AAo?$AAr?$AA_?$AAc?$AAo?$AAn?$AAs?$AAt?$AA_?$AAi?$AAt?$AAe?$AAr?$AAa?$AAt?$AAo?$AAr?$AA?$DM?$AAc?$AAl?$AAa?$AAs@ ; `string'
PUBLIC	??_C@_0BD@OLBABOEK@vector?$DMT?$DO?5too?5long?$AA@ ; `string'
PUBLIC	??_C@_1DM@HINDPMBP@?$AAv?$AAe?$AAc?$AAt?$AAo?$AAr?$AA?5?$AAi?$AAt?$AAe?$AAr?$AAa?$AAt?$AAo?$AAr?$AAs?$AA?5?$AAi?$AAn?$AAc?$AAo?$AAm?$AAp?$AAa?$AAt?$AAi?$AAb?$AAl?$AAe?$AA?$AA@ ; `string'
PUBLIC	??_C@_0CI@FNPHFCCM@Standard?5C?$CL?$CL?5Libraries?5Invalid?5A@ ; `string'
PUBLIC	??_C@_1FO@GJIHNDLM@?$AA?$CC?$AAS?$AAt?$AAa?$AAn?$AAd?$AAa?$AAr?$AAd?$AA?5?$AAC?$AA?$CL?$AA?$CL?$AA?5?$AAL?$AAi?$AAb?$AAr?$AAa?$AAr?$AAi?$AAe?$AAs?$AA?5?$AAI?$AAn?$AAv?$AAa?$AAl?$AAi?$AAd?$AA?5@ ; `string'
PUBLIC	??_C@_1OK@CCFPNMNL@?$AAs?$AAt?$AAd?$AA?3?$AA?3?$AA_?$AAV?$AAe?$AAc?$AAt?$AAo?$AAr?$AA_?$AAc?$AAo?$AAn?$AAs?$AAt?$AA_?$AAi?$AAt?$AAe?$AAr?$AAa?$AAt?$AAo?$AAr?$AA?$DM?$AAc?$AAl?$AAa?$AAs@ ; `string'
PUBLIC	??_C@_0BI@CFPLBAOH@invalid?5string?5position?$AA@ ; `string'
PUBLIC	??_C@_0BA@JFNIOLAK@string?5too?5long?$AA@	; `string'
PUBLIC	??_C@_1CK@EOPGIILJ@?$AAi?$AAn?$AAv?$AAa?$AAl?$AAi?$AAd?$AA?5?$AAn?$AAu?$AAl?$AAl?$AA?5?$AAp?$AAo?$AAi?$AAn?$AAt?$AAe?$AAr?$AA?$AA@ ; `string'
PUBLIC	??_C@_1CO@DGLIKNHI@?$AAi?$AAn?$AAv?$AAa?$AAl?$AAi?$AAd?$AA?5?$AAi?$AAt?$AAe?$AAr?$AAa?$AAt?$AAo?$AAr?$AA?5?$AAr?$AAa?$AAn?$AAg?$AAe?$AA?$AA@ ; `string'
PUBLIC	??_C@_1EE@BGIDPILO@?$AAd?$AA?3?$AA?2?$AAa?$AAp?$AAp?$AAd?$AAa?$AAt?$AAa?$AA?2?$AAv?$AAs?$AAp?$AA?2?$AAv?$AAc?$AA?2?$AAi?$AAn?$AAc?$AAl?$AAu?$AAd?$AAe?$AA?2?$AAx?$AAm?$AAe?$AAm?$AAo?$AAr@ ; `string'
EXTRN	??2@YAPEAX_K@Z:PROC				; operator new
EXTRN	??3@YAXPEAX@Z:PROC				; operator delete
EXTRN	__imp__invalid_parameter:PROC
EXTRN	vkCreateInstance:PROC
EXTRN	vkDestroyInstance:PROC
EXTRN	vkEnumeratePhysicalDevices:PROC
EXTRN	vkGetPhysicalDeviceFormatProperties:PROC
EXTRN	vkGetInstanceProcAddr:PROC
EXTRN	vkCreateDevice:PROC
EXTRN	vkDestroyDevice:PROC
EXTRN	vkEnumerateInstanceExtensionProperties:PROC
EXTRN	vkEnumerateDeviceExtensionProperties:PROC
EXTRN	vkEnumerateInstanceLayerProperties:PROC
EXTRN	vkEnumerateDeviceLayerProperties:PROC
EXTRN	vkQueueSubmit:PROC
EXTRN	vkQueueWaitIdle:PROC
EXTRN	vkAllocateMemory:PROC
EXTRN	vkFreeMemory:PROC
EXTRN	vkMapMemory:PROC
EXTRN	vkUnmapMemory:PROC
EXTRN	vkBindBufferMemory:PROC
EXTRN	vkBindImageMemory:PROC
EXTRN	vkGetBufferMemoryRequirements:PROC
EXTRN	vkGetImageMemoryRequirements:PROC
EXTRN	vkCreateSemaphore:PROC
EXTRN	vkDestroySemaphore:PROC
EXTRN	vkCreateBuffer:PROC
EXTRN	vkCreateImage:PROC
EXTRN	vkDestroyImage:PROC
EXTRN	vkCreateImageView:PROC
EXTRN	vkDestroyImageView:PROC
EXTRN	vkCreateShaderModule:PROC
EXTRN	vkDestroyShaderModule:PROC
EXTRN	vkCreatePipelineCache:PROC
EXTRN	vkDestroyPipelineCache:PROC
EXTRN	vkDestroyPipeline:PROC
EXTRN	vkCreatePipelineLayout:PROC
EXTRN	vkDestroyPipelineLayout:PROC
EXTRN	vkCreateDescriptorSetLayout:PROC
EXTRN	vkDestroyDescriptorSetLayout:PROC
EXTRN	vkDestroyDescriptorPool:PROC
EXTRN	vkCreateFramebuffer:PROC
EXTRN	vkDestroyFramebuffer:PROC
EXTRN	vkCreateRenderPass:PROC
EXTRN	vkDestroyRenderPass:PROC
EXTRN	vkCreateCommandPool:PROC
EXTRN	vkDestroyCommandPool:PROC
EXTRN	vkAllocateCommandBuffers:PROC
EXTRN	vkFreeCommandBuffers:PROC
EXTRN	vkBeginCommandBuffer:PROC
EXTRN	vkEndCommandBuffer:PROC
EXTRN	vkCmdPipelineBarrier:PROC
EXTRN	__imp_??0_Lockit@std@@QEAA@H@Z:PROC
EXTRN	__imp_??1_Lockit@std@@QEAA@XZ:PROC
EXTRN	memcpy:PROC
EXTRN	__imp_memmove:PROC
EXTRN	__imp___acrt_iob_func:PROC
EXTRN	__imp___stdio_common_vfprintf:PROC
EXTRN	__imp___stdio_common_vsprintf_s:PROC
EXTRN	strlen:PROC
EXTRN	__imp__CrtDbgReportW:PROC
EXTRN	__imp_?_Debug_message@std@@YAXPEBG0I@Z:PROC
EXTRN	__imp_?_Xbad_alloc@std@@YAXXZ:PROC
EXTRN	__imp_?_Xlength_error@std@@YAXPEBD@Z:PROC
EXTRN	__imp_?_Xout_of_range@std@@YAXPEBD@Z:PROC
EXTRN	__imp_?sbumpc@?$basic_streambuf@DU?$char_traits@D@std@@@std@@QEAAHXZ:PROC
EXTRN	__imp_?setstate@?$basic_ios@DU?$char_traits@D@std@@@std@@QEAAXH_N@Z:PROC
EXTRN	__imp_?rdbuf@?$basic_ios@DU?$char_traits@D@std@@@std@@QEBAPEAV?$basic_streambuf@DU?$char_traits@D@std@@@2@XZ:PROC
EXTRN	__imp_?_Ipfx@?$basic_istream@DU?$char_traits@D@std@@@std@@QEAA_N_N@Z:PROC
EXTRN	__imp_ShowWindow:PROC
EXTRN	__imp_SetFocus:PROC
EXTRN	__imp_GetConsoleWindow:PROC
EXTRN	_CxxThrowException:PROC
EXTRN	_RTC_CheckStackVars:PROC
EXTRN	_RTC_InitBase:PROC
EXTRN	_RTC_Shutdown:PROC
EXTRN	__CxxFrameHandler3:PROC
EXTRN	__GSHandlerCheck:PROC
EXTRN	__GSHandlerCheck_EH:PROC
EXTRN	__security_check_cookie:PROC
EXTRN	__imp_?cin@std@@3V?$basic_istream@DU?$char_traits@D@std@@@1@A:BYTE
EXTRN	__security_cookie:QWORD
EXTRN	_fltused:DWORD
;	COMDAT ?_OptionsStorage@?1??__local_stdio_printf_options@@9@4_KA
_BSS	SEGMENT
?_OptionsStorage@?1??__local_stdio_printf_options@@9@4_KA DQ 01H DUP (?) ; `__local_stdio_printf_options'::`2'::_OptionsStorage
_BSS	ENDS
;	COMDAT pdata
pdata	SEGMENT
$pdata$?__empty_global_delete@@YAXPEAX@Z DD imagerel $LN3
	DD	imagerel $LN3+50
	DD	imagerel $unwind$?__empty_global_delete@@YAXPEAX@Z
pdata	ENDS
;	COMDAT pdata
pdata	SEGMENT
$pdata$?__empty_global_delete@@YAXPEAX_K@Z DD imagerel $LN3
	DD	imagerel $LN3+55
	DD	imagerel $unwind$?__empty_global_delete@@YAXPEAX_K@Z
pdata	ENDS
;	COMDAT pdata
pdata	SEGMENT
$pdata$__local_stdio_printf_options DD imagerel $LN3
	DD	imagerel $LN3+45
	DD	imagerel $unwind$__local_stdio_printf_options
pdata	ENDS
;	COMDAT pdata
pdata	SEGMENT
$pdata$??2@YAPEAX_KPEAX@Z DD imagerel $LN3
	DD	imagerel $LN3+62
	DD	imagerel $unwind$??2@YAPEAX_KPEAX@Z
pdata	ENDS
;	COMDAT pdata
pdata	SEGMENT
$pdata$_vfprintf_l DD imagerel $LN3
	DD	imagerel $LN3+114
	DD	imagerel $unwind$_vfprintf_l
pdata	ENDS
;	COMDAT pdata
pdata	SEGMENT
$pdata$fprintf DD imagerel $LN3
	DD	imagerel $LN3+175
	DD	imagerel $unwind$fprintf
pdata	ENDS
;	COMDAT pdata
pdata	SEGMENT
$pdata$??$__vcrt_va_start_verify_argument_type@QEBD@@YAXXZ DD imagerel $LN3
	DD	imagerel $LN3+38
	DD	imagerel $unwind$??$__vcrt_va_start_verify_argument_type@QEBD@@YAXXZ
pdata	ENDS
;	COMDAT pdata
pdata	SEGMENT
$pdata$_vsprintf_s_l DD imagerel $LN5
	DD	imagerel $LN5+162
	DD	imagerel $unwind$_vsprintf_s_l
pdata	ENDS
;	COMDAT pdata
pdata	SEGMENT
$pdata$sprintf_s DD imagerel $LN3
	DD	imagerel $LN3+187
	DD	imagerel $unwind$sprintf_s
pdata	ENDS
;	COMDAT pdata
pdata	SEGMENT
$pdata$?length@?$char_traits@D@std@@SA_KPEBD@Z DD imagerel $LN5
	DD	imagerel $LN5+105
	DD	imagerel $unwind$?length@?$char_traits@D@std@@SA_KPEBD@Z
pdata	ENDS
;	COMDAT pdata
pdata	SEGMENT
$pdata$?copy@?$char_traits@D@std@@SAPEADPEADPEBD_K@Z DD imagerel $LN5
	DD	imagerel $LN5+128
	DD	imagerel $unwind$?copy@?$char_traits@D@std@@SAPEADPEADPEBD_K@Z
pdata	ENDS
;	COMDAT pdata
pdata	SEGMENT
$pdata$?move@?$char_traits@D@std@@SAPEADPEADPEBD_K@Z DD imagerel $LN5
	DD	imagerel $LN5+129
	DD	imagerel $unwind$?move@?$char_traits@D@std@@SAPEADPEADPEBD_K@Z
pdata	ENDS
;	COMDAT pdata
pdata	SEGMENT
$pdata$?assign@?$char_traits@D@std@@SAXAEADAEBD@Z DD imagerel $LN3
	DD	imagerel $LN3+74
	DD	imagerel $unwind$?assign@?$char_traits@D@std@@SAXAEADAEBD@Z
pdata	ENDS
;	COMDAT pdata
pdata	SEGMENT
$pdata$?to_char_type@?$char_traits@D@std@@SADAEBH@Z DD imagerel $LN3
	DD	imagerel $LN3+60
	DD	imagerel $unwind$?to_char_type@?$char_traits@D@std@@SADAEBH@Z
pdata	ENDS
;	COMDAT pdata
pdata	SEGMENT
$pdata$?eq_int_type@?$char_traits@D@std@@SA_NAEBH0@Z DD imagerel $LN5
	DD	imagerel $LN5+104
	DD	imagerel $unwind$?eq_int_type@?$char_traits@D@std@@SA_NAEBH0@Z
pdata	ENDS
;	COMDAT pdata
pdata	SEGMENT
$pdata$?eof@?$char_traits@D@std@@SAHXZ DD imagerel $LN3
	DD	imagerel $LN3+43
	DD	imagerel $unwind$?eof@?$char_traits@D@std@@SAHXZ
pdata	ENDS
;	COMDAT pdata
pdata	SEGMENT
$pdata$??0_Container_proxy@std@@QEAA@XZ DD imagerel $LN3
	DD	imagerel $LN3+86
	DD	imagerel $unwind$??0_Container_proxy@std@@QEAA@XZ
pdata	ENDS
;	COMDAT pdata
pdata	SEGMENT
$pdata$??0_Container_base12@std@@QEAA@XZ DD imagerel $LN3
	DD	imagerel $LN3+71
	DD	imagerel $unwind$??0_Container_base12@std@@QEAA@XZ
pdata	ENDS
;	COMDAT pdata
pdata	SEGMENT
$pdata$??1_Container_base12@std@@QEAA@XZ DD imagerel $LN3
	DD	imagerel $LN3+76
	DD	imagerel $unwind$??1_Container_base12@std@@QEAA@XZ
pdata	ENDS
;	COMDAT pdata
pdata	SEGMENT
$pdata$?_Getpfirst@_Container_base12@std@@QEBAPEAPEAU_Iterator_base12@2@XZ DD imagerel $LN5
	DD	imagerel $LN5+104
	DD	imagerel $unwind$?_Getpfirst@_Container_base12@std@@QEBAPEAPEAU_Iterator_base12@2@XZ
pdata	ENDS
;	COMDAT pdata
pdata	SEGMENT
$pdata$?_Orphan_all@_Container_base12@std@@QEAAXXZ DD imagerel $LN8
	DD	imagerel $LN8+220
	DD	imagerel $unwind$?_Orphan_all@_Container_base12@std@@QEAAXXZ
pdata	ENDS
;	COMDAT pdata
pdata	SEGMENT
$pdata$?_Swap_all@_Container_base12@std@@QEAAXAEAU12@@Z DD imagerel $LN6
	DD	imagerel $LN6+244
	DD	imagerel $unwind$?_Swap_all@_Container_base12@std@@QEAAXAEAU12@@Z
pdata	ENDS
;	COMDAT pdata
pdata	SEGMENT
$pdata$??0_Iterator_base12@std@@QEAA@XZ DD imagerel $LN3
	DD	imagerel $LN3+86
	DD	imagerel $unwind$??0_Iterator_base12@std@@QEAA@XZ
pdata	ENDS
;	COMDAT pdata
pdata	SEGMENT
$pdata$??1_Iterator_base12@std@@QEAA@XZ DD imagerel $LN3
	DD	imagerel $LN3+153
	DD	imagerel $unwind$??1_Iterator_base12@std@@QEAA@XZ
pdata	ENDS
;	COMDAT pdata
pdata	SEGMENT
$pdata$?_Adopt@_Iterator_base12@std@@QEAAXPEBU_Container_base12@2@@Z DD imagerel $LN8
	DD	imagerel $LN8+283
	DD	imagerel $unwind$?_Adopt@_Iterator_base12@std@@QEAAXPEBU_Container_base12@2@@Z
pdata	ENDS
;	COMDAT pdata
pdata	SEGMENT
$pdata$?dtor$0@?0??_Adopt@_Iterator_base12@std@@QEAAXPEBU_Container_base12@2@@Z@4HA DD imagerel ?dtor$0@?0??_Adopt@_Iterator_base12@std@@QEAAXPEBU_Container_base12@2@@Z@4HA
	DD	imagerel ?dtor$0@?0??_Adopt@_Iterator_base12@std@@QEAAXPEBU_Container_base12@2@@Z@4HA+37
	DD	imagerel $unwind$?dtor$0@?0??_Adopt@_Iterator_base12@std@@QEAAXPEBU_Container_base12@2@@Z@4HA
pdata	ENDS
;	COMDAT pdata
pdata	SEGMENT
$pdata$?dtor$1@?0??_Adopt@_Iterator_base12@std@@QEAAXPEBU_Container_base12@2@@Z@4HA DD imagerel ?dtor$1@?0??_Adopt@_Iterator_base12@std@@QEAAXPEBU_Container_base12@2@@Z@4HA
	DD	imagerel ?dtor$1@?0??_Adopt@_Iterator_base12@std@@QEAAXPEBU_Container_base12@2@@Z@4HA+37
	DD	imagerel $unwind$?dtor$1@?0??_Adopt@_Iterator_base12@std@@QEAAXPEBU_Container_base12@2@@Z@4HA
pdata	ENDS
;	COMDAT pdata
pdata	SEGMENT
$pdata$?_Clrcont@_Iterator_base12@std@@QEAAXXZ DD imagerel $LN3
	DD	imagerel $LN3+64
	DD	imagerel $unwind$?_Clrcont@_Iterator_base12@std@@QEAAXXZ
pdata	ENDS
;	COMDAT pdata
pdata	SEGMENT
$pdata$?_Getcont@_Iterator_base12@std@@QEBAPEBU_Container_base12@2@XZ DD imagerel $LN5
	DD	imagerel $LN5+103
	DD	imagerel $unwind$?_Getcont@_Iterator_base12@std@@QEBAPEBU_Container_base12@2@XZ
pdata	ENDS
;	COMDAT pdata
pdata	SEGMENT
$pdata$?_Getpnext@_Iterator_base12@std@@QEAAPEAPEAU12@XZ DD imagerel $LN3
	DD	imagerel $LN3+61
	DD	imagerel $unwind$?_Getpnext@_Iterator_base12@std@@QEAAPEAPEAU12@XZ
pdata	ENDS
;	COMDAT pdata
pdata	SEGMENT
$pdata$?_Orphan_me@_Iterator_base12@std@@QEAAXXZ DD imagerel $LN7
	DD	imagerel $LN7+198
	DD	imagerel $unwind$?_Orphan_me@_Iterator_base12@std@@QEAAXXZ
pdata	ENDS
;	COMDAT pdata
pdata	SEGMENT
$pdata$?_Allocate@std@@YAPEAX_K0_N@Z DD imagerel $LN14
	DD	imagerel $LN14+579
	DD	imagerel $unwind$?_Allocate@std@@YAPEAX_K0_N@Z
pdata	ENDS
;	COMDAT pdata
pdata	SEGMENT
$pdata$?_Deallocate@std@@YAXPEAX_K1@Z DD imagerel $LN22
	DD	imagerel $LN22+1079
	DD	imagerel $unwind$?_Deallocate@std@@YAXPEAX_K1@Z
pdata	ENDS
;	COMDAT pdata
pdata	SEGMENT
$pdata$??0?$allocator@D@std@@QEAA@XZ DD imagerel $LN3
	DD	imagerel $LN3+57
	DD	imagerel $unwind$??0?$allocator@D@std@@QEAA@XZ
pdata	ENDS
;	COMDAT pdata
pdata	SEGMENT
$pdata$??0?$allocator@D@std@@QEAA@AEBV01@@Z DD imagerel $LN3
	DD	imagerel $LN3+62
	DD	imagerel $unwind$??0?$allocator@D@std@@QEAA@AEBV01@@Z
pdata	ENDS
;	COMDAT pdata
pdata	SEGMENT
$pdata$?deallocate@?$allocator@D@std@@QEAAXPEAD_K@Z DD imagerel $LN3
	DD	imagerel $LN3+87
	DD	imagerel $unwind$?deallocate@?$allocator@D@std@@QEAAXPEAD_K@Z
pdata	ENDS
;	COMDAT pdata
pdata	SEGMENT
$pdata$?allocate@?$allocator@D@std@@QEAAPEAD_K@Z DD imagerel $LN3
	DD	imagerel $LN3+77
	DD	imagerel $unwind$?allocate@?$allocator@D@std@@QEAAPEAD_K@Z
pdata	ENDS
;	COMDAT pdata
pdata	SEGMENT
$pdata$?max_size@?$allocator@D@std@@QEBA_KXZ DD imagerel $LN3
	DD	imagerel $LN3+57
	DD	imagerel $unwind$?max_size@?$allocator@D@std@@QEBA_KXZ
pdata	ENDS
;	COMDAT pdata
pdata	SEGMENT
$pdata$?max_size@?$allocator_traits@V?$allocator@D@std@@@std@@SA_KAEBV?$allocator@D@2@@Z DD imagerel $LN3
	DD	imagerel $LN3+64
	DD	imagerel $unwind$?max_size@?$allocator_traits@V?$allocator@D@std@@@std@@SA_KAEBV?$allocator@D@2@@Z
pdata	ENDS
;	COMDAT pdata
pdata	SEGMENT
$pdata$?select_on_container_copy_construction@?$allocator_traits@V?$allocator@D@std@@@std@@SA?AV?$allocator@D@2@AEBV32@@Z DD imagerel $LN3
	DD	imagerel $LN3+83
	DD	imagerel $unwind$?select_on_container_copy_construction@?$allocator_traits@V?$allocator@D@std@@@std@@SA?AV?$allocator@D@2@AEBV32@@Z
pdata	ENDS
;	COMDAT pdata
pdata	SEGMENT
$pdata$?select_on_container_copy_construction@?$_Wrap_alloc@V?$allocator@D@std@@@std@@QEBA?AU12@U_Nil@2@@Z DD imagerel $LN3
	DD	imagerel $LN3+103
	DD	imagerel $unwind$?select_on_container_copy_construction@?$_Wrap_alloc@V?$allocator@D@std@@@std@@QEBA?AU12@U_Nil@2@@Z
pdata	ENDS
;	COMDAT pdata
pdata	SEGMENT
$pdata$??0?$_Wrap_alloc@V?$allocator@D@std@@@std@@QEAA@AEBV?$allocator@D@1@@Z DD imagerel $LN3
	DD	imagerel $LN3+83
	DD	imagerel $unwind$??0?$_Wrap_alloc@V?$allocator@D@std@@@std@@QEAA@AEBV?$allocator@D@1@@Z
pdata	ENDS
;	COMDAT pdata
pdata	SEGMENT
$pdata$?allocate@?$_Wrap_alloc@V?$allocator@D@std@@@std@@QEAAPEAD_K@Z DD imagerel $LN3
	DD	imagerel $LN3+76
	DD	imagerel $unwind$?allocate@?$_Wrap_alloc@V?$allocator@D@std@@@std@@QEAAPEAD_K@Z
pdata	ENDS
;	COMDAT pdata
pdata	SEGMENT
$pdata$?deallocate@?$_Wrap_alloc@V?$allocator@D@std@@@std@@QEAAXPEAD_K@Z DD imagerel $LN3
	DD	imagerel $LN3+88
	DD	imagerel $unwind$?deallocate@?$_Wrap_alloc@V?$allocator@D@std@@@std@@QEAAXPEAD_K@Z
pdata	ENDS
;	COMDAT pdata
pdata	SEGMENT
$pdata$?max_size@?$_Wrap_alloc@V?$allocator@D@std@@@std@@QEBA_KU_Nil@2@@Z DD imagerel $LN3
	DD	imagerel $LN3+68
	DD	imagerel $unwind$?max_size@?$_Wrap_alloc@V?$allocator@D@std@@@std@@QEBA_KU_Nil@2@@Z
pdata	ENDS
;	COMDAT pdata
pdata	SEGMENT
$pdata$??0?$_String_val@U?$_Simple_types@D@std@@@std@@QEAA@XZ DD imagerel $LN4
	DD	imagerel $LN4+101
	DD	imagerel $unwind$??0?$_String_val@U?$_Simple_types@D@std@@@std@@QEAA@XZ
pdata	ENDS
;	COMDAT pdata
pdata	SEGMENT
$pdata$?_Myptr@?$_String_val@U?$_Simple_types@D@std@@@std@@QEAAPEADXZ DD imagerel $LN5
	DD	imagerel $LN5+116
	DD	imagerel $unwind$?_Myptr@?$_String_val@U?$_Simple_types@D@std@@@std@@QEAAPEADXZ
pdata	ENDS
;	COMDAT pdata
pdata	SEGMENT
$pdata$?_Myptr@?$_String_val@U?$_Simple_types@D@std@@@std@@QEBAPEBDXZ DD imagerel $LN5
	DD	imagerel $LN5+116
	DD	imagerel $unwind$?_Myptr@?$_String_val@U?$_Simple_types@D@std@@@std@@QEBAPEBDXZ
pdata	ENDS
;	COMDAT pdata
pdata	SEGMENT
$pdata$??1?$_String_val@U?$_Simple_types@D@std@@@std@@QEAA@XZ DD imagerel $LN3
	DD	imagerel $LN3+64
	DD	imagerel $unwind$??1?$_String_val@U?$_Simple_types@D@std@@@std@@QEAA@XZ
pdata	ENDS
;	COMDAT pdata
pdata	SEGMENT
$pdata$?_Myptr@?$_String_alloc@U?$_String_base_types@DV?$allocator@D@std@@@std@@@std@@QEAAPEADXZ DD imagerel $LN3
	DD	imagerel $LN3+72
	DD	imagerel $unwind$?_Myptr@?$_String_alloc@U?$_String_base_types@DV?$allocator@D@std@@@std@@@std@@QEAAPEADXZ
pdata	ENDS
;	COMDAT pdata
pdata	SEGMENT
$pdata$?_Myptr@?$_String_alloc@U?$_String_base_types@DV?$allocator@D@std@@@std@@@std@@QEBAPEBDXZ DD imagerel $LN3
	DD	imagerel $LN3+72
	DD	imagerel $unwind$?_Myptr@?$_String_alloc@U?$_String_base_types@DV?$allocator@D@std@@@std@@@std@@QEBAPEBDXZ
pdata	ENDS
;	COMDAT pdata
pdata	SEGMENT
$pdata$??0?$_String_alloc@U?$_String_base_types@DV?$allocator@D@std@@@std@@@std@@QEAA@AEBV?$allocator@D@1@@Z DD imagerel $LN4
	DD	imagerel $LN4+118
	DD	imagerel $unwind$??0?$_String_alloc@U?$_String_base_types@DV?$allocator@D@std@@@std@@@std@@QEAA@AEBV?$allocator@D@1@@Z
pdata	ENDS
;	COMDAT pdata
pdata	SEGMENT
$pdata$?dtor$0@?0???0?$_String_alloc@U?$_String_base_types@DV?$allocator@D@std@@@std@@@std@@QEAA@AEBV?$allocator@D@1@@Z@4HA DD imagerel ?dtor$0@?0???0?$_String_alloc@U?$_String_base_types@DV?$allocator@D@std@@@std@@@std@@QEAA@AEBV?$allocator@D@1@@Z@4HA
	DD	imagerel ?dtor$0@?0???0?$_String_alloc@U?$_String_base_types@DV?$allocator@D@std@@@std@@@std@@QEAA@AEBV?$allocator@D@1@@Z@4HA+39
	DD	imagerel $unwind$?dtor$0@?0???0?$_String_alloc@U?$_String_base_types@DV?$allocator@D@std@@@std@@@std@@QEAA@AEBV?$allocator@D@1@@Z@4HA
pdata	ENDS
;	COMDAT pdata
pdata	SEGMENT
$pdata$??0?$_String_alloc@U?$_String_base_types@DV?$allocator@D@std@@@std@@@std@@QEAA@$$QEAV?$allocator@D@1@@Z DD imagerel $LN4
	DD	imagerel $LN4+123
	DD	imagerel $unwind$??0?$_String_alloc@U?$_String_base_types@DV?$allocator@D@std@@@std@@@std@@QEAA@$$QEAV?$allocator@D@1@@Z
pdata	ENDS
;	COMDAT pdata
pdata	SEGMENT
$pdata$?dtor$0@?0???0?$_String_alloc@U?$_String_base_types@DV?$allocator@D@std@@@std@@@std@@QEAA@$$QEAV?$allocator@D@1@@Z@4HA DD imagerel ?dtor$0@?0???0?$_String_alloc@U?$_String_base_types@DV?$allocator@D@std@@@std@@@std@@QEAA@$$QEAV?$allocator@D@1@@Z@4HA
	DD	imagerel ?dtor$0@?0???0?$_String_alloc@U?$_String_base_types@DV?$allocator@D@std@@@std@@@std@@QEAA@$$QEAV?$allocator@D@1@@Z@4HA+39
	DD	imagerel $unwind$?dtor$0@?0???0?$_String_alloc@U?$_String_base_types@DV?$allocator@D@std@@@std@@@std@@QEAA@$$QEAV?$allocator@D@1@@Z@4HA
pdata	ENDS
;	COMDAT pdata
pdata	SEGMENT
$pdata$??1?$_String_alloc@U?$_String_base_types@DV?$allocator@D@std@@@std@@@std@@QEAA@XZ DD imagerel $LN3
	DD	imagerel $LN3+92
	DD	imagerel $unwind$??1?$_String_alloc@U?$_String_base_types@DV?$allocator@D@std@@@std@@@std@@QEAA@XZ
pdata	ENDS
;	COMDAT pdata
pdata	SEGMENT
$pdata$?_Alloc_proxy@?$_String_alloc@U?$_String_base_types@DV?$allocator@D@std@@@std@@@std@@QEAAXXZ DD imagerel $LN3
	DD	imagerel $LN3+264
	DD	imagerel $unwind$?_Alloc_proxy@?$_String_alloc@U?$_String_base_types@DV?$allocator@D@std@@@std@@@std@@QEAAXXZ
pdata	ENDS
;	COMDAT pdata
pdata	SEGMENT
$pdata$?_Free_proxy@?$_String_alloc@U?$_String_base_types@DV?$allocator@D@std@@@std@@@std@@QEAAXXZ DD imagerel $LN3
	DD	imagerel $LN3+209
	DD	imagerel $unwind$?_Free_proxy@?$_String_alloc@U?$_String_base_types@DV?$allocator@D@std@@@std@@@std@@QEAAXXZ
pdata	ENDS
;	COMDAT pdata
pdata	SEGMENT
$pdata$?_Myproxy@?$_String_alloc@U?$_String_base_types@DV?$allocator@D@std@@@std@@@std@@QEAAAEAPEAU_Container_proxy@2@XZ DD imagerel $LN3
	DD	imagerel $LN3+64
	DD	imagerel $unwind$?_Myproxy@?$_String_alloc@U?$_String_base_types@DV?$allocator@D@std@@@std@@@std@@QEAAAEAPEAU_Container_proxy@2@XZ
pdata	ENDS
;	COMDAT pdata
pdata	SEGMENT
$pdata$?_Orphan_all@?$_String_alloc@U?$_String_base_types@DV?$allocator@D@std@@@std@@@std@@QEAAXXZ DD imagerel $LN3
	DD	imagerel $LN3+72
	DD	imagerel $unwind$?_Orphan_all@?$_String_alloc@U?$_String_base_types@DV?$allocator@D@std@@@std@@@std@@QEAAXXZ
pdata	ENDS
;	COMDAT pdata
pdata	SEGMENT
$pdata$?_Getal@?$_String_alloc@U?$_String_base_types@DV?$allocator@D@std@@@std@@@std@@QEAAAEAU?$_Wrap_alloc@V?$allocator@D@std@@@2@XZ DD imagerel $LN3
	DD	imagerel $LN3+67
	DD	imagerel $unwind$?_Getal@?$_String_alloc@U?$_String_base_types@DV?$allocator@D@std@@@std@@@std@@QEAAAEAU?$_Wrap_alloc@V?$allocator@D@std@@@2@XZ
pdata	ENDS
;	COMDAT pdata
pdata	SEGMENT
$pdata$?_Getal@?$_String_alloc@U?$_String_base_types@DV?$allocator@D@std@@@std@@@std@@QEBAAEBU?$_Wrap_alloc@V?$allocator@D@std@@@2@XZ DD imagerel $LN3
	DD	imagerel $LN3+67
	DD	imagerel $unwind$?_Getal@?$_String_alloc@U?$_String_base_types@DV?$allocator@D@std@@@std@@@std@@QEBAAEBU?$_Wrap_alloc@V?$allocator@D@std@@@2@XZ
pdata	ENDS
;	COMDAT pdata
pdata	SEGMENT
$pdata$?_Get_data@?$_String_alloc@U?$_String_base_types@DV?$allocator@D@std@@@std@@@std@@QEAAAEAV?$_String_val@U?$_Simple_types@D@std@@@2@XZ DD imagerel $LN3
	DD	imagerel $LN3+67
	DD	imagerel $unwind$?_Get_data@?$_String_alloc@U?$_String_base_types@DV?$allocator@D@std@@@std@@@std@@QEAAAEAV?$_String_val@U?$_Simple_types@D@std@@@2@XZ
pdata	ENDS
;	COMDAT pdata
pdata	SEGMENT
$pdata$?_Get_data@?$_String_alloc@U?$_String_base_types@DV?$allocator@D@std@@@std@@@std@@QEBAAEBV?$_String_val@U?$_Simple_types@D@std@@@2@XZ DD imagerel $LN3
	DD	imagerel $LN3+67
	DD	imagerel $unwind$?_Get_data@?$_String_alloc@U?$_String_base_types@DV?$allocator@D@std@@@std@@@std@@QEBAAEBV?$_String_val@U?$_Simple_types@D@std@@@2@XZ
pdata	ENDS
;	COMDAT pdata
pdata	SEGMENT
$pdata$?_Bx@?$_String_alloc@U?$_String_base_types@DV?$allocator@D@std@@@std@@@std@@QEAAAEAT_Bxty@?$_String_val@U?$_Simple_types@D@std@@@2@XZ DD imagerel $LN3
	DD	imagerel $LN3+68
	DD	imagerel $unwind$?_Bx@?$_String_alloc@U?$_String_base_types@DV?$allocator@D@std@@@std@@@std@@QEAAAEAT_Bxty@?$_String_val@U?$_Simple_types@D@std@@@2@XZ
pdata	ENDS
;	COMDAT pdata
pdata	SEGMENT
$pdata$?_Mysize@?$_String_alloc@U?$_String_base_types@DV?$allocator@D@std@@@std@@@std@@QEAAAEA_KXZ DD imagerel $LN3
	DD	imagerel $LN3+68
	DD	imagerel $unwind$?_Mysize@?$_String_alloc@U?$_String_base_types@DV?$allocator@D@std@@@std@@@std@@QEAAAEA_KXZ
pdata	ENDS
;	COMDAT pdata
pdata	SEGMENT
$pdata$?_Mysize@?$_String_alloc@U?$_String_base_types@DV?$allocator@D@std@@@std@@@std@@QEBAAEB_KXZ DD imagerel $LN3
	DD	imagerel $LN3+68
	DD	imagerel $unwind$?_Mysize@?$_String_alloc@U?$_String_base_types@DV?$allocator@D@std@@@std@@@std@@QEBAAEB_KXZ
pdata	ENDS
;	COMDAT pdata
pdata	SEGMENT
$pdata$?_Myres@?$_String_alloc@U?$_String_base_types@DV?$allocator@D@std@@@std@@@std@@QEAAAEA_KXZ DD imagerel $LN3
	DD	imagerel $LN3+68
	DD	imagerel $unwind$?_Myres@?$_String_alloc@U?$_String_base_types@DV?$allocator@D@std@@@std@@@std@@QEAAAEA_KXZ
pdata	ENDS
;	COMDAT pdata
pdata	SEGMENT
$pdata$?_Get_first@?$_Compressed_pair@U?$_Wrap_alloc@V?$allocator@D@std@@@std@@V?$_String_val@U?$_Simple_types@D@std@@@2@$00@std@@QEAAAEAU?$_Wrap_alloc@V?$allocator@D@std@@@2@XZ DD imagerel $LN3
	DD	imagerel $LN3+57
	DD	imagerel $unwind$?_Get_first@?$_Compressed_pair@U?$_Wrap_alloc@V?$allocator@D@std@@@std@@V?$_String_val@U?$_Simple_types@D@std@@@2@$00@std@@QEAAAEAU?$_Wrap_alloc@V?$allocator@D@std@@@2@XZ
pdata	ENDS
;	COMDAT pdata
pdata	SEGMENT
$pdata$?_Get_first@?$_Compressed_pair@U?$_Wrap_alloc@V?$allocator@D@std@@@std@@V?$_String_val@U?$_Simple_types@D@std@@@2@$00@std@@QEBAAEBU?$_Wrap_alloc@V?$allocator@D@std@@@2@XZ DD imagerel $LN3
	DD	imagerel $LN3+57
	DD	imagerel $unwind$?_Get_first@?$_Compressed_pair@U?$_Wrap_alloc@V?$allocator@D@std@@@std@@V?$_String_val@U?$_Simple_types@D@std@@@2@$00@std@@QEBAAEBU?$_Wrap_alloc@V?$allocator@D@std@@@2@XZ
pdata	ENDS
;	COMDAT pdata
pdata	SEGMENT
$pdata$?_Get_second@?$_Compressed_pair@U?$_Wrap_alloc@V?$allocator@D@std@@@std@@V?$_String_val@U?$_Simple_types@D@std@@@2@$00@std@@QEAAAEAV?$_String_val@U?$_Simple_types@D@std@@@2@XZ DD imagerel $LN3
	DD	imagerel $LN3+57
	DD	imagerel $unwind$?_Get_second@?$_Compressed_pair@U?$_Wrap_alloc@V?$allocator@D@std@@@std@@V?$_String_val@U?$_Simple_types@D@std@@@2@$00@std@@QEAAAEAV?$_String_val@U?$_Simple_types@D@std@@@2@XZ
pdata	ENDS
;	COMDAT pdata
pdata	SEGMENT
$pdata$?_Get_second@?$_Compressed_pair@U?$_Wrap_alloc@V?$allocator@D@std@@@std@@V?$_String_val@U?$_Simple_types@D@std@@@2@$00@std@@QEBAAEBV?$_String_val@U?$_Simple_types@D@std@@@2@XZ DD imagerel $LN3
	DD	imagerel $LN3+57
	DD	imagerel $unwind$?_Get_second@?$_Compressed_pair@U?$_Wrap_alloc@V?$allocator@D@std@@@std@@V?$_String_val@U?$_Simple_types@D@std@@@2@$00@std@@QEBAAEBV?$_String_val@U?$_Simple_types@D@std@@@2@XZ
pdata	ENDS
;	COMDAT pdata
pdata	SEGMENT
$pdata$??1?$_Compressed_pair@U?$_Wrap_alloc@V?$allocator@D@std@@@std@@V?$_String_val@U?$_Simple_types@D@std@@@2@$00@std@@QEAA@XZ DD imagerel $LN3
	DD	imagerel $LN3+67
	DD	imagerel $unwind$??1?$_Compressed_pair@U?$_Wrap_alloc@V?$allocator@D@std@@@std@@V?$_String_val@U?$_Simple_types@D@std@@@2@$00@std@@QEAA@XZ
pdata	ENDS
;	COMDAT pdata
pdata	SEGMENT
$pdata$??0?$basic_string@DU?$char_traits@D@std@@V?$allocator@D@2@@std@@QEAA@AEBV01@@Z DD imagerel $LN4
	DD	imagerel $LN4+173
	DD	imagerel $unwind$??0?$basic_string@DU?$char_traits@D@std@@V?$allocator@D@2@@std@@QEAA@AEBV01@@Z
pdata	ENDS
;	COMDAT pdata
pdata	SEGMENT
$pdata$?dtor$0@?0???0?$basic_string@DU?$char_traits@D@std@@V?$allocator@D@2@@std@@QEAA@AEBV01@@Z@4HA DD imagerel ?dtor$0@?0???0?$basic_string@DU?$char_traits@D@std@@V?$allocator@D@2@@std@@QEAA@AEBV01@@Z@4HA
	DD	imagerel ?dtor$0@?0???0?$basic_string@DU?$char_traits@D@std@@V?$allocator@D@2@@std@@QEAA@AEBV01@@Z@4HA+39
	DD	imagerel $unwind$?dtor$0@?0???0?$basic_string@DU?$char_traits@D@std@@V?$allocator@D@2@@std@@QEAA@AEBV01@@Z@4HA
pdata	ENDS
;	COMDAT pdata
pdata	SEGMENT
$pdata$??0?$basic_string@DU?$char_traits@D@std@@V?$allocator@D@2@@std@@QEAA@XZ DD imagerel $LN3
	DD	imagerel $LN3+117
	DD	imagerel $unwind$??0?$basic_string@DU?$char_traits@D@std@@V?$allocator@D@2@@std@@QEAA@XZ
pdata	ENDS
;	COMDAT pdata
pdata	SEGMENT
$pdata$??0?$basic_string@DU?$char_traits@D@std@@V?$allocator@D@2@@std@@QEAA@PEBD_K@Z DD imagerel $LN4
	DD	imagerel $LN4+152
	DD	imagerel $unwind$??0?$basic_string@DU?$char_traits@D@std@@V?$allocator@D@2@@std@@QEAA@PEBD_K@Z
pdata	ENDS
;	COMDAT pdata
pdata	SEGMENT
$pdata$?dtor$0@?0???0?$basic_string@DU?$char_traits@D@std@@V?$allocator@D@2@@std@@QEAA@PEBD_K@Z@4HA DD imagerel ?dtor$0@?0???0?$basic_string@DU?$char_traits@D@std@@V?$allocator@D@2@@std@@QEAA@PEBD_K@Z@4HA
	DD	imagerel ?dtor$0@?0???0?$basic_string@DU?$char_traits@D@std@@V?$allocator@D@2@@std@@QEAA@PEBD_K@Z@4HA+39
	DD	imagerel $unwind$?dtor$0@?0???0?$basic_string@DU?$char_traits@D@std@@V?$allocator@D@2@@std@@QEAA@PEBD_K@Z@4HA
pdata	ENDS
;	COMDAT pdata
pdata	SEGMENT
$pdata$??0?$basic_string@DU?$char_traits@D@std@@V?$allocator@D@2@@std@@QEAA@PEBD@Z DD imagerel $LN4
	DD	imagerel $LN4+140
	DD	imagerel $unwind$??0?$basic_string@DU?$char_traits@D@std@@V?$allocator@D@2@@std@@QEAA@PEBD@Z
pdata	ENDS
;	COMDAT pdata
pdata	SEGMENT
$pdata$?dtor$0@?0???0?$basic_string@DU?$char_traits@D@std@@V?$allocator@D@2@@std@@QEAA@PEBD@Z@4HA DD imagerel ?dtor$0@?0???0?$basic_string@DU?$char_traits@D@std@@V?$allocator@D@2@@std@@QEAA@PEBD@Z@4HA
	DD	imagerel ?dtor$0@?0???0?$basic_string@DU?$char_traits@D@std@@V?$allocator@D@2@@std@@QEAA@PEBD@Z@4HA+39
	DD	imagerel $unwind$?dtor$0@?0???0?$basic_string@DU?$char_traits@D@std@@V?$allocator@D@2@@std@@QEAA@PEBD@Z@4HA
pdata	ENDS
;	COMDAT pdata
pdata	SEGMENT
$pdata$??0?$basic_string@DU?$char_traits@D@std@@V?$allocator@D@2@@std@@QEAA@$$QEAV01@@Z DD imagerel $LN3
	DD	imagerel $LN3+160
	DD	imagerel $unwind$??0?$basic_string@DU?$char_traits@D@std@@V?$allocator@D@2@@std@@QEAA@$$QEAV01@@Z
pdata	ENDS
;	COMDAT pdata
pdata	SEGMENT
$pdata$?_Assign_rv@?$basic_string@DU?$char_traits@D@std@@V?$allocator@D@2@@std@@QEAAX$$QEAV12@@Z DD imagerel $LN5
	DD	imagerel $LN5+363
	DD	imagerel $unwind$?_Assign_rv@?$basic_string@DU?$char_traits@D@std@@V?$allocator@D@2@@std@@QEAAX$$QEAV12@@Z
pdata	ENDS
;	COMDAT pdata
pdata	SEGMENT
$pdata$??1?$basic_string@DU?$char_traits@D@std@@V?$allocator@D@2@@std@@QEAA@XZ DD imagerel $LN3
	DD	imagerel $LN3+94
	DD	imagerel $unwind$??1?$basic_string@DU?$char_traits@D@std@@V?$allocator@D@2@@std@@QEAA@XZ
pdata	ENDS
;	COMDAT pdata
pdata	SEGMENT
$pdata$??Y?$basic_string@DU?$char_traits@D@std@@V?$allocator@D@2@@std@@QEAAAEAV01@PEBD@Z DD imagerel $LN3
	DD	imagerel $LN3+76
	DD	imagerel $unwind$??Y?$basic_string@DU?$char_traits@D@std@@V?$allocator@D@2@@std@@QEAAAEAV01@PEBD@Z
pdata	ENDS
;	COMDAT pdata
pdata	SEGMENT
$pdata$?append@?$basic_string@DU?$char_traits@D@std@@V?$allocator@D@2@@std@@QEAAAEAV12@AEBV12@_K1@Z DD imagerel $LN7
	DD	imagerel $LN7+380
	DD	imagerel $unwind$?append@?$basic_string@DU?$char_traits@D@std@@V?$allocator@D@2@@std@@QEAAAEAV12@AEBV12@_K1@Z
pdata	ENDS
;	COMDAT pdata
pdata	SEGMENT
$pdata$?append@?$basic_string@DU?$char_traits@D@std@@V?$allocator@D@2@@std@@QEAAAEAV12@PEBD_K@Z DD imagerel $LN8
	DD	imagerel $LN8+409
	DD	imagerel $unwind$?append@?$basic_string@DU?$char_traits@D@std@@V?$allocator@D@2@@std@@QEAAAEAV12@PEBD_K@Z
pdata	ENDS
;	COMDAT pdata
pdata	SEGMENT
$pdata$?append@?$basic_string@DU?$char_traits@D@std@@V?$allocator@D@2@@std@@QEAAAEAV12@PEBD@Z DD imagerel $LN3
	DD	imagerel $LN3+116
	DD	imagerel $unwind$?append@?$basic_string@DU?$char_traits@D@std@@V?$allocator@D@2@@std@@QEAAAEAV12@PEBD@Z
pdata	ENDS
;	COMDAT pdata
pdata	SEGMENT
$pdata$?assign@?$basic_string@DU?$char_traits@D@std@@V?$allocator@D@2@@std@@QEAAAEAV12@AEBV12@_K1@Z DD imagerel $LN8
	DD	imagerel $LN8+327
	DD	imagerel $unwind$?assign@?$basic_string@DU?$char_traits@D@std@@V?$allocator@D@2@@std@@QEAAAEAV12@AEBV12@_K1@Z
pdata	ENDS
;	COMDAT pdata
pdata	SEGMENT
$pdata$?assign@?$basic_string@DU?$char_traits@D@std@@V?$allocator@D@2@@std@@QEAAAEAV12@PEBD_K@Z DD imagerel $LN7
	DD	imagerel $LN7+291
	DD	imagerel $unwind$?assign@?$basic_string@DU?$char_traits@D@std@@V?$allocator@D@2@@std@@QEAAAEAV12@PEBD_K@Z
pdata	ENDS
;	COMDAT pdata
pdata	SEGMENT
$pdata$?assign@?$basic_string@DU?$char_traits@D@std@@V?$allocator@D@2@@std@@QEAAAEAV12@PEBD@Z DD imagerel $LN3
	DD	imagerel $LN3+116
	DD	imagerel $unwind$?assign@?$basic_string@DU?$char_traits@D@std@@V?$allocator@D@2@@std@@QEAAAEAV12@PEBD@Z
pdata	ENDS
;	COMDAT pdata
pdata	SEGMENT
$pdata$?insert@?$basic_string@DU?$char_traits@D@std@@V?$allocator@D@2@@std@@QEAAAEAV12@_KAEBV12@00@Z DD imagerel $LN12
	DD	imagerel $LN12+643
	DD	imagerel $unwind$?insert@?$basic_string@DU?$char_traits@D@std@@V?$allocator@D@2@@std@@QEAAAEAV12@_KAEBV12@00@Z
pdata	ENDS
;	COMDAT pdata
pdata	SEGMENT
$pdata$?insert@?$basic_string@DU?$char_traits@D@std@@V?$allocator@D@2@@std@@QEAAAEAV12@_KPEBD0@Z DD imagerel $LN9
	DD	imagerel $LN9+550
	DD	imagerel $unwind$?insert@?$basic_string@DU?$char_traits@D@std@@V?$allocator@D@2@@std@@QEAAAEAV12@_KPEBD0@Z
pdata	ENDS
;	COMDAT pdata
pdata	SEGMENT
$pdata$?insert@?$basic_string@DU?$char_traits@D@std@@V?$allocator@D@2@@std@@QEAAAEAV12@_KPEBD@Z DD imagerel $LN3
	DD	imagerel $LN3+128
	DD	imagerel $unwind$?insert@?$basic_string@DU?$char_traits@D@std@@V?$allocator@D@2@@std@@QEAAAEAV12@_KPEBD@Z
pdata	ENDS
;	COMDAT pdata
pdata	SEGMENT
$pdata$?erase@?$basic_string@DU?$char_traits@D@std@@V?$allocator@D@2@@std@@QEAAAEAV12@_K@Z DD imagerel $LN4
	DD	imagerel $LN4+119
	DD	imagerel $unwind$?erase@?$basic_string@DU?$char_traits@D@std@@V?$allocator@D@2@@std@@QEAAAEAV12@_K@Z
pdata	ENDS
;	COMDAT pdata
pdata	SEGMENT
$pdata$?erase@?$basic_string@DU?$char_traits@D@std@@V?$allocator@D@2@@std@@QEAAAEAV12@_K0@Z DD imagerel $LN7
	DD	imagerel $LN7+287
	DD	imagerel $unwind$?erase@?$basic_string@DU?$char_traits@D@std@@V?$allocator@D@2@@std@@QEAAAEAV12@_K0@Z
pdata	ENDS
;	COMDAT pdata
pdata	SEGMENT
$pdata$?c_str@?$basic_string@DU?$char_traits@D@std@@V?$allocator@D@2@@std@@QEBAPEBDXZ DD imagerel $LN3
	DD	imagerel $LN3+76
	DD	imagerel $unwind$?c_str@?$basic_string@DU?$char_traits@D@std@@V?$allocator@D@2@@std@@QEBAPEBDXZ
pdata	ENDS
;	COMDAT pdata
pdata	SEGMENT
$pdata$?size@?$basic_string@DU?$char_traits@D@std@@V?$allocator@D@2@@std@@QEBA_KXZ DD imagerel $LN3
	DD	imagerel $LN3+67
	DD	imagerel $unwind$?size@?$basic_string@DU?$char_traits@D@std@@V?$allocator@D@2@@std@@QEBA_KXZ
pdata	ENDS
;	COMDAT pdata
pdata	SEGMENT
$pdata$?max_size@?$basic_string@DU?$char_traits@D@std@@V?$allocator@D@2@@std@@QEBA_KXZ DD imagerel $LN5
	DD	imagerel $LN5+124
	DD	imagerel $unwind$?max_size@?$basic_string@DU?$char_traits@D@std@@V?$allocator@D@2@@std@@QEBA_KXZ
pdata	ENDS
;	COMDAT pdata
pdata	SEGMENT
$pdata$?_Copy@?$basic_string@DU?$char_traits@D@std@@V?$allocator@D@2@@std@@QEAAX_K0@Z DD imagerel $LN23
	DD	imagerel $LN23+610
	DD	imagerel $unwind$?_Copy@?$basic_string@DU?$char_traits@D@std@@V?$allocator@D@2@@std@@QEAAX_K0@Z
pdata	ENDS
;	COMDAT pdata
pdata	SEGMENT
$pdata$?catch$1@?0??_Copy@?$basic_string@DU?$char_traits@D@std@@V?$allocator@D@2@@std@@QEAAX_K0@Z@4HA DD imagerel ?catch$1@?0??_Copy@?$basic_string@DU?$char_traits@D@std@@V?$allocator@D@2@@std@@QEAAX_K0@Z@4HA
	DD	imagerel ?catch$1@?0??_Copy@?$basic_string@DU?$char_traits@D@std@@V?$allocator@D@2@@std@@QEAAX_K0@Z@4HA+110
	DD	imagerel $unwind$?catch$1@?0??_Copy@?$basic_string@DU?$char_traits@D@std@@V?$allocator@D@2@@std@@QEAAX_K0@Z@4HA
pdata	ENDS
;	COMDAT pdata
pdata	SEGMENT
$pdata$?catch$0@?0??_Copy@?$basic_string@DU?$char_traits@D@std@@V?$allocator@D@2@@std@@QEAAX_K0@Z@4HA DD imagerel ?catch$0@?0??_Copy@?$basic_string@DU?$char_traits@D@std@@V?$allocator@D@2@@std@@QEAAX_K0@Z@4HA
	DD	imagerel ?catch$0@?0??_Copy@?$basic_string@DU?$char_traits@D@std@@V?$allocator@D@2@@std@@QEAAX_K0@Z@4HA+62
	DD	imagerel $unwind$?catch$0@?0??_Copy@?$basic_string@DU?$char_traits@D@std@@V?$allocator@D@2@@std@@QEAAX_K0@Z@4HA
pdata	ENDS
;	COMDAT pdata
pdata	SEGMENT
$pdata$?_Eos@?$basic_string@DU?$char_traits@D@std@@V?$allocator@D@2@@std@@QEAAX_K@Z DD imagerel $LN3
	DD	imagerel $LN3+123
	DD	imagerel $unwind$?_Eos@?$basic_string@DU?$char_traits@D@std@@V?$allocator@D@2@@std@@QEAAX_K@Z
pdata	ENDS
;	COMDAT pdata
pdata	SEGMENT
$pdata$?_Grow@?$basic_string@DU?$char_traits@D@std@@V?$allocator@D@2@@std@@QEAA_N_K_N@Z DD imagerel $LN13
	DD	imagerel $LN13+327
	DD	imagerel $unwind$?_Grow@?$basic_string@DU?$char_traits@D@std@@V?$allocator@D@2@@std@@QEAA_N_K_N@Z
pdata	ENDS
;	COMDAT pdata
pdata	SEGMENT
$pdata$?_Inside@?$basic_string@DU?$char_traits@D@std@@V?$allocator@D@2@@std@@QEAA_NPEBD@Z DD imagerel $LN6
	DD	imagerel $LN6+149
	DD	imagerel $unwind$?_Inside@?$basic_string@DU?$char_traits@D@std@@V?$allocator@D@2@@std@@QEAA_NPEBD@Z
pdata	ENDS
;	COMDAT pdata
pdata	SEGMENT
$pdata$?_Tidy@?$basic_string@DU?$char_traits@D@std@@V?$allocator@D@2@@std@@QEAAX_N_K@Z DD imagerel $LN7
	DD	imagerel $LN7+327
	DD	imagerel $unwind$?_Tidy@?$basic_string@DU?$char_traits@D@std@@V?$allocator@D@2@@std@@QEAAX_N_K@Z
pdata	ENDS
;	COMDAT pdata
pdata	SEGMENT
$pdata$?_Xlen@?$basic_string@DU?$char_traits@D@std@@V?$allocator@D@2@@std@@QEBAXXZ DD imagerel $LN3
	DD	imagerel $LN3+65
	DD	imagerel $unwind$?_Xlen@?$basic_string@DU?$char_traits@D@std@@V?$allocator@D@2@@std@@QEBAXXZ
pdata	ENDS
;	COMDAT pdata
pdata	SEGMENT
$pdata$?_Xran@?$basic_string@DU?$char_traits@D@std@@V?$allocator@D@2@@std@@QEBAXXZ DD imagerel $LN3
	DD	imagerel $LN3+65
	DD	imagerel $unwind$?_Xran@?$basic_string@DU?$char_traits@D@std@@V?$allocator@D@2@@std@@QEBAXXZ
pdata	ENDS
;	COMDAT pdata
pdata	SEGMENT
$pdata$??0?$allocator@PEAUVkCommandBuffer_T@@@std@@QEAA@XZ DD imagerel $LN3
	DD	imagerel $LN3+57
	DD	imagerel $unwind$??0?$allocator@PEAUVkCommandBuffer_T@@@std@@QEAA@XZ
pdata	ENDS
;	COMDAT pdata
pdata	SEGMENT
$pdata$??0?$allocator@PEAUVkCommandBuffer_T@@@std@@QEAA@AEBV01@@Z DD imagerel $LN3
	DD	imagerel $LN3+62
	DD	imagerel $unwind$??0?$allocator@PEAUVkCommandBuffer_T@@@std@@QEAA@AEBV01@@Z
pdata	ENDS
;	COMDAT pdata
pdata	SEGMENT
$pdata$?deallocate@?$allocator@PEAUVkCommandBuffer_T@@@std@@QEAAXPEAPEAUVkCommandBuffer_T@@_K@Z DD imagerel $LN3
	DD	imagerel $LN3+87
	DD	imagerel $unwind$?deallocate@?$allocator@PEAUVkCommandBuffer_T@@@std@@QEAAXPEAPEAUVkCommandBuffer_T@@_K@Z
pdata	ENDS
;	COMDAT pdata
pdata	SEGMENT
$pdata$?allocate@?$allocator@PEAUVkCommandBuffer_T@@@std@@QEAAPEAPEAUVkCommandBuffer_T@@_K@Z DD imagerel $LN3
	DD	imagerel $LN3+77
	DD	imagerel $unwind$?allocate@?$allocator@PEAUVkCommandBuffer_T@@@std@@QEAAPEAPEAUVkCommandBuffer_T@@_K@Z
pdata	ENDS
;	COMDAT pdata
pdata	SEGMENT
$pdata$?max_size@?$allocator@PEAUVkCommandBuffer_T@@@std@@QEBA_KXZ DD imagerel $LN3
	DD	imagerel $LN3+60
	DD	imagerel $unwind$?max_size@?$allocator@PEAUVkCommandBuffer_T@@@std@@QEBA_KXZ
pdata	ENDS
;	COMDAT pdata
pdata	SEGMENT
$pdata$?max_size@?$allocator_traits@V?$allocator@PEAUVkCommandBuffer_T@@@std@@@std@@SA_KAEBV?$allocator@PEAUVkCommandBuffer_T@@@2@@Z DD imagerel $LN3
	DD	imagerel $LN3+64
	DD	imagerel $unwind$?max_size@?$allocator_traits@V?$allocator@PEAUVkCommandBuffer_T@@@std@@@std@@SA_KAEBV?$allocator@PEAUVkCommandBuffer_T@@@2@@Z
pdata	ENDS
;	COMDAT pdata
pdata	SEGMENT
$pdata$??0?$_Wrap_alloc@V?$allocator@PEAUVkCommandBuffer_T@@@std@@@std@@QEAA@AEBV?$allocator@PEAUVkCommandBuffer_T@@@1@@Z DD imagerel $LN3
	DD	imagerel $LN3+83
	DD	imagerel $unwind$??0?$_Wrap_alloc@V?$allocator@PEAUVkCommandBuffer_T@@@std@@@std@@QEAA@AEBV?$allocator@PEAUVkCommandBuffer_T@@@1@@Z
pdata	ENDS
;	COMDAT pdata
pdata	SEGMENT
$pdata$?allocate@?$_Wrap_alloc@V?$allocator@PEAUVkCommandBuffer_T@@@std@@@std@@QEAAPEAPEAUVkCommandBuffer_T@@_K@Z DD imagerel $LN3
	DD	imagerel $LN3+76
	DD	imagerel $unwind$?allocate@?$_Wrap_alloc@V?$allocator@PEAUVkCommandBuffer_T@@@std@@@std@@QEAAPEAPEAUVkCommandBuffer_T@@_K@Z
pdata	ENDS
;	COMDAT pdata
pdata	SEGMENT
$pdata$?deallocate@?$_Wrap_alloc@V?$allocator@PEAUVkCommandBuffer_T@@@std@@@std@@QEAAXPEAPEAUVkCommandBuffer_T@@_K@Z DD imagerel $LN3
	DD	imagerel $LN3+88
	DD	imagerel $unwind$?deallocate@?$_Wrap_alloc@V?$allocator@PEAUVkCommandBuffer_T@@@std@@@std@@QEAAXPEAPEAUVkCommandBuffer_T@@_K@Z
pdata	ENDS
;	COMDAT pdata
pdata	SEGMENT
$pdata$?max_size@?$_Wrap_alloc@V?$allocator@PEAUVkCommandBuffer_T@@@std@@@std@@QEBA_KU_Nil@2@@Z DD imagerel $LN3
	DD	imagerel $LN3+68
	DD	imagerel $unwind$?max_size@?$_Wrap_alloc@V?$allocator@PEAUVkCommandBuffer_T@@@std@@@std@@QEBA_KU_Nil@2@@Z
pdata	ENDS
;	COMDAT pdata
pdata	SEGMENT
$pdata$??0?$_Vector_alloc@U?$_Vec_base_types@PEAUVkCommandBuffer_T@@V?$allocator@PEAUVkCommandBuffer_T@@@std@@@std@@@std@@QEAA@AEBV?$allocator@PEAUVkCommandBuffer_T@@@1@@Z DD imagerel $LN4
	DD	imagerel $LN4+118
	DD	imagerel $unwind$??0?$_Vector_alloc@U?$_Vec_base_types@PEAUVkCommandBuffer_T@@V?$allocator@PEAUVkCommandBuffer_T@@@std@@@std@@@std@@QEAA@AEBV?$allocator@PEAUVkCommandBuffer_T@@@1@@Z
pdata	ENDS
;	COMDAT pdata
pdata	SEGMENT
$pdata$?dtor$0@?0???0?$_Vector_alloc@U?$_Vec_base_types@PEAUVkCommandBuffer_T@@V?$allocator@PEAUVkCommandBuffer_T@@@std@@@std@@@std@@QEAA@AEBV?$allocator@PEAUVkCommandBuffer_T@@@1@@Z@4HA DD imagerel ?dtor$0@?0???0?$_Vector_alloc@U?$_Vec_base_types@PEAUVkCommandBuffer_T@@V?$allocator@PEAUVkCommandBuffer_T@@@std@@@std@@@std@@QEAA@AEBV?$allocator@PEAUVkCommandBuffer_T@@@1@@Z@4HA
	DD	imagerel ?dtor$0@?0???0?$_Vector_alloc@U?$_Vec_base_types@PEAUVkCommandBuffer_T@@V?$allocator@PEAUVkCommandBuffer_T@@@std@@@std@@@std@@QEAA@AEBV?$allocator@PEAUVkCommandBuffer_T@@@1@@Z@4HA+39
	DD	imagerel $unwind$?dtor$0@?0???0?$_Vector_alloc@U?$_Vec_base_types@PEAUVkCommandBuffer_T@@V?$allocator@PEAUVkCommandBuffer_T@@@std@@@std@@@std@@QEAA@AEBV?$allocator@PEAUVkCommandBuffer_T@@@1@@Z@4HA
pdata	ENDS
;	COMDAT pdata
pdata	SEGMENT
$pdata$??0?$_Vector_alloc@U?$_Vec_base_types@PEAUVkCommandBuffer_T@@V?$allocator@PEAUVkCommandBuffer_T@@@std@@@std@@@std@@QEAA@$$QEAV?$allocator@PEAUVkCommandBuffer_T@@@1@@Z DD imagerel $LN4
	DD	imagerel $LN4+123
	DD	imagerel $unwind$??0?$_Vector_alloc@U?$_Vec_base_types@PEAUVkCommandBuffer_T@@V?$allocator@PEAUVkCommandBuffer_T@@@std@@@std@@@std@@QEAA@$$QEAV?$allocator@PEAUVkCommandBuffer_T@@@1@@Z
pdata	ENDS
;	COMDAT pdata
pdata	SEGMENT
$pdata$?dtor$0@?0???0?$_Vector_alloc@U?$_Vec_base_types@PEAUVkCommandBuffer_T@@V?$allocator@PEAUVkCommandBuffer_T@@@std@@@std@@@std@@QEAA@$$QEAV?$allocator@PEAUVkCommandBuffer_T@@@1@@Z@4HA DD imagerel ?dtor$0@?0???0?$_Vector_alloc@U?$_Vec_base_types@PEAUVkCommandBuffer_T@@V?$allocator@PEAUVkCommandBuffer_T@@@std@@@std@@@std@@QEAA@$$QEAV?$allocator@PEAUVkCommandBuffer_T@@@1@@Z@4HA
	DD	imagerel ?dtor$0@?0???0?$_Vector_alloc@U?$_Vec_base_types@PEAUVkCommandBuffer_T@@V?$allocator@PEAUVkCommandBuffer_T@@@std@@@std@@@std@@QEAA@$$QEAV?$allocator@PEAUVkCommandBuffer_T@@@1@@Z@4HA+39
	DD	imagerel $unwind$?dtor$0@?0???0?$_Vector_alloc@U?$_Vec_base_types@PEAUVkCommandBuffer_T@@V?$allocator@PEAUVkCommandBuffer_T@@@std@@@std@@@std@@QEAA@$$QEAV?$allocator@PEAUVkCommandBuffer_T@@@1@@Z@4HA
pdata	ENDS
;	COMDAT pdata
pdata	SEGMENT
$pdata$??1?$_Vector_alloc@U?$_Vec_base_types@PEAUVkCommandBuffer_T@@V?$allocator@PEAUVkCommandBuffer_T@@@std@@@std@@@std@@QEAA@XZ DD imagerel $LN3
	DD	imagerel $LN3+92
	DD	imagerel $unwind$??1?$_Vector_alloc@U?$_Vec_base_types@PEAUVkCommandBuffer_T@@V?$allocator@PEAUVkCommandBuffer_T@@@std@@@std@@@std@@QEAA@XZ
pdata	ENDS
;	COMDAT pdata
pdata	SEGMENT
$pdata$?_Alloc_proxy@?$_Vector_alloc@U?$_Vec_base_types@PEAUVkCommandBuffer_T@@V?$allocator@PEAUVkCommandBuffer_T@@@std@@@std@@@std@@QEAAXXZ DD imagerel $LN3
	DD	imagerel $LN3+264
	DD	imagerel $unwind$?_Alloc_proxy@?$_Vector_alloc@U?$_Vec_base_types@PEAUVkCommandBuffer_T@@V?$allocator@PEAUVkCommandBuffer_T@@@std@@@std@@@std@@QEAAXXZ
pdata	ENDS
;	COMDAT pdata
pdata	SEGMENT
$pdata$?_Free_proxy@?$_Vector_alloc@U?$_Vec_base_types@PEAUVkCommandBuffer_T@@V?$allocator@PEAUVkCommandBuffer_T@@@std@@@std@@@std@@QEAAXXZ DD imagerel $LN3
	DD	imagerel $LN3+209
	DD	imagerel $unwind$?_Free_proxy@?$_Vector_alloc@U?$_Vec_base_types@PEAUVkCommandBuffer_T@@V?$allocator@PEAUVkCommandBuffer_T@@@std@@@std@@@std@@QEAAXXZ
pdata	ENDS
;	COMDAT pdata
pdata	SEGMENT
$pdata$?_Myproxy@?$_Vector_alloc@U?$_Vec_base_types@PEAUVkCommandBuffer_T@@V?$allocator@PEAUVkCommandBuffer_T@@@std@@@std@@@std@@QEAAAEAPEAU_Container_proxy@2@XZ DD imagerel $LN3
	DD	imagerel $LN3+64
	DD	imagerel $unwind$?_Myproxy@?$_Vector_alloc@U?$_Vec_base_types@PEAUVkCommandBuffer_T@@V?$allocator@PEAUVkCommandBuffer_T@@@std@@@std@@@std@@QEAAAEAPEAU_Container_proxy@2@XZ
pdata	ENDS
;	COMDAT pdata
pdata	SEGMENT
$pdata$?_Orphan_all@?$_Vector_alloc@U?$_Vec_base_types@PEAUVkCommandBuffer_T@@V?$allocator@PEAUVkCommandBuffer_T@@@std@@@std@@@std@@QEAAXXZ DD imagerel $LN3
	DD	imagerel $LN3+72
	DD	imagerel $unwind$?_Orphan_all@?$_Vector_alloc@U?$_Vec_base_types@PEAUVkCommandBuffer_T@@V?$allocator@PEAUVkCommandBuffer_T@@@std@@@std@@@std@@QEAAXXZ
pdata	ENDS
;	COMDAT pdata
pdata	SEGMENT
$pdata$?_Swap_all@?$_Vector_alloc@U?$_Vec_base_types@PEAUVkCommandBuffer_T@@V?$allocator@PEAUVkCommandBuffer_T@@@std@@@std@@@std@@QEAAXAEAV12@@Z DD imagerel $LN3
	DD	imagerel $LN3+106
	DD	imagerel $unwind$?_Swap_all@?$_Vector_alloc@U?$_Vec_base_types@PEAUVkCommandBuffer_T@@V?$allocator@PEAUVkCommandBuffer_T@@@std@@@std@@@std@@QEAAXAEAV12@@Z
pdata	ENDS
;	COMDAT pdata
pdata	SEGMENT
$pdata$?_Getal@?$_Vector_alloc@U?$_Vec_base_types@PEAUVkCommandBuffer_T@@V?$allocator@PEAUVkCommandBuffer_T@@@std@@@std@@@std@@QEAAAEAU?$_Wrap_alloc@V?$allocator@PEAUVkCommandBuffer_T@@@std@@@2@XZ DD imagerel $LN3
	DD	imagerel $LN3+67
	DD	imagerel $unwind$?_Getal@?$_Vector_alloc@U?$_Vec_base_types@PEAUVkCommandBuffer_T@@V?$allocator@PEAUVkCommandBuffer_T@@@std@@@std@@@std@@QEAAAEAU?$_Wrap_alloc@V?$allocator@PEAUVkCommandBuffer_T@@@std@@@2@XZ
pdata	ENDS
;	COMDAT pdata
pdata	SEGMENT
$pdata$?_Getal@?$_Vector_alloc@U?$_Vec_base_types@PEAUVkCommandBuffer_T@@V?$allocator@PEAUVkCommandBuffer_T@@@std@@@std@@@std@@QEBAAEBU?$_Wrap_alloc@V?$allocator@PEAUVkCommandBuffer_T@@@std@@@2@XZ DD imagerel $LN3
	DD	imagerel $LN3+67
	DD	imagerel $unwind$?_Getal@?$_Vector_alloc@U?$_Vec_base_types@PEAUVkCommandBuffer_T@@V?$allocator@PEAUVkCommandBuffer_T@@@std@@@std@@@std@@QEBAAEBU?$_Wrap_alloc@V?$allocator@PEAUVkCommandBuffer_T@@@std@@@2@XZ
pdata	ENDS
;	COMDAT pdata
pdata	SEGMENT
$pdata$?_Get_data@?$_Vector_alloc@U?$_Vec_base_types@PEAUVkCommandBuffer_T@@V?$allocator@PEAUVkCommandBuffer_T@@@std@@@std@@@std@@QEAAAEAV?$_Vector_val@U?$_Simple_types@PEAUVkCommandBuffer_T@@@std@@@2@XZ DD imagerel $LN3
	DD	imagerel $LN3+67
	DD	imagerel $unwind$?_Get_data@?$_Vector_alloc@U?$_Vec_base_types@PEAUVkCommandBuffer_T@@V?$allocator@PEAUVkCommandBuffer_T@@@std@@@std@@@std@@QEAAAEAV?$_Vector_val@U?$_Simple_types@PEAUVkCommandBuffer_T@@@std@@@2@XZ
pdata	ENDS
;	COMDAT pdata
pdata	SEGMENT
$pdata$?_Get_data@?$_Vector_alloc@U?$_Vec_base_types@PEAUVkCommandBuffer_T@@V?$allocator@PEAUVkCommandBuffer_T@@@std@@@std@@@std@@QEBAAEBV?$_Vector_val@U?$_Simple_types@PEAUVkCommandBuffer_T@@@std@@@2@XZ DD imagerel $LN3
	DD	imagerel $LN3+67
	DD	imagerel $unwind$?_Get_data@?$_Vector_alloc@U?$_Vec_base_types@PEAUVkCommandBuffer_T@@V?$allocator@PEAUVkCommandBuffer_T@@@std@@@std@@@std@@QEBAAEBV?$_Vector_val@U?$_Simple_types@PEAUVkCommandBuffer_T@@@std@@@2@XZ
pdata	ENDS
;	COMDAT pdata
pdata	SEGMENT
$pdata$?_Myfirst@?$_Vector_alloc@U?$_Vec_base_types@PEAUVkCommandBuffer_T@@V?$allocator@PEAUVkCommandBuffer_T@@@std@@@std@@@std@@QEAAAEAPEAPEAUVkCommandBuffer_T@@XZ DD imagerel $LN3
	DD	imagerel $LN3+68
	DD	imagerel $unwind$?_Myfirst@?$_Vector_alloc@U?$_Vec_base_types@PEAUVkCommandBuffer_T@@V?$allocator@PEAUVkCommandBuffer_T@@@std@@@std@@@std@@QEAAAEAPEAPEAUVkCommandBuffer_T@@XZ
pdata	ENDS
;	COMDAT pdata
pdata	SEGMENT
$pdata$?_Myfirst@?$_Vector_alloc@U?$_Vec_base_types@PEAUVkCommandBuffer_T@@V?$allocator@PEAUVkCommandBuffer_T@@@std@@@std@@@std@@QEBAAEBQEAPEAUVkCommandBuffer_T@@XZ DD imagerel $LN3
	DD	imagerel $LN3+68
	DD	imagerel $unwind$?_Myfirst@?$_Vector_alloc@U?$_Vec_base_types@PEAUVkCommandBuffer_T@@V?$allocator@PEAUVkCommandBuffer_T@@@std@@@std@@@std@@QEBAAEBQEAPEAUVkCommandBuffer_T@@XZ
pdata	ENDS
;	COMDAT pdata
pdata	SEGMENT
$pdata$?_Mylast@?$_Vector_alloc@U?$_Vec_base_types@PEAUVkCommandBuffer_T@@V?$allocator@PEAUVkCommandBuffer_T@@@std@@@std@@@std@@QEAAAEAPEAPEAUVkCommandBuffer_T@@XZ DD imagerel $LN3
	DD	imagerel $LN3+68
	DD	imagerel $unwind$?_Mylast@?$_Vector_alloc@U?$_Vec_base_types@PEAUVkCommandBuffer_T@@V?$allocator@PEAUVkCommandBuffer_T@@@std@@@std@@@std@@QEAAAEAPEAPEAUVkCommandBuffer_T@@XZ
pdata	ENDS
;	COMDAT pdata
pdata	SEGMENT
$pdata$?_Mylast@?$_Vector_alloc@U?$_Vec_base_types@PEAUVkCommandBuffer_T@@V?$allocator@PEAUVkCommandBuffer_T@@@std@@@std@@@std@@QEBAAEBQEAPEAUVkCommandBuffer_T@@XZ DD imagerel $LN3
	DD	imagerel $LN3+68
	DD	imagerel $unwind$?_Mylast@?$_Vector_alloc@U?$_Vec_base_types@PEAUVkCommandBuffer_T@@V?$allocator@PEAUVkCommandBuffer_T@@@std@@@std@@@std@@QEBAAEBQEAPEAUVkCommandBuffer_T@@XZ
pdata	ENDS
;	COMDAT pdata
pdata	SEGMENT
$pdata$?_Myend@?$_Vector_alloc@U?$_Vec_base_types@PEAUVkCommandBuffer_T@@V?$allocator@PEAUVkCommandBuffer_T@@@std@@@std@@@std@@QEAAAEAPEAPEAUVkCommandBuffer_T@@XZ DD imagerel $LN3
	DD	imagerel $LN3+68
	DD	imagerel $unwind$?_Myend@?$_Vector_alloc@U?$_Vec_base_types@PEAUVkCommandBuffer_T@@V?$allocator@PEAUVkCommandBuffer_T@@@std@@@std@@@std@@QEAAAEAPEAPEAUVkCommandBuffer_T@@XZ
pdata	ENDS
;	COMDAT pdata
pdata	SEGMENT
$pdata$??0?$_Vector_val@U?$_Simple_types@PEAUVkCommandBuffer_T@@@std@@@std@@QEAA@XZ DD imagerel $LN4
	DD	imagerel $LN4+116
	DD	imagerel $unwind$??0?$_Vector_val@U?$_Simple_types@PEAUVkCommandBuffer_T@@@std@@@std@@QEAA@XZ
pdata	ENDS
;	COMDAT pdata
pdata	SEGMENT
$pdata$??1?$_Vector_val@U?$_Simple_types@PEAUVkCommandBuffer_T@@@std@@@std@@QEAA@XZ DD imagerel $LN3
	DD	imagerel $LN3+64
	DD	imagerel $unwind$??1?$_Vector_val@U?$_Simple_types@PEAUVkCommandBuffer_T@@@std@@@std@@QEAA@XZ
pdata	ENDS
;	COMDAT pdata
pdata	SEGMENT
$pdata$?_Get_first@?$_Compressed_pair@U?$_Wrap_alloc@V?$allocator@PEAUVkCommandBuffer_T@@@std@@@std@@V?$_Vector_val@U?$_Simple_types@PEAUVkCommandBuffer_T@@@std@@@2@$00@std@@QEAAAEAU?$_Wrap_alloc@V?$allocator@PEAUVkCommandBuffer_T@@@std@@@2@XZ DD imagerel $LN3
	DD	imagerel $LN3+57
	DD	imagerel $unwind$?_Get_first@?$_Compressed_pair@U?$_Wrap_alloc@V?$allocator@PEAUVkCommandBuffer_T@@@std@@@std@@V?$_Vector_val@U?$_Simple_types@PEAUVkCommandBuffer_T@@@std@@@2@$00@std@@QEAAAEAU?$_Wrap_alloc@V?$allocator@PEAUVkCommandBuffer_T@@@std@@@2@XZ
pdata	ENDS
;	COMDAT pdata
pdata	SEGMENT
$pdata$?_Get_first@?$_Compressed_pair@U?$_Wrap_alloc@V?$allocator@PEAUVkCommandBuffer_T@@@std@@@std@@V?$_Vector_val@U?$_Simple_types@PEAUVkCommandBuffer_T@@@std@@@2@$00@std@@QEBAAEBU?$_Wrap_alloc@V?$allocator@PEAUVkCommandBuffer_T@@@std@@@2@XZ DD imagerel $LN3
	DD	imagerel $LN3+57
	DD	imagerel $unwind$?_Get_first@?$_Compressed_pair@U?$_Wrap_alloc@V?$allocator@PEAUVkCommandBuffer_T@@@std@@@std@@V?$_Vector_val@U?$_Simple_types@PEAUVkCommandBuffer_T@@@std@@@2@$00@std@@QEBAAEBU?$_Wrap_alloc@V?$allocator@PEAUVkCommandBuffer_T@@@std@@@2@XZ
pdata	ENDS
;	COMDAT pdata
pdata	SEGMENT
$pdata$?_Get_second@?$_Compressed_pair@U?$_Wrap_alloc@V?$allocator@PEAUVkCommandBuffer_T@@@std@@@std@@V?$_Vector_val@U?$_Simple_types@PEAUVkCommandBuffer_T@@@std@@@2@$00@std@@QEAAAEAV?$_Vector_val@U?$_Simple_types@PEAUVkCommandBuffer_T@@@std@@@2@XZ DD imagerel $LN3
	DD	imagerel $LN3+57
	DD	imagerel $unwind$?_Get_second@?$_Compressed_pair@U?$_Wrap_alloc@V?$allocator@PEAUVkCommandBuffer_T@@@std@@@std@@V?$_Vector_val@U?$_Simple_types@PEAUVkCommandBuffer_T@@@std@@@2@$00@std@@QEAAAEAV?$_Vector_val@U?$_Simple_types@PEAUVkCommandBuffer_T@@@std@@@2@XZ
pdata	ENDS
;	COMDAT pdata
pdata	SEGMENT
$pdata$?_Get_second@?$_Compressed_pair@U?$_Wrap_alloc@V?$allocator@PEAUVkCommandBuffer_T@@@std@@@std@@V?$_Vector_val@U?$_Simple_types@PEAUVkCommandBuffer_T@@@std@@@2@$00@std@@QEBAAEBV?$_Vector_val@U?$_Simple_types@PEAUVkCommandBuffer_T@@@std@@@2@XZ DD imagerel $LN3
	DD	imagerel $LN3+57
	DD	imagerel $unwind$?_Get_second@?$_Compressed_pair@U?$_Wrap_alloc@V?$allocator@PEAUVkCommandBuffer_T@@@std@@@std@@V?$_Vector_val@U?$_Simple_types@PEAUVkCommandBuffer_T@@@std@@@2@$00@std@@QEBAAEBV?$_Vector_val@U?$_Simple_types@PEAUVkCommandBuffer_T@@@std@@@2@XZ
pdata	ENDS
;	COMDAT pdata
pdata	SEGMENT
$pdata$??1?$_Compressed_pair@U?$_Wrap_alloc@V?$allocator@PEAUVkCommandBuffer_T@@@std@@@std@@V?$_Vector_val@U?$_Simple_types@PEAUVkCommandBuffer_T@@@std@@@2@$00@std@@QEAA@XZ DD imagerel $LN3
	DD	imagerel $LN3+67
	DD	imagerel $unwind$??1?$_Compressed_pair@U?$_Wrap_alloc@V?$allocator@PEAUVkCommandBuffer_T@@@std@@@std@@V?$_Vector_val@U?$_Simple_types@PEAUVkCommandBuffer_T@@@std@@@2@$00@std@@QEAA@XZ
pdata	ENDS
;	COMDAT pdata
pdata	SEGMENT
$pdata$??0?$vector@PEAUVkCommandBuffer_T@@V?$allocator@PEAUVkCommandBuffer_T@@@std@@@std@@QEAA@_K@Z DD imagerel $LN12
	DD	imagerel $LN12+237
	DD	imagerel $unwind$??0?$vector@PEAUVkCommandBuffer_T@@V?$allocator@PEAUVkCommandBuffer_T@@@std@@@std@@QEAA@_K@Z
pdata	ENDS
;	COMDAT pdata
pdata	SEGMENT
$pdata$?dtor$0@?0???0?$vector@PEAUVkCommandBuffer_T@@V?$allocator@PEAUVkCommandBuffer_T@@@std@@@std@@QEAA@_K@Z@4HA DD imagerel ?dtor$0@?0???0?$vector@PEAUVkCommandBuffer_T@@V?$allocator@PEAUVkCommandBuffer_T@@@std@@@std@@QEAA@_K@Z@4HA
	DD	imagerel ?dtor$0@?0???0?$vector@PEAUVkCommandBuffer_T@@V?$allocator@PEAUVkCommandBuffer_T@@@std@@@std@@QEAA@_K@Z@4HA+39
	DD	imagerel $unwind$?dtor$0@?0???0?$vector@PEAUVkCommandBuffer_T@@V?$allocator@PEAUVkCommandBuffer_T@@@std@@@std@@QEAA@_K@Z@4HA
pdata	ENDS
;	COMDAT pdata
pdata	SEGMENT
$pdata$?catch$0@?0???0?$vector@PEAUVkCommandBuffer_T@@V?$allocator@PEAUVkCommandBuffer_T@@@std@@@std@@QEAA@_K@Z@4HA DD imagerel ?catch$0@?0???0?$vector@PEAUVkCommandBuffer_T@@V?$allocator@PEAUVkCommandBuffer_T@@@std@@@std@@QEAA@_K@Z@4HA
	DD	imagerel ?catch$0@?0???0?$vector@PEAUVkCommandBuffer_T@@V?$allocator@PEAUVkCommandBuffer_T@@@std@@@std@@QEAA@_K@Z@4HA+57
	DD	imagerel $unwind$?catch$0@?0???0?$vector@PEAUVkCommandBuffer_T@@V?$allocator@PEAUVkCommandBuffer_T@@@std@@@std@@QEAA@_K@Z@4HA
pdata	ENDS
;	COMDAT pdata
pdata	SEGMENT
$pdata$??0?$vector@PEAUVkCommandBuffer_T@@V?$allocator@PEAUVkCommandBuffer_T@@@std@@@std@@QEAA@$$QEAV01@@Z DD imagerel $LN3
	DD	imagerel $LN3+150
	DD	imagerel $unwind$??0?$vector@PEAUVkCommandBuffer_T@@V?$allocator@PEAUVkCommandBuffer_T@@@std@@@std@@QEAA@$$QEAV01@@Z
pdata	ENDS
;	COMDAT pdata
pdata	SEGMENT
$pdata$?_Assign_rv@?$vector@PEAUVkCommandBuffer_T@@V?$allocator@PEAUVkCommandBuffer_T@@@std@@@std@@QEAAX$$QEAV12@U?$integral_constant@_N$00@2@@Z DD imagerel $LN3
	DD	imagerel $LN3+270
	DD	imagerel $unwind$?_Assign_rv@?$vector@PEAUVkCommandBuffer_T@@V?$allocator@PEAUVkCommandBuffer_T@@@std@@@std@@QEAAX$$QEAV12@U?$integral_constant@_N$00@2@@Z
pdata	ENDS
;	COMDAT pdata
pdata	SEGMENT
$pdata$??1?$vector@PEAUVkCommandBuffer_T@@V?$allocator@PEAUVkCommandBuffer_T@@@std@@@std@@QEAA@XZ DD imagerel $LN3
	DD	imagerel $LN3+89
	DD	imagerel $unwind$??1?$vector@PEAUVkCommandBuffer_T@@V?$allocator@PEAUVkCommandBuffer_T@@@std@@@std@@QEAA@XZ
pdata	ENDS
;	COMDAT pdata
pdata	SEGMENT
$pdata$?size@?$vector@PEAUVkCommandBuffer_T@@V?$allocator@PEAUVkCommandBuffer_T@@@std@@@std@@QEBA_KXZ DD imagerel $LN3
	DD	imagerel $LN3+106
	DD	imagerel $unwind$?size@?$vector@PEAUVkCommandBuffer_T@@V?$allocator@PEAUVkCommandBuffer_T@@@std@@@std@@QEBA_KXZ
pdata	ENDS
;	COMDAT pdata
pdata	SEGMENT
$pdata$?max_size@?$vector@PEAUVkCommandBuffer_T@@V?$allocator@PEAUVkCommandBuffer_T@@@std@@@std@@QEBA_KXZ DD imagerel $LN3
	DD	imagerel $LN3+79
	DD	imagerel $unwind$?max_size@?$vector@PEAUVkCommandBuffer_T@@V?$allocator@PEAUVkCommandBuffer_T@@@std@@@std@@QEBA_KXZ
pdata	ENDS
;	COMDAT pdata
pdata	SEGMENT
$pdata$?data@?$vector@PEAUVkCommandBuffer_T@@V?$allocator@PEAUVkCommandBuffer_T@@@std@@@std@@QEAAPEAPEAUVkCommandBuffer_T@@XZ DD imagerel $LN3
	DD	imagerel $LN3+67
	DD	imagerel $unwind$?data@?$vector@PEAUVkCommandBuffer_T@@V?$allocator@PEAUVkCommandBuffer_T@@@std@@@std@@QEAAPEAPEAUVkCommandBuffer_T@@XZ
pdata	ENDS
;	COMDAT pdata
pdata	SEGMENT
$pdata$?_Buy@?$vector@PEAUVkCommandBuffer_T@@V?$allocator@PEAUVkCommandBuffer_T@@@std@@@std@@IEAA_N_K@Z DD imagerel $LN7
	DD	imagerel $LN7+331
	DD	imagerel $unwind$?_Buy@?$vector@PEAUVkCommandBuffer_T@@V?$allocator@PEAUVkCommandBuffer_T@@@std@@@std@@IEAA_N_K@Z
pdata	ENDS
;	COMDAT pdata
pdata	SEGMENT
$pdata$?_Destroy@?$vector@PEAUVkCommandBuffer_T@@V?$allocator@PEAUVkCommandBuffer_T@@@std@@@std@@IEAAXPEAPEAUVkCommandBuffer_T@@0@Z DD imagerel $LN3
	DD	imagerel $LN3+96
	DD	imagerel $unwind$?_Destroy@?$vector@PEAUVkCommandBuffer_T@@V?$allocator@PEAUVkCommandBuffer_T@@@std@@@std@@IEAAXPEAPEAUVkCommandBuffer_T@@0@Z
pdata	ENDS
;	COMDAT pdata
pdata	SEGMENT
$pdata$?_Tidy@?$vector@PEAUVkCommandBuffer_T@@V?$allocator@PEAUVkCommandBuffer_T@@@std@@@std@@IEAAXXZ DD imagerel $LN4
	DD	imagerel $LN4+319
	DD	imagerel $unwind$?_Tidy@?$vector@PEAUVkCommandBuffer_T@@V?$allocator@PEAUVkCommandBuffer_T@@@std@@@std@@IEAAXXZ
pdata	ENDS
;	COMDAT pdata
pdata	SEGMENT
$pdata$?_Xlen@?$vector@PEAUVkCommandBuffer_T@@V?$allocator@PEAUVkCommandBuffer_T@@@std@@@std@@IEBAXXZ DD imagerel $LN3
	DD	imagerel $LN3+65
	DD	imagerel $unwind$?_Xlen@?$vector@PEAUVkCommandBuffer_T@@V?$allocator@PEAUVkCommandBuffer_T@@@std@@@std@@IEBAXXZ
pdata	ENDS
;	COMDAT pdata
pdata	SEGMENT
$pdata$?__autoclassinit2@?$vector@PEAUVkCommandBuffer_T@@V?$allocator@PEAUVkCommandBuffer_T@@@std@@@std@@QEAAX_K@Z DD imagerel $LN3
	DD	imagerel $LN3+73
	DD	imagerel $unwind$?__autoclassinit2@?$vector@PEAUVkCommandBuffer_T@@V?$allocator@PEAUVkCommandBuffer_T@@@std@@@std@@QEAAX_K@Z
pdata	ENDS
;	COMDAT pdata
pdata	SEGMENT
$pdata$??0?$allocator@PEAUVkFramebuffer_T@@@std@@QEAA@XZ DD imagerel $LN3
	DD	imagerel $LN3+57
	DD	imagerel $unwind$??0?$allocator@PEAUVkFramebuffer_T@@@std@@QEAA@XZ
pdata	ENDS
;	COMDAT pdata
pdata	SEGMENT
$pdata$??0?$allocator@PEAUVkFramebuffer_T@@@std@@QEAA@AEBV01@@Z DD imagerel $LN3
	DD	imagerel $LN3+62
	DD	imagerel $unwind$??0?$allocator@PEAUVkFramebuffer_T@@@std@@QEAA@AEBV01@@Z
pdata	ENDS
;	COMDAT pdata
pdata	SEGMENT
$pdata$?deallocate@?$allocator@PEAUVkFramebuffer_T@@@std@@QEAAXPEAPEAUVkFramebuffer_T@@_K@Z DD imagerel $LN3
	DD	imagerel $LN3+87
	DD	imagerel $unwind$?deallocate@?$allocator@PEAUVkFramebuffer_T@@@std@@QEAAXPEAPEAUVkFramebuffer_T@@_K@Z
pdata	ENDS
;	COMDAT pdata
pdata	SEGMENT
$pdata$?allocate@?$allocator@PEAUVkFramebuffer_T@@@std@@QEAAPEAPEAUVkFramebuffer_T@@_K@Z DD imagerel $LN3
	DD	imagerel $LN3+77
	DD	imagerel $unwind$?allocate@?$allocator@PEAUVkFramebuffer_T@@@std@@QEAAPEAPEAUVkFramebuffer_T@@_K@Z
pdata	ENDS
;	COMDAT pdata
pdata	SEGMENT
$pdata$?max_size@?$allocator@PEAUVkFramebuffer_T@@@std@@QEBA_KXZ DD imagerel $LN3
	DD	imagerel $LN3+60
	DD	imagerel $unwind$?max_size@?$allocator@PEAUVkFramebuffer_T@@@std@@QEBA_KXZ
pdata	ENDS
;	COMDAT pdata
pdata	SEGMENT
$pdata$?max_size@?$allocator_traits@V?$allocator@PEAUVkFramebuffer_T@@@std@@@std@@SA_KAEBV?$allocator@PEAUVkFramebuffer_T@@@2@@Z DD imagerel $LN3
	DD	imagerel $LN3+64
	DD	imagerel $unwind$?max_size@?$allocator_traits@V?$allocator@PEAUVkFramebuffer_T@@@std@@@std@@SA_KAEBV?$allocator@PEAUVkFramebuffer_T@@@2@@Z
pdata	ENDS
;	COMDAT pdata
pdata	SEGMENT
$pdata$??0?$_Wrap_alloc@V?$allocator@PEAUVkFramebuffer_T@@@std@@@std@@QEAA@AEBV?$allocator@PEAUVkFramebuffer_T@@@1@@Z DD imagerel $LN3
	DD	imagerel $LN3+83
	DD	imagerel $unwind$??0?$_Wrap_alloc@V?$allocator@PEAUVkFramebuffer_T@@@std@@@std@@QEAA@AEBV?$allocator@PEAUVkFramebuffer_T@@@1@@Z
pdata	ENDS
;	COMDAT pdata
pdata	SEGMENT
$pdata$?allocate@?$_Wrap_alloc@V?$allocator@PEAUVkFramebuffer_T@@@std@@@std@@QEAAPEAPEAUVkFramebuffer_T@@_K@Z DD imagerel $LN3
	DD	imagerel $LN3+76
	DD	imagerel $unwind$?allocate@?$_Wrap_alloc@V?$allocator@PEAUVkFramebuffer_T@@@std@@@std@@QEAAPEAPEAUVkFramebuffer_T@@_K@Z
pdata	ENDS
;	COMDAT pdata
pdata	SEGMENT
$pdata$?deallocate@?$_Wrap_alloc@V?$allocator@PEAUVkFramebuffer_T@@@std@@@std@@QEAAXPEAPEAUVkFramebuffer_T@@_K@Z DD imagerel $LN3
	DD	imagerel $LN3+88
	DD	imagerel $unwind$?deallocate@?$_Wrap_alloc@V?$allocator@PEAUVkFramebuffer_T@@@std@@@std@@QEAAXPEAPEAUVkFramebuffer_T@@_K@Z
pdata	ENDS
;	COMDAT pdata
pdata	SEGMENT
$pdata$?max_size@?$_Wrap_alloc@V?$allocator@PEAUVkFramebuffer_T@@@std@@@std@@QEBA_KU_Nil@2@@Z DD imagerel $LN3
	DD	imagerel $LN3+68
	DD	imagerel $unwind$?max_size@?$_Wrap_alloc@V?$allocator@PEAUVkFramebuffer_T@@@std@@@std@@QEBA_KU_Nil@2@@Z
pdata	ENDS
;	COMDAT pdata
pdata	SEGMENT
$pdata$??0?$_Vector_alloc@U?$_Vec_base_types@PEAUVkFramebuffer_T@@V?$allocator@PEAUVkFramebuffer_T@@@std@@@std@@@std@@QEAA@AEBV?$allocator@PEAUVkFramebuffer_T@@@1@@Z DD imagerel $LN4
	DD	imagerel $LN4+118
	DD	imagerel $unwind$??0?$_Vector_alloc@U?$_Vec_base_types@PEAUVkFramebuffer_T@@V?$allocator@PEAUVkFramebuffer_T@@@std@@@std@@@std@@QEAA@AEBV?$allocator@PEAUVkFramebuffer_T@@@1@@Z
pdata	ENDS
;	COMDAT pdata
pdata	SEGMENT
$pdata$?dtor$0@?0???0?$_Vector_alloc@U?$_Vec_base_types@PEAUVkFramebuffer_T@@V?$allocator@PEAUVkFramebuffer_T@@@std@@@std@@@std@@QEAA@AEBV?$allocator@PEAUVkFramebuffer_T@@@1@@Z@4HA DD imagerel ?dtor$0@?0???0?$_Vector_alloc@U?$_Vec_base_types@PEAUVkFramebuffer_T@@V?$allocator@PEAUVkFramebuffer_T@@@std@@@std@@@std@@QEAA@AEBV?$allocator@PEAUVkFramebuffer_T@@@1@@Z@4HA
	DD	imagerel ?dtor$0@?0???0?$_Vector_alloc@U?$_Vec_base_types@PEAUVkFramebuffer_T@@V?$allocator@PEAUVkFramebuffer_T@@@std@@@std@@@std@@QEAA@AEBV?$allocator@PEAUVkFramebuffer_T@@@1@@Z@4HA+39
	DD	imagerel $unwind$?dtor$0@?0???0?$_Vector_alloc@U?$_Vec_base_types@PEAUVkFramebuffer_T@@V?$allocator@PEAUVkFramebuffer_T@@@std@@@std@@@std@@QEAA@AEBV?$allocator@PEAUVkFramebuffer_T@@@1@@Z@4HA
pdata	ENDS
;	COMDAT pdata
pdata	SEGMENT
$pdata$??0?$_Vector_alloc@U?$_Vec_base_types@PEAUVkFramebuffer_T@@V?$allocator@PEAUVkFramebuffer_T@@@std@@@std@@@std@@QEAA@$$QEAV?$allocator@PEAUVkFramebuffer_T@@@1@@Z DD imagerel $LN4
	DD	imagerel $LN4+123
	DD	imagerel $unwind$??0?$_Vector_alloc@U?$_Vec_base_types@PEAUVkFramebuffer_T@@V?$allocator@PEAUVkFramebuffer_T@@@std@@@std@@@std@@QEAA@$$QEAV?$allocator@PEAUVkFramebuffer_T@@@1@@Z
pdata	ENDS
;	COMDAT pdata
pdata	SEGMENT
$pdata$?dtor$0@?0???0?$_Vector_alloc@U?$_Vec_base_types@PEAUVkFramebuffer_T@@V?$allocator@PEAUVkFramebuffer_T@@@std@@@std@@@std@@QEAA@$$QEAV?$allocator@PEAUVkFramebuffer_T@@@1@@Z@4HA DD imagerel ?dtor$0@?0???0?$_Vector_alloc@U?$_Vec_base_types@PEAUVkFramebuffer_T@@V?$allocator@PEAUVkFramebuffer_T@@@std@@@std@@@std@@QEAA@$$QEAV?$allocator@PEAUVkFramebuffer_T@@@1@@Z@4HA
	DD	imagerel ?dtor$0@?0???0?$_Vector_alloc@U?$_Vec_base_types@PEAUVkFramebuffer_T@@V?$allocator@PEAUVkFramebuffer_T@@@std@@@std@@@std@@QEAA@$$QEAV?$allocator@PEAUVkFramebuffer_T@@@1@@Z@4HA+39
	DD	imagerel $unwind$?dtor$0@?0???0?$_Vector_alloc@U?$_Vec_base_types@PEAUVkFramebuffer_T@@V?$allocator@PEAUVkFramebuffer_T@@@std@@@std@@@std@@QEAA@$$QEAV?$allocator@PEAUVkFramebuffer_T@@@1@@Z@4HA
pdata	ENDS
;	COMDAT pdata
pdata	SEGMENT
$pdata$??1?$_Vector_alloc@U?$_Vec_base_types@PEAUVkFramebuffer_T@@V?$allocator@PEAUVkFramebuffer_T@@@std@@@std@@@std@@QEAA@XZ DD imagerel $LN3
	DD	imagerel $LN3+92
	DD	imagerel $unwind$??1?$_Vector_alloc@U?$_Vec_base_types@PEAUVkFramebuffer_T@@V?$allocator@PEAUVkFramebuffer_T@@@std@@@std@@@std@@QEAA@XZ
pdata	ENDS
;	COMDAT pdata
pdata	SEGMENT
$pdata$?_Alloc_proxy@?$_Vector_alloc@U?$_Vec_base_types@PEAUVkFramebuffer_T@@V?$allocator@PEAUVkFramebuffer_T@@@std@@@std@@@std@@QEAAXXZ DD imagerel $LN3
	DD	imagerel $LN3+264
	DD	imagerel $unwind$?_Alloc_proxy@?$_Vector_alloc@U?$_Vec_base_types@PEAUVkFramebuffer_T@@V?$allocator@PEAUVkFramebuffer_T@@@std@@@std@@@std@@QEAAXXZ
pdata	ENDS
;	COMDAT pdata
pdata	SEGMENT
$pdata$?_Free_proxy@?$_Vector_alloc@U?$_Vec_base_types@PEAUVkFramebuffer_T@@V?$allocator@PEAUVkFramebuffer_T@@@std@@@std@@@std@@QEAAXXZ DD imagerel $LN3
	DD	imagerel $LN3+209
	DD	imagerel $unwind$?_Free_proxy@?$_Vector_alloc@U?$_Vec_base_types@PEAUVkFramebuffer_T@@V?$allocator@PEAUVkFramebuffer_T@@@std@@@std@@@std@@QEAAXXZ
pdata	ENDS
;	COMDAT pdata
pdata	SEGMENT
$pdata$?_Myproxy@?$_Vector_alloc@U?$_Vec_base_types@PEAUVkFramebuffer_T@@V?$allocator@PEAUVkFramebuffer_T@@@std@@@std@@@std@@QEAAAEAPEAU_Container_proxy@2@XZ DD imagerel $LN3
	DD	imagerel $LN3+64
	DD	imagerel $unwind$?_Myproxy@?$_Vector_alloc@U?$_Vec_base_types@PEAUVkFramebuffer_T@@V?$allocator@PEAUVkFramebuffer_T@@@std@@@std@@@std@@QEAAAEAPEAU_Container_proxy@2@XZ
pdata	ENDS
;	COMDAT pdata
pdata	SEGMENT
$pdata$?_Orphan_all@?$_Vector_alloc@U?$_Vec_base_types@PEAUVkFramebuffer_T@@V?$allocator@PEAUVkFramebuffer_T@@@std@@@std@@@std@@QEAAXXZ DD imagerel $LN3
	DD	imagerel $LN3+72
	DD	imagerel $unwind$?_Orphan_all@?$_Vector_alloc@U?$_Vec_base_types@PEAUVkFramebuffer_T@@V?$allocator@PEAUVkFramebuffer_T@@@std@@@std@@@std@@QEAAXXZ
pdata	ENDS
;	COMDAT pdata
pdata	SEGMENT
$pdata$?_Swap_all@?$_Vector_alloc@U?$_Vec_base_types@PEAUVkFramebuffer_T@@V?$allocator@PEAUVkFramebuffer_T@@@std@@@std@@@std@@QEAAXAEAV12@@Z DD imagerel $LN3
	DD	imagerel $LN3+106
	DD	imagerel $unwind$?_Swap_all@?$_Vector_alloc@U?$_Vec_base_types@PEAUVkFramebuffer_T@@V?$allocator@PEAUVkFramebuffer_T@@@std@@@std@@@std@@QEAAXAEAV12@@Z
pdata	ENDS
;	COMDAT pdata
pdata	SEGMENT
$pdata$?_Getal@?$_Vector_alloc@U?$_Vec_base_types@PEAUVkFramebuffer_T@@V?$allocator@PEAUVkFramebuffer_T@@@std@@@std@@@std@@QEAAAEAU?$_Wrap_alloc@V?$allocator@PEAUVkFramebuffer_T@@@std@@@2@XZ DD imagerel $LN3
	DD	imagerel $LN3+67
	DD	imagerel $unwind$?_Getal@?$_Vector_alloc@U?$_Vec_base_types@PEAUVkFramebuffer_T@@V?$allocator@PEAUVkFramebuffer_T@@@std@@@std@@@std@@QEAAAEAU?$_Wrap_alloc@V?$allocator@PEAUVkFramebuffer_T@@@std@@@2@XZ
pdata	ENDS
;	COMDAT pdata
pdata	SEGMENT
$pdata$?_Getal@?$_Vector_alloc@U?$_Vec_base_types@PEAUVkFramebuffer_T@@V?$allocator@PEAUVkFramebuffer_T@@@std@@@std@@@std@@QEBAAEBU?$_Wrap_alloc@V?$allocator@PEAUVkFramebuffer_T@@@std@@@2@XZ DD imagerel $LN3
	DD	imagerel $LN3+67
	DD	imagerel $unwind$?_Getal@?$_Vector_alloc@U?$_Vec_base_types@PEAUVkFramebuffer_T@@V?$allocator@PEAUVkFramebuffer_T@@@std@@@std@@@std@@QEBAAEBU?$_Wrap_alloc@V?$allocator@PEAUVkFramebuffer_T@@@std@@@2@XZ
pdata	ENDS
;	COMDAT pdata
pdata	SEGMENT
$pdata$?_Get_data@?$_Vector_alloc@U?$_Vec_base_types@PEAUVkFramebuffer_T@@V?$allocator@PEAUVkFramebuffer_T@@@std@@@std@@@std@@QEAAAEAV?$_Vector_val@U?$_Simple_types@PEAUVkFramebuffer_T@@@std@@@2@XZ DD imagerel $LN3
	DD	imagerel $LN3+67
	DD	imagerel $unwind$?_Get_data@?$_Vector_alloc@U?$_Vec_base_types@PEAUVkFramebuffer_T@@V?$allocator@PEAUVkFramebuffer_T@@@std@@@std@@@std@@QEAAAEAV?$_Vector_val@U?$_Simple_types@PEAUVkFramebuffer_T@@@std@@@2@XZ
pdata	ENDS
;	COMDAT pdata
pdata	SEGMENT
$pdata$?_Get_data@?$_Vector_alloc@U?$_Vec_base_types@PEAUVkFramebuffer_T@@V?$allocator@PEAUVkFramebuffer_T@@@std@@@std@@@std@@QEBAAEBV?$_Vector_val@U?$_Simple_types@PEAUVkFramebuffer_T@@@std@@@2@XZ DD imagerel $LN3
	DD	imagerel $LN3+67
	DD	imagerel $unwind$?_Get_data@?$_Vector_alloc@U?$_Vec_base_types@PEAUVkFramebuffer_T@@V?$allocator@PEAUVkFramebuffer_T@@@std@@@std@@@std@@QEBAAEBV?$_Vector_val@U?$_Simple_types@PEAUVkFramebuffer_T@@@std@@@2@XZ
pdata	ENDS
;	COMDAT pdata
pdata	SEGMENT
$pdata$?_Myfirst@?$_Vector_alloc@U?$_Vec_base_types@PEAUVkFramebuffer_T@@V?$allocator@PEAUVkFramebuffer_T@@@std@@@std@@@std@@QEAAAEAPEAPEAUVkFramebuffer_T@@XZ DD imagerel $LN3
	DD	imagerel $LN3+68
	DD	imagerel $unwind$?_Myfirst@?$_Vector_alloc@U?$_Vec_base_types@PEAUVkFramebuffer_T@@V?$allocator@PEAUVkFramebuffer_T@@@std@@@std@@@std@@QEAAAEAPEAPEAUVkFramebuffer_T@@XZ
pdata	ENDS
;	COMDAT pdata
pdata	SEGMENT
$pdata$?_Myfirst@?$_Vector_alloc@U?$_Vec_base_types@PEAUVkFramebuffer_T@@V?$allocator@PEAUVkFramebuffer_T@@@std@@@std@@@std@@QEBAAEBQEAPEAUVkFramebuffer_T@@XZ DD imagerel $LN3
	DD	imagerel $LN3+68
	DD	imagerel $unwind$?_Myfirst@?$_Vector_alloc@U?$_Vec_base_types@PEAUVkFramebuffer_T@@V?$allocator@PEAUVkFramebuffer_T@@@std@@@std@@@std@@QEBAAEBQEAPEAUVkFramebuffer_T@@XZ
pdata	ENDS
;	COMDAT pdata
pdata	SEGMENT
$pdata$?_Mylast@?$_Vector_alloc@U?$_Vec_base_types@PEAUVkFramebuffer_T@@V?$allocator@PEAUVkFramebuffer_T@@@std@@@std@@@std@@QEAAAEAPEAPEAUVkFramebuffer_T@@XZ DD imagerel $LN3
	DD	imagerel $LN3+68
	DD	imagerel $unwind$?_Mylast@?$_Vector_alloc@U?$_Vec_base_types@PEAUVkFramebuffer_T@@V?$allocator@PEAUVkFramebuffer_T@@@std@@@std@@@std@@QEAAAEAPEAPEAUVkFramebuffer_T@@XZ
pdata	ENDS
;	COMDAT pdata
pdata	SEGMENT
$pdata$?_Mylast@?$_Vector_alloc@U?$_Vec_base_types@PEAUVkFramebuffer_T@@V?$allocator@PEAUVkFramebuffer_T@@@std@@@std@@@std@@QEBAAEBQEAPEAUVkFramebuffer_T@@XZ DD imagerel $LN3
	DD	imagerel $LN3+68
	DD	imagerel $unwind$?_Mylast@?$_Vector_alloc@U?$_Vec_base_types@PEAUVkFramebuffer_T@@V?$allocator@PEAUVkFramebuffer_T@@@std@@@std@@@std@@QEBAAEBQEAPEAUVkFramebuffer_T@@XZ
pdata	ENDS
;	COMDAT pdata
pdata	SEGMENT
$pdata$?_Myend@?$_Vector_alloc@U?$_Vec_base_types@PEAUVkFramebuffer_T@@V?$allocator@PEAUVkFramebuffer_T@@@std@@@std@@@std@@QEAAAEAPEAPEAUVkFramebuffer_T@@XZ DD imagerel $LN3
	DD	imagerel $LN3+68
	DD	imagerel $unwind$?_Myend@?$_Vector_alloc@U?$_Vec_base_types@PEAUVkFramebuffer_T@@V?$allocator@PEAUVkFramebuffer_T@@@std@@@std@@@std@@QEAAAEAPEAPEAUVkFramebuffer_T@@XZ
pdata	ENDS
;	COMDAT pdata
pdata	SEGMENT
$pdata$??0?$_Vector_val@U?$_Simple_types@PEAUVkFramebuffer_T@@@std@@@std@@QEAA@XZ DD imagerel $LN4
	DD	imagerel $LN4+116
	DD	imagerel $unwind$??0?$_Vector_val@U?$_Simple_types@PEAUVkFramebuffer_T@@@std@@@std@@QEAA@XZ
pdata	ENDS
;	COMDAT pdata
pdata	SEGMENT
$pdata$??1?$_Vector_val@U?$_Simple_types@PEAUVkFramebuffer_T@@@std@@@std@@QEAA@XZ DD imagerel $LN3
	DD	imagerel $LN3+64
	DD	imagerel $unwind$??1?$_Vector_val@U?$_Simple_types@PEAUVkFramebuffer_T@@@std@@@std@@QEAA@XZ
pdata	ENDS
;	COMDAT pdata
pdata	SEGMENT
$pdata$?_Get_first@?$_Compressed_pair@U?$_Wrap_alloc@V?$allocator@PEAUVkFramebuffer_T@@@std@@@std@@V?$_Vector_val@U?$_Simple_types@PEAUVkFramebuffer_T@@@std@@@2@$00@std@@QEAAAEAU?$_Wrap_alloc@V?$allocator@PEAUVkFramebuffer_T@@@std@@@2@XZ DD imagerel $LN3
	DD	imagerel $LN3+57
	DD	imagerel $unwind$?_Get_first@?$_Compressed_pair@U?$_Wrap_alloc@V?$allocator@PEAUVkFramebuffer_T@@@std@@@std@@V?$_Vector_val@U?$_Simple_types@PEAUVkFramebuffer_T@@@std@@@2@$00@std@@QEAAAEAU?$_Wrap_alloc@V?$allocator@PEAUVkFramebuffer_T@@@std@@@2@XZ
pdata	ENDS
;	COMDAT pdata
pdata	SEGMENT
$pdata$?_Get_first@?$_Compressed_pair@U?$_Wrap_alloc@V?$allocator@PEAUVkFramebuffer_T@@@std@@@std@@V?$_Vector_val@U?$_Simple_types@PEAUVkFramebuffer_T@@@std@@@2@$00@std@@QEBAAEBU?$_Wrap_alloc@V?$allocator@PEAUVkFramebuffer_T@@@std@@@2@XZ DD imagerel $LN3
	DD	imagerel $LN3+57
	DD	imagerel $unwind$?_Get_first@?$_Compressed_pair@U?$_Wrap_alloc@V?$allocator@PEAUVkFramebuffer_T@@@std@@@std@@V?$_Vector_val@U?$_Simple_types@PEAUVkFramebuffer_T@@@std@@@2@$00@std@@QEBAAEBU?$_Wrap_alloc@V?$allocator@PEAUVkFramebuffer_T@@@std@@@2@XZ
pdata	ENDS
;	COMDAT pdata
pdata	SEGMENT
$pdata$?_Get_second@?$_Compressed_pair@U?$_Wrap_alloc@V?$allocator@PEAUVkFramebuffer_T@@@std@@@std@@V?$_Vector_val@U?$_Simple_types@PEAUVkFramebuffer_T@@@std@@@2@$00@std@@QEAAAEAV?$_Vector_val@U?$_Simple_types@PEAUVkFramebuffer_T@@@std@@@2@XZ DD imagerel $LN3
	DD	imagerel $LN3+57
	DD	imagerel $unwind$?_Get_second@?$_Compressed_pair@U?$_Wrap_alloc@V?$allocator@PEAUVkFramebuffer_T@@@std@@@std@@V?$_Vector_val@U?$_Simple_types@PEAUVkFramebuffer_T@@@std@@@2@$00@std@@QEAAAEAV?$_Vector_val@U?$_Simple_types@PEAUVkFramebuffer_T@@@std@@@2@XZ
pdata	ENDS
;	COMDAT pdata
pdata	SEGMENT
$pdata$?_Get_second@?$_Compressed_pair@U?$_Wrap_alloc@V?$allocator@PEAUVkFramebuffer_T@@@std@@@std@@V?$_Vector_val@U?$_Simple_types@PEAUVkFramebuffer_T@@@std@@@2@$00@std@@QEBAAEBV?$_Vector_val@U?$_Simple_types@PEAUVkFramebuffer_T@@@std@@@2@XZ DD imagerel $LN3
	DD	imagerel $LN3+57
	DD	imagerel $unwind$?_Get_second@?$_Compressed_pair@U?$_Wrap_alloc@V?$allocator@PEAUVkFramebuffer_T@@@std@@@std@@V?$_Vector_val@U?$_Simple_types@PEAUVkFramebuffer_T@@@std@@@2@$00@std@@QEBAAEBV?$_Vector_val@U?$_Simple_types@PEAUVkFramebuffer_T@@@std@@@2@XZ
pdata	ENDS
;	COMDAT pdata
pdata	SEGMENT
$pdata$??1?$_Compressed_pair@U?$_Wrap_alloc@V?$allocator@PEAUVkFramebuffer_T@@@std@@@std@@V?$_Vector_val@U?$_Simple_types@PEAUVkFramebuffer_T@@@std@@@2@$00@std@@QEAA@XZ DD imagerel $LN3
	DD	imagerel $LN3+67
	DD	imagerel $unwind$??1?$_Compressed_pair@U?$_Wrap_alloc@V?$allocator@PEAUVkFramebuffer_T@@@std@@@std@@V?$_Vector_val@U?$_Simple_types@PEAUVkFramebuffer_T@@@std@@@2@$00@std@@QEAA@XZ
pdata	ENDS
;	COMDAT pdata
pdata	SEGMENT
$pdata$??0?$vector@PEAUVkFramebuffer_T@@V?$allocator@PEAUVkFramebuffer_T@@@std@@@std@@QEAA@_K@Z DD imagerel $LN12
	DD	imagerel $LN12+237
	DD	imagerel $unwind$??0?$vector@PEAUVkFramebuffer_T@@V?$allocator@PEAUVkFramebuffer_T@@@std@@@std@@QEAA@_K@Z
pdata	ENDS
;	COMDAT pdata
pdata	SEGMENT
$pdata$?dtor$0@?0???0?$vector@PEAUVkFramebuffer_T@@V?$allocator@PEAUVkFramebuffer_T@@@std@@@std@@QEAA@_K@Z@4HA DD imagerel ?dtor$0@?0???0?$vector@PEAUVkFramebuffer_T@@V?$allocator@PEAUVkFramebuffer_T@@@std@@@std@@QEAA@_K@Z@4HA
	DD	imagerel ?dtor$0@?0???0?$vector@PEAUVkFramebuffer_T@@V?$allocator@PEAUVkFramebuffer_T@@@std@@@std@@QEAA@_K@Z@4HA+39
	DD	imagerel $unwind$?dtor$0@?0???0?$vector@PEAUVkFramebuffer_T@@V?$allocator@PEAUVkFramebuffer_T@@@std@@@std@@QEAA@_K@Z@4HA
pdata	ENDS
;	COMDAT pdata
pdata	SEGMENT
$pdata$?catch$0@?0???0?$vector@PEAUVkFramebuffer_T@@V?$allocator@PEAUVkFramebuffer_T@@@std@@@std@@QEAA@_K@Z@4HA DD imagerel ?catch$0@?0???0?$vector@PEAUVkFramebuffer_T@@V?$allocator@PEAUVkFramebuffer_T@@@std@@@std@@QEAA@_K@Z@4HA
	DD	imagerel ?catch$0@?0???0?$vector@PEAUVkFramebuffer_T@@V?$allocator@PEAUVkFramebuffer_T@@@std@@@std@@QEAA@_K@Z@4HA+57
	DD	imagerel $unwind$?catch$0@?0???0?$vector@PEAUVkFramebuffer_T@@V?$allocator@PEAUVkFramebuffer_T@@@std@@@std@@QEAA@_K@Z@4HA
pdata	ENDS
;	COMDAT pdata
pdata	SEGMENT
$pdata$??0?$vector@PEAUVkFramebuffer_T@@V?$allocator@PEAUVkFramebuffer_T@@@std@@@std@@QEAA@$$QEAV01@@Z DD imagerel $LN3
	DD	imagerel $LN3+150
	DD	imagerel $unwind$??0?$vector@PEAUVkFramebuffer_T@@V?$allocator@PEAUVkFramebuffer_T@@@std@@@std@@QEAA@$$QEAV01@@Z
pdata	ENDS
;	COMDAT pdata
pdata	SEGMENT
$pdata$?_Assign_rv@?$vector@PEAUVkFramebuffer_T@@V?$allocator@PEAUVkFramebuffer_T@@@std@@@std@@QEAAX$$QEAV12@U?$integral_constant@_N$00@2@@Z DD imagerel $LN3
	DD	imagerel $LN3+270
	DD	imagerel $unwind$?_Assign_rv@?$vector@PEAUVkFramebuffer_T@@V?$allocator@PEAUVkFramebuffer_T@@@std@@@std@@QEAAX$$QEAV12@U?$integral_constant@_N$00@2@@Z
pdata	ENDS
;	COMDAT pdata
pdata	SEGMENT
$pdata$??1?$vector@PEAUVkFramebuffer_T@@V?$allocator@PEAUVkFramebuffer_T@@@std@@@std@@QEAA@XZ DD imagerel $LN3
	DD	imagerel $LN3+89
	DD	imagerel $unwind$??1?$vector@PEAUVkFramebuffer_T@@V?$allocator@PEAUVkFramebuffer_T@@@std@@@std@@QEAA@XZ
pdata	ENDS
;	COMDAT pdata
pdata	SEGMENT
$pdata$?size@?$vector@PEAUVkFramebuffer_T@@V?$allocator@PEAUVkFramebuffer_T@@@std@@@std@@QEBA_KXZ DD imagerel $LN3
	DD	imagerel $LN3+106
	DD	imagerel $unwind$?size@?$vector@PEAUVkFramebuffer_T@@V?$allocator@PEAUVkFramebuffer_T@@@std@@@std@@QEBA_KXZ
pdata	ENDS
;	COMDAT pdata
pdata	SEGMENT
$pdata$?max_size@?$vector@PEAUVkFramebuffer_T@@V?$allocator@PEAUVkFramebuffer_T@@@std@@@std@@QEBA_KXZ DD imagerel $LN3
	DD	imagerel $LN3+79
	DD	imagerel $unwind$?max_size@?$vector@PEAUVkFramebuffer_T@@V?$allocator@PEAUVkFramebuffer_T@@@std@@@std@@QEBA_KXZ
pdata	ENDS
;	COMDAT pdata
pdata	SEGMENT
$pdata$??A?$vector@PEAUVkFramebuffer_T@@V?$allocator@PEAUVkFramebuffer_T@@@std@@@std@@QEAAAEAPEAUVkFramebuffer_T@@_K@Z DD imagerel $LN6
	DD	imagerel $LN6+253
	DD	imagerel $unwind$??A?$vector@PEAUVkFramebuffer_T@@V?$allocator@PEAUVkFramebuffer_T@@@std@@@std@@QEAAAEAPEAUVkFramebuffer_T@@_K@Z
pdata	ENDS
;	COMDAT pdata
pdata	SEGMENT
$pdata$?_Buy@?$vector@PEAUVkFramebuffer_T@@V?$allocator@PEAUVkFramebuffer_T@@@std@@@std@@IEAA_N_K@Z DD imagerel $LN7
	DD	imagerel $LN7+331
	DD	imagerel $unwind$?_Buy@?$vector@PEAUVkFramebuffer_T@@V?$allocator@PEAUVkFramebuffer_T@@@std@@@std@@IEAA_N_K@Z
pdata	ENDS
;	COMDAT pdata
pdata	SEGMENT
$pdata$?_Destroy@?$vector@PEAUVkFramebuffer_T@@V?$allocator@PEAUVkFramebuffer_T@@@std@@@std@@IEAAXPEAPEAUVkFramebuffer_T@@0@Z DD imagerel $LN3
	DD	imagerel $LN3+96
	DD	imagerel $unwind$?_Destroy@?$vector@PEAUVkFramebuffer_T@@V?$allocator@PEAUVkFramebuffer_T@@@std@@@std@@IEAAXPEAPEAUVkFramebuffer_T@@0@Z
pdata	ENDS
;	COMDAT pdata
pdata	SEGMENT
$pdata$?_Tidy@?$vector@PEAUVkFramebuffer_T@@V?$allocator@PEAUVkFramebuffer_T@@@std@@@std@@IEAAXXZ DD imagerel $LN4
	DD	imagerel $LN4+319
	DD	imagerel $unwind$?_Tidy@?$vector@PEAUVkFramebuffer_T@@V?$allocator@PEAUVkFramebuffer_T@@@std@@@std@@IEAAXXZ
pdata	ENDS
;	COMDAT pdata
pdata	SEGMENT
$pdata$?_Xlen@?$vector@PEAUVkFramebuffer_T@@V?$allocator@PEAUVkFramebuffer_T@@@std@@@std@@IEBAXXZ DD imagerel $LN3
	DD	imagerel $LN3+65
	DD	imagerel $unwind$?_Xlen@?$vector@PEAUVkFramebuffer_T@@V?$allocator@PEAUVkFramebuffer_T@@@std@@@std@@IEBAXXZ
pdata	ENDS
;	COMDAT pdata
pdata	SEGMENT
$pdata$?__autoclassinit2@?$vector@PEAUVkFramebuffer_T@@V?$allocator@PEAUVkFramebuffer_T@@@std@@@std@@QEAAX_K@Z DD imagerel $LN3
	DD	imagerel $LN3+73
	DD	imagerel $unwind$?__autoclassinit2@?$vector@PEAUVkFramebuffer_T@@V?$allocator@PEAUVkFramebuffer_T@@@std@@@std@@QEAAX_K@Z
pdata	ENDS
;	COMDAT pdata
pdata	SEGMENT
$pdata$?deallocate@?$allocator@PEAUVkShaderModule_T@@@std@@QEAAXPEAPEAUVkShaderModule_T@@_K@Z DD imagerel $LN3
	DD	imagerel $LN3+87
	DD	imagerel $unwind$?deallocate@?$allocator@PEAUVkShaderModule_T@@@std@@QEAAXPEAPEAUVkShaderModule_T@@_K@Z
pdata	ENDS
;	COMDAT pdata
pdata	SEGMENT
$pdata$?allocate@?$allocator@PEAUVkShaderModule_T@@@std@@QEAAPEAPEAUVkShaderModule_T@@_K@Z DD imagerel $LN3
	DD	imagerel $LN3+77
	DD	imagerel $unwind$?allocate@?$allocator@PEAUVkShaderModule_T@@@std@@QEAAPEAPEAUVkShaderModule_T@@_K@Z
pdata	ENDS
;	COMDAT pdata
pdata	SEGMENT
$pdata$?max_size@?$allocator@PEAUVkShaderModule_T@@@std@@QEBA_KXZ DD imagerel $LN3
	DD	imagerel $LN3+60
	DD	imagerel $unwind$?max_size@?$allocator@PEAUVkShaderModule_T@@@std@@QEBA_KXZ
pdata	ENDS
;	COMDAT pdata
pdata	SEGMENT
$pdata$?max_size@?$allocator_traits@V?$allocator@PEAUVkShaderModule_T@@@std@@@std@@SA_KAEBV?$allocator@PEAUVkShaderModule_T@@@2@@Z DD imagerel $LN3
	DD	imagerel $LN3+64
	DD	imagerel $unwind$?max_size@?$allocator_traits@V?$allocator@PEAUVkShaderModule_T@@@std@@@std@@SA_KAEBV?$allocator@PEAUVkShaderModule_T@@@2@@Z
pdata	ENDS
;	COMDAT pdata
pdata	SEGMENT
$pdata$?allocate@?$_Wrap_alloc@V?$allocator@PEAUVkShaderModule_T@@@std@@@std@@QEAAPEAPEAUVkShaderModule_T@@_K@Z DD imagerel $LN3
	DD	imagerel $LN3+76
	DD	imagerel $unwind$?allocate@?$_Wrap_alloc@V?$allocator@PEAUVkShaderModule_T@@@std@@@std@@QEAAPEAPEAUVkShaderModule_T@@_K@Z
pdata	ENDS
;	COMDAT pdata
pdata	SEGMENT
$pdata$?deallocate@?$_Wrap_alloc@V?$allocator@PEAUVkShaderModule_T@@@std@@@std@@QEAAXPEAPEAUVkShaderModule_T@@_K@Z DD imagerel $LN3
	DD	imagerel $LN3+88
	DD	imagerel $unwind$?deallocate@?$_Wrap_alloc@V?$allocator@PEAUVkShaderModule_T@@@std@@@std@@QEAAXPEAPEAUVkShaderModule_T@@_K@Z
pdata	ENDS
;	COMDAT pdata
pdata	SEGMENT
$pdata$?max_size@?$_Wrap_alloc@V?$allocator@PEAUVkShaderModule_T@@@std@@@std@@QEBA_KU_Nil@2@@Z DD imagerel $LN3
	DD	imagerel $LN3+68
	DD	imagerel $unwind$?max_size@?$_Wrap_alloc@V?$allocator@PEAUVkShaderModule_T@@@std@@@std@@QEBA_KU_Nil@2@@Z
pdata	ENDS
;	COMDAT pdata
pdata	SEGMENT
$pdata$?_Getpfirst@?$_Vector_alloc@U?$_Vec_base_types@PEAUVkShaderModule_T@@V?$allocator@PEAUVkShaderModule_T@@@std@@@std@@@std@@QEBAPEAPEAU_Iterator_base12@2@XZ DD imagerel $LN3
	DD	imagerel $LN3+72
	DD	imagerel $unwind$?_Getpfirst@?$_Vector_alloc@U?$_Vec_base_types@PEAUVkShaderModule_T@@V?$allocator@PEAUVkShaderModule_T@@@std@@@std@@@std@@QEBAPEAPEAU_Iterator_base12@2@XZ
pdata	ENDS
;	COMDAT pdata
pdata	SEGMENT
$pdata$?_Orphan_all@?$_Vector_alloc@U?$_Vec_base_types@PEAUVkShaderModule_T@@V?$allocator@PEAUVkShaderModule_T@@@std@@@std@@@std@@QEAAXXZ DD imagerel $LN3
	DD	imagerel $LN3+72
	DD	imagerel $unwind$?_Orphan_all@?$_Vector_alloc@U?$_Vec_base_types@PEAUVkShaderModule_T@@V?$allocator@PEAUVkShaderModule_T@@@std@@@std@@@std@@QEAAXXZ
pdata	ENDS
;	COMDAT pdata
pdata	SEGMENT
$pdata$?_Getal@?$_Vector_alloc@U?$_Vec_base_types@PEAUVkShaderModule_T@@V?$allocator@PEAUVkShaderModule_T@@@std@@@std@@@std@@QEAAAEAU?$_Wrap_alloc@V?$allocator@PEAUVkShaderModule_T@@@std@@@2@XZ DD imagerel $LN3
	DD	imagerel $LN3+67
	DD	imagerel $unwind$?_Getal@?$_Vector_alloc@U?$_Vec_base_types@PEAUVkShaderModule_T@@V?$allocator@PEAUVkShaderModule_T@@@std@@@std@@@std@@QEAAAEAU?$_Wrap_alloc@V?$allocator@PEAUVkShaderModule_T@@@std@@@2@XZ
pdata	ENDS
;	COMDAT pdata
pdata	SEGMENT
$pdata$?_Getal@?$_Vector_alloc@U?$_Vec_base_types@PEAUVkShaderModule_T@@V?$allocator@PEAUVkShaderModule_T@@@std@@@std@@@std@@QEBAAEBU?$_Wrap_alloc@V?$allocator@PEAUVkShaderModule_T@@@std@@@2@XZ DD imagerel $LN3
	DD	imagerel $LN3+67
	DD	imagerel $unwind$?_Getal@?$_Vector_alloc@U?$_Vec_base_types@PEAUVkShaderModule_T@@V?$allocator@PEAUVkShaderModule_T@@@std@@@std@@@std@@QEBAAEBU?$_Wrap_alloc@V?$allocator@PEAUVkShaderModule_T@@@std@@@2@XZ
pdata	ENDS
;	COMDAT pdata
pdata	SEGMENT
$pdata$?_Get_data@?$_Vector_alloc@U?$_Vec_base_types@PEAUVkShaderModule_T@@V?$allocator@PEAUVkShaderModule_T@@@std@@@std@@@std@@QEAAAEAV?$_Vector_val@U?$_Simple_types@PEAUVkShaderModule_T@@@std@@@2@XZ DD imagerel $LN3
	DD	imagerel $LN3+67
	DD	imagerel $unwind$?_Get_data@?$_Vector_alloc@U?$_Vec_base_types@PEAUVkShaderModule_T@@V?$allocator@PEAUVkShaderModule_T@@@std@@@std@@@std@@QEAAAEAV?$_Vector_val@U?$_Simple_types@PEAUVkShaderModule_T@@@std@@@2@XZ
pdata	ENDS
;	COMDAT pdata
pdata	SEGMENT
$pdata$?_Get_data@?$_Vector_alloc@U?$_Vec_base_types@PEAUVkShaderModule_T@@V?$allocator@PEAUVkShaderModule_T@@@std@@@std@@@std@@QEBAAEBV?$_Vector_val@U?$_Simple_types@PEAUVkShaderModule_T@@@std@@@2@XZ DD imagerel $LN3
	DD	imagerel $LN3+67
	DD	imagerel $unwind$?_Get_data@?$_Vector_alloc@U?$_Vec_base_types@PEAUVkShaderModule_T@@V?$allocator@PEAUVkShaderModule_T@@@std@@@std@@@std@@QEBAAEBV?$_Vector_val@U?$_Simple_types@PEAUVkShaderModule_T@@@std@@@2@XZ
pdata	ENDS
;	COMDAT pdata
pdata	SEGMENT
$pdata$?_Myfirst@?$_Vector_alloc@U?$_Vec_base_types@PEAUVkShaderModule_T@@V?$allocator@PEAUVkShaderModule_T@@@std@@@std@@@std@@QEAAAEAPEAPEAUVkShaderModule_T@@XZ DD imagerel $LN3
	DD	imagerel $LN3+68
	DD	imagerel $unwind$?_Myfirst@?$_Vector_alloc@U?$_Vec_base_types@PEAUVkShaderModule_T@@V?$allocator@PEAUVkShaderModule_T@@@std@@@std@@@std@@QEAAAEAPEAPEAUVkShaderModule_T@@XZ
pdata	ENDS
;	COMDAT pdata
pdata	SEGMENT
$pdata$?_Myfirst@?$_Vector_alloc@U?$_Vec_base_types@PEAUVkShaderModule_T@@V?$allocator@PEAUVkShaderModule_T@@@std@@@std@@@std@@QEBAAEBQEAPEAUVkShaderModule_T@@XZ DD imagerel $LN3
	DD	imagerel $LN3+68
	DD	imagerel $unwind$?_Myfirst@?$_Vector_alloc@U?$_Vec_base_types@PEAUVkShaderModule_T@@V?$allocator@PEAUVkShaderModule_T@@@std@@@std@@@std@@QEBAAEBQEAPEAUVkShaderModule_T@@XZ
pdata	ENDS
;	COMDAT pdata
pdata	SEGMENT
$pdata$?_Mylast@?$_Vector_alloc@U?$_Vec_base_types@PEAUVkShaderModule_T@@V?$allocator@PEAUVkShaderModule_T@@@std@@@std@@@std@@QEAAAEAPEAPEAUVkShaderModule_T@@XZ DD imagerel $LN3
	DD	imagerel $LN3+68
	DD	imagerel $unwind$?_Mylast@?$_Vector_alloc@U?$_Vec_base_types@PEAUVkShaderModule_T@@V?$allocator@PEAUVkShaderModule_T@@@std@@@std@@@std@@QEAAAEAPEAPEAUVkShaderModule_T@@XZ
pdata	ENDS
;	COMDAT pdata
pdata	SEGMENT
$pdata$?_Mylast@?$_Vector_alloc@U?$_Vec_base_types@PEAUVkShaderModule_T@@V?$allocator@PEAUVkShaderModule_T@@@std@@@std@@@std@@QEBAAEBQEAPEAUVkShaderModule_T@@XZ DD imagerel $LN3
	DD	imagerel $LN3+68
	DD	imagerel $unwind$?_Mylast@?$_Vector_alloc@U?$_Vec_base_types@PEAUVkShaderModule_T@@V?$allocator@PEAUVkShaderModule_T@@@std@@@std@@@std@@QEBAAEBQEAPEAUVkShaderModule_T@@XZ
pdata	ENDS
;	COMDAT pdata
pdata	SEGMENT
$pdata$?_Myend@?$_Vector_alloc@U?$_Vec_base_types@PEAUVkShaderModule_T@@V?$allocator@PEAUVkShaderModule_T@@@std@@@std@@@std@@QEAAAEAPEAPEAUVkShaderModule_T@@XZ DD imagerel $LN3
	DD	imagerel $LN3+68
	DD	imagerel $unwind$?_Myend@?$_Vector_alloc@U?$_Vec_base_types@PEAUVkShaderModule_T@@V?$allocator@PEAUVkShaderModule_T@@@std@@@std@@@std@@QEAAAEAPEAPEAUVkShaderModule_T@@XZ
pdata	ENDS
;	COMDAT pdata
pdata	SEGMENT
