; Listing generated by Microsoft (R) Optimizing Compiler Version 19.00.23506.0 

include listing.inc

INCLUDELIB MSVCRTD
INCLUDELIB OLDNAMES

PUBLIC	?InitPool@@YAXPEAIII@Z				; InitPool
EXTRN	_RTC_InitBase:PROC
EXTRN	_RTC_Shutdown:PROC
;	COMDAT pdata
pdata	SEGMENT
$pdata$?InitPool@@YAXPEAIII@Z DD imagerel $LN6
	DD	imagerel $LN6+139
	DD	imagerel $unwind$?InitPool@@YAXPEAIII@Z
pdata	ENDS
;	COMDAT rtc$TMZ
rtc$TMZ	SEGMENT
_RTC_Shutdown.rtc$TMZ DQ FLAT:_RTC_Shutdown
rtc$TMZ	ENDS
;	COMDAT rtc$IMZ
rtc$IMZ	SEGMENT
_RTC_InitBase.rtc$IMZ DQ FLAT:_RTC_InitBase
rtc$IMZ	ENDS
;	COMDAT xdata
xdata	SEGMENT
$unwind$?InitPool@@YAXPEAIII@Z DD 05053101H
	DD	0117031aH
	DD	07010001dH
	DD	0500fH
xdata	ENDS
; Function compile flags: /Odtp /RTCsu /ZI
;	COMDAT ?InitPool@@YAXPEAIII@Z
_TEXT	SEGMENT
i$1 = 4
data$ = 256
size$ = 264
numThreads$ = 272
?InitPool@@YAXPEAIII@Z PROC				; InitPool, COMDAT
; File d:\scottsdocs\sourcecode\vulkanengine\vulkanengine\code\cymemory.cpp
; Line 7
$LN6:
  00000	44 89 44 24 18	 mov	 DWORD PTR [rsp+24], r8d
  00005	89 54 24 10	 mov	 DWORD PTR [rsp+16], edx
  00009	48 89 4c 24 08	 mov	 QWORD PTR [rsp+8], rcx
  0000e	55		 push	 rbp
  0000f	57		 push	 rdi
  00010	48 81 ec e8 00
	00 00		 sub	 rsp, 232		; 000000e8H
  00017	48 8b ec	 mov	 rbp, rsp
  0001a	48 8b fc	 mov	 rdi, rsp
  0001d	b9 3a 00 00 00	 mov	 ecx, 58			; 0000003aH
  00022	b8 cc cc cc cc	 mov	 eax, -858993460		; ccccccccH
  00027	f3 ab		 rep stosd
  00029	48 8b 8c 24 08
	01 00 00	 mov	 rcx, QWORD PTR [rsp+264]
; Line 8
  00031	b8 04 00 00 00	 mov	 eax, 4
  00036	48 6b c0 00	 imul	 rax, rax, 0
  0003a	48 8b 8d 00 01
	00 00		 mov	 rcx, QWORD PTR data$[rbp]
  00041	8b 95 08 01 00
	00		 mov	 edx, DWORD PTR size$[rbp]
  00047	89 14 01	 mov	 DWORD PTR [rcx+rax], edx
; Line 9
  0004a	b8 04 00 00 00	 mov	 eax, 4
  0004f	48 6b c0 01	 imul	 rax, rax, 1
  00053	48 8b 8d 00 01
	00 00		 mov	 rcx, QWORD PTR data$[rbp]
  0005a	8b 95 10 01 00
	00		 mov	 edx, DWORD PTR numThreads$[rbp]
  00060	89 14 01	 mov	 DWORD PTR [rcx+rax], edx
; Line 11
  00063	c7 45 04 00 00
	00 00		 mov	 DWORD PTR i$1[rbp], 0
  0006a	eb 08		 jmp	 SHORT $LN4@InitPool
$LN2@InitPool:
  0006c	8b 45 04	 mov	 eax, DWORD PTR i$1[rbp]
  0006f	ff c0		 inc	 eax
  00071	89 45 04	 mov	 DWORD PTR i$1[rbp], eax
$LN4@InitPool:
  00074	8b 85 10 01 00
	00		 mov	 eax, DWORD PTR numThreads$[rbp]
  0007a	39 45 04	 cmp	 DWORD PTR i$1[rbp], eax
  0007d	73 02		 jae	 SHORT $LN3@InitPool
; Line 14
  0007f	eb eb		 jmp	 SHORT $LN2@InitPool
$LN3@InitPool:
; Line 16
  00081	48 8d a5 e8 00
	00 00		 lea	 rsp, QWORD PTR [rbp+232]
  00088	5f		 pop	 rdi
  00089	5d		 pop	 rbp
  0008a	c3		 ret	 0
?InitPool@@YAXPEAIII@Z ENDP				; InitPool
_TEXT	ENDS
END
