; Listing generated by Microsoft (R) Optimizing Compiler Version 19.00.23506.0 

include listing.inc

INCLUDELIB MSVCRTD
INCLUDELIB OLDNAMES

PUBLIC	??HCy@@YA?AUString@0@U10@0@Z			; Cy::operator+
EXTRN	_RTC_InitBase:PROC
EXTRN	_RTC_Shutdown:PROC
;	COMDAT pdata
pdata	SEGMENT
$pdata$??HCy@@YA?AUString@0@U10@0@Z DD imagerel $LN3
	DD	imagerel $LN3+60
	DD	imagerel $unwind$??HCy@@YA?AUString@0@U10@0@Z
pdata	ENDS
;	COMDAT rtc$TMZ
rtc$TMZ	SEGMENT
_RTC_Shutdown.rtc$TMZ DQ FLAT:_RTC_Shutdown
rtc$TMZ	ENDS
;	COMDAT rtc$IMZ
rtc$IMZ	SEGMENT
_RTC_InitBase.rtc$IMZ DQ FLAT:_RTC_InitBase
rtc$IMZ	ENDS
;	COMDAT xdata
xdata	SEGMENT
$unwind$??HCy@@YA?AUString@0@U10@0@Z DD 05053201H
	DD	0118031bH
	DD	070110019H
	DD	05010H
xdata	ENDS
; Function compile flags: /Odtp /RTCsu /ZI
;	COMDAT ??HCy@@YA?AUString@0@U10@0@Z
_TEXT	SEGMENT
$T1 = 224
s1$ = 232
s2$ = 240
??HCy@@YA?AUString@0@U10@0@Z PROC			; Cy::operator+, COMDAT
; File d:\scottsdocs\sourcecode\vulkanengine\vulkanengine\code\cystring.cpp
; Line 8
$LN3:
  00000	4c 89 44 24 18	 mov	 QWORD PTR [rsp+24], r8
  00005	48 89 54 24 10	 mov	 QWORD PTR [rsp+16], rdx
  0000a	48 89 4c 24 08	 mov	 QWORD PTR [rsp+8], rcx
  0000f	55		 push	 rbp
  00010	57		 push	 rdi
  00011	48 81 ec c8 00
	00 00		 sub	 rsp, 200		; 000000c8H
  00018	48 8b ec	 mov	 rbp, rsp
  0001b	48 8b fc	 mov	 rdi, rsp
  0001e	b9 32 00 00 00	 mov	 ecx, 50			; 00000032H
  00023	b8 cc cc cc cc	 mov	 eax, -858993460		; ccccccccH
  00028	f3 ab		 rep stosd
  0002a	48 8b 8c 24 e8
	00 00 00	 mov	 rcx, QWORD PTR [rsp+232]
; Line 9
  00032	48 8d a5 c8 00
	00 00		 lea	 rsp, QWORD PTR [rbp+200]
  00039	5f		 pop	 rdi
  0003a	5d		 pop	 rbp
  0003b	c3		 ret	 0
??HCy@@YA?AUString@0@U10@0@Z ENDP			; Cy::operator+
_TEXT	ENDS
END
