; Listing generated by Microsoft (R) Optimizing Compiler Version 19.00.23506.0 

include listing.inc

INCLUDELIB MSVCRTD
INCLUDELIB OLDNAMES

PUBLIC	?GetPhysicalDeviceSurfaceSupportKHR@Cy@@3P6A?AW4VkResult@@PEAUVkPhysicalDevice_T@@IPEAUVkSurfaceKHR_T@@PEAI@ZEA ; Cy::GetPhysicalDeviceSurfaceSupportKHR
PUBLIC	?GetPhysicalDeviceSurfaceCapabilitiesKHR@Cy@@3P6A?AW4VkResult@@PEAUVkPhysicalDevice_T@@PEAUVkSurfaceKHR_T@@PEAUVkSurfaceCapabilitiesKHR@@@ZEA ; Cy::GetPhysicalDeviceSurfaceCapabilitiesKHR
PUBLIC	?GetPhysicalDeviceSurfaceFormatsKHR@Cy@@3P6A?AW4VkResult@@PEAUVkPhysicalDevice_T@@PEAUVkSurfaceKHR_T@@PEAIPEAUVkSurfaceFormatKHR@@@ZEA ; Cy::GetPhysicalDeviceSurfaceFormatsKHR
PUBLIC	?GetPhysicalDeviceSurfacePresentModesKHR@Cy@@3P6A?AW4VkResult@@PEAUVkPhysicalDevice_T@@PEAUVkSurfaceKHR_T@@PEAIPEAW4VkPresentModeKHR@@@ZEA ; Cy::GetPhysicalDeviceSurfacePresentModesKHR
PUBLIC	?CreateSwapchainKHR@Cy@@3P6A?AW4VkResult@@PEAUVkDevice_T@@PEBUVkSwapchainCreateInfoKHR@@PEBUVkAllocationCallbacks@@PEAPEAUVkSwapchainKHR_T@@@ZEA ; Cy::CreateSwapchainKHR
PUBLIC	?DestroySwapchainKHR@Cy@@3P6AXPEAUVkDevice_T@@PEAUVkSwapchainKHR_T@@PEBUVkAllocationCallbacks@@@ZEA ; Cy::DestroySwapchainKHR
PUBLIC	?GetSwapchainImagesKHR@Cy@@3P6A?AW4VkResult@@PEAUVkDevice_T@@PEAUVkSwapchainKHR_T@@PEAIPEAPEAUVkImage_T@@@ZEA ; Cy::GetSwapchainImagesKHR
PUBLIC	?AcquireNextImageKHR@Cy@@3P6A?AW4VkResult@@PEAUVkDevice_T@@PEAUVkSwapchainKHR_T@@_KPEAUVkSemaphore_T@@PEAUVkFence_T@@PEAI@ZEA ; Cy::AcquireNextImageKHR
PUBLIC	?QueuePresentKHR@Cy@@3P6A?AW4VkResult@@PEAUVkQueue_T@@PEBUVkPresentInfoKHR@@@ZEA ; Cy::QueuePresentKHR
_BSS	SEGMENT
?GetPhysicalDeviceSurfaceSupportKHR@Cy@@3P6A?AW4VkResult@@PEAUVkPhysicalDevice_T@@IPEAUVkSurfaceKHR_T@@PEAI@ZEA DQ 01H DUP (?) ; Cy::GetPhysicalDeviceSurfaceSupportKHR
?GetPhysicalDeviceSurfaceCapabilitiesKHR@Cy@@3P6A?AW4VkResult@@PEAUVkPhysicalDevice_T@@PEAUVkSurfaceKHR_T@@PEAUVkSurfaceCapabilitiesKHR@@@ZEA DQ 01H DUP (?) ; Cy::GetPhysicalDeviceSurfaceCapabilitiesKHR
?GetPhysicalDeviceSurfaceFormatsKHR@Cy@@3P6A?AW4VkResult@@PEAUVkPhysicalDevice_T@@PEAUVkSurfaceKHR_T@@PEAIPEAUVkSurfaceFormatKHR@@@ZEA DQ 01H DUP (?) ; Cy::GetPhysicalDeviceSurfaceFormatsKHR
?GetPhysicalDeviceSurfacePresentModesKHR@Cy@@3P6A?AW4VkResult@@PEAUVkPhysicalDevice_T@@PEAUVkSurfaceKHR_T@@PEAIPEAW4VkPresentModeKHR@@@ZEA DQ 01H DUP (?) ; Cy::GetPhysicalDeviceSurfacePresentModesKHR
?CreateSwapchainKHR@Cy@@3P6A?AW4VkResult@@PEAUVkDevice_T@@PEBUVkSwapchainCreateInfoKHR@@PEBUVkAllocationCallbacks@@PEAPEAUVkSwapchainKHR_T@@@ZEA DQ 01H DUP (?) ; Cy::CreateSwapchainKHR
?DestroySwapchainKHR@Cy@@3P6AXPEAUVkDevice_T@@PEAUVkSwapchainKHR_T@@PEBUVkAllocationCallbacks@@@ZEA DQ 01H DUP (?) ; Cy::DestroySwapchainKHR
?GetSwapchainImagesKHR@Cy@@3P6A?AW4VkResult@@PEAUVkDevice_T@@PEAUVkSwapchainKHR_T@@PEAIPEAPEAUVkImage_T@@@ZEA DQ 01H DUP (?) ; Cy::GetSwapchainImagesKHR
?AcquireNextImageKHR@Cy@@3P6A?AW4VkResult@@PEAUVkDevice_T@@PEAUVkSwapchainKHR_T@@_KPEAUVkSemaphore_T@@PEAUVkFence_T@@PEAI@ZEA DQ 01H DUP (?) ; Cy::AcquireNextImageKHR
?QueuePresentKHR@Cy@@3P6A?AW4VkResult@@PEAUVkQueue_T@@PEBUVkPresentInfoKHR@@@ZEA DQ 01H DUP (?) ; Cy::QueuePresentKHR
_BSS	ENDS
PUBLIC	?__empty_global_delete@@YAXPEAX@Z		; __empty_global_delete
PUBLIC	?__empty_global_delete@@YAXPEAX_K@Z		; __empty_global_delete
PUBLIC	??2@YAPEAX_KPEAX@Z				; operator new
PUBLIC	?length@?$char_traits@D@std@@SA_KPEBD@Z		; std::char_traits<char>::length
PUBLIC	?copy@?$char_traits@D@std@@SAPEADPEADPEBD_K@Z	; std::char_traits<char>::copy
PUBLIC	?move@?$char_traits@D@std@@SAPEADPEADPEBD_K@Z	; std::char_traits<char>::move
PUBLIC	?assign@?$char_traits@D@std@@SAXAEADAEBD@Z	; std::char_traits<char>::assign
PUBLIC	??0_Container_proxy@std@@QEAA@XZ		; std::_Container_proxy::_Container_proxy
PUBLIC	??0_Container_base12@std@@QEAA@XZ		; std::_Container_base12::_Container_base12
PUBLIC	??1_Container_base12@std@@QEAA@XZ		; std::_Container_base12::~_Container_base12
PUBLIC	?_Getpfirst@_Container_base12@std@@QEBAPEAPEAU_Iterator_base12@2@XZ ; std::_Container_base12::_Getpfirst
PUBLIC	?_Orphan_all@_Container_base12@std@@QEAAXXZ	; std::_Container_base12::_Orphan_all
PUBLIC	?_Swap_all@_Container_base12@std@@QEAAXAEAU12@@Z ; std::_Container_base12::_Swap_all
PUBLIC	?_Clrcont@_Iterator_base12@std@@QEAAXXZ		; std::_Iterator_base12::_Clrcont
PUBLIC	?_Getpnext@_Iterator_base12@std@@QEAAPEAPEAU12@XZ ; std::_Iterator_base12::_Getpnext
PUBLIC	?_Allocate@std@@YAPEAX_K0_N@Z			; std::_Allocate
PUBLIC	?_Deallocate@std@@YAXPEAX_K1@Z			; std::_Deallocate
PUBLIC	??0?$allocator@D@std@@QEAA@XZ			; std::allocator<char>::allocator<char>
PUBLIC	??0?$allocator@D@std@@QEAA@AEBV01@@Z		; std::allocator<char>::allocator<char>
PUBLIC	?deallocate@?$allocator@D@std@@QEAAXPEAD_K@Z	; std::allocator<char>::deallocate
PUBLIC	?allocate@?$allocator@D@std@@QEAAPEAD_K@Z	; std::allocator<char>::allocate
PUBLIC	?max_size@?$allocator@D@std@@QEBA_KXZ		; std::allocator<char>::max_size
PUBLIC	?max_size@?$allocator_traits@V?$allocator@D@std@@@std@@SA_KAEBV?$allocator@D@2@@Z ; std::allocator_traits<std::allocator<char> >::max_size
PUBLIC	?select_on_container_copy_construction@?$allocator_traits@V?$allocator@D@std@@@std@@SA?AV?$allocator@D@2@AEBV32@@Z ; std::allocator_traits<std::allocator<char> >::select_on_container_copy_construction
PUBLIC	?select_on_container_copy_construction@?$_Wrap_alloc@V?$allocator@D@std@@@std@@QEBA?AU12@U_Nil@2@@Z ; std::_Wrap_alloc<std::allocator<char> >::select_on_container_copy_construction
PUBLIC	??0?$_Wrap_alloc@V?$allocator@D@std@@@std@@QEAA@AEBV?$allocator@D@1@@Z ; std::_Wrap_alloc<std::allocator<char> >::_Wrap_alloc<std::allocator<char> >
PUBLIC	?allocate@?$_Wrap_alloc@V?$allocator@D@std@@@std@@QEAAPEAD_K@Z ; std::_Wrap_alloc<std::allocator<char> >::allocate
PUBLIC	?deallocate@?$_Wrap_alloc@V?$allocator@D@std@@@std@@QEAAXPEAD_K@Z ; std::_Wrap_alloc<std::allocator<char> >::deallocate
PUBLIC	?max_size@?$_Wrap_alloc@V?$allocator@D@std@@@std@@QEBA_KU_Nil@2@@Z ; std::_Wrap_alloc<std::allocator<char> >::max_size
PUBLIC	??0?$_String_val@U?$_Simple_types@D@std@@@std@@QEAA@XZ ; std::_String_val<std::_Simple_types<char> >::_String_val<std::_Simple_types<char> >
PUBLIC	?_Myptr@?$_String_val@U?$_Simple_types@D@std@@@std@@QEAAPEADXZ ; std::_String_val<std::_Simple_types<char> >::_Myptr
PUBLIC	?_Myptr@?$_String_val@U?$_Simple_types@D@std@@@std@@QEBAPEBDXZ ; std::_String_val<std::_Simple_types<char> >::_Myptr
PUBLIC	??1?$_String_val@U?$_Simple_types@D@std@@@std@@QEAA@XZ ; std::_String_val<std::_Simple_types<char> >::~_String_val<std::_Simple_types<char> >
PUBLIC	?_Myptr@?$_String_alloc@U?$_String_base_types@DV?$allocator@D@std@@@std@@@std@@QEAAPEADXZ ; std::_String_alloc<std::_String_base_types<char,std::allocator<char> > >::_Myptr
PUBLIC	?_Myptr@?$_String_alloc@U?$_String_base_types@DV?$allocator@D@std@@@std@@@std@@QEBAPEBDXZ ; std::_String_alloc<std::_String_base_types<char,std::allocator<char> > >::_Myptr
PUBLIC	??0?$_String_alloc@U?$_String_base_types@DV?$allocator@D@std@@@std@@@std@@QEAA@AEBV?$allocator@D@1@@Z ; std::_String_alloc<std::_String_base_types<char,std::allocator<char> > >::_String_alloc<std::_String_base_types<char,std::allocator<char> > >
PUBLIC	??0?$_String_alloc@U?$_String_base_types@DV?$allocator@D@std@@@std@@@std@@QEAA@$$QEAV?$allocator@D@1@@Z ; std::_String_alloc<std::_String_base_types<char,std::allocator<char> > >::_String_alloc<std::_String_base_types<char,std::allocator<char> > >
PUBLIC	??1?$_String_alloc@U?$_String_base_types@DV?$allocator@D@std@@@std@@@std@@QEAA@XZ ; std::_String_alloc<std::_String_base_types<char,std::allocator<char> > >::~_String_alloc<std::_String_base_types<char,std::allocator<char> > >
PUBLIC	?_Alloc_proxy@?$_String_alloc@U?$_String_base_types@DV?$allocator@D@std@@@std@@@std@@QEAAXXZ ; std::_String_alloc<std::_String_base_types<char,std::allocator<char> > >::_Alloc_proxy
PUBLIC	?_Free_proxy@?$_String_alloc@U?$_String_base_types@DV?$allocator@D@std@@@std@@@std@@QEAAXXZ ; std::_String_alloc<std::_String_base_types<char,std::allocator<char> > >::_Free_proxy
PUBLIC	?_Myproxy@?$_String_alloc@U?$_String_base_types@DV?$allocator@D@std@@@std@@@std@@QEAAAEAPEAU_Container_proxy@2@XZ ; std::_String_alloc<std::_String_base_types<char,std::allocator<char> > >::_Myproxy
PUBLIC	?_Orphan_all@?$_String_alloc@U?$_String_base_types@DV?$allocator@D@std@@@std@@@std@@QEAAXXZ ; std::_String_alloc<std::_String_base_types<char,std::allocator<char> > >::_Orphan_all
PUBLIC	?_Getal@?$_String_alloc@U?$_String_base_types@DV?$allocator@D@std@@@std@@@std@@QEAAAEAU?$_Wrap_alloc@V?$allocator@D@std@@@2@XZ ; std::_String_alloc<std::_String_base_types<char,std::allocator<char> > >::_Getal
PUBLIC	?_Getal@?$_String_alloc@U?$_String_base_types@DV?$allocator@D@std@@@std@@@std@@QEBAAEBU?$_Wrap_alloc@V?$allocator@D@std@@@2@XZ ; std::_String_alloc<std::_String_base_types<char,std::allocator<char> > >::_Getal
PUBLIC	?_Get_data@?$_String_alloc@U?$_String_base_types@DV?$allocator@D@std@@@std@@@std@@QEAAAEAV?$_String_val@U?$_Simple_types@D@std@@@2@XZ ; std::_String_alloc<std::_String_base_types<char,std::allocator<char> > >::_Get_data
PUBLIC	?_Get_data@?$_String_alloc@U?$_String_base_types@DV?$allocator@D@std@@@std@@@std@@QEBAAEBV?$_String_val@U?$_Simple_types@D@std@@@2@XZ ; std::_String_alloc<std::_String_base_types<char,std::allocator<char> > >::_Get_data
PUBLIC	?_Bx@?$_String_alloc@U?$_String_base_types@DV?$allocator@D@std@@@std@@@std@@QEAAAEAT_Bxty@?$_String_val@U?$_Simple_types@D@std@@@2@XZ ; std::_String_alloc<std::_String_base_types<char,std::allocator<char> > >::_Bx
PUBLIC	?_Mysize@?$_String_alloc@U?$_String_base_types@DV?$allocator@D@std@@@std@@@std@@QEAAAEA_KXZ ; std::_String_alloc<std::_String_base_types<char,std::allocator<char> > >::_Mysize
PUBLIC	?_Mysize@?$_String_alloc@U?$_String_base_types@DV?$allocator@D@std@@@std@@@std@@QEBAAEB_KXZ ; std::_String_alloc<std::_String_base_types<char,std::allocator<char> > >::_Mysize
PUBLIC	?_Myres@?$_String_alloc@U?$_String_base_types@DV?$allocator@D@std@@@std@@@std@@QEAAAEA_KXZ ; std::_String_alloc<std::_String_base_types<char,std::allocator<char> > >::_Myres
PUBLIC	?_Get_first@?$_Compressed_pair@U?$_Wrap_alloc@V?$allocator@D@std@@@std@@V?$_String_val@U?$_Simple_types@D@std@@@2@$00@std@@QEAAAEAU?$_Wrap_alloc@V?$allocator@D@std@@@2@XZ ; std::_Compressed_pair<std::_Wrap_alloc<std::allocator<char> >,std::_String_val<std::_Simple_types<char> >,1>::_Get_first
PUBLIC	?_Get_first@?$_Compressed_pair@U?$_Wrap_alloc@V?$allocator@D@std@@@std@@V?$_String_val@U?$_Simple_types@D@std@@@2@$00@std@@QEBAAEBU?$_Wrap_alloc@V?$allocator@D@std@@@2@XZ ; std::_Compressed_pair<std::_Wrap_alloc<std::allocator<char> >,std::_String_val<std::_Simple_types<char> >,1>::_Get_first
PUBLIC	?_Get_second@?$_Compressed_pair@U?$_Wrap_alloc@V?$allocator@D@std@@@std@@V?$_String_val@U?$_Simple_types@D@std@@@2@$00@std@@QEAAAEAV?$_String_val@U?$_Simple_types@D@std@@@2@XZ ; std::_Compressed_pair<std::_Wrap_alloc<std::allocator<char> >,std::_String_val<std::_Simple_types<char> >,1>::_Get_second
PUBLIC	?_Get_second@?$_Compressed_pair@U?$_Wrap_alloc@V?$allocator@D@std@@@std@@V?$_String_val@U?$_Simple_types@D@std@@@2@$00@std@@QEBAAEBV?$_String_val@U?$_Simple_types@D@std@@@2@XZ ; std::_Compressed_pair<std::_Wrap_alloc<std::allocator<char> >,std::_String_val<std::_Simple_types<char> >,1>::_Get_second
PUBLIC	??1?$_Compressed_pair@U?$_Wrap_alloc@V?$allocator@D@std@@@std@@V?$_String_val@U?$_Simple_types@D@std@@@2@$00@std@@QEAA@XZ ; std::_Compressed_pair<std::_Wrap_alloc<std::allocator<char> >,std::_String_val<std::_Simple_types<char> >,1>::~_Compressed_pair<std::_Wrap_alloc<std::allocator<char> >,std::_String_val<std::_Simple_types<char> >,1>
PUBLIC	??0?$basic_string@DU?$char_traits@D@std@@V?$allocator@D@2@@std@@QEAA@AEBV01@@Z ; std::basic_string<char,std::char_traits<char>,std::allocator<char> >::basic_string<char,std::char_traits<char>,std::allocator<char> >
PUBLIC	??0?$basic_string@DU?$char_traits@D@std@@V?$allocator@D@2@@std@@QEAA@PEBD@Z ; std::basic_string<char,std::char_traits<char>,std::allocator<char> >::basic_string<char,std::char_traits<char>,std::allocator<char> >
PUBLIC	??1?$basic_string@DU?$char_traits@D@std@@V?$allocator@D@2@@std@@QEAA@XZ ; std::basic_string<char,std::char_traits<char>,std::allocator<char> >::~basic_string<char,std::char_traits<char>,std::allocator<char> >
PUBLIC	?assign@?$basic_string@DU?$char_traits@D@std@@V?$allocator@D@2@@std@@QEAAAEAV12@AEBV12@_K1@Z ; std::basic_string<char,std::char_traits<char>,std::allocator<char> >::assign
PUBLIC	?assign@?$basic_string@DU?$char_traits@D@std@@V?$allocator@D@2@@std@@QEAAAEAV12@PEBD_K@Z ; std::basic_string<char,std::char_traits<char>,std::allocator<char> >::assign
PUBLIC	?assign@?$basic_string@DU?$char_traits@D@std@@V?$allocator@D@2@@std@@QEAAAEAV12@PEBD@Z ; std::basic_string<char,std::char_traits<char>,std::allocator<char> >::assign
PUBLIC	?erase@?$basic_string@DU?$char_traits@D@std@@V?$allocator@D@2@@std@@QEAAAEAV12@_K@Z ; std::basic_string<char,std::char_traits<char>,std::allocator<char> >::erase
PUBLIC	?erase@?$basic_string@DU?$char_traits@D@std@@V?$allocator@D@2@@std@@QEAAAEAV12@_K0@Z ; std::basic_string<char,std::char_traits<char>,std::allocator<char> >::erase
PUBLIC	?size@?$basic_string@DU?$char_traits@D@std@@V?$allocator@D@2@@std@@QEBA_KXZ ; std::basic_string<char,std::char_traits<char>,std::allocator<char> >::size
PUBLIC	?max_size@?$basic_string@DU?$char_traits@D@std@@V?$allocator@D@2@@std@@QEBA_KXZ ; std::basic_string<char,std::char_traits<char>,std::allocator<char> >::max_size
PUBLIC	?_Copy@?$basic_string@DU?$char_traits@D@std@@V?$allocator@D@2@@std@@QEAAX_K0@Z ; std::basic_string<char,std::char_traits<char>,std::allocator<char> >::_Copy
PUBLIC	?_Eos@?$basic_string@DU?$char_traits@D@std@@V?$allocator@D@2@@std@@QEAAX_K@Z ; std::basic_string<char,std::char_traits<char>,std::allocator<char> >::_Eos
PUBLIC	?_Grow@?$basic_string@DU?$char_traits@D@std@@V?$allocator@D@2@@std@@QEAA_N_K_N@Z ; std::basic_string<char,std::char_traits<char>,std::allocator<char> >::_Grow
PUBLIC	?_Inside@?$basic_string@DU?$char_traits@D@std@@V?$allocator@D@2@@std@@QEAA_NPEBD@Z ; std::basic_string<char,std::char_traits<char>,std::allocator<char> >::_Inside
PUBLIC	?_Tidy@?$basic_string@DU?$char_traits@D@std@@V?$allocator@D@2@@std@@QEAAX_N_K@Z ; std::basic_string<char,std::char_traits<char>,std::allocator<char> >::_Tidy
PUBLIC	?_Xlen@?$basic_string@DU?$char_traits@D@std@@V?$allocator@D@2@@std@@QEBAXXZ ; std::basic_string<char,std::char_traits<char>,std::allocator<char> >::_Xlen
PUBLIC	?_Xran@?$basic_string@DU?$char_traits@D@std@@V?$allocator@D@2@@std@@QEBAXXZ ; std::basic_string<char,std::char_traits<char>,std::allocator<char> >::_Xran
PUBLIC	?Assert@Cy@@YAX_NV?$basic_string@DU?$char_traits@D@std@@V?$allocator@D@2@@std@@@Z ; Cy::Assert
PUBLIC	?Assert@Cy@@YAXW4VkResult@@V?$basic_string@DU?$char_traits@D@std@@V?$allocator@D@2@@std@@@Z ; Cy::Assert
PUBLIC	?deallocate@?$allocator@PEAUVkImage_T@@@std@@QEAAXPEAPEAUVkImage_T@@_K@Z ; std::allocator<VkImage_T * __ptr64>::deallocate
PUBLIC	?allocate@?$allocator@PEAUVkImage_T@@@std@@QEAAPEAPEAUVkImage_T@@_K@Z ; std::allocator<VkImage_T * __ptr64>::allocate
PUBLIC	?max_size@?$allocator@PEAUVkImage_T@@@std@@QEBA_KXZ ; std::allocator<VkImage_T * __ptr64>::max_size
PUBLIC	?max_size@?$allocator_traits@V?$allocator@PEAUVkImage_T@@@std@@@std@@SA_KAEBV?$allocator@PEAUVkImage_T@@@2@@Z ; std::allocator_traits<std::allocator<VkImage_T * __ptr64> >::max_size
PUBLIC	?allocate@?$_Wrap_alloc@V?$allocator@PEAUVkImage_T@@@std@@@std@@QEAAPEAPEAUVkImage_T@@_K@Z ; std::_Wrap_alloc<std::allocator<VkImage_T * __ptr64> >::allocate
PUBLIC	?deallocate@?$_Wrap_alloc@V?$allocator@PEAUVkImage_T@@@std@@@std@@QEAAXPEAPEAUVkImage_T@@_K@Z ; std::_Wrap_alloc<std::allocator<VkImage_T * __ptr64> >::deallocate
PUBLIC	?max_size@?$_Wrap_alloc@V?$allocator@PEAUVkImage_T@@@std@@@std@@QEBA_KU_Nil@2@@Z ; std::_Wrap_alloc<std::allocator<VkImage_T * __ptr64> >::max_size
PUBLIC	?_Getpfirst@?$_Vector_alloc@U?$_Vec_base_types@PEAUVkImage_T@@V?$allocator@PEAUVkImage_T@@@std@@@std@@@std@@QEBAPEAPEAU_Iterator_base12@2@XZ ; std::_Vector_alloc<std::_Vec_base_types<VkImage_T * __ptr64,std::allocator<VkImage_T * __ptr64> > >::_Getpfirst
PUBLIC	?_Orphan_all@?$_Vector_alloc@U?$_Vec_base_types@PEAUVkImage_T@@V?$allocator@PEAUVkImage_T@@@std@@@std@@@std@@QEAAXXZ ; std::_Vector_alloc<std::_Vec_base_types<VkImage_T * __ptr64,std::allocator<VkImage_T * __ptr64> > >::_Orphan_all
PUBLIC	?_Getal@?$_Vector_alloc@U?$_Vec_base_types@PEAUVkImage_T@@V?$allocator@PEAUVkImage_T@@@std@@@std@@@std@@QEAAAEAU?$_Wrap_alloc@V?$allocator@PEAUVkImage_T@@@std@@@2@XZ ; std::_Vector_alloc<std::_Vec_base_types<VkImage_T * __ptr64,std::allocator<VkImage_T * __ptr64> > >::_Getal
PUBLIC	?_Getal@?$_Vector_alloc@U?$_Vec_base_types@PEAUVkImage_T@@V?$allocator@PEAUVkImage_T@@@std@@@std@@@std@@QEBAAEBU?$_Wrap_alloc@V?$allocator@PEAUVkImage_T@@@std@@@2@XZ ; std::_Vector_alloc<std::_Vec_base_types<VkImage_T * __ptr64,std::allocator<VkImage_T * __ptr64> > >::_Getal
PUBLIC	?_Get_data@?$_Vector_alloc@U?$_Vec_base_types@PEAUVkImage_T@@V?$allocator@PEAUVkImage_T@@@std@@@std@@@std@@QEAAAEAV?$_Vector_val@U?$_Simple_types@PEAUVkImage_T@@@std@@@2@XZ ; std::_Vector_alloc<std::_Vec_base_types<VkImage_T * __ptr64,std::allocator<VkImage_T * __ptr64> > >::_Get_data
PUBLIC	?_Get_data@?$_Vector_alloc@U?$_Vec_base_types@PEAUVkImage_T@@V?$allocator@PEAUVkImage_T@@@std@@@std@@@std@@QEBAAEBV?$_Vector_val@U?$_Simple_types@PEAUVkImage_T@@@std@@@2@XZ ; std::_Vector_alloc<std::_Vec_base_types<VkImage_T * __ptr64,std::allocator<VkImage_T * __ptr64> > >::_Get_data
PUBLIC	?_Myfirst@?$_Vector_alloc@U?$_Vec_base_types@PEAUVkImage_T@@V?$allocator@PEAUVkImage_T@@@std@@@std@@@std@@QEAAAEAPEAPEAUVkImage_T@@XZ ; std::_Vector_alloc<std::_Vec_base_types<VkImage_T * __ptr64,std::allocator<VkImage_T * __ptr64> > >::_Myfirst
PUBLIC	?_Myfirst@?$_Vector_alloc@U?$_Vec_base_types@PEAUVkImage_T@@V?$allocator@PEAUVkImage_T@@@std@@@std@@@std@@QEBAAEBQEAPEAUVkImage_T@@XZ ; std::_Vector_alloc<std::_Vec_base_types<VkImage_T * __ptr64,std::allocator<VkImage_T * __ptr64> > >::_Myfirst
PUBLIC	?_Mylast@?$_Vector_alloc@U?$_Vec_base_types@PEAUVkImage_T@@V?$allocator@PEAUVkImage_T@@@std@@@std@@@std@@QEAAAEAPEAPEAUVkImage_T@@XZ ; std::_Vector_alloc<std::_Vec_base_types<VkImage_T * __ptr64,std::allocator<VkImage_T * __ptr64> > >::_Mylast
PUBLIC	?_Mylast@?$_Vector_alloc@U?$_Vec_base_types@PEAUVkImage_T@@V?$allocator@PEAUVkImage_T@@@std@@@std@@@std@@QEBAAEBQEAPEAUVkImage_T@@XZ ; std::_Vector_alloc<std::_Vec_base_types<VkImage_T * __ptr64,std::allocator<VkImage_T * __ptr64> > >::_Mylast
PUBLIC	?_Myend@?$_Vector_alloc@U?$_Vec_base_types@PEAUVkImage_T@@V?$allocator@PEAUVkImage_T@@@std@@@std@@@std@@QEAAAEAPEAPEAUVkImage_T@@XZ ; std::_Vector_alloc<std::_Vec_base_types<VkImage_T * __ptr64,std::allocator<VkImage_T * __ptr64> > >::_Myend
PUBLIC	?_Myend@?$_Vector_alloc@U?$_Vec_base_types@PEAUVkImage_T@@V?$allocator@PEAUVkImage_T@@@std@@@std@@@std@@QEBAAEBQEAPEAUVkImage_T@@XZ ; std::_Vector_alloc<std::_Vec_base_types<VkImage_T * __ptr64,std::allocator<VkImage_T * __ptr64> > >::_Myend
PUBLIC	?_Get_first@?$_Compressed_pair@U?$_Wrap_alloc@V?$allocator@PEAUVkImage_T@@@std@@@std@@V?$_Vector_val@U?$_Simple_types@PEAUVkImage_T@@@std@@@2@$00@std@@QEAAAEAU?$_Wrap_alloc@V?$allocator@PEAUVkImage_T@@@std@@@2@XZ ; std::_Compressed_pair<std::_Wrap_alloc<std::allocator<VkImage_T * __ptr64> >,std::_Vector_val<std::_Simple_types<VkImage_T * __ptr64> >,1>::_Get_first
PUBLIC	?_Get_first@?$_Compressed_pair@U?$_Wrap_alloc@V?$allocator@PEAUVkImage_T@@@std@@@std@@V?$_Vector_val@U?$_Simple_types@PEAUVkImage_T@@@std@@@2@$00@std@@QEBAAEBU?$_Wrap_alloc@V?$allocator@PEAUVkImage_T@@@std@@@2@XZ ; std::_Compressed_pair<std::_Wrap_alloc<std::allocator<VkImage_T * __ptr64> >,std::_Vector_val<std::_Simple_types<VkImage_T * __ptr64> >,1>::_Get_first
PUBLIC	?_Get_second@?$_Compressed_pair@U?$_Wrap_alloc@V?$allocator@PEAUVkImage_T@@@std@@@std@@V?$_Vector_val@U?$_Simple_types@PEAUVkImage_T@@@std@@@2@$00@std@@QEAAAEAV?$_Vector_val@U?$_Simple_types@PEAUVkImage_T@@@std@@@2@XZ ; std::_Compressed_pair<std::_Wrap_alloc<std::allocator<VkImage_T * __ptr64> >,std::_Vector_val<std::_Simple_types<VkImage_T * __ptr64> >,1>::_Get_second
PUBLIC	?_Get_second@?$_Compressed_pair@U?$_Wrap_alloc@V?$allocator@PEAUVkImage_T@@@std@@@std@@V?$_Vector_val@U?$_Simple_types@PEAUVkImage_T@@@std@@@2@$00@std@@QEBAAEBV?$_Vector_val@U?$_Simple_types@PEAUVkImage_T@@@std@@@2@XZ ; std::_Compressed_pair<std::_Wrap_alloc<std::allocator<VkImage_T * __ptr64> >,std::_Vector_val<std::_Simple_types<VkImage_T * __ptr64> >,1>::_Get_second
PUBLIC	?capacity@?$vector@PEAUVkImage_T@@V?$allocator@PEAUVkImage_T@@@std@@@std@@QEBA_KXZ ; std::vector<VkImage_T * __ptr64,std::allocator<VkImage_T * __ptr64> >::capacity
PUBLIC	?_Unused_capacity@?$vector@PEAUVkImage_T@@V?$allocator@PEAUVkImage_T@@@std@@@std@@QEBA_KXZ ; std::vector<VkImage_T * __ptr64,std::allocator<VkImage_T * __ptr64> >::_Unused_capacity
PUBLIC	?resize@?$vector@PEAUVkImage_T@@V?$allocator@PEAUVkImage_T@@@std@@@std@@QEAAX_K@Z ; std::vector<VkImage_T * __ptr64,std::allocator<VkImage_T * __ptr64> >::resize
PUBLIC	?size@?$vector@PEAUVkImage_T@@V?$allocator@PEAUVkImage_T@@@std@@@std@@QEBA_KXZ ; std::vector<VkImage_T * __ptr64,std::allocator<VkImage_T * __ptr64> >::size
PUBLIC	?max_size@?$vector@PEAUVkImage_T@@V?$allocator@PEAUVkImage_T@@@std@@@std@@QEBA_KXZ ; std::vector<VkImage_T * __ptr64,std::allocator<VkImage_T * __ptr64> >::max_size
PUBLIC	??A?$vector@PEAUVkImage_T@@V?$allocator@PEAUVkImage_T@@@std@@@std@@QEAAAEAPEAUVkImage_T@@_K@Z ; std::vector<VkImage_T * __ptr64,std::allocator<VkImage_T * __ptr64> >::operator[]
PUBLIC	?data@?$vector@PEAUVkImage_T@@V?$allocator@PEAUVkImage_T@@@std@@@std@@QEAAPEAPEAUVkImage_T@@XZ ; std::vector<VkImage_T * __ptr64,std::allocator<VkImage_T * __ptr64> >::data
PUBLIC	?_Pop_back_n@?$vector@PEAUVkImage_T@@V?$allocator@PEAUVkImage_T@@@std@@@std@@QEAAX_K@Z ; std::vector<VkImage_T * __ptr64,std::allocator<VkImage_T * __ptr64> >::_Pop_back_n
PUBLIC	?_Destroy@?$vector@PEAUVkImage_T@@V?$allocator@PEAUVkImage_T@@@std@@@std@@IEAAXPEAPEAUVkImage_T@@0@Z ; std::vector<VkImage_T * __ptr64,std::allocator<VkImage_T * __ptr64> >::_Destroy
PUBLIC	?_Grow_to@?$vector@PEAUVkImage_T@@V?$allocator@PEAUVkImage_T@@@std@@@std@@IEBA_K_K@Z ; std::vector<VkImage_T * __ptr64,std::allocator<VkImage_T * __ptr64> >::_Grow_to
PUBLIC	?_Reallocate@?$vector@PEAUVkImage_T@@V?$allocator@PEAUVkImage_T@@@std@@@std@@IEAAX_K@Z ; std::vector<VkImage_T * __ptr64,std::allocator<VkImage_T * __ptr64> >::_Reallocate
PUBLIC	?_Reserve@?$vector@PEAUVkImage_T@@V?$allocator@PEAUVkImage_T@@@std@@@std@@IEAAX_K@Z ; std::vector<VkImage_T * __ptr64,std::allocator<VkImage_T * __ptr64> >::_Reserve
PUBLIC	?_Tidy@?$vector@PEAUVkImage_T@@V?$allocator@PEAUVkImage_T@@@std@@@std@@IEAAXXZ ; std::vector<VkImage_T * __ptr64,std::allocator<VkImage_T * __ptr64> >::_Tidy
PUBLIC	?_Xlen@?$vector@PEAUVkImage_T@@V?$allocator@PEAUVkImage_T@@@std@@@std@@IEBAXXZ ; std::vector<VkImage_T * __ptr64,std::allocator<VkImage_T * __ptr64> >::_Xlen
PUBLIC	?_Orphan_range@?$vector@PEAUVkImage_T@@V?$allocator@PEAUVkImage_T@@@std@@@std@@IEBAXPEAPEAUVkImage_T@@0@Z ; std::vector<VkImage_T * __ptr64,std::allocator<VkImage_T * __ptr64> >::_Orphan_range
PUBLIC	?deallocate@?$allocator@PEAUVkImageView_T@@@std@@QEAAXPEAPEAUVkImageView_T@@_K@Z ; std::allocator<VkImageView_T * __ptr64>::deallocate
PUBLIC	?allocate@?$allocator@PEAUVkImageView_T@@@std@@QEAAPEAPEAUVkImageView_T@@_K@Z ; std::allocator<VkImageView_T * __ptr64>::allocate
PUBLIC	?max_size@?$allocator@PEAUVkImageView_T@@@std@@QEBA_KXZ ; std::allocator<VkImageView_T * __ptr64>::max_size
PUBLIC	?max_size@?$allocator_traits@V?$allocator@PEAUVkImageView_T@@@std@@@std@@SA_KAEBV?$allocator@PEAUVkImageView_T@@@2@@Z ; std::allocator_traits<std::allocator<VkImageView_T * __ptr64> >::max_size
PUBLIC	?allocate@?$_Wrap_alloc@V?$allocator@PEAUVkImageView_T@@@std@@@std@@QEAAPEAPEAUVkImageView_T@@_K@Z ; std::_Wrap_alloc<std::allocator<VkImageView_T * __ptr64> >::allocate
PUBLIC	?deallocate@?$_Wrap_alloc@V?$allocator@PEAUVkImageView_T@@@std@@@std@@QEAAXPEAPEAUVkImageView_T@@_K@Z ; std::_Wrap_alloc<std::allocator<VkImageView_T * __ptr64> >::deallocate
PUBLIC	?max_size@?$_Wrap_alloc@V?$allocator@PEAUVkImageView_T@@@std@@@std@@QEBA_KU_Nil@2@@Z ; std::_Wrap_alloc<std::allocator<VkImageView_T * __ptr64> >::max_size
PUBLIC	?_Getpfirst@?$_Vector_alloc@U?$_Vec_base_types@PEAUVkImageView_T@@V?$allocator@PEAUVkImageView_T@@@std@@@std@@@std@@QEBAPEAPEAU_Iterator_base12@2@XZ ; std::_Vector_alloc<std::_Vec_base_types<VkImageView_T * __ptr64,std::allocator<VkImageView_T * __ptr64> > >::_Getpfirst
PUBLIC	?_Orphan_all@?$_Vector_alloc@U?$_Vec_base_types@PEAUVkImageView_T@@V?$allocator@PEAUVkImageView_T@@@std@@@std@@@std@@QEAAXXZ ; std::_Vector_alloc<std::_Vec_base_types<VkImageView_T * __ptr64,std::allocator<VkImageView_T * __ptr64> > >::_Orphan_all
PUBLIC	?_Getal@?$_Vector_alloc@U?$_Vec_base_types@PEAUVkImageView_T@@V?$allocator@PEAUVkImageView_T@@@std@@@std@@@std@@QEAAAEAU?$_Wrap_alloc@V?$allocator@PEAUVkImageView_T@@@std@@@2@XZ ; std::_Vector_alloc<std::_Vec_base_types<VkImageView_T * __ptr64,std::allocator<VkImageView_T * __ptr64> > >::_Getal
PUBLIC	?_Getal@?$_Vector_alloc@U?$_Vec_base_types@PEAUVkImageView_T@@V?$allocator@PEAUVkImageView_T@@@std@@@std@@@std@@QEBAAEBU?$_Wrap_alloc@V?$allocator@PEAUVkImageView_T@@@std@@@2@XZ ; std::_Vector_alloc<std::_Vec_base_types<VkImageView_T * __ptr64,std::allocator<VkImageView_T * __ptr64> > >::_Getal
PUBLIC	?_Get_data@?$_Vector_alloc@U?$_Vec_base_types@PEAUVkImageView_T@@V?$allocator@PEAUVkImageView_T@@@std@@@std@@@std@@QEAAAEAV?$_Vector_val@U?$_Simple_types@PEAUVkImageView_T@@@std@@@2@XZ ; std::_Vector_alloc<std::_Vec_base_types<VkImageView_T * __ptr64,std::allocator<VkImageView_T * __ptr64> > >::_Get_data
PUBLIC	?_Get_data@?$_Vector_alloc@U?$_Vec_base_types@PEAUVkImageView_T@@V?$allocator@PEAUVkImageView_T@@@std@@@std@@@std@@QEBAAEBV?$_Vector_val@U?$_Simple_types@PEAUVkImageView_T@@@std@@@2@XZ ; std::_Vector_alloc<std::_Vec_base_types<VkImageView_T * __ptr64,std::allocator<VkImageView_T * __ptr64> > >::_Get_data
PUBLIC	?_Myfirst@?$_Vector_alloc@U?$_Vec_base_types@PEAUVkImageView_T@@V?$allocator@PEAUVkImageView_T@@@std@@@std@@@std@@QEAAAEAPEAPEAUVkImageView_T@@XZ ; std::_Vector_alloc<std::_Vec_base_types<VkImageView_T * __ptr64,std::allocator<VkImageView_T * __ptr64> > >::_Myfirst
PUBLIC	?_Myfirst@?$_Vector_alloc@U?$_Vec_base_types@PEAUVkImageView_T@@V?$allocator@PEAUVkImageView_T@@@std@@@std@@@std@@QEBAAEBQEAPEAUVkImageView_T@@XZ ; std::_Vector_alloc<std::_Vec_base_types<VkImageView_T * __ptr64,std::allocator<VkImageView_T * __ptr64> > >::_Myfirst
PUBLIC	?_Mylast@?$_Vector_alloc@U?$_Vec_base_types@PEAUVkImageView_T@@V?$allocator@PEAUVkImageView_T@@@std@@@std@@@std@@QEAAAEAPEAPEAUVkImageView_T@@XZ ; std::_Vector_alloc<std::_Vec_base_types<VkImageView_T * __ptr64,std::allocator<VkImageView_T * __ptr64> > >::_Mylast
PUBLIC	?_Mylast@?$_Vector_alloc@U?$_Vec_base_types@PEAUVkImageView_T@@V?$allocator@PEAUVkImageView_T@@@std@@@std@@@std@@QEBAAEBQEAPEAUVkImageView_T@@XZ ; std::_Vector_alloc<std::_Vec_base_types<VkImageView_T * __ptr64,std::allocator<VkImageView_T * __ptr64> > >::_Mylast
PUBLIC	?_Myend@?$_Vector_alloc@U?$_Vec_base_types@PEAUVkImageView_T@@V?$allocator@PEAUVkImageView_T@@@std@@@std@@@std@@QEAAAEAPEAPEAUVkImageView_T@@XZ ; std::_Vector_alloc<std::_Vec_base_types<VkImageView_T * __ptr64,std::allocator<VkImageView_T * __ptr64> > >::_Myend
PUBLIC	?_Myend@?$_Vector_alloc@U?$_Vec_base_types@PEAUVkImageView_T@@V?$allocator@PEAUVkImageView_T@@@std@@@std@@@std@@QEBAAEBQEAPEAUVkImageView_T@@XZ ; std::_Vector_alloc<std::_Vec_base_types<VkImageView_T * __ptr64,std::allocator<VkImageView_T * __ptr64> > >::_Myend
PUBLIC	?_Get_first@?$_Compressed_pair@U?$_Wrap_alloc@V?$allocator@PEAUVkImageView_T@@@std@@@std@@V?$_Vector_val@U?$_Simple_types@PEAUVkImageView_T@@@std@@@2@$00@std@@QEAAAEAU?$_Wrap_alloc@V?$allocator@PEAUVkImageView_T@@@std@@@2@XZ ; std::_Compressed_pair<std::_Wrap_alloc<std::allocator<VkImageView_T * __ptr64> >,std::_Vector_val<std::_Simple_types<VkImageView_T * __ptr64> >,1>::_Get_first
PUBLIC	?_Get_first@?$_Compressed_pair@U?$_Wrap_alloc@V?$allocator@PEAUVkImageView_T@@@std@@@std@@V?$_Vector_val@U?$_Simple_types@PEAUVkImageView_T@@@std@@@2@$00@std@@QEBAAEBU?$_Wrap_alloc@V?$allocator@PEAUVkImageView_T@@@std@@@2@XZ ; std::_Compressed_pair<std::_Wrap_alloc<std::allocator<VkImageView_T * __ptr64> >,std::_Vector_val<std::_Simple_types<VkImageView_T * __ptr64> >,1>::_Get_first
PUBLIC	?_Get_second@?$_Compressed_pair@U?$_Wrap_alloc@V?$allocator@PEAUVkImageView_T@@@std@@@std@@V?$_Vector_val@U?$_Simple_types@PEAUVkImageView_T@@@std@@@2@$00@std@@QEAAAEAV?$_Vector_val@U?$_Simple_types@PEAUVkImageView_T@@@std@@@2@XZ ; std::_Compressed_pair<std::_Wrap_alloc<std::allocator<VkImageView_T * __ptr64> >,std::_Vector_val<std::_Simple_types<VkImageView_T * __ptr64> >,1>::_Get_second
PUBLIC	?_Get_second@?$_Compressed_pair@U?$_Wrap_alloc@V?$allocator@PEAUVkImageView_T@@@std@@@std@@V?$_Vector_val@U?$_Simple_types@PEAUVkImageView_T@@@std@@@2@$00@std@@QEBAAEBV?$_Vector_val@U?$_Simple_types@PEAUVkImageView_T@@@std@@@2@XZ ; std::_Compressed_pair<std::_Wrap_alloc<std::allocator<VkImageView_T * __ptr64> >,std::_Vector_val<std::_Simple_types<VkImageView_T * __ptr64> >,1>::_Get_second
PUBLIC	?capacity@?$vector@PEAUVkImageView_T@@V?$allocator@PEAUVkImageView_T@@@std@@@std@@QEBA_KXZ ; std::vector<VkImageView_T * __ptr64,std::allocator<VkImageView_T * __ptr64> >::capacity
PUBLIC	?_Unused_capacity@?$vector@PEAUVkImageView_T@@V?$allocator@PEAUVkImageView_T@@@std@@@std@@QEBA_KXZ ; std::vector<VkImageView_T * __ptr64,std::allocator<VkImageView_T * __ptr64> >::_Unused_capacity
PUBLIC	?resize@?$vector@PEAUVkImageView_T@@V?$allocator@PEAUVkImageView_T@@@std@@@std@@QEAAX_K@Z ; std::vector<VkImageView_T * __ptr64,std::allocator<VkImageView_T * __ptr64> >::resize
PUBLIC	?size@?$vector@PEAUVkImageView_T@@V?$allocator@PEAUVkImageView_T@@@std@@@std@@QEBA_KXZ ; std::vector<VkImageView_T * __ptr64,std::allocator<VkImageView_T * __ptr64> >::size
PUBLIC	?max_size@?$vector@PEAUVkImageView_T@@V?$allocator@PEAUVkImageView_T@@@std@@@std@@QEBA_KXZ ; std::vector<VkImageView_T * __ptr64,std::allocator<VkImageView_T * __ptr64> >::max_size
PUBLIC	??A?$vector@PEAUVkImageView_T@@V?$allocator@PEAUVkImageView_T@@@std@@@std@@QEAAAEAPEAUVkImageView_T@@_K@Z ; std::vector<VkImageView_T * __ptr64,std::allocator<VkImageView_T * __ptr64> >::operator[]
PUBLIC	?_Pop_back_n@?$vector@PEAUVkImageView_T@@V?$allocator@PEAUVkImageView_T@@@std@@@std@@QEAAX_K@Z ; std::vector<VkImageView_T * __ptr64,std::allocator<VkImageView_T * __ptr64> >::_Pop_back_n
PUBLIC	?_Destroy@?$vector@PEAUVkImageView_T@@V?$allocator@PEAUVkImageView_T@@@std@@@std@@IEAAXPEAPEAUVkImageView_T@@0@Z ; std::vector<VkImageView_T * __ptr64,std::allocator<VkImageView_T * __ptr64> >::_Destroy
PUBLIC	?_Grow_to@?$vector@PEAUVkImageView_T@@V?$allocator@PEAUVkImageView_T@@@std@@@std@@IEBA_K_K@Z ; std::vector<VkImageView_T * __ptr64,std::allocator<VkImageView_T * __ptr64> >::_Grow_to
PUBLIC	?_Reallocate@?$vector@PEAUVkImageView_T@@V?$allocator@PEAUVkImageView_T@@@std@@@std@@IEAAX_K@Z ; std::vector<VkImageView_T * __ptr64,std::allocator<VkImageView_T * __ptr64> >::_Reallocate
PUBLIC	?_Reserve@?$vector@PEAUVkImageView_T@@V?$allocator@PEAUVkImageView_T@@@std@@@std@@IEAAX_K@Z ; std::vector<VkImageView_T * __ptr64,std::allocator<VkImageView_T * __ptr64> >::_Reserve
PUBLIC	?_Tidy@?$vector@PEAUVkImageView_T@@V?$allocator@PEAUVkImageView_T@@@std@@@std@@IEAAXXZ ; std::vector<VkImageView_T * __ptr64,std::allocator<VkImageView_T * __ptr64> >::_Tidy
PUBLIC	?_Xlen@?$vector@PEAUVkImageView_T@@V?$allocator@PEAUVkImageView_T@@@std@@@std@@IEBAXXZ ; std::vector<VkImageView_T * __ptr64,std::allocator<VkImageView_T * __ptr64> >::_Xlen
PUBLIC	?_Orphan_range@?$vector@PEAUVkImageView_T@@V?$allocator@PEAUVkImageView_T@@@std@@@std@@IEBAXPEAPEAUVkImageView_T@@0@Z ; std::vector<VkImageView_T * __ptr64,std::allocator<VkImageView_T * __ptr64> >::_Orphan_range
PUBLIC	?NewSurface@Cy@@YAPEAUVkSurfaceKHR_T@@PEBUWindowInfo@1@PEAUVkInstance_T@@@Z ; Cy::NewSurface
PUBLIC	?FindGraphicsQueueFamilyIndex@Cy@@YAIPEAUVkPhysicalDevice_T@@PEAUVkSurfaceKHR_T@@@Z ; Cy::FindGraphicsQueueFamilyIndex
PUBLIC	?GetSurfaceColorSpaceAndFormat@Cy@@YAXPEAUVkPhysicalDevice_T@@PEAUSurfaceInfo@1@@Z ; Cy::GetSurfaceColorSpaceAndFormat
PUBLIC	?InitSwapChain@Cy@@YAXPEBUDeviceInfo@1@PEAUVkPhysicalDevice_T@@PEAUSurfaceInfo@1@PEAI3@Z ; Cy::InitSwapChain
PUBLIC	?AcquireNextImage@Cy@@YA?AW4VkResult@@PEBUDeviceInfo@1@PEAUSurfaceInfo@1@@Z ; Cy::AcquireNextImage
PUBLIC	?QueuePresent@Cy@@YA?AW4VkResult@@PEBUDeviceInfo@1@PEBUSurfaceInfo@1@@Z ; Cy::QueuePresent
PUBLIC	?DestroySurfaceInfo@Cy@@YAXPEAUVkInstance_T@@PEAUVkDevice_T@@PEAUSurfaceInfo@1@@Z ; Cy::DestroySurfaceInfo
PUBLIC	??0?$allocator@UVkQueueFamilyProperties@@@std@@QEAA@XZ ; std::allocator<VkQueueFamilyProperties>::allocator<VkQueueFamilyProperties>
PUBLIC	??0?$allocator@UVkQueueFamilyProperties@@@std@@QEAA@AEBV01@@Z ; std::allocator<VkQueueFamilyProperties>::allocator<VkQueueFamilyProperties>
PUBLIC	?deallocate@?$allocator@UVkQueueFamilyProperties@@@std@@QEAAXPEAUVkQueueFamilyProperties@@_K@Z ; std::allocator<VkQueueFamilyProperties>::deallocate
PUBLIC	?allocate@?$allocator@UVkQueueFamilyProperties@@@std@@QEAAPEAUVkQueueFamilyProperties@@_K@Z ; std::allocator<VkQueueFamilyProperties>::allocate
PUBLIC	?max_size@?$allocator@UVkQueueFamilyProperties@@@std@@QEBA_KXZ ; std::allocator<VkQueueFamilyProperties>::max_size
PUBLIC	?max_size@?$allocator_traits@V?$allocator@UVkQueueFamilyProperties@@@std@@@std@@SA_KAEBV?$allocator@UVkQueueFamilyProperties@@@2@@Z ; std::allocator_traits<std::allocator<VkQueueFamilyProperties> >::max_size
PUBLIC	??0?$_Wrap_alloc@V?$allocator@UVkQueueFamilyProperties@@@std@@@std@@QEAA@AEBV?$allocator@UVkQueueFamilyProperties@@@1@@Z ; std::_Wrap_alloc<std::allocator<VkQueueFamilyProperties> >::_Wrap_alloc<std::allocator<VkQueueFamilyProperties> >
PUBLIC	?allocate@?$_Wrap_alloc@V?$allocator@UVkQueueFamilyProperties@@@std@@@std@@QEAAPEAUVkQueueFamilyProperties@@_K@Z ; std::_Wrap_alloc<std::allocator<VkQueueFamilyProperties> >::allocate
PUBLIC	?deallocate@?$_Wrap_alloc@V?$allocator@UVkQueueFamilyProperties@@@std@@@std@@QEAAXPEAUVkQueueFamilyProperties@@_K@Z ; std::_Wrap_alloc<std::allocator<VkQueueFamilyProperties> >::deallocate
PUBLIC	?max_size@?$_Wrap_alloc@V?$allocator@UVkQueueFamilyProperties@@@std@@@std@@QEBA_KU_Nil@2@@Z ; std::_Wrap_alloc<std::allocator<VkQueueFamilyProperties> >::max_size
PUBLIC	??0?$_Vector_alloc@U?$_Vec_base_types@UVkQueueFamilyProperties@@V?$allocator@UVkQueueFamilyProperties@@@std@@@std@@@std@@QEAA@AEBV?$allocator@UVkQueueFamilyProperties@@@1@@Z ; std::_Vector_alloc<std::_Vec_base_types<VkQueueFamilyProperties,std::allocator<VkQueueFamilyProperties> > >::_Vector_alloc<std::_Vec_base_types<VkQueueFamilyProperties,std::allocator<VkQueueFamilyProperties> > >
PUBLIC	??1?$_Vector_alloc@U?$_Vec_base_types@UVkQueueFamilyProperties@@V?$allocator@UVkQueueFamilyProperties@@@std@@@std@@@std@@QEAA@XZ ; std::_Vector_alloc<std::_Vec_base_types<VkQueueFamilyProperties,std::allocator<VkQueueFamilyProperties> > >::~_Vector_alloc<std::_Vec_base_types<VkQueueFamilyProperties,std::allocator<VkQueueFamilyProperties> > >
PUBLIC	?_Alloc_proxy@?$_Vector_alloc@U?$_Vec_base_types@UVkQueueFamilyProperties@@V?$allocator@UVkQueueFamilyProperties@@@std@@@std@@@std@@QEAAXXZ ; std::_Vector_alloc<std::_Vec_base_types<VkQueueFamilyProperties,std::allocator<VkQueueFamilyProperties> > >::_Alloc_proxy
PUBLIC	?_Free_proxy@?$_Vector_alloc@U?$_Vec_base_types@UVkQueueFamilyProperties@@V?$allocator@UVkQueueFamilyProperties@@@std@@@std@@@std@@QEAAXXZ ; std::_Vector_alloc<std::_Vec_base_types<VkQueueFamilyProperties,std::allocator<VkQueueFamilyProperties> > >::_Free_proxy
PUBLIC	?_Myproxy@?$_Vector_alloc@U?$_Vec_base_types@UVkQueueFamilyProperties@@V?$allocator@UVkQueueFamilyProperties@@@std@@@std@@@std@@QEAAAEAPEAU_Container_proxy@2@XZ ; std::_Vector_alloc<std::_Vec_base_types<VkQueueFamilyProperties,std::allocator<VkQueueFamilyProperties> > >::_Myproxy
PUBLIC	?_Orphan_all@?$_Vector_alloc@U?$_Vec_base_types@UVkQueueFamilyProperties@@V?$allocator@UVkQueueFamilyProperties@@@std@@@std@@@std@@QEAAXXZ ; std::_Vector_alloc<std::_Vec_base_types<VkQueueFamilyProperties,std::allocator<VkQueueFamilyProperties> > >::_Orphan_all
PUBLIC	?_Getal@?$_Vector_alloc@U?$_Vec_base_types@UVkQueueFamilyProperties@@V?$allocator@UVkQueueFamilyProperties@@@std@@@std@@@std@@QEAAAEAU?$_Wrap_alloc@V?$allocator@UVkQueueFamilyProperties@@@std@@@2@XZ ; std::_Vector_alloc<std::_Vec_base_types<VkQueueFamilyProperties,std::allocator<VkQueueFamilyProperties> > >::_Getal
PUBLIC	?_Getal@?$_Vector_alloc@U?$_Vec_base_types@UVkQueueFamilyProperties@@V?$allocator@UVkQueueFamilyProperties@@@std@@@std@@@std@@QEBAAEBU?$_Wrap_alloc@V?$allocator@UVkQueueFamilyProperties@@@std@@@2@XZ ; std::_Vector_alloc<std::_Vec_base_types<VkQueueFamilyProperties,std::allocator<VkQueueFamilyProperties> > >::_Getal
PUBLIC	?_Get_data@?$_Vector_alloc@U?$_Vec_base_types@UVkQueueFamilyProperties@@V?$allocator@UVkQueueFamilyProperties@@@std@@@std@@@std@@QEAAAEAV?$_Vector_val@U?$_Simple_types@UVkQueueFamilyProperties@@@std@@@2@XZ ; std::_Vector_alloc<std::_Vec_base_types<VkQueueFamilyProperties,std::allocator<VkQueueFamilyProperties> > >::_Get_data
PUBLIC	?_Get_data@?$_Vector_alloc@U?$_Vec_base_types@UVkQueueFamilyProperties@@V?$allocator@UVkQueueFamilyProperties@@@std@@@std@@@std@@QEBAAEBV?$_Vector_val@U?$_Simple_types@UVkQueueFamilyProperties@@@std@@@2@XZ ; std::_Vector_alloc<std::_Vec_base_types<VkQueueFamilyProperties,std::allocator<VkQueueFamilyProperties> > >::_Get_data
PUBLIC	?_Myfirst@?$_Vector_alloc@U?$_Vec_base_types@UVkQueueFamilyProperties@@V?$allocator@UVkQueueFamilyProperties@@@std@@@std@@@std@@QEAAAEAPEAUVkQueueFamilyProperties@@XZ ; std::_Vector_alloc<std::_Vec_base_types<VkQueueFamilyProperties,std::allocator<VkQueueFamilyProperties> > >::_Myfirst
PUBLIC	?_Myfirst@?$_Vector_alloc@U?$_Vec_base_types@UVkQueueFamilyProperties@@V?$allocator@UVkQueueFamilyProperties@@@std@@@std@@@std@@QEBAAEBQEAUVkQueueFamilyProperties@@XZ ; std::_Vector_alloc<std::_Vec_base_types<VkQueueFamilyProperties,std::allocator<VkQueueFamilyProperties> > >::_Myfirst
PUBLIC	?_Mylast@?$_Vector_alloc@U?$_Vec_base_types@UVkQueueFamilyProperties@@V?$allocator@UVkQueueFamilyProperties@@@std@@@std@@@std@@QEAAAEAPEAUVkQueueFamilyProperties@@XZ ; std::_Vector_alloc<std::_Vec_base_types<VkQueueFamilyProperties,std::allocator<VkQueueFamilyProperties> > >::_Mylast
PUBLIC	?_Mylast@?$_Vector_alloc@U?$_Vec_base_types@UVkQueueFamilyProperties@@V?$allocator@UVkQueueFamilyProperties@@@std@@@std@@@std@@QEBAAEBQEAUVkQueueFamilyProperties@@XZ ; std::_Vector_alloc<std::_Vec_base_types<VkQueueFamilyProperties,std::allocator<VkQueueFamilyProperties> > >::_Mylast
PUBLIC	?_Myend@?$_Vector_alloc@U?$_Vec_base_types@UVkQueueFamilyProperties@@V?$allocator@UVkQueueFamilyProperties@@@std@@@std@@@std@@QEAAAEAPEAUVkQueueFamilyProperties@@XZ ; std::_Vector_alloc<std::_Vec_base_types<VkQueueFamilyProperties,std::allocator<VkQueueFamilyProperties> > >::_Myend
PUBLIC	??0?$_Vector_val@U?$_Simple_types@UVkQueueFamilyProperties@@@std@@@std@@QEAA@XZ ; std::_Vector_val<std::_Simple_types<VkQueueFamilyProperties> >::_Vector_val<std::_Simple_types<VkQueueFamilyProperties> >
PUBLIC	??1?$_Vector_val@U?$_Simple_types@UVkQueueFamilyProperties@@@std@@@std@@QEAA@XZ ; std::_Vector_val<std::_Simple_types<VkQueueFamilyProperties> >::~_Vector_val<std::_Simple_types<VkQueueFamilyProperties> >
PUBLIC	?_Get_first@?$_Compressed_pair@U?$_Wrap_alloc@V?$allocator@UVkQueueFamilyProperties@@@std@@@std@@V?$_Vector_val@U?$_Simple_types@UVkQueueFamilyProperties@@@std@@@2@$00@std@@QEAAAEAU?$_Wrap_alloc@V?$allocator@UVkQueueFamilyProperties@@@std@@@2@XZ ; std::_Compressed_pair<std::_Wrap_alloc<std::allocator<VkQueueFamilyProperties> >,std::_Vector_val<std::_Simple_types<VkQueueFamilyProperties> >,1>::_Get_first
PUBLIC	?_Get_first@?$_Compressed_pair@U?$_Wrap_alloc@V?$allocator@UVkQueueFamilyProperties@@@std@@@std@@V?$_Vector_val@U?$_Simple_types@UVkQueueFamilyProperties@@@std@@@2@$00@std@@QEBAAEBU?$_Wrap_alloc@V?$allocator@UVkQueueFamilyProperties@@@std@@@2@XZ ; std::_Compressed_pair<std::_Wrap_alloc<std::allocator<VkQueueFamilyProperties> >,std::_Vector_val<std::_Simple_types<VkQueueFamilyProperties> >,1>::_Get_first
PUBLIC	?_Get_second@?$_Compressed_pair@U?$_Wrap_alloc@V?$allocator@UVkQueueFamilyProperties@@@std@@@std@@V?$_Vector_val@U?$_Simple_types@UVkQueueFamilyProperties@@@std@@@2@$00@std@@QEAAAEAV?$_Vector_val@U?$_Simple_types@UVkQueueFamilyProperties@@@std@@@2@XZ ; std::_Compressed_pair<std::_Wrap_alloc<std::allocator<VkQueueFamilyProperties> >,std::_Vector_val<std::_Simple_types<VkQueueFamilyProperties> >,1>::_Get_second
PUBLIC	?_Get_second@?$_Compressed_pair@U?$_Wrap_alloc@V?$allocator@UVkQueueFamilyProperties@@@std@@@std@@V?$_Vector_val@U?$_Simple_types@UVkQueueFamilyProperties@@@std@@@2@$00@std@@QEBAAEBV?$_Vector_val@U?$_Simple_types@UVkQueueFamilyProperties@@@std@@@2@XZ ; std::_Compressed_pair<std::_Wrap_alloc<std::allocator<VkQueueFamilyProperties> >,std::_Vector_val<std::_Simple_types<VkQueueFamilyProperties> >,1>::_Get_second
PUBLIC	??1?$_Compressed_pair@U?$_Wrap_alloc@V?$allocator@UVkQueueFamilyProperties@@@std@@@std@@V?$_Vector_val@U?$_Simple_types@UVkQueueFamilyProperties@@@std@@@2@$00@std@@QEAA@XZ ; std::_Compressed_pair<std::_Wrap_alloc<std::allocator<VkQueueFamilyProperties> >,std::_Vector_val<std::_Simple_types<VkQueueFamilyProperties> >,1>::~_Compressed_pair<std::_Wrap_alloc<std::allocator<VkQueueFamilyProperties> >,std::_Vector_val<std::_Simple_types<VkQueueFamilyProperties> >,1>
PUBLIC	??0?$vector@UVkQueueFamilyProperties@@V?$allocator@UVkQueueFamilyProperties@@@std@@@std@@QEAA@_K@Z ; std::vector<VkQueueFamilyProperties,std::allocator<VkQueueFamilyProperties> >::vector<VkQueueFamilyProperties,std::allocator<VkQueueFamilyProperties> >
PUBLIC	??1?$vector@UVkQueueFamilyProperties@@V?$allocator@UVkQueueFamilyProperties@@@std@@@std@@QEAA@XZ ; std::vector<VkQueueFamilyProperties,std::allocator<VkQueueFamilyProperties> >::~vector<VkQueueFamilyProperties,std::allocator<VkQueueFamilyProperties> >
PUBLIC	?size@?$vector@UVkQueueFamilyProperties@@V?$allocator@UVkQueueFamilyProperties@@@std@@@std@@QEBA_KXZ ; std::vector<VkQueueFamilyProperties,std::allocator<VkQueueFamilyProperties> >::size
PUBLIC	?max_size@?$vector@UVkQueueFamilyProperties@@V?$allocator@UVkQueueFamilyProperties@@@std@@@std@@QEBA_KXZ ; std::vector<VkQueueFamilyProperties,std::allocator<VkQueueFamilyProperties> >::max_size
PUBLIC	??A?$vector@UVkQueueFamilyProperties@@V?$allocator@UVkQueueFamilyProperties@@@std@@@std@@QEAAAEAUVkQueueFamilyProperties@@_K@Z ; std::vector<VkQueueFamilyProperties,std::allocator<VkQueueFamilyProperties> >::operator[]
PUBLIC	?data@?$vector@UVkQueueFamilyProperties@@V?$allocator@UVkQueueFamilyProperties@@@std@@@std@@QEAAPEAUVkQueueFamilyProperties@@XZ ; std::vector<VkQueueFamilyProperties,std::allocator<VkQueueFamilyProperties> >::data
PUBLIC	?_Buy@?$vector@UVkQueueFamilyProperties@@V?$allocator@UVkQueueFamilyProperties@@@std@@@std@@IEAA_N_K@Z ; std::vector<VkQueueFamilyProperties,std::allocator<VkQueueFamilyProperties> >::_Buy
PUBLIC	?_Destroy@?$vector@UVkQueueFamilyProperties@@V?$allocator@UVkQueueFamilyProperties@@@std@@@std@@IEAAXPEAUVkQueueFamilyProperties@@0@Z ; std::vector<VkQueueFamilyProperties,std::allocator<VkQueueFamilyProperties> >::_Destroy
PUBLIC	?_Tidy@?$vector@UVkQueueFamilyProperties@@V?$allocator@UVkQueueFamilyProperties@@@std@@@std@@IEAAXXZ ; std::vector<VkQueueFamilyProperties,std::allocator<VkQueueFamilyProperties> >::_Tidy
PUBLIC	?_Xlen@?$vector@UVkQueueFamilyProperties@@V?$allocator@UVkQueueFamilyProperties@@@std@@@std@@IEBAXXZ ; std::vector<VkQueueFamilyProperties,std::allocator<VkQueueFamilyProperties> >::_Xlen
PUBLIC	?__autoclassinit2@?$vector@UVkQueueFamilyProperties@@V?$allocator@UVkQueueFamilyProperties@@@std@@@std@@QEAAX_K@Z ; std::vector<VkQueueFamilyProperties,std::allocator<VkQueueFamilyProperties> >::__autoclassinit2
PUBLIC	??0?$allocator@UVkSurfaceFormatKHR@@@std@@QEAA@XZ ; std::allocator<VkSurfaceFormatKHR>::allocator<VkSurfaceFormatKHR>
PUBLIC	??0?$allocator@UVkSurfaceFormatKHR@@@std@@QEAA@AEBV01@@Z ; std::allocator<VkSurfaceFormatKHR>::allocator<VkSurfaceFormatKHR>
PUBLIC	?deallocate@?$allocator@UVkSurfaceFormatKHR@@@std@@QEAAXPEAUVkSurfaceFormatKHR@@_K@Z ; std::allocator<VkSurfaceFormatKHR>::deallocate
PUBLIC	?allocate@?$allocator@UVkSurfaceFormatKHR@@@std@@QEAAPEAUVkSurfaceFormatKHR@@_K@Z ; std::allocator<VkSurfaceFormatKHR>::allocate
PUBLIC	?max_size@?$allocator@UVkSurfaceFormatKHR@@@std@@QEBA_KXZ ; std::allocator<VkSurfaceFormatKHR>::max_size
PUBLIC	?max_size@?$allocator_traits@V?$allocator@UVkSurfaceFormatKHR@@@std@@@std@@SA_KAEBV?$allocator@UVkSurfaceFormatKHR@@@2@@Z ; std::allocator_traits<std::allocator<VkSurfaceFormatKHR> >::max_size
PUBLIC	??0?$_Wrap_alloc@V?$allocator@UVkSurfaceFormatKHR@@@std@@@std@@QEAA@AEBV?$allocator@UVkSurfaceFormatKHR@@@1@@Z ; std::_Wrap_alloc<std::allocator<VkSurfaceFormatKHR> >::_Wrap_alloc<std::allocator<VkSurfaceFormatKHR> >
PUBLIC	?allocate@?$_Wrap_alloc@V?$allocator@UVkSurfaceFormatKHR@@@std@@@std@@QEAAPEAUVkSurfaceFormatKHR@@_K@Z ; std::_Wrap_alloc<std::allocator<VkSurfaceFormatKHR> >::allocate
PUBLIC	?deallocate@?$_Wrap_alloc@V?$allocator@UVkSurfaceFormatKHR@@@std@@@std@@QEAAXPEAUVkSurfaceFormatKHR@@_K@Z ; std::_Wrap_alloc<std::allocator<VkSurfaceFormatKHR> >::deallocate
PUBLIC	?max_size@?$_Wrap_alloc@V?$allocator@UVkSurfaceFormatKHR@@@std@@@std@@QEBA_KU_Nil@2@@Z ; std::_Wrap_alloc<std::allocator<VkSurfaceFormatKHR> >::max_size
PUBLIC	??0?$_Vector_alloc@U?$_Vec_base_types@UVkSurfaceFormatKHR@@V?$allocator@UVkSurfaceFormatKHR@@@std@@@std@@@std@@QEAA@AEBV?$allocator@UVkSurfaceFormatKHR@@@1@@Z ; std::_Vector_alloc<std::_Vec_base_types<VkSurfaceFormatKHR,std::allocator<VkSurfaceFormatKHR> > >::_Vector_alloc<std::_Vec_base_types<VkSurfaceFormatKHR,std::allocator<VkSurfaceFormatKHR> > >
PUBLIC	??1?$_Vector_alloc@U?$_Vec_base_types@UVkSurfaceFormatKHR@@V?$allocator@UVkSurfaceFormatKHR@@@std@@@std@@@std@@QEAA@XZ ; std::_Vector_alloc<std::_Vec_base_types<VkSurfaceFormatKHR,std::allocator<VkSurfaceFormatKHR> > >::~_Vector_alloc<std::_Vec_base_types<VkSurfaceFormatKHR,std::allocator<VkSurfaceFormatKHR> > >
PUBLIC	?_Alloc_proxy@?$_Vector_alloc@U?$_Vec_base_types@UVkSurfaceFormatKHR@@V?$allocator@UVkSurfaceFormatKHR@@@std@@@std@@@std@@QEAAXXZ ; std::_Vector_alloc<std::_Vec_base_types<VkSurfaceFormatKHR,std::allocator<VkSurfaceFormatKHR> > >::_Alloc_proxy
PUBLIC	?_Free_proxy@?$_Vector_alloc@U?$_Vec_base_types@UVkSurfaceFormatKHR@@V?$allocator@UVkSurfaceFormatKHR@@@std@@@std@@@std@@QEAAXXZ ; std::_Vector_alloc<std::_Vec_base_types<VkSurfaceFormatKHR,std::allocator<VkSurfaceFormatKHR> > >::_Free_proxy
PUBLIC	?_Myproxy@?$_Vector_alloc@U?$_Vec_base_types@UVkSurfaceFormatKHR@@V?$allocator@UVkSurfaceFormatKHR@@@std@@@std@@@std@@QEAAAEAPEAU_Container_proxy@2@XZ ; std::_Vector_alloc<std::_Vec_base_types<VkSurfaceFormatKHR,std::allocator<VkSurfaceFormatKHR> > >::_Myproxy
PUBLIC	?_Orphan_all@?$_Vector_alloc@U?$_Vec_base_types@UVkSurfaceFormatKHR@@V?$allocator@UVkSurfaceFormatKHR@@@std@@@std@@@std@@QEAAXXZ ; std::_Vector_alloc<std::_Vec_base_types<VkSurfaceFormatKHR,std::allocator<VkSurfaceFormatKHR> > >::_Orphan_all
PUBLIC	?_Getal@?$_Vector_alloc@U?$_Vec_base_types@UVkSurfaceFormatKHR@@V?$allocator@UVkSurfaceFormatKHR@@@std@@@std@@@std@@QEAAAEAU?$_Wrap_alloc@V?$allocator@UVkSurfaceFormatKHR@@@std@@@2@XZ ; std::_Vector_alloc<std::_Vec_base_types<VkSurfaceFormatKHR,std::allocator<VkSurfaceFormatKHR> > >::_Getal
PUBLIC	?_Getal@?$_Vector_alloc@U?$_Vec_base_types@UVkSurfaceFormatKHR@@V?$allocator@UVkSurfaceFormatKHR@@@std@@@std@@@std@@QEBAAEBU?$_Wrap_alloc@V?$allocator@UVkSurfaceFormatKHR@@@std@@@2@XZ ; std::_Vector_alloc<std::_Vec_base_types<VkSurfaceFormatKHR,std::allocator<VkSurfaceFormatKHR> > >::_Getal
PUBLIC	?_Get_data@?$_Vector_alloc@U?$_Vec_base_types@UVkSurfaceFormatKHR@@V?$allocator@UVkSurfaceFormatKHR@@@std@@@std@@@std@@QEAAAEAV?$_Vector_val@U?$_Simple_types@UVkSurfaceFormatKHR@@@std@@@2@XZ ; std::_Vector_alloc<std::_Vec_base_types<VkSurfaceFormatKHR,std::allocator<VkSurfaceFormatKHR> > >::_Get_data
PUBLIC	?_Get_data@?$_Vector_alloc@U?$_Vec_base_types@UVkSurfaceFormatKHR@@V?$allocator@UVkSurfaceFormatKHR@@@std@@@std@@@std@@QEBAAEBV?$_Vector_val@U?$_Simple_types@UVkSurfaceFormatKHR@@@std@@@2@XZ ; std::_Vector_alloc<std::_Vec_base_types<VkSurfaceFormatKHR,std::allocator<VkSurfaceFormatKHR> > >::_Get_data
PUBLIC	?_Myfirst@?$_Vector_alloc@U?$_Vec_base_types@UVkSurfaceFormatKHR@@V?$allocator@UVkSurfaceFormatKHR@@@std@@@std@@@std@@QEAAAEAPEAUVkSurfaceFormatKHR@@XZ ; std::_Vector_alloc<std::_Vec_base_types<VkSurfaceFormatKHR,std::allocator<VkSurfaceFormatKHR> > >::_Myfirst
PUBLIC	?_Myfirst@?$_Vector_alloc@U?$_Vec_base_types@UVkSurfaceFormatKHR@@V?$allocator@UVkSurfaceFormatKHR@@@std@@@std@@@std@@QEBAAEBQEAUVkSurfaceFormatKHR@@XZ ; std::_Vector_alloc<std::_Vec_base_types<VkSurfaceFormatKHR,std::allocator<VkSurfaceFormatKHR> > >::_Myfirst
PUBLIC	?_Mylast@?$_Vector_alloc@U?$_Vec_base_types@UVkSurfaceFormatKHR@@V?$allocator@UVkSurfaceFormatKHR@@@std@@@std@@@std@@QEAAAEAPEAUVkSurfaceFormatKHR@@XZ ; std::_Vector_alloc<std::_Vec_base_types<VkSurfaceFormatKHR,std::allocator<VkSurfaceFormatKHR> > >::_Mylast
PUBLIC	?_Mylast@?$_Vector_alloc@U?$_Vec_base_types@UVkSurfaceFormatKHR@@V?$allocator@UVkSurfaceFormatKHR@@@std@@@std@@@std@@QEBAAEBQEAUVkSurfaceFormatKHR@@XZ ; std::_Vector_alloc<std::_Vec_base_types<VkSurfaceFormatKHR,std::allocator<VkSurfaceFormatKHR> > >::_Mylast
PUBLIC	?_Myend@?$_Vector_alloc@U?$_Vec_base_types@UVkSurfaceFormatKHR@@V?$allocator@UVkSurfaceFormatKHR@@@std@@@std@@@std@@QEAAAEAPEAUVkSurfaceFormatKHR@@XZ ; std::_Vector_alloc<std::_Vec_base_types<VkSurfaceFormatKHR,std::allocator<VkSurfaceFormatKHR> > >::_Myend
PUBLIC	??0?$_Vector_val@U?$_Simple_types@UVkSurfaceFormatKHR@@@std@@@std@@QEAA@XZ ; std::_Vector_val<std::_Simple_types<VkSurfaceFormatKHR> >::_Vector_val<std::_Simple_types<VkSurfaceFormatKHR> >
PUBLIC	??1?$_Vector_val@U?$_Simple_types@UVkSurfaceFormatKHR@@@std@@@std@@QEAA@XZ ; std::_Vector_val<std::_Simple_types<VkSurfaceFormatKHR> >::~_Vector_val<std::_Simple_types<VkSurfaceFormatKHR> >
PUBLIC	?_Get_first@?$_Compressed_pair@U?$_Wrap_alloc@V?$allocator@UVkSurfaceFormatKHR@@@std@@@std@@V?$_Vector_val@U?$_Simple_types@UVkSurfaceFormatKHR@@@std@@@2@$00@std@@QEAAAEAU?$_Wrap_alloc@V?$allocator@UVkSurfaceFormatKHR@@@std@@@2@XZ ; std::_Compressed_pair<std::_Wrap_alloc<std::allocator<VkSurfaceFormatKHR> >,std::_Vector_val<std::_Simple_types<VkSurfaceFormatKHR> >,1>::_Get_first
PUBLIC	?_Get_first@?$_Compressed_pair@U?$_Wrap_alloc@V?$allocator@UVkSurfaceFormatKHR@@@std@@@std@@V?$_Vector_val@U?$_Simple_types@UVkSurfaceFormatKHR@@@std@@@2@$00@std@@QEBAAEBU?$_Wrap_alloc@V?$allocator@UVkSurfaceFormatKHR@@@std@@@2@XZ ; std::_Compressed_pair<std::_Wrap_alloc<std::allocator<VkSurfaceFormatKHR> >,std::_Vector_val<std::_Simple_types<VkSurfaceFormatKHR> >,1>::_Get_first
PUBLIC	?_Get_second@?$_Compressed_pair@U?$_Wrap_alloc@V?$allocator@UVkSurfaceFormatKHR@@@std@@@std@@V?$_Vector_val@U?$_Simple_types@UVkSurfaceFormatKHR@@@std@@@2@$00@std@@QEAAAEAV?$_Vector_val@U?$_Simple_types@UVkSurfaceFormatKHR@@@std@@@2@XZ ; std::_Compressed_pair<std::_Wrap_alloc<std::allocator<VkSurfaceFormatKHR> >,std::_Vector_val<std::_Simple_types<VkSurfaceFormatKHR> >,1>::_Get_second
PUBLIC	?_Get_second@?$_Compressed_pair@U?$_Wrap_alloc@V?$allocator@UVkSurfaceFormatKHR@@@std@@@std@@V?$_Vector_val@U?$_Simple_types@UVkSurfaceFormatKHR@@@std@@@2@$00@std@@QEBAAEBV?$_Vector_val@U?$_Simple_types@UVkSurfaceFormatKHR@@@std@@@2@XZ ; std::_Compressed_pair<std::_Wrap_alloc<std::allocator<VkSurfaceFormatKHR> >,std::_Vector_val<std::_Simple_types<VkSurfaceFormatKHR> >,1>::_Get_second
PUBLIC	??1?$_Compressed_pair@U?$_Wrap_alloc@V?$allocator@UVkSurfaceFormatKHR@@@std@@@std@@V?$_Vector_val@U?$_Simple_types@UVkSurfaceFormatKHR@@@std@@@2@$00@std@@QEAA@XZ ; std::_Compressed_pair<std::_Wrap_alloc<std::allocator<VkSurfaceFormatKHR> >,std::_Vector_val<std::_Simple_types<VkSurfaceFormatKHR> >,1>::~_Compressed_pair<std::_Wrap_alloc<std::allocator<VkSurfaceFormatKHR> >,std::_Vector_val<std::_Simple_types<VkSurfaceFormatKHR> >,1>
PUBLIC	??0?$vector@UVkSurfaceFormatKHR@@V?$allocator@UVkSurfaceFormatKHR@@@std@@@std@@QEAA@_K@Z ; std::vector<VkSurfaceFormatKHR,std::allocator<VkSurfaceFormatKHR> >::vector<VkSurfaceFormatKHR,std::allocator<VkSurfaceFormatKHR> >
PUBLIC	??1?$vector@UVkSurfaceFormatKHR@@V?$allocator@UVkSurfaceFormatKHR@@@std@@@std@@QEAA@XZ ; std::vector<VkSurfaceFormatKHR,std::allocator<VkSurfaceFormatKHR> >::~vector<VkSurfaceFormatKHR,std::allocator<VkSurfaceFormatKHR> >
PUBLIC	?size@?$vector@UVkSurfaceFormatKHR@@V?$allocator@UVkSurfaceFormatKHR@@@std@@@std@@QEBA_KXZ ; std::vector<VkSurfaceFormatKHR,std::allocator<VkSurfaceFormatKHR> >::size
PUBLIC	?max_size@?$vector@UVkSurfaceFormatKHR@@V?$allocator@UVkSurfaceFormatKHR@@@std@@@std@@QEBA_KXZ ; std::vector<VkSurfaceFormatKHR,std::allocator<VkSurfaceFormatKHR> >::max_size
PUBLIC	??A?$vector@UVkSurfaceFormatKHR@@V?$allocator@UVkSurfaceFormatKHR@@@std@@@std@@QEAAAEAUVkSurfaceFormatKHR@@_K@Z ; std::vector<VkSurfaceFormatKHR,std::allocator<VkSurfaceFormatKHR> >::operator[]
PUBLIC	?data@?$vector@UVkSurfaceFormatKHR@@V?$allocator@UVkSurfaceFormatKHR@@@std@@@std@@QEAAPEAUVkSurfaceFormatKHR@@XZ ; std::vector<VkSurfaceFormatKHR,std::allocator<VkSurfaceFormatKHR> >::data
PUBLIC	?_Buy@?$vector@UVkSurfaceFormatKHR@@V?$allocator@UVkSurfaceFormatKHR@@@std@@@std@@IEAA_N_K@Z ; std::vector<VkSurfaceFormatKHR,std::allocator<VkSurfaceFormatKHR> >::_Buy
PUBLIC	?_Destroy@?$vector@UVkSurfaceFormatKHR@@V?$allocator@UVkSurfaceFormatKHR@@@std@@@std@@IEAAXPEAUVkSurfaceFormatKHR@@0@Z ; std::vector<VkSurfaceFormatKHR,std::allocator<VkSurfaceFormatKHR> >::_Destroy
PUBLIC	?_Tidy@?$vector@UVkSurfaceFormatKHR@@V?$allocator@UVkSurfaceFormatKHR@@@std@@@std@@IEAAXXZ ; std::vector<VkSurfaceFormatKHR,std::allocator<VkSurfaceFormatKHR> >::_Tidy
PUBLIC	?_Xlen@?$vector@UVkSurfaceFormatKHR@@V?$allocator@UVkSurfaceFormatKHR@@@std@@@std@@IEBAXXZ ; std::vector<VkSurfaceFormatKHR,std::allocator<VkSurfaceFormatKHR> >::_Xlen
PUBLIC	?__autoclassinit2@?$vector@UVkSurfaceFormatKHR@@V?$allocator@UVkSurfaceFormatKHR@@@std@@@std@@QEAAX_K@Z ; std::vector<VkSurfaceFormatKHR,std::allocator<VkSurfaceFormatKHR> >::__autoclassinit2
PUBLIC	??0?$allocator@W4VkPresentModeKHR@@@std@@QEAA@XZ ; std::allocator<enum VkPresentModeKHR>::allocator<enum VkPresentModeKHR>
PUBLIC	??0?$allocator@W4VkPresentModeKHR@@@std@@QEAA@AEBV01@@Z ; std::allocator<enum VkPresentModeKHR>::allocator<enum VkPresentModeKHR>
PUBLIC	?deallocate@?$allocator@W4VkPresentModeKHR@@@std@@QEAAXPEAW4VkPresentModeKHR@@_K@Z ; std::allocator<enum VkPresentModeKHR>::deallocate
PUBLIC	?allocate@?$allocator@W4VkPresentModeKHR@@@std@@QEAAPEAW4VkPresentModeKHR@@_K@Z ; std::allocator<enum VkPresentModeKHR>::allocate
PUBLIC	?max_size@?$allocator@W4VkPresentModeKHR@@@std@@QEBA_KXZ ; std::allocator<enum VkPresentModeKHR>::max_size
PUBLIC	?max_size@?$allocator_traits@V?$allocator@W4VkPresentModeKHR@@@std@@@std@@SA_KAEBV?$allocator@W4VkPresentModeKHR@@@2@@Z ; std::allocator_traits<std::allocator<enum VkPresentModeKHR> >::max_size
PUBLIC	??0?$_Wrap_alloc@V?$allocator@W4VkPresentModeKHR@@@std@@@std@@QEAA@AEBV?$allocator@W4VkPresentModeKHR@@@1@@Z ; std::_Wrap_alloc<std::allocator<enum VkPresentModeKHR> >::_Wrap_alloc<std::allocator<enum VkPresentModeKHR> >
PUBLIC	?allocate@?$_Wrap_alloc@V?$allocator@W4VkPresentModeKHR@@@std@@@std@@QEAAPEAW4VkPresentModeKHR@@_K@Z ; std::_Wrap_alloc<std::allocator<enum VkPresentModeKHR> >::allocate
PUBLIC	?deallocate@?$_Wrap_alloc@V?$allocator@W4VkPresentModeKHR@@@std@@@std@@QEAAXPEAW4VkPresentModeKHR@@_K@Z ; std::_Wrap_alloc<std::allocator<enum VkPresentModeKHR> >::deallocate
PUBLIC	?max_size@?$_Wrap_alloc@V?$allocator@W4VkPresentModeKHR@@@std@@@std@@QEBA_KU_Nil@2@@Z ; std::_Wrap_alloc<std::allocator<enum VkPresentModeKHR> >::max_size
PUBLIC	??0?$_Vector_alloc@U?$_Vec_base_types@W4VkPresentModeKHR@@V?$allocator@W4VkPresentModeKHR@@@std@@@std@@@std@@QEAA@AEBV?$allocator@W4VkPresentModeKHR@@@1@@Z ; std::_Vector_alloc<std::_Vec_base_types<enum VkPresentModeKHR,std::allocator<enum VkPresentModeKHR> > >::_Vector_alloc<std::_Vec_base_types<enum VkPresentModeKHR,std::allocator<enum VkPresentModeKHR> > >
PUBLIC	??0?$_Vector_alloc@U?$_Vec_base_types@W4VkPresentModeKHR@@V?$allocator@W4VkPresentModeKHR@@@std@@@std@@@std@@QEAA@$$QEAV?$allocator@W4VkPresentModeKHR@@@1@@Z ; std::_Vector_alloc<std::_Vec_base_types<enum VkPresentModeKHR,std::allocator<enum VkPresentModeKHR> > >::_Vector_alloc<std::_Vec_base_types<enum VkPresentModeKHR,std::allocator<enum VkPresentModeKHR> > >
PUBLIC	??1?$_Vector_alloc@U?$_Vec_base_types@W4VkPresentModeKHR@@V?$allocator@W4VkPresentModeKHR@@@std@@@std@@@std@@QEAA@XZ ; std::_Vector_alloc<std::_Vec_base_types<enum VkPresentModeKHR,std::allocator<enum VkPresentModeKHR> > >::~_Vector_alloc<std::_Vec_base_types<enum VkPresentModeKHR,std::allocator<enum VkPresentModeKHR> > >
PUBLIC	?_Alloc_proxy@?$_Vector_alloc@U?$_Vec_base_types@W4VkPresentModeKHR@@V?$allocator@W4VkPresentModeKHR@@@std@@@std@@@std@@QEAAXXZ ; std::_Vector_alloc<std::_Vec_base_types<enum VkPresentModeKHR,std::allocator<enum VkPresentModeKHR> > >::_Alloc_proxy
PUBLIC	?_Free_proxy@?$_Vector_alloc@U?$_Vec_base_types@W4VkPresentModeKHR@@V?$allocator@W4VkPresentModeKHR@@@std@@@std@@@std@@QEAAXXZ ; std::_Vector_alloc<std::_Vec_base_types<enum VkPresentModeKHR,std::allocator<enum VkPresentModeKHR> > >::_Free_proxy
PUBLIC	?_Myproxy@?$_Vector_alloc@U?$_Vec_base_types@W4VkPresentModeKHR@@V?$allocator@W4VkPresentModeKHR@@@std@@@std@@@std@@QEAAAEAPEAU_Container_proxy@2@XZ ; std::_Vector_alloc<std::_Vec_base_types<enum VkPresentModeKHR,std::allocator<enum VkPresentModeKHR> > >::_Myproxy
PUBLIC	?_Orphan_all@?$_Vector_alloc@U?$_Vec_base_types@W4VkPresentModeKHR@@V?$allocator@W4VkPresentModeKHR@@@std@@@std@@@std@@QEAAXXZ ; std::_Vector_alloc<std::_Vec_base_types<enum VkPresentModeKHR,std::allocator<enum VkPresentModeKHR> > >::_Orphan_all
PUBLIC	?_Swap_all@?$_Vector_alloc@U?$_Vec_base_types@W4VkPresentModeKHR@@V?$allocator@W4VkPresentModeKHR@@@std@@@std@@@std@@QEAAXAEAV12@@Z ; std::_Vector_alloc<std::_Vec_base_types<enum VkPresentModeKHR,std::allocator<enum VkPresentModeKHR> > >::_Swap_all
PUBLIC	?_Getal@?$_Vector_alloc@U?$_Vec_base_types@W4VkPresentModeKHR@@V?$allocator@W4VkPresentModeKHR@@@std@@@std@@@std@@QEAAAEAU?$_Wrap_alloc@V?$allocator@W4VkPresentModeKHR@@@std@@@2@XZ ; std::_Vector_alloc<std::_Vec_base_types<enum VkPresentModeKHR,std::allocator<enum VkPresentModeKHR> > >::_Getal
PUBLIC	?_Getal@?$_Vector_alloc@U?$_Vec_base_types@W4VkPresentModeKHR@@V?$allocator@W4VkPresentModeKHR@@@std@@@std@@@std@@QEBAAEBU?$_Wrap_alloc@V?$allocator@W4VkPresentModeKHR@@@std@@@2@XZ ; std::_Vector_alloc<std::_Vec_base_types<enum VkPresentModeKHR,std::allocator<enum VkPresentModeKHR> > >::_Getal
PUBLIC	?_Get_data@?$_Vector_alloc@U?$_Vec_base_types@W4VkPresentModeKHR@@V?$allocator@W4VkPresentModeKHR@@@std@@@std@@@std@@QEAAAEAV?$_Vector_val@U?$_Simple_types@W4VkPresentModeKHR@@@std@@@2@XZ ; std::_Vector_alloc<std::_Vec_base_types<enum VkPresentModeKHR,std::allocator<enum VkPresentModeKHR> > >::_Get_data
PUBLIC	?_Get_data@?$_Vector_alloc@U?$_Vec_base_types@W4VkPresentModeKHR@@V?$allocator@W4VkPresentModeKHR@@@std@@@std@@@std@@QEBAAEBV?$_Vector_val@U?$_Simple_types@W4VkPresentModeKHR@@@std@@@2@XZ ; std::_Vector_alloc<std::_Vec_base_types<enum VkPresentModeKHR,std::allocator<enum VkPresentModeKHR> > >::_Get_data
PUBLIC	?_Myfirst@?$_Vector_alloc@U?$_Vec_base_types@W4VkPresentModeKHR@@V?$allocator@W4VkPresentModeKHR@@@std@@@std@@@std@@QEAAAEAPEAW4VkPresentModeKHR@@XZ ; std::_Vector_alloc<std::_Vec_base_types<enum VkPresentModeKHR,std::allocator<enum VkPresentModeKHR> > >::_Myfirst
PUBLIC	?_Myfirst@?$_Vector_alloc@U?$_Vec_base_types@W4VkPresentModeKHR@@V?$allocator@W4VkPresentModeKHR@@@std@@@std@@@std@@QEBAAEBQEAW4VkPresentModeKHR@@XZ ; std::_Vector_alloc<std::_Vec_base_types<enum VkPresentModeKHR,std::allocator<enum VkPresentModeKHR> > >::_Myfirst
PUBLIC	?_Mylast@?$_Vector_alloc@U?$_Vec_base_types@W4VkPresentModeKHR@@V?$allocator@W4VkPresentModeKHR@@@std@@@std@@@std@@QEAAAEAPEAW4VkPresentModeKHR@@XZ ; std::_Vector_alloc<std::_Vec_base_types<enum VkPresentModeKHR,std::allocator<enum VkPresentModeKHR> > >::_Mylast
PUBLIC	?_Mylast@?$_Vector_alloc@U?$_Vec_base_types@W4VkPresentModeKHR@@V?$allocator@W4VkPresentModeKHR@@@std@@@std@@@std@@QEBAAEBQEAW4VkPresentModeKHR@@XZ ; std::_Vector_alloc<std::_Vec_base_types<enum VkPresentModeKHR,std::allocator<enum VkPresentModeKHR> > >::_Mylast
PUBLIC	?_Myend@?$_Vector_alloc@U?$_Vec_base_types@W4VkPresentModeKHR@@V?$allocator@W4VkPresentModeKHR@@@std@@@std@@@std@@QEAAAEAPEAW4VkPresentModeKHR@@XZ ; std::_Vector_alloc<std::_Vec_base_types<enum VkPresentModeKHR,std::allocator<enum VkPresentModeKHR> > >::_Myend
PUBLIC	??0?$_Vector_val@U?$_Simple_types@W4VkPresentModeKHR@@@std@@@std@@QEAA@XZ ; std::_Vector_val<std::_Simple_types<enum VkPresentModeKHR> >::_Vector_val<std::_Simple_types<enum VkPresentModeKHR> >
PUBLIC	??1?$_Vector_val@U?$_Simple_types@W4VkPresentModeKHR@@@std@@@std@@QEAA@XZ ; std::_Vector_val<std::_Simple_types<enum VkPresentModeKHR> >::~_Vector_val<std::_Simple_types<enum VkPresentModeKHR> >
PUBLIC	?_Get_first@?$_Compressed_pair@U?$_Wrap_alloc@V?$allocator@W4VkPresentModeKHR@@@std@@@std@@V?$_Vector_val@U?$_Simple_types@W4VkPresentModeKHR@@@std@@@2@$00@std@@QEAAAEAU?$_Wrap_alloc@V?$allocator@W4VkPresentModeKHR@@@std@@@2@XZ ; std::_Compressed_pair<std::_Wrap_alloc<std::allocator<enum VkPresentModeKHR> >,std::_Vector_val<std::_Simple_types<enum VkPresentModeKHR> >,1>::_Get_first
PUBLIC	?_Get_first@?$_Compressed_pair@U?$_Wrap_alloc@V?$allocator@W4VkPresentModeKHR@@@std@@@std@@V?$_Vector_val@U?$_Simple_types@W4VkPresentModeKHR@@@std@@@2@$00@std@@QEBAAEBU?$_Wrap_alloc@V?$allocator@W4VkPresentModeKHR@@@std@@@2@XZ ; std::_Compressed_pair<std::_Wrap_alloc<std::allocator<enum VkPresentModeKHR> >,std::_Vector_val<std::_Simple_types<enum VkPresentModeKHR> >,1>::_Get_first
PUBLIC	?_Get_second@?$_Compressed_pair@U?$_Wrap_alloc@V?$allocator@W4VkPresentModeKHR@@@std@@@std@@V?$_Vector_val@U?$_Simple_types@W4VkPresentModeKHR@@@std@@@2@$00@std@@QEAAAEAV?$_Vector_val@U?$_Simple_types@W4VkPresentModeKHR@@@std@@@2@XZ ; std::_Compressed_pair<std::_Wrap_alloc<std::allocator<enum VkPresentModeKHR> >,std::_Vector_val<std::_Simple_types<enum VkPresentModeKHR> >,1>::_Get_second
PUBLIC	?_Get_second@?$_Compressed_pair@U?$_Wrap_alloc@V?$allocator@W4VkPresentModeKHR@@@std@@@std@@V?$_Vector_val@U?$_Simple_types@W4VkPresentModeKHR@@@std@@@2@$00@std@@QEBAAEBV?$_Vector_val@U?$_Simple_types@W4VkPresentModeKHR@@@std@@@2@XZ ; std::_Compressed_pair<std::_Wrap_alloc<std::allocator<enum VkPresentModeKHR> >,std::_Vector_val<std::_Simple_types<enum VkPresentModeKHR> >,1>::_Get_second
PUBLIC	??1?$_Compressed_pair@U?$_Wrap_alloc@V?$allocator@W4VkPresentModeKHR@@@std@@@std@@V?$_Vector_val@U?$_Simple_types@W4VkPresentModeKHR@@@std@@@2@$00@std@@QEAA@XZ ; std::_Compressed_pair<std::_Wrap_alloc<std::allocator<enum VkPresentModeKHR> >,std::_Vector_val<std::_Simple_types<enum VkPresentModeKHR> >,1>::~_Compressed_pair<std::_Wrap_alloc<std::allocator<enum VkPresentModeKHR> >,std::_Vector_val<std::_Simple_types<enum VkPresentModeKHR> >,1>
PUBLIC	??0?$vector@W4VkPresentModeKHR@@V?$allocator@W4VkPresentModeKHR@@@std@@@std@@QEAA@_K@Z ; std::vector<enum VkPresentModeKHR,std::allocator<enum VkPresentModeKHR> >::vector<enum VkPresentModeKHR,std::allocator<enum VkPresentModeKHR> >
PUBLIC	??0?$vector@W4VkPresentModeKHR@@V?$allocator@W4VkPresentModeKHR@@@std@@@std@@QEAA@$$QEAV01@@Z ; std::vector<enum VkPresentModeKHR,std::allocator<enum VkPresentModeKHR> >::vector<enum VkPresentModeKHR,std::allocator<enum VkPresentModeKHR> >
PUBLIC	?_Assign_rv@?$vector@W4VkPresentModeKHR@@V?$allocator@W4VkPresentModeKHR@@@std@@@std@@QEAAX$$QEAV12@U?$integral_constant@_N$00@2@@Z ; std::vector<enum VkPresentModeKHR,std::allocator<enum VkPresentModeKHR> >::_Assign_rv
PUBLIC	??1?$vector@W4VkPresentModeKHR@@V?$allocator@W4VkPresentModeKHR@@@std@@@std@@QEAA@XZ ; std::vector<enum VkPresentModeKHR,std::allocator<enum VkPresentModeKHR> >::~vector<enum VkPresentModeKHR,std::allocator<enum VkPresentModeKHR> >
PUBLIC	?size@?$vector@W4VkPresentModeKHR@@V?$allocator@W4VkPresentModeKHR@@@std@@@std@@QEBA_KXZ ; std::vector<enum VkPresentModeKHR,std::allocator<enum VkPresentModeKHR> >::size
PUBLIC	?max_size@?$vector@W4VkPresentModeKHR@@V?$allocator@W4VkPresentModeKHR@@@std@@@std@@QEBA_KXZ ; std::vector<enum VkPresentModeKHR,std::allocator<enum VkPresentModeKHR> >::max_size
PUBLIC	?at@?$vector@W4VkPresentModeKHR@@V?$allocator@W4VkPresentModeKHR@@@std@@@std@@QEAAAEAW4VkPresentModeKHR@@_K@Z ; std::vector<enum VkPresentModeKHR,std::allocator<enum VkPresentModeKHR> >::at
PUBLIC	?data@?$vector@W4VkPresentModeKHR@@V?$allocator@W4VkPresentModeKHR@@@std@@@std@@QEAAPEAW4VkPresentModeKHR@@XZ ; std::vector<enum VkPresentModeKHR,std::allocator<enum VkPresentModeKHR> >::data
PUBLIC	?_Buy@?$vector@W4VkPresentModeKHR@@V?$allocator@W4VkPresentModeKHR@@@std@@@std@@IEAA_N_K@Z ; std::vector<enum VkPresentModeKHR,std::allocator<enum VkPresentModeKHR> >::_Buy
PUBLIC	?_Destroy@?$vector@W4VkPresentModeKHR@@V?$allocator@W4VkPresentModeKHR@@@std@@@std@@IEAAXPEAW4VkPresentModeKHR@@0@Z ; std::vector<enum VkPresentModeKHR,std::allocator<enum VkPresentModeKHR> >::_Destroy
PUBLIC	?_Tidy@?$vector@W4VkPresentModeKHR@@V?$allocator@W4VkPresentModeKHR@@@std@@@std@@IEAAXXZ ; std::vector<enum VkPresentModeKHR,std::allocator<enum VkPresentModeKHR> >::_Tidy
PUBLIC	?_Xlen@?$vector@W4VkPresentModeKHR@@V?$allocator@W4VkPresentModeKHR@@@std@@@std@@IEBAXXZ ; std::vector<enum VkPresentModeKHR,std::allocator<enum VkPresentModeKHR> >::_Xlen
PUBLIC	?_Xran@?$vector@W4VkPresentModeKHR@@V?$allocator@W4VkPresentModeKHR@@@std@@@std@@IEBAXXZ ; std::vector<enum VkPresentModeKHR,std::allocator<enum VkPresentModeKHR> >::_Xran
PUBLIC	?__autoclassinit2@?$vector@W4VkPresentModeKHR@@V?$allocator@W4VkPresentModeKHR@@@std@@@std@@QEAAX_K@Z ; std::vector<enum VkPresentModeKHR,std::allocator<enum VkPresentModeKHR> >::__autoclassinit2
PUBLIC	?GetPresentMode@Cy@@YA?AW4VkPresentModeKHR@@PEAV?$vector@W4VkPresentModeKHR@@V?$allocator@W4VkPresentModeKHR@@@std@@@std@@@Z ; Cy::GetPresentMode
PUBLIC	?GetSurfaceExtent@Cy@@YA?AUVkExtent2D@@PEAUVkSurfaceCapabilitiesKHR@@PEAI1@Z ; Cy::GetSurfaceExtent
PUBLIC	?GetDesiredNumSwapChainImages@Cy@@YAIPEBUVkSurfaceCapabilitiesKHR@@@Z ; Cy::GetDesiredNumSwapChainImages
PUBLIC	?GetSurfaceTransformBits@Cy@@YA?AW4VkSurfaceTransformFlagBitsKHR@@PEBUVkSurfaceCapabilitiesKHR@@@Z ; Cy::GetSurfaceTransformBits
PUBLIC	??$move@AEAU?$_Wrap_alloc@V?$allocator@W4VkPresentModeKHR@@@std@@@std@@@std@@YA$$QEAU?$_Wrap_alloc@V?$allocator@W4VkPresentModeKHR@@@std@@@0@AEAU10@@Z ; std::move<std::_Wrap_alloc<std::allocator<enum VkPresentModeKHR> > & __ptr64>
PUBLIC	??$forward@V?$vector@W4VkPresentModeKHR@@V?$allocator@W4VkPresentModeKHR@@@std@@@std@@@std@@YA$$QEAV?$vector@W4VkPresentModeKHR@@V?$allocator@W4VkPresentModeKHR@@@std@@@0@AEAV10@@Z ; std::forward<std::vector<enum VkPresentModeKHR,std::allocator<enum VkPresentModeKHR> > >
PUBLIC	??$_Uninitialized_default_fill_n@PEAW4VkPresentModeKHR@@_KU?$_Wrap_alloc@V?$allocator@W4VkPresentModeKHR@@@std@@@std@@@std@@YAXPEAW4VkPresentModeKHR@@_KAEAU?$_Wrap_alloc@V?$allocator@W4VkPresentModeKHR@@@std@@@0@@Z ; std::_Uninitialized_default_fill_n<enum VkPresentModeKHR * __ptr64,unsigned __int64,std::_Wrap_alloc<std::allocator<enum VkPresentModeKHR> > >
PUBLIC	??$_Uninitialized_default_fill_n@PEAUVkSurfaceFormatKHR@@_KU?$_Wrap_alloc@V?$allocator@UVkSurfaceFormatKHR@@@std@@@std@@@std@@YAXPEAUVkSurfaceFormatKHR@@_KAEAU?$_Wrap_alloc@V?$allocator@UVkSurfaceFormatKHR@@@std@@@0@@Z ; std::_Uninitialized_default_fill_n<VkSurfaceFormatKHR * __ptr64,unsigned __int64,std::_Wrap_alloc<std::allocator<VkSurfaceFormatKHR> > >
PUBLIC	??$_Uninitialized_default_fill_n@PEAUVkQueueFamilyProperties@@_KU?$_Wrap_alloc@V?$allocator@UVkQueueFamilyProperties@@@std@@@std@@@std@@YAXPEAUVkQueueFamilyProperties@@_KAEAU?$_Wrap_alloc@V?$allocator@UVkQueueFamilyProperties@@@std@@@0@@Z ; std::_Uninitialized_default_fill_n<VkQueueFamilyProperties * __ptr64,unsigned __int64,std::_Wrap_alloc<std::allocator<VkQueueFamilyProperties> > >
PUBLIC	??$_Uninitialized_default_fill_n@PEAPEAUVkImage_T@@_KU?$_Wrap_alloc@V?$allocator@PEAUVkImage_T@@@std@@@std@@@std@@YAXPEAPEAUVkImage_T@@_KAEAU?$_Wrap_alloc@V?$allocator@PEAUVkImage_T@@@std@@@0@@Z ; std::_Uninitialized_default_fill_n<VkImage_T * __ptr64 * __ptr64,unsigned __int64,std::_Wrap_alloc<std::allocator<VkImage_T * __ptr64> > >
PUBLIC	??$_Uninitialized_default_fill_n@PEAPEAUVkImageView_T@@_KU?$_Wrap_alloc@V?$allocator@PEAUVkImageView_T@@@std@@@std@@@std@@YAXPEAPEAUVkImageView_T@@_KAEAU?$_Wrap_alloc@V?$allocator@PEAUVkImageView_T@@@std@@@0@@Z ; std::_Uninitialized_default_fill_n<VkImageView_T * __ptr64 * __ptr64,unsigned __int64,std::_Wrap_alloc<std::allocator<VkImageView_T * __ptr64> > >
PUBLIC	??$_Debug_pointer@$$CBD@std@@YAXPEBDPEBGI@Z	; std::_Debug_pointer<char const >
PUBLIC	??$move@AEAV?$allocator@W4VkPresentModeKHR@@@std@@@std@@YA$$QEAV?$allocator@W4VkPresentModeKHR@@@0@AEAV10@@Z ; std::move<std::allocator<enum VkPresentModeKHR> & __ptr64>
PUBLIC	??$?0V?$allocator@W4VkPresentModeKHR@@@std@@$$V@?$_Compressed_pair@U?$_Wrap_alloc@V?$allocator@W4VkPresentModeKHR@@@std@@@std@@V?$_Vector_val@U?$_Simple_types@W4VkPresentModeKHR@@@std@@@2@$00@std@@QEAA@U_One_then_variadic_args_t@1@$$QEAV?$allocator@W4VkPresentModeKHR@@@1@@Z ; std::_Compressed_pair<std::_Wrap_alloc<std::allocator<enum VkPresentModeKHR> >,std::_Vector_val<std::_Simple_types<enum VkPresentModeKHR> >,1>::_Compressed_pair<std::_Wrap_alloc<std::allocator<enum VkPresentModeKHR> >,std::_Vector_val<std::_Simple_types<enum VkPresentModeKHR> >,1><std::allocator<enum VkPresentModeKHR> >
PUBLIC	??$?0AEBV?$allocator@W4VkPresentModeKHR@@@std@@$$V@?$_Compressed_pair@U?$_Wrap_alloc@V?$allocator@W4VkPresentModeKHR@@@std@@@std@@V?$_Vector_val@U?$_Simple_types@W4VkPresentModeKHR@@@std@@@2@$00@std@@QEAA@U_One_then_variadic_args_t@1@AEBV?$allocator@W4VkPresentModeKHR@@@1@@Z ; std::_Compressed_pair<std::_Wrap_alloc<std::allocator<enum VkPresentModeKHR> >,std::_Vector_val<std::_Simple_types<enum VkPresentModeKHR> >,1>::_Compressed_pair<std::_Wrap_alloc<std::allocator<enum VkPresentModeKHR> >,std::_Vector_val<std::_Simple_types<enum VkPresentModeKHR> >,1><std::allocator<enum VkPresentModeKHR> const & __ptr64>
PUBLIC	??$?0AEBV?$allocator@UVkSurfaceFormatKHR@@@std@@$$V@?$_Compressed_pair@U?$_Wrap_alloc@V?$allocator@UVkSurfaceFormatKHR@@@std@@@std@@V?$_Vector_val@U?$_Simple_types@UVkSurfaceFormatKHR@@@std@@@2@$00@std@@QEAA@U_One_then_variadic_args_t@1@AEBV?$allocator@UVkSurfaceFormatKHR@@@1@@Z ; std::_Compressed_pair<std::_Wrap_alloc<std::allocator<VkSurfaceFormatKHR> >,std::_Vector_val<std::_Simple_types<VkSurfaceFormatKHR> >,1>::_Compressed_pair<std::_Wrap_alloc<std::allocator<VkSurfaceFormatKHR> >,std::_Vector_val<std::_Simple_types<VkSurfaceFormatKHR> >,1><std::allocator<VkSurfaceFormatKHR> const & __ptr64>
PUBLIC	??$?0AEBV?$allocator@UVkQueueFamilyProperties@@@std@@$$V@?$_Compressed_pair@U?$_Wrap_alloc@V?$allocator@UVkQueueFamilyProperties@@@std@@@std@@V?$_Vector_val@U?$_Simple_types@UVkQueueFamilyProperties@@@std@@@2@$00@std@@QEAA@U_One_then_variadic_args_t@1@AEBV?$allocator@UVkQueueFamilyProperties@@@1@@Z ; std::_Compressed_pair<std::_Wrap_alloc<std::allocator<VkQueueFamilyProperties> >,std::_Vector_val<std::_Simple_types<VkQueueFamilyProperties> >,1>::_Compressed_pair<std::_Wrap_alloc<std::allocator<VkQueueFamilyProperties> >,std::_Vector_val<std::_Simple_types<VkQueueFamilyProperties> >,1><std::allocator<VkQueueFamilyProperties> const & __ptr64>
PUBLIC	??$move@AEAV?$allocator@D@std@@@std@@YA$$QEAV?$allocator@D@0@AEAV10@@Z ; std::move<std::allocator<char> & __ptr64>
PUBLIC	??$?0V?$allocator@D@std@@$$V@?$_Compressed_pair@U?$_Wrap_alloc@V?$allocator@D@std@@@std@@V?$_String_val@U?$_Simple_types@D@std@@@2@$00@std@@QEAA@U_One_then_variadic_args_t@1@$$QEAV?$allocator@D@1@@Z ; std::_Compressed_pair<std::_Wrap_alloc<std::allocator<char> >,std::_String_val<std::_Simple_types<char> >,1>::_Compressed_pair<std::_Wrap_alloc<std::allocator<char> >,std::_String_val<std::_Simple_types<char> >,1><std::allocator<char> >
PUBLIC	??$?0AEBV?$allocator@D@std@@$$V@?$_Compressed_pair@U?$_Wrap_alloc@V?$allocator@D@std@@@std@@V?$_String_val@U?$_Simple_types@D@std@@@2@$00@std@@QEAA@U_One_then_variadic_args_t@1@AEBV?$allocator@D@1@@Z ; std::_Compressed_pair<std::_Wrap_alloc<std::allocator<char> >,std::_String_val<std::_Simple_types<char> >,1>::_Compressed_pair<std::_Wrap_alloc<std::allocator<char> >,std::_String_val<std::_Simple_types<char> >,1><std::allocator<char> const & __ptr64>
PUBLIC	??$destroy@PEAD@?$_Wrap_alloc@V?$allocator@D@std@@@std@@QEAAXPEAPEAD@Z ; std::_Wrap_alloc<std::allocator<char> >::destroy<char * __ptr64>
PUBLIC	??$addressof@D@std@@YAPEADAEAD@Z		; std::addressof<char>
PUBLIC	??$_Debug_pointer_if@$$CBD@std@@YAX_NPEBDPEBGI@Z ; std::_Debug_pointer_if<char const >
PUBLIC	??$construct@PEADAEAPEAD@?$_Wrap_alloc@V?$allocator@D@std@@@std@@QEAAXPEAPEADAEAPEAD@Z ; std::_Wrap_alloc<std::allocator<char> >::construct<char * __ptr64,char * __ptr64 & __ptr64>
PUBLIC	?deallocate@?$allocator@U_Container_proxy@std@@@std@@QEAAXPEAU_Container_proxy@2@_K@Z ; std::allocator<std::_Container_proxy>::deallocate
PUBLIC	?allocate@?$allocator@U_Container_proxy@std@@@std@@QEAAPEAU_Container_proxy@2@_K@Z ; std::allocator<std::_Container_proxy>::allocate
PUBLIC	?allocate@?$_Wrap_alloc@V?$allocator@U_Container_proxy@std@@@std@@@std@@QEAAPEAU_Container_proxy@2@_K@Z ; std::_Wrap_alloc<std::allocator<std::_Container_proxy> >::allocate
PUBLIC	?deallocate@?$_Wrap_alloc@V?$allocator@U_Container_proxy@std@@@std@@@std@@QEAAXPEAU_Container_proxy@2@_K@Z ; std::_Wrap_alloc<std::allocator<std::_Container_proxy> >::deallocate
PUBLIC	??$?0U?$_Wrap_alloc@V?$allocator@W4VkPresentModeKHR@@@std@@@std@@@?$_Wrap_alloc@V?$allocator@U_Container_proxy@std@@@std@@@std@@QEAA@AEAU?$_Wrap_alloc@V?$allocator@W4VkPresentModeKHR@@@std@@@1@@Z ; std::_Wrap_alloc<std::allocator<std::_Container_proxy> >::_Wrap_alloc<std::allocator<std::_Container_proxy> ><std::_Wrap_alloc<std::allocator<enum VkPresentModeKHR> > >
PUBLIC	??$?0W4VkPresentModeKHR@@@?$allocator@U_Container_proxy@std@@@std@@QEAA@AEBV?$allocator@W4VkPresentModeKHR@@@1@@Z ; std::allocator<std::_Container_proxy>::allocator<std::_Container_proxy><enum VkPresentModeKHR>
PUBLIC	??$destroy@U_Container_proxy@std@@@?$_Wrap_alloc@V?$allocator@U_Container_proxy@std@@@std@@@std@@QEAAXPEAU_Container_proxy@1@@Z ; std::_Wrap_alloc<std::allocator<std::_Container_proxy> >::destroy<std::_Container_proxy>
PUBLIC	??$construct@U_Container_proxy@std@@U12@@?$_Wrap_alloc@V?$allocator@U_Container_proxy@std@@@std@@@std@@QEAAXPEAU_Container_proxy@1@$$QEAU21@@Z ; std::_Wrap_alloc<std::allocator<std::_Container_proxy> >::construct<std::_Container_proxy,std::_Container_proxy>
PUBLIC	??$_Destroy_range@U?$_Wrap_alloc@V?$allocator@W4VkPresentModeKHR@@@std@@@std@@@std@@YAXPEAW4VkPresentModeKHR@@0AEAU?$_Wrap_alloc@V?$allocator@W4VkPresentModeKHR@@@std@@@0@@Z ; std::_Destroy_range<std::_Wrap_alloc<std::allocator<enum VkPresentModeKHR> > >
PUBLIC	??$?0U?$_Wrap_alloc@V?$allocator@UVkSurfaceFormatKHR@@@std@@@std@@@?$_Wrap_alloc@V?$allocator@U_Container_proxy@std@@@std@@@std@@QEAA@AEAU?$_Wrap_alloc@V?$allocator@UVkSurfaceFormatKHR@@@std@@@1@@Z ; std::_Wrap_alloc<std::allocator<std::_Container_proxy> >::_Wrap_alloc<std::allocator<std::_Container_proxy> ><std::_Wrap_alloc<std::allocator<VkSurfaceFormatKHR> > >
PUBLIC	??$?0UVkSurfaceFormatKHR@@@?$allocator@U_Container_proxy@std@@@std@@QEAA@AEBV?$allocator@UVkSurfaceFormatKHR@@@1@@Z ; std::allocator<std::_Container_proxy>::allocator<std::_Container_proxy><VkSurfaceFormatKHR>
PUBLIC	??$_Destroy_range@U?$_Wrap_alloc@V?$allocator@UVkSurfaceFormatKHR@@@std@@@std@@@std@@YAXPEAUVkSurfaceFormatKHR@@0AEAU?$_Wrap_alloc@V?$allocator@UVkSurfaceFormatKHR@@@std@@@0@@Z ; std::_Destroy_range<std::_Wrap_alloc<std::allocator<VkSurfaceFormatKHR> > >
PUBLIC	??$?0U?$_Wrap_alloc@V?$allocator@UVkQueueFamilyProperties@@@std@@@std@@@?$_Wrap_alloc@V?$allocator@U_Container_proxy@std@@@std@@@std@@QEAA@AEAU?$_Wrap_alloc@V?$allocator@UVkQueueFamilyProperties@@@std@@@1@@Z ; std::_Wrap_alloc<std::allocator<std::_Container_proxy> >::_Wrap_alloc<std::allocator<std::_Container_proxy> ><std::_Wrap_alloc<std::allocator<VkQueueFamilyProperties> > >
PUBLIC	??$?0UVkQueueFamilyProperties@@@?$allocator@U_Container_proxy@std@@@std@@QEAA@AEBV?$allocator@UVkQueueFamilyProperties@@@1@@Z ; std::allocator<std::_Container_proxy>::allocator<std::_Container_proxy><VkQueueFamilyProperties>
PUBLIC	??$_Destroy_range@U?$_Wrap_alloc@V?$allocator@UVkQueueFamilyProperties@@@std@@@std@@@std@@YAXPEAUVkQueueFamilyProperties@@0AEAU?$_Wrap_alloc@V?$allocator@UVkQueueFamilyProperties@@@std@@@0@@Z ; std::_Destroy_range<std::_Wrap_alloc<std::allocator<VkQueueFamilyProperties> > >
PUBLIC	??$_Umove@PEAPEAUVkImage_T@@@?$vector@PEAUVkImage_T@@V?$allocator@PEAUVkImage_T@@@std@@@std@@IEAAPEAPEAUVkImage_T@@PEAPEAU2@00@Z ; std::vector<VkImage_T * __ptr64,std::allocator<VkImage_T * __ptr64> >::_Umove<VkImage_T * __ptr64 * __ptr64>
PUBLIC	??$_Destroy_range@U?$_Wrap_alloc@V?$allocator@PEAUVkImage_T@@@std@@@std@@@std@@YAXPEAPEAUVkImage_T@@0AEAU?$_Wrap_alloc@V?$allocator@PEAUVkImage_T@@@std@@@0@@Z ; std::_Destroy_range<std::_Wrap_alloc<std::allocator<VkImage_T * __ptr64> > >
PUBLIC	??$_Umove@PEAPEAUVkImageView_T@@@?$vector@PEAUVkImageView_T@@V?$allocator@PEAUVkImageView_T@@@std@@@std@@IEAAPEAPEAUVkImageView_T@@PEAPEAU2@00@Z ; std::vector<VkImageView_T * __ptr64,std::allocator<VkImageView_T * __ptr64> >::_Umove<VkImageView_T * __ptr64 * __ptr64>
PUBLIC	??$_Destroy_range@U?$_Wrap_alloc@V?$allocator@PEAUVkImageView_T@@@std@@@std@@@std@@YAXPEAPEAUVkImageView_T@@0AEAU?$_Wrap_alloc@V?$allocator@PEAUVkImageView_T@@@std@@@0@@Z ; std::_Destroy_range<std::_Wrap_alloc<std::allocator<VkImageView_T * __ptr64> > >
PUBLIC	??$?0U?$_Wrap_alloc@V?$allocator@D@std@@@std@@@?$_Wrap_alloc@V?$allocator@U_Container_proxy@std@@@std@@@std@@QEAA@AEAU?$_Wrap_alloc@V?$allocator@D@std@@@1@@Z ; std::_Wrap_alloc<std::allocator<std::_Container_proxy> >::_Wrap_alloc<std::allocator<std::_Container_proxy> ><std::_Wrap_alloc<std::allocator<char> > >
PUBLIC	??$?0D@?$allocator@U_Container_proxy@std@@@std@@QEAA@AEBV?$allocator@D@1@@Z ; std::allocator<std::_Container_proxy>::allocator<std::_Container_proxy><char>
PUBLIC	??$_Val_type@PEAW4VkPresentModeKHR@@@std@@YAPEAW4VkPresentModeKHR@@PEAW41@@Z ; std::_Val_type<enum VkPresentModeKHR * __ptr64>
PUBLIC	??$_Ptr_cat@W4VkPresentModeKHR@@W41@@std@@YA?AU_Scalar_ptr_iterator_tag@0@PEAW4VkPresentModeKHR@@0@Z ; std::_Ptr_cat<enum VkPresentModeKHR,enum VkPresentModeKHR>
PUBLIC	??$_Uninit_def_fill_n@W4VkPresentModeKHR@@_KW41@@std@@YAXPEAW4VkPresentModeKHR@@_KAEAU?$_Wrap_alloc@V?$allocator@W4VkPresentModeKHR@@@std@@@0@0U_Scalar_ptr_iterator_tag@0@@Z ; std::_Uninit_def_fill_n<enum VkPresentModeKHR,unsigned __int64,enum VkPresentModeKHR>
PUBLIC	??$_Val_type@PEAUVkSurfaceFormatKHR@@@std@@YAPEAUVkSurfaceFormatKHR@@PEAU1@@Z ; std::_Val_type<VkSurfaceFormatKHR * __ptr64>
PUBLIC	??$_Ptr_cat@UVkSurfaceFormatKHR@@U1@@std@@YA?AU_Nonscalar_ptr_iterator_tag@0@PEAUVkSurfaceFormatKHR@@0@Z ; std::_Ptr_cat<VkSurfaceFormatKHR,VkSurfaceFormatKHR>
PUBLIC	??$_Uninit_def_fill_n@PEAUVkSurfaceFormatKHR@@_KV?$allocator@UVkSurfaceFormatKHR@@@std@@U1@@std@@YAXPEAUVkSurfaceFormatKHR@@_KAEAU?$_Wrap_alloc@V?$allocator@UVkSurfaceFormatKHR@@@std@@@0@0U_Nonscalar_ptr_iterator_tag@0@@Z ; std::_Uninit_def_fill_n<VkSurfaceFormatKHR * __ptr64,unsigned __int64,std::allocator<VkSurfaceFormatKHR>,VkSurfaceFormatKHR>
PUBLIC	??$_Val_type@PEAUVkQueueFamilyProperties@@@std@@YAPEAUVkQueueFamilyProperties@@PEAU1@@Z ; std::_Val_type<VkQueueFamilyProperties * __ptr64>
PUBLIC	??$_Ptr_cat@UVkQueueFamilyProperties@@U1@@std@@YA?AU_Nonscalar_ptr_iterator_tag@0@PEAUVkQueueFamilyProperties@@0@Z ; std::_Ptr_cat<VkQueueFamilyProperties,VkQueueFamilyProperties>
PUBLIC	??$_Uninit_def_fill_n@PEAUVkQueueFamilyProperties@@_KV?$allocator@UVkQueueFamilyProperties@@@std@@U1@@std@@YAXPEAUVkQueueFamilyProperties@@_KAEAU?$_Wrap_alloc@V?$allocator@UVkQueueFamilyProperties@@@std@@@0@0U_Nonscalar_ptr_iterator_tag@0@@Z ; std::_Uninit_def_fill_n<VkQueueFamilyProperties * __ptr64,unsigned __int64,std::allocator<VkQueueFamilyProperties>,VkQueueFamilyProperties>
PUBLIC	??$_Val_type@PEAPEAUVkImage_T@@@std@@YAPEAPEAUVkImage_T@@PEAPEAU1@@Z ; std::_Val_type<VkImage_T * __ptr64 * __ptr64>
PUBLIC	??$_Ptr_cat@PEAUVkImage_T@@PEAU1@@std@@YA?AU_Scalar_ptr_iterator_tag@0@PEAPEAUVkImage_T@@0@Z ; std::_Ptr_cat<VkImage_T * __ptr64,VkImage_T * __ptr64>
PUBLIC	??$_Uninit_def_fill_n@PEAUVkImage_T@@_KPEAU1@@std@@YAXPEAPEAUVkImage_T@@_KAEAU?$_Wrap_alloc@V?$allocator@PEAUVkImage_T@@@std@@@0@0U_Scalar_ptr_iterator_tag@0@@Z ; std::_Uninit_def_fill_n<VkImage_T * __ptr64,unsigned __int64,VkImage_T * __ptr64>
PUBLIC	??$_Val_type@PEAPEAUVkImageView_T@@@std@@YAPEAPEAUVkImageView_T@@PEAPEAU1@@Z ; std::_Val_type<VkImageView_T * __ptr64 * __ptr64>
PUBLIC	??$_Ptr_cat@PEAUVkImageView_T@@PEAU1@@std@@YA?AU_Scalar_ptr_iterator_tag@0@PEAPEAUVkImageView_T@@0@Z ; std::_Ptr_cat<VkImageView_T * __ptr64,VkImageView_T * __ptr64>
PUBLIC	??$_Uninit_def_fill_n@PEAUVkImageView_T@@_KPEAU1@@std@@YAXPEAPEAUVkImageView_T@@_KAEAU?$_Wrap_alloc@V?$allocator@PEAUVkImageView_T@@@std@@@0@0U_Scalar_ptr_iterator_tag@0@@Z ; std::_Uninit_def_fill_n<VkImageView_T * __ptr64,unsigned __int64,VkImageView_T * __ptr64>
PUBLIC	??$forward@V?$allocator@W4VkPresentModeKHR@@@std@@@std@@YA$$QEAV?$allocator@W4VkPresentModeKHR@@@0@AEAV10@@Z ; std::forward<std::allocator<enum VkPresentModeKHR> >
PUBLIC	??$forward@AEBV?$allocator@W4VkPresentModeKHR@@@std@@@std@@YAAEBV?$allocator@W4VkPresentModeKHR@@@0@AEBV10@@Z ; std::forward<std::allocator<enum VkPresentModeKHR> const & __ptr64>
PUBLIC	??$forward@AEBV?$allocator@UVkSurfaceFormatKHR@@@std@@@std@@YAAEBV?$allocator@UVkSurfaceFormatKHR@@@0@AEBV10@@Z ; std::forward<std::allocator<VkSurfaceFormatKHR> const & __ptr64>
PUBLIC	??$forward@AEBV?$allocator@UVkQueueFamilyProperties@@@std@@@std@@YAAEBV?$allocator@UVkQueueFamilyProperties@@@0@AEBV10@@Z ; std::forward<std::allocator<VkQueueFamilyProperties> const & __ptr64>
PUBLIC	??$forward@V?$allocator@D@std@@@std@@YA$$QEAV?$allocator@D@0@AEAV10@@Z ; std::forward<std::allocator<char> >
PUBLIC	??$forward@AEBV?$allocator@D@std@@@std@@YAAEBV?$allocator@D@0@AEBV10@@Z ; std::forward<std::allocator<char> const & __ptr64>
PUBLIC	??$destroy@PEAD@?$allocator_traits@V?$allocator@D@std@@@std@@SAXAEAV?$allocator@D@1@PEAPEAD@Z ; std::allocator_traits<std::allocator<char> >::destroy<char * __ptr64>
PUBLIC	??$_Addressof@D@std@@YAPEADAEADU?$integral_constant@_N$0A@@0@@Z ; std::_Addressof<char>
PUBLIC	??$forward@AEAPEAD@std@@YAAEAPEADAEAPEAD@Z	; std::forward<char * __ptr64 & __ptr64>
PUBLIC	??$construct@PEADAEAPEAD@?$allocator_traits@V?$allocator@D@std@@@std@@SAXAEAV?$allocator@D@1@PEAPEADAEAPEAD@Z ; std::allocator_traits<std::allocator<char> >::construct<char * __ptr64,char * __ptr64 & __ptr64>
PUBLIC	??$destroy@U_Container_proxy@std@@@?$allocator_traits@V?$allocator@U_Container_proxy@std@@@std@@@std@@SAXAEAV?$allocator@U_Container_proxy@std@@@1@PEAU_Container_proxy@1@@Z ; std::allocator_traits<std::allocator<std::_Container_proxy> >::destroy<std::_Container_proxy>
PUBLIC	??$forward@U_Container_proxy@std@@@std@@YA$$QEAU_Container_proxy@0@AEAU10@@Z ; std::forward<std::_Container_proxy>
PUBLIC	??$construct@U_Container_proxy@std@@U12@@?$allocator_traits@V?$allocator@U_Container_proxy@std@@@std@@@std@@SAXAEAV?$allocator@U_Container_proxy@std@@@1@PEAU_Container_proxy@1@$$QEAU31@@Z ; std::allocator_traits<std::allocator<std::_Container_proxy> >::construct<std::_Container_proxy,std::_Container_proxy>
PUBLIC	??$_Destroy_range@U?$_Wrap_alloc@V?$allocator@W4VkPresentModeKHR@@@std@@@std@@@std@@YAXPEAW4VkPresentModeKHR@@0AEAU?$_Wrap_alloc@V?$allocator@W4VkPresentModeKHR@@@std@@@0@U_Scalar_ptr_iterator_tag@0@@Z ; std::_Destroy_range<std::_Wrap_alloc<std::allocator<enum VkPresentModeKHR> > >
PUBLIC	??$_Destroy_range@U?$_Wrap_alloc@V?$allocator@UVkSurfaceFormatKHR@@@std@@@std@@@std@@YAXPEAUVkSurfaceFormatKHR@@0AEAU?$_Wrap_alloc@V?$allocator@UVkSurfaceFormatKHR@@@std@@@0@U_Nonscalar_ptr_iterator_tag@0@@Z ; std::_Destroy_range<std::_Wrap_alloc<std::allocator<VkSurfaceFormatKHR> > >
PUBLIC	??$_Destroy_range@U?$_Wrap_alloc@V?$allocator@UVkQueueFamilyProperties@@@std@@@std@@@std@@YAXPEAUVkQueueFamilyProperties@@0AEAU?$_Wrap_alloc@V?$allocator@UVkQueueFamilyProperties@@@std@@@0@U_Nonscalar_ptr_iterator_tag@0@@Z ; std::_Destroy_range<std::_Wrap_alloc<std::allocator<VkQueueFamilyProperties> > >
PUBLIC	??$_Uninitialized_move@PEAPEAUVkImage_T@@PEAPEAU1@U?$_Wrap_alloc@V?$allocator@PEAUVkImage_T@@@std@@@std@@@std@@YAPEAPEAUVkImage_T@@PEAPEAU1@00AEAU?$_Wrap_alloc@V?$allocator@PEAUVkImage_T@@@std@@@0@@Z ; std::_Uninitialized_move<VkImage_T * __ptr64 * __ptr64,VkImage_T * __ptr64 * __ptr64,std::_Wrap_alloc<std::allocator<VkImage_T * __ptr64> > >
PUBLIC	??$_Destroy_range@U?$_Wrap_alloc@V?$allocator@PEAUVkImage_T@@@std@@@std@@@std@@YAXPEAPEAUVkImage_T@@0AEAU?$_Wrap_alloc@V?$allocator@PEAUVkImage_T@@@std@@@0@U_Scalar_ptr_iterator_tag@0@@Z ; std::_Destroy_range<std::_Wrap_alloc<std::allocator<VkImage_T * __ptr64> > >
PUBLIC	??$_Uninitialized_move@PEAPEAUVkImageView_T@@PEAPEAU1@U?$_Wrap_alloc@V?$allocator@PEAUVkImageView_T@@@std@@@std@@@std@@YAPEAPEAUVkImageView_T@@PEAPEAU1@00AEAU?$_Wrap_alloc@V?$allocator@PEAUVkImageView_T@@@std@@@0@@Z ; std::_Uninitialized_move<VkImageView_T * __ptr64 * __ptr64,VkImageView_T * __ptr64 * __ptr64,std::_Wrap_alloc<std::allocator<VkImageView_T * __ptr64> > >
PUBLIC	??$_Destroy_range@U?$_Wrap_alloc@V?$allocator@PEAUVkImageView_T@@@std@@@std@@@std@@YAXPEAPEAUVkImageView_T@@0AEAU?$_Wrap_alloc@V?$allocator@PEAUVkImageView_T@@@std@@@0@U_Scalar_ptr_iterator_tag@0@@Z ; std::_Destroy_range<std::_Wrap_alloc<std::allocator<VkImageView_T * __ptr64> > >
PUBLIC	??$_Fill_n@PEAW4VkPresentModeKHR@@_KW41@@std@@YAPEAW4VkPresentModeKHR@@PEAW41@_KAEBW41@@Z ; std::_Fill_n<enum VkPresentModeKHR * __ptr64,unsigned __int64,enum VkPresentModeKHR>
PUBLIC	??$construct@UVkSurfaceFormatKHR@@$$V@?$_Wrap_alloc@V?$allocator@UVkSurfaceFormatKHR@@@std@@@std@@QEAAXPEAUVkSurfaceFormatKHR@@@Z ; std::_Wrap_alloc<std::allocator<VkSurfaceFormatKHR> >::construct<VkSurfaceFormatKHR>
PUBLIC	??$destroy@UVkSurfaceFormatKHR@@@?$_Wrap_alloc@V?$allocator@UVkSurfaceFormatKHR@@@std@@@std@@QEAAXPEAUVkSurfaceFormatKHR@@@Z ; std::_Wrap_alloc<std::allocator<VkSurfaceFormatKHR> >::destroy<VkSurfaceFormatKHR>
PUBLIC	??$construct@UVkQueueFamilyProperties@@$$V@?$_Wrap_alloc@V?$allocator@UVkQueueFamilyProperties@@@std@@@std@@QEAAXPEAUVkQueueFamilyProperties@@@Z ; std::_Wrap_alloc<std::allocator<VkQueueFamilyProperties> >::construct<VkQueueFamilyProperties>
PUBLIC	??$destroy@UVkQueueFamilyProperties@@@?$_Wrap_alloc@V?$allocator@UVkQueueFamilyProperties@@@std@@@std@@QEAAXPEAUVkQueueFamilyProperties@@@Z ; std::_Wrap_alloc<std::allocator<VkQueueFamilyProperties> >::destroy<VkQueueFamilyProperties>
PUBLIC	??$_Fill_n@PEAPEAUVkImage_T@@_KPEAU1@@std@@YAPEAPEAUVkImage_T@@PEAPEAU1@_KAEBQEAU1@@Z ; std::_Fill_n<VkImage_T * __ptr64 * __ptr64,unsigned __int64,VkImage_T * __ptr64>
PUBLIC	??$_Fill_n@PEAPEAUVkImageView_T@@_KPEAU1@@std@@YAPEAPEAUVkImageView_T@@PEAPEAU1@_KAEBQEAU1@@Z ; std::_Fill_n<VkImageView_T * __ptr64 * __ptr64,unsigned __int64,VkImageView_T * __ptr64>
PUBLIC	??$destroy@PEAD@?$allocator@D@std@@QEAAXPEAPEAD@Z ; std::allocator<char>::destroy<char * __ptr64>
PUBLIC	??$construct@PEADAEAPEAD@?$allocator@D@std@@QEAAXPEAPEADAEAPEAD@Z ; std::allocator<char>::construct<char * __ptr64,char * __ptr64 & __ptr64>
PUBLIC	??$destroy@U_Container_proxy@std@@@?$allocator@U_Container_proxy@std@@@std@@QEAAXPEAU_Container_proxy@1@@Z ; std::allocator<std::_Container_proxy>::destroy<std::_Container_proxy>
PUBLIC	??$construct@U_Container_proxy@std@@U12@@?$allocator@U_Container_proxy@std@@@std@@QEAAXPEAU_Container_proxy@1@$$QEAU21@@Z ; std::allocator<std::_Container_proxy>::construct<std::_Container_proxy,std::_Container_proxy>
PUBLIC	??$addressof@UVkSurfaceFormatKHR@@@std@@YAPEAUVkSurfaceFormatKHR@@AEAU1@@Z ; std::addressof<VkSurfaceFormatKHR>
PUBLIC	??$addressof@UVkQueueFamilyProperties@@@std@@YAPEAUVkQueueFamilyProperties@@AEAU1@@Z ; std::addressof<VkQueueFamilyProperties>
PUBLIC	??$_Unchecked@PEAPEAUVkImage_T@@@std@@YAPEAPEAUVkImage_T@@PEAPEAU1@@Z ; std::_Unchecked<VkImage_T * __ptr64 * __ptr64>
PUBLIC	??$_Uninit_move@PEAPEAUVkImage_T@@PEAPEAU1@U?$_Wrap_alloc@V?$allocator@PEAUVkImage_T@@@std@@@std@@@std@@YAPEAPEAUVkImage_T@@PEAPEAU1@00AEAU?$_Wrap_alloc@V?$allocator@PEAUVkImage_T@@@std@@@0@@Z ; std::_Uninit_move<VkImage_T * __ptr64 * __ptr64,VkImage_T * __ptr64 * __ptr64,std::_Wrap_alloc<std::allocator<VkImage_T * __ptr64> > >
PUBLIC	??$_Rechecked@PEAPEAUVkImage_T@@PEAPEAU1@@std@@YAAEAPEAPEAUVkImage_T@@AEAPEAPEAU1@PEAPEAU1@@Z ; std::_Rechecked<VkImage_T * __ptr64 * __ptr64,VkImage_T * __ptr64 * __ptr64>
PUBLIC	??$_Unchecked@PEAPEAUVkImageView_T@@@std@@YAPEAPEAUVkImageView_T@@PEAPEAU1@@Z ; std::_Unchecked<VkImageView_T * __ptr64 * __ptr64>
PUBLIC	??$_Uninit_move@PEAPEAUVkImageView_T@@PEAPEAU1@U?$_Wrap_alloc@V?$allocator@PEAUVkImageView_T@@@std@@@std@@@std@@YAPEAPEAUVkImageView_T@@PEAPEAU1@00AEAU?$_Wrap_alloc@V?$allocator@PEAUVkImageView_T@@@std@@@0@@Z ; std::_Uninit_move<VkImageView_T * __ptr64 * __ptr64,VkImageView_T * __ptr64 * __ptr64,std::_Wrap_alloc<std::allocator<VkImageView_T * __ptr64> > >
PUBLIC	??$_Rechecked@PEAPEAUVkImageView_T@@PEAPEAU1@@std@@YAAEAPEAPEAUVkImageView_T@@AEAPEAPEAU1@PEAPEAU1@@Z ; std::_Rechecked<VkImageView_T * __ptr64 * __ptr64,VkImageView_T * __ptr64 * __ptr64>
PUBLIC	??$construct@UVkSurfaceFormatKHR@@$$V@?$allocator_traits@V?$allocator@UVkSurfaceFormatKHR@@@std@@@std@@SAXAEAV?$allocator@UVkSurfaceFormatKHR@@@1@PEAUVkSurfaceFormatKHR@@@Z ; std::allocator_traits<std::allocator<VkSurfaceFormatKHR> >::construct<VkSurfaceFormatKHR>
PUBLIC	??$destroy@UVkSurfaceFormatKHR@@@?$allocator_traits@V?$allocator@UVkSurfaceFormatKHR@@@std@@@std@@SAXAEAV?$allocator@UVkSurfaceFormatKHR@@@1@PEAUVkSurfaceFormatKHR@@@Z ; std::allocator_traits<std::allocator<VkSurfaceFormatKHR> >::destroy<VkSurfaceFormatKHR>
PUBLIC	??$construct@UVkQueueFamilyProperties@@$$V@?$allocator_traits@V?$allocator@UVkQueueFamilyProperties@@@std@@@std@@SAXAEAV?$allocator@UVkQueueFamilyProperties@@@1@PEAUVkQueueFamilyProperties@@@Z ; std::allocator_traits<std::allocator<VkQueueFamilyProperties> >::construct<VkQueueFamilyProperties>
PUBLIC	??$destroy@UVkQueueFamilyProperties@@@?$allocator_traits@V?$allocator@UVkQueueFamilyProperties@@@std@@@std@@SAXAEAV?$allocator@UVkQueueFamilyProperties@@@1@PEAUVkQueueFamilyProperties@@@Z ; std::allocator_traits<std::allocator<VkQueueFamilyProperties> >::destroy<VkQueueFamilyProperties>
PUBLIC	??$_Addressof@UVkSurfaceFormatKHR@@@std@@YAPEAUVkSurfaceFormatKHR@@AEAU1@U?$integral_constant@_N$0A@@0@@Z ; std::_Addressof<VkSurfaceFormatKHR>
PUBLIC	??$_Addressof@UVkQueueFamilyProperties@@@std@@YAPEAUVkQueueFamilyProperties@@AEAU1@U?$integral_constant@_N$0A@@0@@Z ; std::_Addressof<VkQueueFamilyProperties>
PUBLIC	??$_Uninit_move@PEAUVkImage_T@@PEAU1@PEAU1@@std@@YAPEAPEAUVkImage_T@@PEAPEAU1@00AEAU?$_Wrap_alloc@V?$allocator@PEAUVkImage_T@@@std@@@0@0U_Scalar_ptr_iterator_tag@0@@Z ; std::_Uninit_move<VkImage_T * __ptr64,VkImage_T * __ptr64,VkImage_T * __ptr64>
PUBLIC	??$_Uninit_move@PEAUVkImageView_T@@PEAU1@PEAU1@@std@@YAPEAPEAUVkImageView_T@@PEAPEAU1@00AEAU?$_Wrap_alloc@V?$allocator@PEAUVkImageView_T@@@std@@@0@0U_Scalar_ptr_iterator_tag@0@@Z ; std::_Uninit_move<VkImageView_T * __ptr64,VkImageView_T * __ptr64,VkImageView_T * __ptr64>
PUBLIC	??$construct@UVkSurfaceFormatKHR@@$$V@?$allocator@UVkSurfaceFormatKHR@@@std@@QEAAXPEAUVkSurfaceFormatKHR@@@Z ; std::allocator<VkSurfaceFormatKHR>::construct<VkSurfaceFormatKHR>
PUBLIC	??$destroy@UVkSurfaceFormatKHR@@@?$allocator@UVkSurfaceFormatKHR@@@std@@QEAAXPEAUVkSurfaceFormatKHR@@@Z ; std::allocator<VkSurfaceFormatKHR>::destroy<VkSurfaceFormatKHR>
PUBLIC	??$construct@UVkQueueFamilyProperties@@$$V@?$allocator@UVkQueueFamilyProperties@@@std@@QEAAXPEAUVkQueueFamilyProperties@@@Z ; std::allocator<VkQueueFamilyProperties>::construct<VkQueueFamilyProperties>
PUBLIC	??$destroy@UVkQueueFamilyProperties@@@?$allocator@UVkQueueFamilyProperties@@@std@@QEAAXPEAUVkQueueFamilyProperties@@@Z ; std::allocator<VkQueueFamilyProperties>::destroy<VkQueueFamilyProperties>
PUBLIC	??$_Debug_range_ptr@PEAPEAUVkImage_T@@PEAPEAU1@@std@@YAXPEAPEAUVkImage_T@@0AEAPEAPEAU1@PEBGI@Z ; std::_Debug_range_ptr<VkImage_T * __ptr64 * __ptr64,VkImage_T * __ptr64 * __ptr64>
PUBLIC	??$_Debug_range_ptr@PEAPEAUVkImageView_T@@PEAPEAU1@@std@@YAXPEAPEAUVkImageView_T@@0AEAPEAPEAU1@PEBGI@Z ; std::_Debug_range_ptr<VkImageView_T * __ptr64 * __ptr64,VkImageView_T * __ptr64 * __ptr64>
PUBLIC	??$_Iter_cat@PEAPEAUVkImage_T@@@std@@YA?AUrandom_access_iterator_tag@0@AEBQEAPEAUVkImage_T@@@Z ; std::_Iter_cat<VkImage_T * __ptr64 * __ptr64>
PUBLIC	??$_Debug_range_ptr2@PEAPEAUVkImage_T@@PEAPEAU1@@std@@YAXPEAPEAUVkImage_T@@0AEAPEAPEAU1@PEBGIUrandom_access_iterator_tag@0@@Z ; std::_Debug_range_ptr2<VkImage_T * __ptr64 * __ptr64,VkImage_T * __ptr64 * __ptr64>
PUBLIC	??$_Iter_cat@PEAPEAUVkImageView_T@@@std@@YA?AUrandom_access_iterator_tag@0@AEBQEAPEAUVkImageView_T@@@Z ; std::_Iter_cat<VkImageView_T * __ptr64 * __ptr64>
PUBLIC	??$_Debug_range_ptr2@PEAPEAUVkImageView_T@@PEAPEAU1@@std@@YAXPEAPEAUVkImageView_T@@0AEAPEAPEAU1@PEBGIUrandom_access_iterator_tag@0@@Z ; std::_Debug_range_ptr2<VkImageView_T * __ptr64 * __ptr64,VkImageView_T * __ptr64 * __ptr64>
PUBLIC	??$_Debug_pointer@PEAUVkImage_T@@@std@@YAXPEAPEAUVkImage_T@@PEBGI@Z ; std::_Debug_pointer<VkImage_T * __ptr64>
PUBLIC	??$_Debug_pointer@PEAUVkImageView_T@@@std@@YAXPEAPEAUVkImageView_T@@PEBGI@Z ; std::_Debug_pointer<VkImageView_T * __ptr64>
PUBLIC	?__LINE__Var@?0??_Allocate@std@@YAPEAX_K0_N@Z@4JA ; `std::_Allocate'::`1'::__LINE__Var
PUBLIC	??_C@_0BE@LMNLACIC@_Ptr_container?5?$CB?$DN?50?$AA@ ; `string'
PUBLIC	??_C@_1DG@HGDKEBPG@?$AA?$CC?$AA_?$AAP?$AAt?$AAr?$AA_?$AAc?$AAo?$AAn?$AAt?$AAa?$AAi?$AAn?$AAe?$AAr?$AA?5?$AA?$CB?$AA?$DN?$AA?5?$AA0?$AA?$CC?$AA?5?$AA?$CG?$AA?$CG?$AA?5?$AA0?$AA?$AA@ ; `string'
PUBLIC	??_C@_17CNPHIMPH@?$AA?$CF?$AAl?$AAs?$AA?$AA@	; `string'
PUBLIC	??_C@_1EG@DJALBHDK@?$AAd?$AA?3?$AA?2?$AAa?$AAp?$AAp?$AAd?$AAa?$AAt?$AAa?$AA?2?$AAv?$AAs?$AAp?$AA?2?$AAv?$AAc?$AA?2?$AAi?$AAn?$AAc?$AAl?$AAu?$AAd?$AAe?$AA?2?$AAx?$AAm?$AAe?$AAm?$AAo?$AAr@ ; `string'
PUBLIC	??_C@_1BO@NKFMJPA@?$AAs?$AAt?$AAd?$AA?3?$AA?3?$AA_?$AAA?$AAl?$AAl?$AAo?$AAc?$AAa?$AAt?$AAe?$AA?$AA@ ; `string'
PUBLIC	??_C@_1CG@JNLFBNGN@?$AA?$CC?$AAi?$AAn?$AAv?$AAa?$AAl?$AAi?$AAd?$AA?5?$AAa?$AAr?$AAg?$AAu?$AAm?$AAe?$AAn?$AAt?$AA?$CC?$AA?$AA@ ; `string'
PUBLIC	??_C@_09GLJCAGLP@_Ptr?5?$CB?$DN?50?$AA@		; `string'
PUBLIC	??_C@_1CC@GKJLLHIM@?$AA?$CC?$AA_?$AAP?$AAt?$AAr?$AA?5?$AA?$CB?$AA?$DN?$AA?5?$AA0?$AA?$CC?$AA?5?$AA?$CG?$AA?$CG?$AA?5?$AA0?$AA?$AA@ ; `string'
PUBLIC	?__LINE__Var@?0??_Deallocate@std@@YAXPEAX_K1@Z@4JA ; `std::_Deallocate'::`1'::__LINE__Var
PUBLIC	??_C@_0BN@HMCJOMKN@_Count?5?$DM?$DN?5?$CIsize_t?$CJ?$CI?91?$CJ?5?1?5_Sz?$AA@ ; `string'
PUBLIC	??_C@_1EI@MLOBABC@?$AA?$CC?$AA_?$AAC?$AAo?$AAu?$AAn?$AAt?$AA?5?$AA?$DM?$AA?$DN?$AA?5?$AA?$CI?$AAs?$AAi?$AAz?$AAe?$AA_?$AAt?$AA?$CJ?$AA?$CI?$AA?9?$AA1?$AA?$CJ?$AA?5?$AA?1?$AA?5?$AA_?$AAS?$AAz?$AA?$CC?$AA?5?$AA?$CG@ ; `string'
PUBLIC	??_C@_1CC@LOFJFFDB@?$AAs?$AAt?$AAd?$AA?3?$AA?3?$AA_?$AAD?$AAe?$AAa?$AAl?$AAl?$AAo?$AAc?$AAa?$AAt?$AAe?$AA?$AA@ ; `string'
PUBLIC	??_C@_0DD@GBGGGKGG@?$CI_Ptr_user?5?$CG?5?$CI_BIG_ALLOCATION_AL@ ; `string'
PUBLIC	??_C@_1HE@CDMBFOKC@?$AA?$CC?$AA?$CI?$AA_?$AAP?$AAt?$AAr?$AA_?$AAu?$AAs?$AAe?$AAr?$AA?5?$AA?$CG?$AA?5?$AA?$CI?$AA_?$AAB?$AAI?$AAG?$AA_?$AAA?$AAL?$AAL?$AAO?$AAC?$AAA?$AAT?$AAI?$AAO?$AAN?$AA_?$AAA@ ; `string'
PUBLIC	??_C@_0EI@NOJHEJCJ@reinterpret_cast?$DMuintptr_t?5?$CK?$DO?$CI_P@ ; `string'
PUBLIC	??_C@_1JO@EKLKIEHP@?$AA?$CC?$AAr?$AAe?$AAi?$AAn?$AAt?$AAe?$AAr?$AAp?$AAr?$AAe?$AAt?$AA_?$AAc?$AAa?$AAs?$AAt?$AA?$DM?$AAu?$AAi?$AAn?$AAt?$AAp?$AAt?$AAr?$AA_?$AAt?$AA?5?$AA?$CK?$AA?$DO?$AA?$CI?$AA_@ ; `string'
PUBLIC	??_C@_0BL@OCKMEJON@_Ptr_container?5?$DM?5_Ptr_user?$AA@ ; `string'
PUBLIC	??_C@_1EE@PDHAHDDC@?$AA?$CC?$AA_?$AAP?$AAt?$AAr?$AA_?$AAc?$AAo?$AAn?$AAt?$AAa?$AAi?$AAn?$AAe?$AAr?$AA?5?$AA?$DM?$AA?5?$AA_?$AAP?$AAt?$AAr?$AA_?$AAu?$AAs?$AAe?$AAr?$AA?$CC?$AA?5?$AA?$CG?$AA?$CG?$AA?5@ ; `string'
PUBLIC	??_C@_0DB@GLFJLNCE@2?5?$CK?5sizeof?$CIvoid?5?$CK?$CJ?5?$DM?$DN?5_Ptr_user?5@ ; `string'
PUBLIC	??_C@_1HA@NAPGMHAO@?$AA?$CC?$AA2?$AA?5?$AA?$CK?$AA?5?$AAs?$AAi?$AAz?$AAe?$AAo?$AAf?$AA?$CI?$AAv?$AAo?$AAi?$AAd?$AA?5?$AA?$CK?$AA?$CJ?$AA?5?$AA?$DM?$AA?$DN?$AA?5?$AA_?$AAP?$AAt?$AAr?$AA_?$AAu?$AAs?$AAe?$AAr@ ; `string'
PUBLIC	??_C@_0CN@BLHJCAL@_Ptr_user?5?9?5_Ptr_container?5?$DM?$DN?5_N@ ; `string'
PUBLIC	??_C@_1GI@DHJGPFNI@?$AA?$CC?$AA_?$AAP?$AAt?$AAr?$AA_?$AAu?$AAs?$AAe?$AAr?$AA?5?$AA?9?$AA?5?$AA_?$AAP?$AAt?$AAr?$AA_?$AAc?$AAo?$AAn?$AAt?$AAa?$AAi?$AAn?$AAe?$AAr?$AA?5?$AA?$DM?$AA?$DN?$AA?5?$AA_@ ; `string'
PUBLIC	?npos@?$basic_string@DU?$char_traits@D@std@@V?$allocator@D@2@@std@@2_KB ; std::basic_string<char,std::char_traits<char>,std::allocator<char> >::npos
PUBLIC	??_C@_0CB@JNOGNACD@could?5not?5create?5windows?5surface@ ; `string'
PUBLIC	??_C@_0CF@KCGJHCCP@vkGetPhysicalDeviceSurfaceSuppor@ ; `string'
PUBLIC	??_C@_0DL@FOACHNJ@could?5not?5find?5function?5GetPhysi@ ; `string'
PUBLIC	??_C@_0CK@LHGCODEN@vkGetPhysicalDeviceSurfaceCapabi@ ; `string'
PUBLIC	??_C@_0EA@IDGHLDAB@could?5not?5find?5function?5GetPhysi@ ; `string'
PUBLIC	??_C@_0CF@LAEKEDKL@vkGetPhysicalDeviceSurfaceFormat@ ; `string'
PUBLIC	??_C@_0DL@BHMDBGFN@could?5not?5find?5function?5GetPhysi@ ; `string'
PUBLIC	??_C@_0CK@ONBJHPIF@vkGetPhysicalDeviceSurfacePresen@ ; `string'
PUBLIC	??_C@_0EA@NJBMCPMJ@could?5not?5find?5function?5GetPhysi@ ; `string'
PUBLIC	??_C@_0CI@MMLLPAMH@physical?5device?5has?5no?5available@ ; `string'
PUBLIC	??_C@_0EC@MEFOBPJJ@this?5gpu?5doesn?8t?5support?5graphic@ ; `string'
PUBLIC	??_C@_0FJ@JAOMFOOC@could?5not?5get?5surface?5format?5cou@ ; `string'
PUBLIC	??_C@_0CC@KONBBLJK@surfaceformatcount?5is?5less?5than?5@ ; `string'
PUBLIC	??_C@_0ED@DBNHGECO@could?5not?5get?5surface?5capabiliti@ ; `string'
PUBLIC	??_C@_0CE@MBDEOBHG@could?5not?5get?5surface?5present?5mo@ ; `string'
PUBLIC	??_C@_0BN@KADFFGFM@present?5mode?5count?5is?5zero?$CB?$CB?$AA@ ; `string'
PUBLIC	??_C@_0CA@MIJJBJFN@could?5not?5get?5the?5present?5Modes?$AA@ ; `string'
PUBLIC	??_C@_0BF@LAOLFHPB@vkCreateSwapchainKHR?$AA@	; `string'
PUBLIC	??_C@_0CL@OMOFGJEJ@could?5not?5find?5function?5CreateSw@ ; `string'
PUBLIC	??_C@_0BG@JIIELJIO@vkDestroySwapchainKHR?$AA@	; `string'
PUBLIC	??_C@_0CM@FNGCIMAO@could?5not?5find?5function?5DestroyS@ ; `string'
PUBLIC	??_C@_0BI@ENKOCHJN@vkGetSwapchainImagesKHR?$AA@	; `string'
PUBLIC	??_C@_0CO@CAJOLOBD@could?5not?5find?5function?5GetSwapc@ ; `string'
PUBLIC	??_C@_0BG@DJMKCOKI@vkAcquireNextImageKHR?$AA@	; `string'
PUBLIC	??_C@_0CM@PMCMBLCI@could?5not?5find?5function?5AcquireN@ ; `string'
PUBLIC	??_C@_0BC@DGDLPOJO@vkQueuePresentKHR?$AA@	; `string'
PUBLIC	??_C@_0CI@BLDJDLJI@could?5not?5find?5function?5QueuePre@ ; `string'
PUBLIC	??_C@_0BN@PFHIHNBI@could?5not?5create?5a?5swapchain?$AA@ ; `string'
PUBLIC	??_C@_0CC@JOLCCEPN@could?5not?5get?5surface?5image?5coun@ ; `string'
PUBLIC	??_C@_0CF@HFOIMABF@could?5not?5fill?5surface?5images?5ve@ ; `string'
PUBLIC	??_C@_0BM@MJIMPBPB@could?5not?5create?5image?5view?$AA@ ; `string'
PUBLIC	??_C@_1EC@LPGLEOMF@?$AAd?$AA?3?$AA?2?$AAa?$AAp?$AAp?$AAd?$AAa?$AAt?$AAa?$AA?2?$AAv?$AAs?$AAp?$AA?2?$AAv?$AAc?$AA?2?$AAi?$AAn?$AAc?$AAl?$AAu?$AAd?$AAe?$AA?2?$AAv?$AAe?$AAc?$AAt?$AAo?$AAr@ ; `string'
PUBLIC	??_C@_1DM@LHGCHCBA@?$AAv?$AAe?$AAc?$AAt?$AAo?$AAr?$AA?5?$AAs?$AAu?$AAb?$AAs?$AAc?$AAr?$AAi?$AAp?$AAt?$AA?5?$AAo?$AAu?$AAt?$AA?5?$AAo?$AAf?$AA?5?$AAr?$AAa?$AAn?$AAg?$AAe?$AA?$AA@ ; `string'
PUBLIC	??_C@_0CE@OFMIGAMM@Standard?5C?$CL?$CL?5Libraries?5Out?5of?5Ra@ ; `string'
PUBLIC	??_C@_1FG@IBPIFFN@?$AA?$CC?$AAS?$AAt?$AAa?$AAn?$AAd?$AAa?$AAr?$AAd?$AA?5?$AAC?$AA?$CL?$AA?$CL?$AA?5?$AAL?$AAi?$AAb?$AAr?$AAa?$AAr?$AAi?$AAe?$AAs?$AA?5?$AAO?$AAu?$AAt?$AA?5?$AAo?$AAf?$AA?5?$AAR@ ; `string'
PUBLIC	??_C@_1MK@ENAJLIKH@?$AAs?$AAt?$AAd?$AA?3?$AA?3?$AAv?$AAe?$AAc?$AAt?$AAo?$AAr?$AA?$DM?$AAs?$AAt?$AAr?$AAu?$AAc?$AAt?$AA?5?$AAV?$AAk?$AAS?$AAu?$AAr?$AAf?$AAa?$AAc?$AAe?$AAF?$AAo?$AAr?$AAm@ ; `string'
PUBLIC	??_C@_1BO@MEPPHOO@?$AA?$CC?$AAo?$AAu?$AAt?$AA?5?$AAo?$AAf?$AA?5?$AAr?$AAa?$AAn?$AAg?$AAe?$AA?$CC?$AA?$AA@ ; `string'
PUBLIC	??_C@_1NO@NAADMOHL@?$AAs?$AAt?$AAd?$AA?3?$AA?3?$AAv?$AAe?$AAc?$AAt?$AAo?$AAr?$AA?$DM?$AAs?$AAt?$AAr?$AAu?$AAc?$AAt?$AA?5?$AAV?$AAk?$AAQ?$AAu?$AAe?$AAu?$AAe?$AAF?$AAa?$AAm?$AAi?$AAl?$AAy@ ; `string'
PUBLIC	??_C@_1KO@HKKNOION@?$AAs?$AAt?$AAd?$AA?3?$AA?3?$AAv?$AAe?$AAc?$AAt?$AAo?$AAr?$AA?$DM?$AAs?$AAt?$AAr?$AAu?$AAc?$AAt?$AA?5?$AAV?$AAk?$AAI?$AAm?$AAa?$AAg?$AAe?$AA_?$AAT?$AA?5?$AA?$CK?$AA?0?$AAc@ ; `string'
PUBLIC	??_C@_1LO@BKNBDONE@?$AAs?$AAt?$AAd?$AA?3?$AA?3?$AAv?$AAe?$AAc?$AAt?$AAo?$AAr?$AA?$DM?$AAs?$AAt?$AAr?$AAu?$AAc?$AAt?$AA?5?$AAV?$AAk?$AAI?$AAm?$AAa?$AAg?$AAe?$AAV?$AAi?$AAe?$AAw?$AA_?$AAT@ ; `string'
PUBLIC	??_C@_1EE@PIAPABGP@?$AAd?$AA?3?$AA?2?$AAa?$AAp?$AAp?$AAd?$AAa?$AAt?$AAa?$AA?2?$AAv?$AAs?$AAp?$AA?2?$AAv?$AAc?$AA?2?$AAi?$AAn?$AAc?$AAl?$AAu?$AAd?$AAe?$AA?2?$AAx?$AAs?$AAt?$AAr?$AAi?$AAn@ ; `string'
PUBLIC	??_C@_0BM@NMJKDPPO@invalid?5vector?$DMT?$DO?5subscript?$AA@ ; `string'
PUBLIC	??_C@_0BD@OLBABOEK@vector?$DMT?$DO?5too?5long?$AA@ ; `string'
PUBLIC	??_C@_0BI@CFPLBAOH@invalid?5string?5position?$AA@ ; `string'
PUBLIC	??_C@_0BA@JFNIOLAK@string?5too?5long?$AA@	; `string'
PUBLIC	??_C@_1CK@EOPGIILJ@?$AAi?$AAn?$AAv?$AAa?$AAl?$AAi?$AAd?$AA?5?$AAn?$AAu?$AAl?$AAl?$AA?5?$AAp?$AAo?$AAi?$AAn?$AAt?$AAe?$AAr?$AA?$AA@ ; `string'
PUBLIC	??_C@_1CO@DGLIKNHI@?$AAi?$AAn?$AAv?$AAa?$AAl?$AAi?$AAd?$AA?5?$AAi?$AAt?$AAe?$AAr?$AAa?$AAt?$AAo?$AAr?$AA?5?$AAr?$AAa?$AAn?$AAg?$AAe?$AA?$AA@ ; `string'
PUBLIC	??_C@_1EE@BGIDPILO@?$AAd?$AA?3?$AA?2?$AAa?$AAp?$AAp?$AAd?$AAa?$AAt?$AAa?$AA?2?$AAv?$AAs?$AAp?$AA?2?$AAv?$AAc?$AA?2?$AAi?$AAn?$AAc?$AAl?$AAu?$AAd?$AAe?$AA?2?$AAx?$AAm?$AAe?$AAm?$AAo?$AAr@ ; `string'
EXTRN	??2@YAPEAX_K@Z:PROC				; operator new
EXTRN	??3@YAXPEAX@Z:PROC				; operator delete
EXTRN	__imp__invalid_parameter:PROC
EXTRN	memcpy:PROC
EXTRN	__imp_memmove:PROC
EXTRN	strlen:PROC
EXTRN	vkGetPhysicalDeviceQueueFamilyProperties:PROC
EXTRN	vkGetInstanceProcAddr:PROC
EXTRN	vkGetDeviceProcAddr:PROC
EXTRN	vkCreateImageView:PROC
EXTRN	vkDestroyImageView:PROC
EXTRN	vkCmdPipelineBarrier:PROC
EXTRN	vkDestroySurfaceKHR:PROC
EXTRN	vkCreateWin32SurfaceKHR:PROC
EXTRN	__imp_??0_Lockit@std@@QEAA@H@Z:PROC
EXTRN	__imp_??1_Lockit@std@@QEAA@XZ:PROC
EXTRN	__imp__CrtDbgReportW:PROC
EXTRN	__imp_?_Debug_message@std@@YAXPEBG0I@Z:PROC
EXTRN	__imp_?_Xbad_alloc@std@@YAXXZ:PROC
EXTRN	__imp_?_Xlength_error@std@@YAXPEBD@Z:PROC
EXTRN	__imp_?_Xout_of_range@std@@YAXPEBD@Z:PROC
EXTRN	_CxxThrowException:PROC
EXTRN	_RTC_CheckStackVars:PROC
EXTRN	_RTC_InitBase:PROC
EXTRN	_RTC_Shutdown:PROC
EXTRN	__CxxFrameHandler3:PROC
EXTRN	__GSHandlerCheck:PROC
EXTRN	__GSHandlerCheck_EH:PROC
EXTRN	__security_check_cookie:PROC
EXTRN	__security_cookie:QWORD
;	COMDAT pdata
pdata	SEGMENT
$pdata$?__empty_global_delete@@YAXPEAX@Z DD imagerel $LN3
	DD	imagerel $LN3+50
	DD	imagerel $unwind$?__empty_global_delete@@YAXPEAX@Z
pdata	ENDS
;	COMDAT pdata
pdata	SEGMENT
$pdata$?__empty_global_delete@@YAXPEAX_K@Z DD imagerel $LN3
	DD	imagerel $LN3+55
	DD	imagerel $unwind$?__empty_global_delete@@YAXPEAX_K@Z
pdata	ENDS
;	COMDAT pdata
pdata	SEGMENT
$pdata$??2@YAPEAX_KPEAX@Z DD imagerel $LN3
	DD	imagerel $LN3+62
	DD	imagerel $unwind$??2@YAPEAX_KPEAX@Z
pdata	ENDS
;	COMDAT pdata
pdata	SEGMENT
$pdata$?length@?$char_traits@D@std@@SA_KPEBD@Z DD imagerel $LN5
	DD	imagerel $LN5+105
	DD	imagerel $unwind$?length@?$char_traits@D@std@@SA_KPEBD@Z
pdata	ENDS
;	COMDAT pdata
pdata	SEGMENT
$pdata$?copy@?$char_traits@D@std@@SAPEADPEADPEBD_K@Z DD imagerel $LN5
	DD	imagerel $LN5+128
	DD	imagerel $unwind$?copy@?$char_traits@D@std@@SAPEADPEADPEBD_K@Z
pdata	ENDS
;	COMDAT pdata
pdata	SEGMENT
$pdata$?move@?$char_traits@D@std@@SAPEADPEADPEBD_K@Z DD imagerel $LN5
	DD	imagerel $LN5+129
	DD	imagerel $unwind$?move@?$char_traits@D@std@@SAPEADPEADPEBD_K@Z
pdata	ENDS
;	COMDAT pdata
pdata	SEGMENT
$pdata$?assign@?$char_traits@D@std@@SAXAEADAEBD@Z DD imagerel $LN3
	DD	imagerel $LN3+74
	DD	imagerel $unwind$?assign@?$char_traits@D@std@@SAXAEADAEBD@Z
pdata	ENDS
;	COMDAT pdata
pdata	SEGMENT
$pdata$??0_Container_proxy@std@@QEAA@XZ DD imagerel $LN3
	DD	imagerel $LN3+86
	DD	imagerel $unwind$??0_Container_proxy@std@@QEAA@XZ
pdata	ENDS
;	COMDAT pdata
pdata	SEGMENT
$pdata$??0_Container_base12@std@@QEAA@XZ DD imagerel $LN3
	DD	imagerel $LN3+71
	DD	imagerel $unwind$??0_Container_base12@std@@QEAA@XZ
pdata	ENDS
;	COMDAT pdata
pdata	SEGMENT
$pdata$??1_Container_base12@std@@QEAA@XZ DD imagerel $LN3
	DD	imagerel $LN3+76
	DD	imagerel $unwind$??1_Container_base12@std@@QEAA@XZ
pdata	ENDS
;	COMDAT pdata
pdata	SEGMENT
$pdata$?_Getpfirst@_Container_base12@std@@QEBAPEAPEAU_Iterator_base12@2@XZ DD imagerel $LN5
	DD	imagerel $LN5+104
	DD	imagerel $unwind$?_Getpfirst@_Container_base12@std@@QEBAPEAPEAU_Iterator_base12@2@XZ
pdata	ENDS
;	COMDAT pdata
pdata	SEGMENT
$pdata$?_Orphan_all@_Container_base12@std@@QEAAXXZ DD imagerel $LN8
	DD	imagerel $LN8+220
	DD	imagerel $unwind$?_Orphan_all@_Container_base12@std@@QEAAXXZ
pdata	ENDS
;	COMDAT pdata
pdata	SEGMENT
$pdata$?_Swap_all@_Container_base12@std@@QEAAXAEAU12@@Z DD imagerel $LN6
	DD	imagerel $LN6+244
	DD	imagerel $unwind$?_Swap_all@_Container_base12@std@@QEAAXAEAU12@@Z
pdata	ENDS
;	COMDAT pdata
pdata	SEGMENT
$pdata$?_Clrcont@_Iterator_base12@std@@QEAAXXZ DD imagerel $LN3
	DD	imagerel $LN3+64
	DD	imagerel $unwind$?_Clrcont@_Iterator_base12@std@@QEAAXXZ
pdata	ENDS
;	COMDAT pdata
pdata	SEGMENT
$pdata$?_Getpnext@_Iterator_base12@std@@QEAAPEAPEAU12@XZ DD imagerel $LN3
	DD	imagerel $LN3+61
	DD	imagerel $unwind$?_Getpnext@_Iterator_base12@std@@QEAAPEAPEAU12@XZ
pdata	ENDS
;	COMDAT pdata
pdata	SEGMENT
$pdata$?_Allocate@std@@YAPEAX_K0_N@Z DD imagerel $LN14
	DD	imagerel $LN14+579
	DD	imagerel $unwind$?_Allocate@std@@YAPEAX_K0_N@Z
pdata	ENDS
;	COMDAT pdata
pdata	SEGMENT
$pdata$?_Deallocate@std@@YAXPEAX_K1@Z DD imagerel $LN22
	DD	imagerel $LN22+1079
	DD	imagerel $unwind$?_Deallocate@std@@YAXPEAX_K1@Z
pdata	ENDS
;	COMDAT pdata
pdata	SEGMENT
$pdata$??0?$allocator@D@std@@QEAA@XZ DD imagerel $LN3
	DD	imagerel $LN3+57
	DD	imagerel $unwind$??0?$allocator@D@std@@QEAA@XZ
pdata	ENDS
;	COMDAT pdata
pdata	SEGMENT
$pdata$??0?$allocator@D@std@@QEAA@AEBV01@@Z DD imagerel $LN3
	DD	imagerel $LN3+62
	DD	imagerel $unwind$??0?$allocator@D@std@@QEAA@AEBV01@@Z
pdata	ENDS
;	COMDAT pdata
pdata	SEGMENT
$pdata$?deallocate@?$allocator@D@std@@QEAAXPEAD_K@Z DD imagerel $LN3
	DD	imagerel $LN3+87
	DD	imagerel $unwind$?deallocate@?$allocator@D@std@@QEAAXPEAD_K@Z
pdata	ENDS
;	COMDAT pdata
pdata	SEGMENT
$pdata$?allocate@?$allocator@D@std@@QEAAPEAD_K@Z DD imagerel $LN3
	DD	imagerel $LN3+77
	DD	imagerel $unwind$?allocate@?$allocator@D@std@@QEAAPEAD_K@Z
pdata	ENDS
;	COMDAT pdata
pdata	SEGMENT
$pdata$?max_size@?$allocator@D@std@@QEBA_KXZ DD imagerel $LN3
	DD	imagerel $LN3+57
	DD	imagerel $unwind$?max_size@?$allocator@D@std@@QEBA_KXZ
pdata	ENDS
;	COMDAT pdata
pdata	SEGMENT
$pdata$?max_size@?$allocator_traits@V?$allocator@D@std@@@std@@SA_KAEBV?$allocator@D@2@@Z DD imagerel $LN3
	DD	imagerel $LN3+64
	DD	imagerel $unwind$?max_size@?$allocator_traits@V?$allocator@D@std@@@std@@SA_KAEBV?$allocator@D@2@@Z
pdata	ENDS
;	COMDAT pdata
pdata	SEGMENT
$pdata$?select_on_container_copy_construction@?$allocator_traits@V?$allocator@D@std@@@std@@SA?AV?$allocator@D@2@AEBV32@@Z DD imagerel $LN3
	DD	imagerel $LN3+83
	DD	imagerel $unwind$?select_on_container_copy_construction@?$allocator_traits@V?$allocator@D@std@@@std@@SA?AV?$allocator@D@2@AEBV32@@Z
pdata	ENDS
;	COMDAT pdata
pdata	SEGMENT
$pdata$?select_on_container_copy_construction@?$_Wrap_alloc@V?$allocator@D@std@@@std@@QEBA?AU12@U_Nil@2@@Z DD imagerel $LN3
	DD	imagerel $LN3+103
	DD	imagerel $unwind$?select_on_container_copy_construction@?$_Wrap_alloc@V?$allocator@D@std@@@std@@QEBA?AU12@U_Nil@2@@Z
pdata	ENDS
;	COMDAT pdata
pdata	SEGMENT
$pdata$??0?$_Wrap_alloc@V?$allocator@D@std@@@std@@QEAA@AEBV?$allocator@D@1@@Z DD imagerel $LN3
	DD	imagerel $LN3+83
	DD	imagerel $unwind$??0?$_Wrap_alloc@V?$allocator@D@std@@@std@@QEAA@AEBV?$allocator@D@1@@Z
pdata	ENDS
;	COMDAT pdata
pdata	SEGMENT
$pdata$?allocate@?$_Wrap_alloc@V?$allocator@D@std@@@std@@QEAAPEAD_K@Z DD imagerel $LN3
	DD	imagerel $LN3+76
	DD	imagerel $unwind$?allocate@?$_Wrap_alloc@V?$allocator@D@std@@@std@@QEAAPEAD_K@Z
pdata	ENDS
;	COMDAT pdata
pdata	SEGMENT
$pdata$?deallocate@?$_Wrap_alloc@V?$allocator@D@std@@@std@@QEAAXPEAD_K@Z DD imagerel $LN3
	DD	imagerel $LN3+88
	DD	imagerel $unwind$?deallocate@?$_Wrap_alloc@V?$allocator@D@std@@@std@@QEAAXPEAD_K@Z
pdata	ENDS
;	COMDAT pdata
pdata	SEGMENT
$pdata$?max_size@?$_Wrap_alloc@V?$allocator@D@std@@@std@@QEBA_KU_Nil@2@@Z DD imagerel $LN3
	DD	imagerel $LN3+68
	DD	imagerel $unwind$?max_size@?$_Wrap_alloc@V?$allocator@D@std@@@std@@QEBA_KU_Nil@2@@Z
pdata	ENDS
;	COMDAT pdata
pdata	SEGMENT
$pdata$??0?$_String_val@U?$_Simple_types@D@std@@@std@@QEAA@XZ DD imagerel $LN4
	DD	imagerel $LN4+101
	DD	imagerel $unwind$??0?$_String_val@U?$_Simple_types@D@std@@@std@@QEAA@XZ
pdata	ENDS
;	COMDAT pdata
pdata	SEGMENT
$pdata$?_Myptr@?$_String_val@U?$_Simple_types@D@std@@@std@@QEAAPEADXZ DD imagerel $LN5
	DD	imagerel $LN5+116
	DD	imagerel $unwind$?_Myptr@?$_String_val@U?$_Simple_types@D@std@@@std@@QEAAPEADXZ
pdata	ENDS
;	COMDAT pdata
pdata	SEGMENT
$pdata$?_Myptr@?$_String_val@U?$_Simple_types@D@std@@@std@@QEBAPEBDXZ DD imagerel $LN5
	DD	imagerel $LN5+116
	DD	imagerel $unwind$?_Myptr@?$_String_val@U?$_Simple_types@D@std@@@std@@QEBAPEBDXZ
pdata	ENDS
;	COMDAT pdata
pdata	SEGMENT
$pdata$??1?$_String_val@U?$_Simple_types@D@std@@@std@@QEAA@XZ DD imagerel $LN3
	DD	imagerel $LN3+64
	DD	imagerel $unwind$??1?$_String_val@U?$_Simple_types@D@std@@@std@@QEAA@XZ
pdata	ENDS
;	COMDAT pdata
pdata	SEGMENT
$pdata$?_Myptr@?$_String_alloc@U?$_String_base_types@DV?$allocator@D@std@@@std@@@std@@QEAAPEADXZ DD imagerel $LN3
	DD	imagerel $LN3+72
	DD	imagerel $unwind$?_Myptr@?$_String_alloc@U?$_String_base_types@DV?$allocator@D@std@@@std@@@std@@QEAAPEADXZ
pdata	ENDS
;	COMDAT pdata
pdata	SEGMENT
$pdata$?_Myptr@?$_String_alloc@U?$_String_base_types@DV?$allocator@D@std@@@std@@@std@@QEBAPEBDXZ DD imagerel $LN3
	DD	imagerel $LN3+72
	DD	imagerel $unwind$?_Myptr@?$_String_alloc@U?$_String_base_types@DV?$allocator@D@std@@@std@@@std@@QEBAPEBDXZ
pdata	ENDS
;	COMDAT pdata
pdata	SEGMENT
$pdata$??0?$_String_alloc@U?$_String_base_types@DV?$allocator@D@std@@@std@@@std@@QEAA@AEBV?$allocator@D@1@@Z DD imagerel $LN4
	DD	imagerel $LN4+118
	DD	imagerel $unwind$??0?$_String_alloc@U?$_String_base_types@DV?$allocator@D@std@@@std@@@std@@QEAA@AEBV?$allocator@D@1@@Z
pdata	ENDS
;	COMDAT pdata
pdata	SEGMENT
$pdata$?dtor$0@?0???0?$_String_alloc@U?$_String_base_types@DV?$allocator@D@std@@@std@@@std@@QEAA@AEBV?$allocator@D@1@@Z@4HA DD imagerel ?dtor$0@?0???0?$_String_alloc@U?$_String_base_types@DV?$allocator@D@std@@@std@@@std@@QEAA@AEBV?$allocator@D@1@@Z@4HA
	DD	imagerel ?dtor$0@?0???0?$_String_alloc@U?$_String_base_types@DV?$allocator@D@std@@@std@@@std@@QEAA@AEBV?$allocator@D@1@@Z@4HA+39
	DD	imagerel $unwind$?dtor$0@?0???0?$_String_alloc@U?$_String_base_types@DV?$allocator@D@std@@@std@@@std@@QEAA@AEBV?$allocator@D@1@@Z@4HA
pdata	ENDS
;	COMDAT pdata
pdata	SEGMENT
$pdata$??0?$_String_alloc@U?$_String_base_types@DV?$allocator@D@std@@@std@@@std@@QEAA@$$QEAV?$allocator@D@1@@Z DD imagerel $LN4
	DD	imagerel $LN4+123
	DD	imagerel $unwind$??0?$_String_alloc@U?$_String_base_types@DV?$allocator@D@std@@@std@@@std@@QEAA@$$QEAV?$allocator@D@1@@Z
pdata	ENDS
;	COMDAT pdata
pdata	SEGMENT
$pdata$?dtor$0@?0???0?$_String_alloc@U?$_String_base_types@DV?$allocator@D@std@@@std@@@std@@QEAA@$$QEAV?$allocator@D@1@@Z@4HA DD imagerel ?dtor$0@?0???0?$_String_alloc@U?$_String_base_types@DV?$allocator@D@std@@@std@@@std@@QEAA@$$QEAV?$allocator@D@1@@Z@4HA
	DD	imagerel ?dtor$0@?0???0?$_String_alloc@U?$_String_base_types@DV?$allocator@D@std@@@std@@@std@@QEAA@$$QEAV?$allocator@D@1@@Z@4HA+39
	DD	imagerel $unwind$?dtor$0@?0???0?$_String_alloc@U?$_String_base_types@DV?$allocator@D@std@@@std@@@std@@QEAA@$$QEAV?$allocator@D@1@@Z@4HA
pdata	ENDS
;	COMDAT pdata
pdata	SEGMENT
$pdata$??1?$_String_alloc@U?$_String_base_types@DV?$allocator@D@std@@@std@@@std@@QEAA@XZ DD imagerel $LN3
	DD	imagerel $LN3+92
	DD	imagerel $unwind$??1?$_String_alloc@U?$_String_base_types@DV?$allocator@D@std@@@std@@@std@@QEAA@XZ
pdata	ENDS
;	COMDAT pdata
pdata	SEGMENT
$pdata$?_Alloc_proxy@?$_String_alloc@U?$_String_base_types@DV?$allocator@D@std@@@std@@@std@@QEAAXXZ DD imagerel $LN3
	DD	imagerel $LN3+264
	DD	imagerel $unwind$?_Alloc_proxy@?$_String_alloc@U?$_String_base_types@DV?$allocator@D@std@@@std@@@std@@QEAAXXZ
pdata	ENDS
;	COMDAT pdata
pdata	SEGMENT
$pdata$?_Free_proxy@?$_String_alloc@U?$_String_base_types@DV?$allocator@D@std@@@std@@@std@@QEAAXXZ DD imagerel $LN3
	DD	imagerel $LN3+209
	DD	imagerel $unwind$?_Free_proxy@?$_String_alloc@U?$_String_base_types@DV?$allocator@D@std@@@std@@@std@@QEAAXXZ
pdata	ENDS
;	COMDAT pdata
pdata	SEGMENT
$pdata$?_Myproxy@?$_String_alloc@U?$_String_base_types@DV?$allocator@D@std@@@std@@@std@@QEAAAEAPEAU_Container_proxy@2@XZ DD imagerel $LN3
	DD	imagerel $LN3+64
	DD	imagerel $unwind$?_Myproxy@?$_String_alloc@U?$_String_base_types@DV?$allocator@D@std@@@std@@@std@@QEAAAEAPEAU_Container_proxy@2@XZ
pdata	ENDS
;	COMDAT pdata
pdata	SEGMENT
$pdata$?_Orphan_all@?$_String_alloc@U?$_String_base_types@DV?$allocator@D@std@@@std@@@std@@QEAAXXZ DD imagerel $LN3
	DD	imagerel $LN3+72
	DD	imagerel $unwind$?_Orphan_all@?$_String_alloc@U?$_String_base_types@DV?$allocator@D@std@@@std@@@std@@QEAAXXZ
pdata	ENDS
;	COMDAT pdata
pdata	SEGMENT
$pdata$?_Getal@?$_String_alloc@U?$_String_base_types@DV?$allocator@D@std@@@std@@@std@@QEAAAEAU?$_Wrap_alloc@V?$allocator@D@std@@@2@XZ DD imagerel $LN3
	DD	imagerel $LN3+67
	DD	imagerel $unwind$?_Getal@?$_String_alloc@U?$_String_base_types@DV?$allocator@D@std@@@std@@@std@@QEAAAEAU?$_Wrap_alloc@V?$allocator@D@std@@@2@XZ
pdata	ENDS
;	COMDAT pdata
pdata	SEGMENT
$pdata$?_Getal@?$_String_alloc@U?$_String_base_types@DV?$allocator@D@std@@@std@@@std@@QEBAAEBU?$_Wrap_alloc@V?$allocator@D@std@@@2@XZ DD imagerel $LN3
	DD	imagerel $LN3+67
	DD	imagerel $unwind$?_Getal@?$_String_alloc@U?$_String_base_types@DV?$allocator@D@std@@@std@@@std@@QEBAAEBU?$_Wrap_alloc@V?$allocator@D@std@@@2@XZ
pdata	ENDS
;	COMDAT pdata
pdata	SEGMENT
$pdata$?_Get_data@?$_String_alloc@U?$_String_base_types@DV?$allocator@D@std@@@std@@@std@@QEAAAEAV?$_String_val@U?$_Simple_types@D@std@@@2@XZ DD imagerel $LN3
	DD	imagerel $LN3+67
	DD	imagerel $unwind$?_Get_data@?$_String_alloc@U?$_String_base_types@DV?$allocator@D@std@@@std@@@std@@QEAAAEAV?$_String_val@U?$_Simple_types@D@std@@@2@XZ
pdata	ENDS
;	COMDAT pdata
pdata	SEGMENT
$pdata$?_Get_data@?$_String_alloc@U?$_String_base_types@DV?$allocator@D@std@@@std@@@std@@QEBAAEBV?$_String_val@U?$_Simple_types@D@std@@@2@XZ DD imagerel $LN3
	DD	imagerel $LN3+67
	DD	imagerel $unwind$?_Get_data@?$_String_alloc@U?$_String_base_types@DV?$allocator@D@std@@@std@@@std@@QEBAAEBV?$_String_val@U?$_Simple_types@D@std@@@2@XZ
pdata	ENDS
;	COMDAT pdata
pdata	SEGMENT
$pdata$?_Bx@?$_String_alloc@U?$_String_base_types@DV?$allocator@D@std@@@std@@@std@@QEAAAEAT_Bxty@?$_String_val@U?$_Simple_types@D@std@@@2@XZ DD imagerel $LN3
	DD	imagerel $LN3+68
	DD	imagerel $unwind$?_Bx@?$_String_alloc@U?$_String_base_types@DV?$allocator@D@std@@@std@@@std@@QEAAAEAT_Bxty@?$_String_val@U?$_Simple_types@D@std@@@2@XZ
pdata	ENDS
;	COMDAT pdata
pdata	SEGMENT
$pdata$?_Mysize@?$_String_alloc@U?$_String_base_types@DV?$allocator@D@std@@@std@@@std@@QEAAAEA_KXZ DD imagerel $LN3
	DD	imagerel $LN3+68
	DD	imagerel $unwind$?_Mysize@?$_String_alloc@U?$_String_base_types@DV?$allocator@D@std@@@std@@@std@@QEAAAEA_KXZ
pdata	ENDS
;	COMDAT pdata
pdata	SEGMENT
$pdata$?_Mysize@?$_String_alloc@U?$_String_base_types@DV?$allocator@D@std@@@std@@@std@@QEBAAEB_KXZ DD imagerel $LN3
	DD	imagerel $LN3+68
	DD	imagerel $unwind$?_Mysize@?$_String_alloc@U?$_String_base_types@DV?$allocator@D@std@@@std@@@std@@QEBAAEB_KXZ
pdata	ENDS
;	COMDAT pdata
pdata	SEGMENT
$pdata$?_Myres@?$_String_alloc@U?$_String_base_types@DV?$allocator@D@std@@@std@@@std@@QEAAAEA_KXZ DD imagerel $LN3
	DD	imagerel $LN3+68
	DD	imagerel $unwind$?_Myres@?$_String_alloc@U?$_String_base_types@DV?$allocator@D@std@@@std@@@std@@QEAAAEA_KXZ
pdata	ENDS
;	COMDAT pdata
pdata	SEGMENT
$pdata$?_Get_first@?$_Compressed_pair@U?$_Wrap_alloc@V?$allocator@D@std@@@std@@V?$_String_val@U?$_Simple_types@D@std@@@2@$00@std@@QEAAAEAU?$_Wrap_alloc@V?$allocator@D@std@@@2@XZ DD imagerel $LN3
	DD	imagerel $LN3+57
	DD	imagerel $unwind$?_Get_first@?$_Compressed_pair@U?$_Wrap_alloc@V?$allocator@D@std@@@std@@V?$_String_val@U?$_Simple_types@D@std@@@2@$00@std@@QEAAAEAU?$_Wrap_alloc@V?$allocator@D@std@@@2@XZ
pdata	ENDS
;	COMDAT pdata
pdata	SEGMENT
$pdata$?_Get_first@?$_Compressed_pair@U?$_Wrap_alloc@V?$allocator@D@std@@@std@@V?$_String_val@U?$_Simple_types@D@std@@@2@$00@std@@QEBAAEBU?$_Wrap_alloc@V?$allocator@D@std@@@2@XZ DD imagerel $LN3
	DD	imagerel $LN3+57
	DD	imagerel $unwind$?_Get_first@?$_Compressed_pair@U?$_Wrap_alloc@V?$allocator@D@std@@@std@@V?$_String_val@U?$_Simple_types@D@std@@@2@$00@std@@QEBAAEBU?$_Wrap_alloc@V?$allocator@D@std@@@2@XZ
pdata	ENDS
;	COMDAT pdata
pdata	SEGMENT
$pdata$?_Get_second@?$_Compressed_pair@U?$_Wrap_alloc@V?$allocator@D@std@@@std@@V?$_String_val@U?$_Simple_types@D@std@@@2@$00@std@@QEAAAEAV?$_String_val@U?$_Simple_types@D@std@@@2@XZ DD imagerel $LN3
	DD	imagerel $LN3+57
	DD	imagerel $unwind$?_Get_second@?$_Compressed_pair@U?$_Wrap_alloc@V?$allocator@D@std@@@std@@V?$_String_val@U?$_Simple_types@D@std@@@2@$00@std@@QEAAAEAV?$_String_val@U?$_Simple_types@D@std@@@2@XZ
pdata	ENDS
;	COMDAT pdata
pdata	SEGMENT
$pdata$?_Get_second@?$_Compressed_pair@U?$_Wrap_alloc@V?$allocator@D@std@@@std@@V?$_String_val@U?$_Simple_types@D@std@@@2@$00@std@@QEBAAEBV?$_String_val@U?$_Simple_types@D@std@@@2@XZ DD imagerel $LN3
	DD	imagerel $LN3+57
	DD	imagerel $unwind$?_Get_second@?$_Compressed_pair@U?$_Wrap_alloc@V?$allocator@D@std@@@std@@V?$_String_val@U?$_Simple_types@D@std@@@2@$00@std@@QEBAAEBV?$_String_val@U?$_Simple_types@D@std@@@2@XZ
pdata	ENDS
;	COMDAT pdata
pdata	SEGMENT
$pdata$??1?$_Compressed_pair@U?$_Wrap_alloc@V?$allocator@D@std@@@std@@V?$_String_val@U?$_Simple_types@D@std@@@2@$00@std@@QEAA@XZ DD imagerel $LN3
	DD	imagerel $LN3+67
	DD	imagerel $unwind$??1?$_Compressed_pair@U?$_Wrap_alloc@V?$allocator@D@std@@@std@@V?$_String_val@U?$_Simple_types@D@std@@@2@$00@std@@QEAA@XZ
pdata	ENDS
;	COMDAT pdata
pdata	SEGMENT
$pdata$??0?$basic_string@DU?$char_traits@D@std@@V?$allocator@D@2@@std@@QEAA@AEBV01@@Z DD imagerel $LN4
	DD	imagerel $LN4+173
	DD	imagerel $unwind$??0?$basic_string@DU?$char_traits@D@std@@V?$allocator@D@2@@std@@QEAA@AEBV01@@Z
pdata	ENDS
;	COMDAT pdata
pdata	SEGMENT
$pdata$?dtor$0@?0???0?$basic_string@DU?$char_traits@D@std@@V?$allocator@D@2@@std@@QEAA@AEBV01@@Z@4HA DD imagerel ?dtor$0@?0???0?$basic_string@DU?$char_traits@D@std@@V?$allocator@D@2@@std@@QEAA@AEBV01@@Z@4HA
	DD	imagerel ?dtor$0@?0???0?$basic_string@DU?$char_traits@D@std@@V?$allocator@D@2@@std@@QEAA@AEBV01@@Z@4HA+39
	DD	imagerel $unwind$?dtor$0@?0???0?$basic_string@DU?$char_traits@D@std@@V?$allocator@D@2@@std@@QEAA@AEBV01@@Z@4HA
pdata	ENDS
;	COMDAT pdata
pdata	SEGMENT
$pdata$??0?$basic_string@DU?$char_traits@D@std@@V?$allocator@D@2@@std@@QEAA@PEBD@Z DD imagerel $LN4
	DD	imagerel $LN4+140
	DD	imagerel $unwind$??0?$basic_string@DU?$char_traits@D@std@@V?$allocator@D@2@@std@@QEAA@PEBD@Z
pdata	ENDS
;	COMDAT pdata
pdata	SEGMENT
$pdata$?dtor$0@?0???0?$basic_string@DU?$char_traits@D@std@@V?$allocator@D@2@@std@@QEAA@PEBD@Z@4HA DD imagerel ?dtor$0@?0???0?$basic_string@DU?$char_traits@D@std@@V?$allocator@D@2@@std@@QEAA@PEBD@Z@4HA
	DD	imagerel ?dtor$0@?0???0?$basic_string@DU?$char_traits@D@std@@V?$allocator@D@2@@std@@QEAA@PEBD@Z@4HA+39
	DD	imagerel $unwind$?dtor$0@?0???0?$basic_string@DU?$char_traits@D@std@@V?$allocator@D@2@@std@@QEAA@PEBD@Z@4HA
pdata	ENDS
;	COMDAT pdata
pdata	SEGMENT
$pdata$??1?$basic_string@DU?$char_traits@D@std@@V?$allocator@D@2@@std@@QEAA@XZ DD imagerel $LN3
	DD	imagerel $LN3+94
	DD	imagerel $unwind$??1?$basic_string@DU?$char_traits@D@std@@V?$allocator@D@2@@std@@QEAA@XZ
pdata	ENDS
;	COMDAT pdata
pdata	SEGMENT
$pdata$?assign@?$basic_string@DU?$char_traits@D@std@@V?$allocator@D@2@@std@@QEAAAEAV12@AEBV12@_K1@Z DD imagerel $LN8
	DD	imagerel $LN8+327
	DD	imagerel $unwind$?assign@?$basic_string@DU?$char_traits@D@std@@V?$allocator@D@2@@std@@QEAAAEAV12@AEBV12@_K1@Z
pdata	ENDS
;	COMDAT pdata
pdata	SEGMENT
$pdata$?assign@?$basic_string@DU?$char_traits@D@std@@V?$allocator@D@2@@std@@QEAAAEAV12@PEBD_K@Z DD imagerel $LN7
	DD	imagerel $LN7+291
	DD	imagerel $unwind$?assign@?$basic_string@DU?$char_traits@D@std@@V?$allocator@D@2@@std@@QEAAAEAV12@PEBD_K@Z
pdata	ENDS
;	COMDAT pdata
pdata	SEGMENT
$pdata$?assign@?$basic_string@DU?$char_traits@D@std@@V?$allocator@D@2@@std@@QEAAAEAV12@PEBD@Z DD imagerel $LN3
	DD	imagerel $LN3+116
	DD	imagerel $unwind$?assign@?$basic_string@DU?$char_traits@D@std@@V?$allocator@D@2@@std@@QEAAAEAV12@PEBD@Z
pdata	ENDS
;	COMDAT pdata
pdata	SEGMENT
$pdata$?erase@?$basic_string@DU?$char_traits@D@std@@V?$allocator@D@2@@std@@QEAAAEAV12@_K@Z DD imagerel $LN4
	DD	imagerel $LN4+119
	DD	imagerel $unwind$?erase@?$basic_string@DU?$char_traits@D@std@@V?$allocator@D@2@@std@@QEAAAEAV12@_K@Z
pdata	ENDS
;	COMDAT pdata
pdata	SEGMENT
$pdata$?erase@?$basic_string@DU?$char_traits@D@std@@V?$allocator@D@2@@std@@QEAAAEAV12@_K0@Z DD imagerel $LN7
	DD	imagerel $LN7+287
	DD	imagerel $unwind$?erase@?$basic_string@DU?$char_traits@D@std@@V?$allocator@D@2@@std@@QEAAAEAV12@_K0@Z
pdata	ENDS
;	COMDAT pdata
pdata	SEGMENT
$pdata$?size@?$basic_string@DU?$char_traits@D@std@@V?$allocator@D@2@@std@@QEBA_KXZ DD imagerel $LN3
	DD	imagerel $LN3+67
	DD	imagerel $unwind$?size@?$basic_string@DU?$char_traits@D@std@@V?$allocator@D@2@@std@@QEBA_KXZ
pdata	ENDS
;	COMDAT pdata
pdata	SEGMENT
$pdata$?max_size@?$basic_string@DU?$char_traits@D@std@@V?$allocator@D@2@@std@@QEBA_KXZ DD imagerel $LN5
	DD	imagerel $LN5+124
	DD	imagerel $unwind$?max_size@?$basic_string@DU?$char_traits@D@std@@V?$allocator@D@2@@std@@QEBA_KXZ
pdata	ENDS
;	COMDAT pdata
pdata	SEGMENT
$pdata$?_Copy@?$basic_string@DU?$char_traits@D@std@@V?$allocator@D@2@@std@@QEAAX_K0@Z DD imagerel $LN23
	DD	imagerel $LN23+610
	DD	imagerel $unwind$?_Copy@?$basic_string@DU?$char_traits@D@std@@V?$allocator@D@2@@std@@QEAAX_K0@Z
pdata	ENDS
;	COMDAT pdata
pdata	SEGMENT
$pdata$?catch$1@?0??_Copy@?$basic_string@DU?$char_traits@D@std@@V?$allocator@D@2@@std@@QEAAX_K0@Z@4HA DD imagerel ?catch$1@?0??_Copy@?$basic_string@DU?$char_traits@D@std@@V?$allocator@D@2@@std@@QEAAX_K0@Z@4HA
	DD	imagerel ?catch$1@?0??_Copy@?$basic_string@DU?$char_traits@D@std@@V?$allocator@D@2@@std@@QEAAX_K0@Z@4HA+110
	DD	imagerel $unwind$?catch$1@?0??_Copy@?$basic_string@DU?$char_traits@D@std@@V?$allocator@D@2@@std@@QEAAX_K0@Z@4HA
pdata	ENDS
;	COMDAT pdata
pdata	SEGMENT
$pdata$?catch$0@?0??_Copy@?$basic_string@DU?$char_traits@D@std@@V?$allocator@D@2@@std@@QEAAX_K0@Z@4HA DD imagerel ?catch$0@?0??_Copy@?$basic_string@DU?$char_traits@D@std@@V?$allocator@D@2@@std@@QEAAX_K0@Z@4HA
	DD	imagerel ?catch$0@?0??_Copy@?$basic_string@DU?$char_traits@D@std@@V?$allocator@D@2@@std@@QEAAX_K0@Z@4HA+62
	DD	imagerel $unwind$?catch$0@?0??_Copy@?$basic_string@DU?$char_traits@D@std@@V?$allocator@D@2@@std@@QEAAX_K0@Z@4HA
pdata	ENDS
;	COMDAT pdata
pdata	SEGMENT
$pdata$?_Eos@?$basic_string@DU?$char_traits@D@std@@V?$allocator@D@2@@std@@QEAAX_K@Z DD imagerel $LN3
	DD	imagerel $LN3+123
	DD	imagerel $unwind$?_Eos@?$basic_string@DU?$char_traits@D@std@@V?$allocator@D@2@@std@@QEAAX_K@Z
pdata	ENDS
;	COMDAT pdata
pdata	SEGMENT
$pdata$?_Grow@?$basic_string@DU?$char_traits@D@std@@V?$allocator@D@2@@std@@QEAA_N_K_N@Z DD imagerel $LN13
	DD	imagerel $LN13+327
	DD	imagerel $unwind$?_Grow@?$basic_string@DU?$char_traits@D@std@@V?$allocator@D@2@@std@@QEAA_N_K_N@Z
pdata	ENDS
;	COMDAT pdata
pdata	SEGMENT
$pdata$?_Inside@?$basic_string@DU?$char_traits@D@std@@V?$allocator@D@2@@std@@QEAA_NPEBD@Z DD imagerel $LN6
	DD	imagerel $LN6+149
	DD	imagerel $unwind$?_Inside@?$basic_string@DU?$char_traits@D@std@@V?$allocator@D@2@@std@@QEAA_NPEBD@Z
pdata	ENDS
;	COMDAT pdata
pdata	SEGMENT
$pdata$?_Tidy@?$basic_string@DU?$char_traits@D@std@@V?$allocator@D@2@@std@@QEAAX_N_K@Z DD imagerel $LN7
	DD	imagerel $LN7+327
	DD	imagerel $unwind$?_Tidy@?$basic_string@DU?$char_traits@D@std@@V?$allocator@D@2@@std@@QEAAX_N_K@Z
pdata	ENDS
;	COMDAT pdata
pdata	SEGMENT
$pdata$?_Xlen@?$basic_string@DU?$char_traits@D@std@@V?$allocator@D@2@@std@@QEBAXXZ DD imagerel $LN3
	DD	imagerel $LN3+65
	DD	imagerel $unwind$?_Xlen@?$basic_string@DU?$char_traits@D@std@@V?$allocator@D@2@@std@@QEBAXXZ
pdata	ENDS
;	COMDAT pdata
pdata	SEGMENT
$pdata$?_Xran@?$basic_string@DU?$char_traits@D@std@@V?$allocator@D@2@@std@@QEBAXXZ DD imagerel $LN3
	DD	imagerel $LN3+65
	DD	imagerel $unwind$?_Xran@?$basic_string@DU?$char_traits@D@std@@V?$allocator@D@2@@std@@QEBAXXZ
pdata	ENDS
;	COMDAT pdata
pdata	SEGMENT
$pdata$?Assert@Cy@@YAX_NV?$basic_string@DU?$char_traits@D@std@@V?$allocator@D@2@@std@@@Z DD imagerel $LN4
	DD	imagerel $LN4+68
	DD	imagerel $unwind$?Assert@Cy@@YAX_NV?$basic_string@DU?$char_traits@D@std@@V?$allocator@D@2@@std@@@Z
pdata	ENDS
;	COMDAT pdata
pdata	SEGMENT
$pdata$?Assert@Cy@@YAXW4VkResult@@V?$basic_string@DU?$char_traits@D@std@@V?$allocator@D@2@@std@@@Z DD imagerel $LN7
	DD	imagerel $LN7+163
	DD	imagerel $unwind$?Assert@Cy@@YAXW4VkResult@@V?$basic_string@DU?$char_traits@D@std@@V?$allocator@D@2@@std@@@Z
pdata	ENDS
;	COMDAT pdata
pdata	SEGMENT
$pdata$?dtor$0@?0??Assert@Cy@@YAXW4VkResult@@V?$basic_string@DU?$char_traits@D@std@@V?$allocator@D@2@@std@@@Z@4HA DD imagerel ?dtor$0@?0??Assert@Cy@@YAXW4VkResult@@V?$basic_string@DU?$char_traits@D@std@@V?$allocator@D@2@@std@@@Z@4HA
	DD	imagerel ?dtor$0@?0??Assert@Cy@@YAXW4VkResult@@V?$basic_string@DU?$char_traits@D@std@@V?$allocator@D@2@@std@@@Z@4HA+39
	DD	imagerel $unwind$?dtor$0@?0??Assert@Cy@@YAXW4VkResult@@V?$basic_string@DU?$char_traits@D@std@@V?$allocator@D@2@@std@@@Z@4HA
pdata	ENDS
;	COMDAT pdata
pdata	SEGMENT
$pdata$?SetImageLayout@Cy@@YAXPEAUVkCommandBuffer_T@@PEAUVkImage_T@@IW4VkImageLayout@@2@Z DD imagerel ?SetImageLayout@Cy@@YAXPEAUVkCommandBuffer_T@@PEAUVkImage_T@@IW4VkImageLayout@@2@Z
	DD	imagerel ?SetImageLayout@Cy@@YAXPEAUVkCommandBuffer_T@@PEAUVkImage_T@@IW4VkImageLayout@@2@Z+536
	DD	imagerel $unwind$?SetImageLayout@Cy@@YAXPEAUVkCommandBuffer_T@@PEAUVkImage_T@@IW4VkImageLayout@@2@Z
pdata	ENDS
;	COMDAT pdata
pdata	SEGMENT
$pdata$?deallocate@?$allocator@PEAUVkImage_T@@@std@@QEAAXPEAPEAUVkImage_T@@_K@Z DD imagerel $LN3
	DD	imagerel $LN3+87
	DD	imagerel $unwind$?deallocate@?$allocator@PEAUVkImage_T@@@std@@QEAAXPEAPEAUVkImage_T@@_K@Z
pdata	ENDS
;	COMDAT pdata
pdata	SEGMENT
$pdata$?allocate@?$allocator@PEAUVkImage_T@@@std@@QEAAPEAPEAUVkImage_T@@_K@Z DD imagerel $LN3
	DD	imagerel $LN3+77
	DD	imagerel $unwind$?allocate@?$allocator@PEAUVkImage_T@@@std@@QEAAPEAPEAUVkImage_T@@_K@Z
pdata	ENDS
;	COMDAT pdata
pdata	SEGMENT
$pdata$?max_size@?$allocator@PEAUVkImage_T@@@std@@QEBA_KXZ DD imagerel $LN3
	DD	imagerel $LN3+60
	DD	imagerel $unwind$?max_size@?$allocator@PEAUVkImage_T@@@std@@QEBA_KXZ
pdata	ENDS
;	COMDAT pdata
pdata	SEGMENT
$pdata$?max_size@?$allocator_traits@V?$allocator@PEAUVkImage_T@@@std@@@std@@SA_KAEBV?$allocator@PEAUVkImage_T@@@2@@Z DD imagerel $LN3
	DD	imagerel $LN3+64
	DD	imagerel $unwind$?max_size@?$allocator_traits@V?$allocator@PEAUVkImage_T@@@std@@@std@@SA_KAEBV?$allocator@PEAUVkImage_T@@@2@@Z
pdata	ENDS
;	COMDAT pdata
pdata	SEGMENT
$pdata$?allocate@?$_Wrap_alloc@V?$allocator@PEAUVkImage_T@@@std@@@std@@QEAAPEAPEAUVkImage_T@@_K@Z DD imagerel $LN3
	DD	imagerel $LN3+76
	DD	imagerel $unwind$?allocate@?$_Wrap_alloc@V?$allocator@PEAUVkImage_T@@@std@@@std@@QEAAPEAPEAUVkImage_T@@_K@Z
pdata	ENDS
;	COMDAT pdata
pdata	SEGMENT
$pdata$?deallocate@?$_Wrap_alloc@V?$allocator@PEAUVkImage_T@@@std@@@std@@QEAAXPEAPEAUVkImage_T@@_K@Z DD imagerel $LN3
	DD	imagerel $LN3+88
	DD	imagerel $unwind$?deallocate@?$_Wrap_alloc@V?$allocator@PEAUVkImage_T@@@std@@@std@@QEAAXPEAPEAUVkImage_T@@_K@Z
pdata	ENDS
;	COMDAT pdata
pdata	SEGMENT
$pdata$?max_size@?$_Wrap_alloc@V?$allocator@PEAUVkImage_T@@@std@@@std@@QEBA_KU_Nil@2@@Z DD imagerel $LN3
	DD	imagerel $LN3+68
	DD	imagerel $unwind$?max_size@?$_Wrap_alloc@V?$allocator@PEAUVkImage_T@@@std@@@std@@QEBA_KU_Nil@2@@Z
pdata	ENDS
;	COMDAT pdata
pdata	SEGMENT
$pdata$?_Getpfirst@?$_Vector_alloc@U?$_Vec_base_types@PEAUVkImage_T@@V?$allocator@PEAUVkImage_T@@@std@@@std@@@std@@QEBAPEAPEAU_Iterator_base12@2@XZ DD imagerel $LN3
	DD	imagerel $LN3+72
	DD	imagerel $unwind$?_Getpfirst@?$_Vector_alloc@U?$_Vec_base_types@PEAUVkImage_T@@V?$allocator@PEAUVkImage_T@@@std@@@std@@@std@@QEBAPEAPEAU_Iterator_base12@2@XZ
pdata	ENDS
;	COMDAT pdata
pdata	SEGMENT
$pdata$?_Orphan_all@?$_Vector_alloc@U?$_Vec_base_types@PEAUVkImage_T@@V?$allocator@PEAUVkImage_T@@@std@@@std@@@std@@QEAAXXZ DD imagerel $LN3
	DD	imagerel $LN3+72
	DD	imagerel $unwind$?_Orphan_all@?$_Vector_alloc@U?$_Vec_base_types@PEAUVkImage_T@@V?$allocator@PEAUVkImage_T@@@std@@@std@@@std@@QEAAXXZ
pdata	ENDS
;	COMDAT pdata
pdata	SEGMENT
$pdata$?_Getal@?$_Vector_alloc@U?$_Vec_base_types@PEAUVkImage_T@@V?$allocator@PEAUVkImage_T@@@std@@@std@@@std@@QEAAAEAU?$_Wrap_alloc@V?$allocator@PEAUVkImage_T@@@std@@@2@XZ DD imagerel $LN3
	DD	imagerel $LN3+67
	DD	imagerel $unwind$?_Getal@?$_Vector_alloc@U?$_Vec_base_types@PEAUVkImage_T@@V?$allocator@PEAUVkImage_T@@@std@@@std@@@std@@QEAAAEAU?$_Wrap_alloc@V?$allocator@PEAUVkImage_T@@@std@@@2@XZ
pdata	ENDS
;	COMDAT pdata
pdata	SEGMENT
$pdata$?_Getal@?$_Vector_alloc@U?$_Vec_base_types@PEAUVkImage_T@@V?$allocator@PEAUVkImage_T@@@std@@@std@@@std@@QEBAAEBU?$_Wrap_alloc@V?$allocator@PEAUVkImage_T@@@std@@@2@XZ DD imagerel $LN3
	DD	imagerel $LN3+67
	DD	imagerel $unwind$?_Getal@?$_Vector_alloc@U?$_Vec_base_types@PEAUVkImage_T@@V?$allocator@PEAUVkImage_T@@@std@@@std@@@std@@QEBAAEBU?$_Wrap_alloc@V?$allocator@PEAUVkImage_T@@@std@@@2@XZ
pdata	ENDS
;	COMDAT pdata
pdata	SEGMENT
$pdata$?_Get_data@?$_Vector_alloc@U?$_Vec_base_types@PEAUVkImage_T@@V?$allocator@PEAUVkImage_T@@@std@@@std@@@std@@QEAAAEAV?$_Vector_val@U?$_Simple_types@PEAUVkImage_T@@@std@@@2@XZ DD imagerel $LN3
	DD	imagerel $LN3+67
	DD	imagerel $unwind$?_Get_data@?$_Vector_alloc@U?$_Vec_base_types@PEAUVkImage_T@@V?$allocator@PEAUVkImage_T@@@std@@@std@@@std@@QEAAAEAV?$_Vector_val@U?$_Simple_types@PEAUVkImage_T@@@std@@@2@XZ
pdata	ENDS
;	COMDAT pdata
pdata	SEGMENT
$pdata$?_Get_data@?$_Vector_alloc@U?$_Vec_base_types@PEAUVkImage_T@@V?$allocator@PEAUVkImage_T@@@std@@@std@@@std@@QEBAAEBV?$_Vector_val@U?$_Simple_types@PEAUVkImage_T@@@std@@@2@XZ DD imagerel $LN3
	DD	imagerel $LN3+67
	DD	imagerel $unwind$?_Get_data@?$_Vector_alloc@U?$_Vec_base_types@PEAUVkImage_T@@V?$allocator@PEAUVkImage_T@@@std@@@std@@@std@@QEBAAEBV?$_Vector_val@U?$_Simple_types@PEAUVkImage_T@@@std@@@2@XZ
pdata	ENDS
;	COMDAT pdata
pdata	SEGMENT
$pdata$?_Myfirst@?$_Vector_alloc@U?$_Vec_base_types@PEAUVkImage_T@@V?$allocator@PEAUVkImage_T@@@std@@@std@@@std@@QEAAAEAPEAPEAUVkImage_T@@XZ DD imagerel $LN3
	DD	imagerel $LN3+68
	DD	imagerel $unwind$?_Myfirst@?$_Vector_alloc@U?$_Vec_base_types@PEAUVkImage_T@@V?$allocator@PEAUVkImage_T@@@std@@@std@@@std@@QEAAAEAPEAPEAUVkImage_T@@XZ
pdata	ENDS
;	COMDAT pdata
pdata	SEGMENT
$pdata$?_Myfirst@?$_Vector_alloc@U?$_Vec_base_types@PEAUVkImage_T@@V?$allocator@PEAUVkImage_T@@@std@@@std@@@std@@QEBAAEBQEAPEAUVkImage_T@@XZ DD imagerel $LN3
	DD	imagerel $LN3+68
	DD	imagerel $unwind$?_Myfirst@?$_Vector_alloc@U?$_Vec_base_types@PEAUVkImage_T@@V?$allocator@PEAUVkImage_T@@@std@@@std@@@std@@QEBAAEBQEAPEAUVkImage_T@@XZ
pdata	ENDS
;	COMDAT pdata
pdata	SEGMENT
$pdata$?_Mylast@?$_Vector_alloc@U?$_Vec_base_types@PEAUVkImage_T@@V?$allocator@PEAUVkImage_T@@@std@@@std@@@std@@QEAAAEAPEAPEAUVkImage_T@@XZ DD imagerel $LN3
	DD	imagerel $LN3+68
	DD	imagerel $unwind$?_Mylast@?$_Vector_alloc@U?$_Vec_base_types@PEAUVkImage_T@@V?$allocator@PEAUVkImage_T@@@std@@@std@@@std@@QEAAAEAPEAPEAUVkImage_T@@XZ
pdata	ENDS
;	COMDAT pdata
pdata	SEGMENT
$pdata$?_Mylast@?$_Vector_alloc@U?$_Vec_base_types@PEAUVkImage_T@@V?$allocator@PEAUVkImage_T@@@std@@@std@@@std@@QEBAAEBQEAPEAUVkImage_T@@XZ DD imagerel $LN3
	DD	imagerel $LN3+68
	DD	imagerel $unwind$?_Mylast@?$_Vector_alloc@U?$_Vec_base_types@PEAUVkImage_T@@V?$allocator@PEAUVkImage_T@@@std@@@std@@@std@@QEBAAEBQEAPEAUVkImage_T@@XZ
pdata	ENDS
;	COMDAT pdata
pdata	SEGMENT
$pdata$?_Myend@?$_Vector_alloc@U?$_Vec_base_types@PEAUVkImage_T@@V?$allocator@PEAUVkImage_T@@@std@@@std@@@std@@QEAAAEAPEAPEAUVkImage_T@@XZ DD imagerel $LN3
	DD	imagerel $LN3+68
	DD	imagerel $unwind$?_Myend@?$_Vector_alloc@U?$_Vec_base_types@PEAUVkImage_T@@V?$allocator@PEAUVkImage_T@@@std@@@std@@@std@@QEAAAEAPEAPEAUVkImage_T@@XZ
pdata	ENDS
;	COMDAT pdata
pdata	SEGMENT
$pdata$?_Myend@?$_Vector_alloc@U?$_Vec_base_types@PEAUVkImage_T@@V?$allocator@PEAUVkImage_T@@@std@@@std@@@std@@QEBAAEBQEAPEAUVkImage_T@@XZ DD imagerel $LN3
	DD	imagerel $LN3+68
	DD	imagerel $unwind$?_Myend@?$_Vector_alloc@U?$_Vec_base_types@PEAUVkImage_T@@V?$allocator@PEAUVkImage_T@@@std@@@std@@@std@@QEBAAEBQEAPEAUVkImage_T@@XZ
pdata	ENDS
;	COMDAT pdata
pdata	SEGMENT
$pdata$?_Get_first@?$_Compressed_pair@U?$_Wrap_alloc@V?$allocator@PEAUVkImage_T@@@std@@@std@@V?$_Vector_val@U?$_Simple_types@PEAUVkImage_T@@@std@@@2@$00@std@@QEAAAEAU?$_Wrap_alloc@V?$allocator@PEAUVkImage_T@@@std@@@2@XZ DD imagerel $LN3
	DD	imagerel $LN3+57
	DD	imagerel $unwind$?_Get_first@?$_Compressed_pair@U?$_Wrap_alloc@V?$allocator@PEAUVkImage_T@@@std@@@std@@V?$_Vector_val@U?$_Simple_types@PEAUVkImage_T@@@std@@@2@$00@std@@QEAAAEAU?$_Wrap_alloc@V?$allocator@PEAUVkImage_T@@@std@@@2@XZ
pdata	ENDS
;	COMDAT pdata
pdata	SEGMENT
$pdata$?_Get_first@?$_Compressed_pair@U?$_Wrap_alloc@V?$allocator@PEAUVkImage_T@@@std@@@std@@V?$_Vector_val@U?$_Simple_types@PEAUVkImage_T@@@std@@@2@$00@std@@QEBAAEBU?$_Wrap_alloc@V?$allocator@PEAUVkImage_T@@@std@@@2@XZ DD imagerel $LN3
	DD	imagerel $LN3+57
	DD	imagerel $unwind$?_Get_first@?$_Compressed_pair@U?$_Wrap_alloc@V?$allocator@PEAUVkImage_T@@@std@@@std@@V?$_Vector_val@U?$_Simple_types@PEAUVkImage_T@@@std@@@2@$00@std@@QEBAAEBU?$_Wrap_alloc@V?$allocator@PEAUVkImage_T@@@std@@@2@XZ
pdata	ENDS
;	COMDAT pdata
pdata	SEGMENT
$pdata$?_Get_second@?$_Compressed_pair@U?$_Wrap_alloc@V?$allocator@PEAUVkImage_T@@@std@@@std@@V?$_Vector_val@U?$_Simple_types@PEAUVkImage_T@@@std@@@2@$00@std@@QEAAAEAV?$_Vector_val@U?$_Simple_types@PEAUVkImage_T@@@std@@@2@XZ DD imagerel $LN3
	DD	imagerel $LN3+57
	DD	imagerel $unwind$?_Get_second@?$_Compressed_pair@U?$_Wrap_alloc@V?$allocator@PEAUVkImage_T@@@std@@@std@@V?$_Vector_val@U?$_Simple_types@PEAUVkImage_T@@@std@@@2@$00@std@@QEAAAEAV?$_Vector_val@U?$_Simple_types@PEAUVkImage_T@@@std@@@2@XZ
pdata	ENDS
;	COMDAT pdata
pdata	SEGMENT
$pdata$?_Get_second@?$_Compressed_pair@U?$_Wrap_alloc@V?$allocator@PEAUVkImage_T@@@std@@@std@@V?$_Vector_val@U?$_Simple_types@PEAUVkImage_T@@@std@@@2@$00@std@@QEBAAEBV?$_Vector_val@U?$_Simple_types@PEAUVkImage_T@@@std@@@2@XZ DD imagerel $LN3
	DD	imagerel $LN3+57
	DD	imagerel $unwind$?_Get_second@?$_Compressed_pair@U?$_Wrap_alloc@V?$allocator@PEAUVkImage_T@@@std@@@std@@V?$_Vector_val@U?$_Simple_types@PEAUVkImage_T@@@std@@@2@$00@std@@QEBAAEBV?$_Vector_val@U?$_Simple_types@PEAUVkImage_T@@@std@@@2@XZ
pdata	ENDS
;	COMDAT pdata
pdata	SEGMENT
$pdata$?capacity@?$vector@PEAUVkImage_T@@V?$allocator@PEAUVkImage_T@@@std@@@std@@QEBA_KXZ DD imagerel $LN3
	DD	imagerel $LN3+106
	DD	imagerel $unwind$?capacity@?$vector@PEAUVkImage_T@@V?$allocator@PEAUVkImage_T@@@std@@@std@@QEBA_KXZ
pdata	ENDS
;	COMDAT pdata
pdata	SEGMENT
$pdata$?_Unused_capacity@?$vector@PEAUVkImage_T@@V?$allocator@PEAUVkImage_T@@@std@@@std@@QEBA_KXZ DD imagerel $LN3
	DD	imagerel $LN3+106
	DD	imagerel $unwind$?_Unused_capacity@?$vector@PEAUVkImage_T@@V?$allocator@PEAUVkImage_T@@@std@@@std@@QEBA_KXZ
pdata	ENDS
;	COMDAT pdata
pdata	SEGMENT
$pdata$?resize@?$vector@PEAUVkImage_T@@V?$allocator@PEAUVkImage_T@@@std@@@std@@QEAAX_K@Z DD imagerel $LN13
	DD	imagerel $LN13+356
	DD	imagerel $unwind$?resize@?$vector@PEAUVkImage_T@@V?$allocator@PEAUVkImage_T@@@std@@@std@@QEAAX_K@Z
pdata	ENDS
;	COMDAT pdata
pdata	SEGMENT
$pdata$?catch$0@?0??resize@?$vector@PEAUVkImage_T@@V?$allocator@PEAUVkImage_T@@@std@@@std@@QEAAX_K@Z@4HA DD imagerel ?catch$0@?0??resize@?$vector@PEAUVkImage_T@@V?$allocator@PEAUVkImage_T@@@std@@@std@@QEAAX_K@Z@4HA
	DD	imagerel ?catch$0@?0??resize@?$vector@PEAUVkImage_T@@V?$allocator@PEAUVkImage_T@@@std@@@std@@QEAAX_K@Z@4HA+57
	DD	imagerel $unwind$?catch$0@?0??resize@?$vector@PEAUVkImage_T@@V?$allocator@PEAUVkImage_T@@@std@@@std@@QEAAX_K@Z@4HA
pdata	ENDS
;	COMDAT pdata
pdata	SEGMENT
$pdata$?size@?$vector@PEAUVkImage_T@@V?$allocator@PEAUVkImage_T@@@std@@@std@@QEBA_KXZ DD imagerel $LN3
	DD	imagerel $LN3+106
	DD	imagerel $unwind$?size@?$vector@PEAUVkImage_T@@V?$allocator@PEAUVkImage_T@@@std@@@std@@QEBA_KXZ
pdata	ENDS
;	COMDAT pdata
pdata	SEGMENT
$pdata$?max_size@?$vector@PEAUVkImage_T@@V?$allocator@PEAUVkImage_T@@@std@@@std@@QEBA_KXZ DD imagerel $LN3
	DD	imagerel $LN3+79
	DD	imagerel $unwind$?max_size@?$vector@PEAUVkImage_T@@V?$allocator@PEAUVkImage_T@@@std@@@std@@QEBA_KXZ
pdata	ENDS
;	COMDAT pdata
pdata	SEGMENT
$pdata$??A?$vector@PEAUVkImage_T@@V?$allocator@PEAUVkImage_T@@@std@@@std@@QEAAAEAPEAUVkImage_T@@_K@Z DD imagerel $LN6
	DD	imagerel $LN6+253
	DD	imagerel $unwind$??A?$vector@PEAUVkImage_T@@V?$allocator@PEAUVkImage_T@@@std@@@std@@QEAAAEAPEAUVkImage_T@@_K@Z
pdata	ENDS
;	COMDAT pdata
pdata	SEGMENT
$pdata$?data@?$vector@PEAUVkImage_T@@V?$allocator@PEAUVkImage_T@@@std@@@std@@QEAAPEAPEAUVkImage_T@@XZ DD imagerel $LN3
	DD	imagerel $LN3+67
	DD	imagerel $unwind$?data@?$vector@PEAUVkImage_T@@V?$allocator@PEAUVkImage_T@@@std@@@std@@QEAAPEAPEAUVkImage_T@@XZ
pdata	ENDS
;	COMDAT pdata
pdata	SEGMENT
$pdata$?_Pop_back_n@?$vector@PEAUVkImage_T@@V?$allocator@PEAUVkImage_T@@@std@@@std@@QEAAX_K@Z DD imagerel $LN3
	DD	imagerel $LN3+171
	DD	imagerel $unwind$?_Pop_back_n@?$vector@PEAUVkImage_T@@V?$allocator@PEAUVkImage_T@@@std@@@std@@QEAAX_K@Z
pdata	ENDS
;	COMDAT pdata
pdata	SEGMENT
$pdata$?_Destroy@?$vector@PEAUVkImage_T@@V?$allocator@PEAUVkImage_T@@@std@@@std@@IEAAXPEAPEAUVkImage_T@@0@Z DD imagerel $LN3
	DD	imagerel $LN3+96
	DD	imagerel $unwind$?_Destroy@?$vector@PEAUVkImage_T@@V?$allocator@PEAUVkImage_T@@@std@@@std@@IEAAXPEAPEAUVkImage_T@@0@Z
pdata	ENDS
;	COMDAT pdata
pdata	SEGMENT
$pdata$?_Grow_to@?$vector@PEAUVkImage_T@@V?$allocator@PEAUVkImage_T@@@std@@@std@@IEBA_K_K@Z DD imagerel $LN6
	DD	imagerel $LN6+208
	DD	imagerel $unwind$?_Grow_to@?$vector@PEAUVkImage_T@@V?$allocator@PEAUVkImage_T@@@std@@@std@@IEBA_K_K@Z
pdata	ENDS
;	COMDAT pdata
pdata	SEGMENT
$pdata$?_Reallocate@?$vector@PEAUVkImage_T@@V?$allocator@PEAUVkImage_T@@@std@@@std@@IEAAX_K@Z DD imagerel $LN11
	DD	imagerel $LN11+489
	DD	imagerel $unwind$?_Reallocate@?$vector@PEAUVkImage_T@@V?$allocator@PEAUVkImage_T@@@std@@@std@@IEAAX_K@Z
pdata	ENDS
;	COMDAT pdata
pdata	SEGMENT
$pdata$?catch$0@?0??_Reallocate@?$vector@PEAUVkImage_T@@V?$allocator@PEAUVkImage_T@@@std@@@std@@IEAAX_K@Z@4HA DD imagerel ?catch$0@?0??_Reallocate@?$vector@PEAUVkImage_T@@V?$allocator@PEAUVkImage_T@@@std@@@std@@IEAAX_K@Z@4HA
	DD	imagerel ?catch$0@?0??_Reallocate@?$vector@PEAUVkImage_T@@V?$allocator@PEAUVkImage_T@@@std@@@std@@IEAAX_K@Z@4HA+76
	DD	imagerel $unwind$?catch$0@?0??_Reallocate@?$vector@PEAUVkImage_T@@V?$allocator@PEAUVkImage_T@@@std@@@std@@IEAAX_K@Z@4HA
pdata	ENDS
;	COMDAT pdata
pdata	SEGMENT
$pdata$?_Reserve@?$vector@PEAUVkImage_T@@V?$allocator@PEAUVkImage_T@@@std@@@std@@IEAAX_K@Z DD imagerel $LN5
	DD	imagerel $LN5+192
	DD	imagerel $unwind$?_Reserve@?$vector@PEAUVkImage_T@@V?$allocator@PEAUVkImage_T@@@std@@@std@@IEAAX_K@Z
pdata	ENDS
;	COMDAT pdata
pdata	SEGMENT
$pdata$?_Tidy@?$vector@PEAUVkImage_T@@V?$allocator@PEAUVkImage_T@@@std@@@std@@IEAAXXZ DD imagerel $LN4
	DD	imagerel $LN4+319
	DD	imagerel $unwind$?_Tidy@?$vector@PEAUVkImage_T@@V?$allocator@PEAUVkImage_T@@@std@@@std@@IEAAXXZ
pdata	ENDS
;	COMDAT pdata
pdata	SEGMENT
$pdata$?_Xlen@?$vector@PEAUVkImage_T@@V?$allocator@PEAUVkImage_T@@@std@@@std@@IEBAXXZ DD imagerel $LN3
	DD	imagerel $LN3+65
	DD	imagerel $unwind$?_Xlen@?$vector@PEAUVkImage_T@@V?$allocator@PEAUVkImage_T@@@std@@@std@@IEBAXXZ
pdata	ENDS
;	COMDAT pdata
pdata	SEGMENT
$pdata$?_Orphan_range@?$vector@PEAUVkImage_T@@V?$allocator@PEAUVkImage_T@@@std@@@std@@IEBAXPEAPEAUVkImage_T@@0@Z DD imagerel $LN10
	DD	imagerel $LN10+274
	DD	imagerel $unwind$?_Orphan_range@?$vector@PEAUVkImage_T@@V?$allocator@PEAUVkImage_T@@@std@@@std@@IEBAXPEAPEAUVkImage_T@@0@Z
pdata	ENDS
;	COMDAT pdata
pdata	SEGMENT
$pdata$?dtor$0@?0??_Orphan_range@?$vector@PEAUVkImage_T@@V?$allocator@PEAUVkImage_T@@@std@@@std@@IEBAXPEAPEAUVkImage_T@@0@Z@4HA DD imagerel ?dtor$0@?0??_Orphan_range@?$vector@PEAUVkImage_T@@V?$allocator@PEAUVkImage_T@@@std@@@std@@IEBAXPEAPEAUVkImage_T@@0@Z@4HA
	DD	imagerel ?dtor$0@?0??_Orphan_range@?$vector@PEAUVkImage_T@@V?$allocator@PEAUVkImage_T@@@std@@@std@@IEBAXPEAPEAUVkImage_T@@0@Z@4HA+37
	DD	imagerel $unwind$?dtor$0@?0??_Orphan_range@?$vector@PEAUVkImage_T@@V?$allocator@PEAUVkImage_T@@@std@@@std@@IEBAXPEAPEAUVkImage_T@@0@Z@4HA
pdata	ENDS
;	COMDAT pdata
pdata	SEGMENT
$pdata$?deallocate@?$allocator@PEAUVkImageView_T@@@std@@QEAAXPEAPEAUVkImageView_T@@_K@Z DD imagerel $LN3
	DD	imagerel $LN3+87
	DD	imagerel $unwind$?deallocate@?$allocator@PEAUVkImageView_T@@@std@@QEAAXPEAPEAUVkImageView_T@@_K@Z
pdata	ENDS
;	COMDAT pdata
pdata	SEGMENT
$pdata$?allocate@?$allocator@PEAUVkImageView_T@@@std@@QEAAPEAPEAUVkImageView_T@@_K@Z DD imagerel $LN3
	DD	imagerel $LN3+77
	DD	imagerel $unwind$?allocate@?$allocator@PEAUVkImageView_T@@@std@@QEAAPEAPEAUVkImageView_T@@_K@Z
pdata	ENDS
;	COMDAT pdata
pdata	SEGMENT
$pdata$?max_size@?$allocator@PEAUVkImageView_T@@@std@@QEBA_KXZ DD imagerel $LN3
	DD	imagerel $LN3+60
	DD	imagerel $unwind$?max_size@?$allocator@PEAUVkImageView_T@@@std@@QEBA_KXZ
pdata	ENDS
;	COMDAT pdata
pdata	SEGMENT
$pdata$?max_size@?$allocator_traits@V?$allocator@PEAUVkImageView_T@@@std@@@std@@SA_KAEBV?$allocator@PEAUVkImageView_T@@@2@@Z DD imagerel $LN3
	DD	imagerel $LN3+64
	DD	imagerel $unwind$?max_size@?$allocator_traits@V?$allocator@PEAUVkImageView_T@@@std@@@std@@SA_KAEBV?$allocator@PEAUVkImageView_T@@@2@@Z
pdata	ENDS
;	COMDAT pdata
pdata	SEGMENT
$pdata$?allocate@?$_Wrap_alloc@V?$allocator@PEAUVkImageView_T@@@std@@@std@@QEAAPEAPEAUVkImageView_T@@_K@Z DD imagerel $LN3
	DD	imagerel $LN3+76
	DD	imagerel $unwind$?allocate@?$_Wrap_alloc@V?$allocator@PEAUVkImageView_T@@@std@@@std@@QEAAPEAPEAUVkImageView_T@@_K@Z
pdata	ENDS
;	COMDAT pdata
pdata	SEGMENT
$pdata$?deallocate@?$_Wrap_alloc@V?$allocator@PEAUVkImageView_T@@@std@@@std@@QEAAXPEAPEAUVkImageView_T@@_K@Z DD imagerel $LN3
	DD	imagerel $LN3+88
	DD	imagerel $unwind$?deallocate@?$_Wrap_alloc@V?$allocator@PEAUVkImageView_T@@@std@@@std@@QEAAXPEAPEAUVkImageView_T@@_K@Z
pdata	ENDS
;	COMDAT pdata
pdata	SEGMENT
$pdata$?max_size@?$_Wrap_alloc@V?$allocator@PEAUVkImageView_T@@@std@@@std@@QEBA_KU_Nil@2@@Z DD imagerel $LN3
	DD	imagerel $LN3+68
	DD	imagerel $unwind$?max_size@?$_Wrap_alloc@V?$allocator@PEAUVkImageView_T@@@std@@@std@@QEBA_KU_Nil@2@@Z
pdata	ENDS
;	COMDAT pdata
pdata	SEGMENT
$pdata$?_Getpfirst@?$_Vector_alloc@U?$_Vec_base_types@PEAUVkImageView_T@@V?$allocator@PEAUVkImageView_T@@@std@@@std@@@std@@QEBAPEAPEAU_Iterator_base12@2@XZ DD imagerel $LN3
	DD	imagerel $LN3+72
	DD	imagerel $unwind$?_Getpfirst@?$_Vector_alloc@U?$_Vec_base_types@PEAUVkImageView_T@@V?$allocator@PEAUVkImageView_T@@@std@@@std@@@std@@QEBAPEAPEAU_Iterator_base12@2@XZ
pdata	ENDS
;	COMDAT pdata
pdata	SEGMENT
$pdata$?_Orphan_all@?$_Vector_alloc@U?$_Vec_base_types@PEAUVkImageView_T@@V?$allocator@PEAUVkImageView_T@@@std@@@std@@@std@@QEAAXXZ DD imagerel $LN3
	DD	imagerel $LN3+72
	DD	imagerel $unwind$?_Orphan_all@?$_Vector_alloc@U?$_Vec_base_types@PEAUVkImageView_T@@V?$allocator@PEAUVkImageView_T@@@std@@@std@@@std@@QEAAXXZ
pdata	ENDS
;	COMDAT pdata
pdata	SEGMENT
$pdata$?_Getal@?$_Vector_alloc@U?$_Vec_base_types@PEAUVkImageView_T@@V?$allocator@PEAUVkImageView_T@@@std@@@std@@@std@@QEAAAEAU?$_Wrap_alloc@V?$allocator@PEAUVkImageView_T@@@std@@@2@XZ DD imagerel $LN3
	DD	imagerel $LN3+67
	DD	imagerel $unwind$?_Getal@?$_Vector_alloc@U?$_Vec_base_types@PEAUVkImageView_T@@V?$allocator@PEAUVkImageView_T@@@std@@@std@@@std@@QEAAAEAU?$_Wrap_alloc@V?$allocator@PEAUVkImageView_T@@@std@@@2@XZ
pdata	ENDS
;	COMDAT pdata
pdata	SEGMENT
$pdata$?_Getal@?$_Vector_alloc@U?$_Vec_base_types@PEAUVkImageView_T@@V?$allocator@PEAUVkImageView_T@@@std@@@std@@@std@@QEBAAEBU?$_Wrap_alloc@V?$allocator@PEAUVkImageView_T@@@std@@@2@XZ DD imagerel $LN3
	DD	imagerel $LN3+67
	DD	imagerel $unwind$?_Getal@?$_Vector_alloc@U?$_Vec_base_types@PEAUVkImageView_T@@V?$allocator@PEAUVkImageView_T@@@std@@@std@@@std@@QEBAAEBU?$_Wrap_alloc@V?$allocator@PEAUVkImageView_T@@@std@@@2@XZ
pdata	ENDS
;	COMDAT pdata
pdata	SEGMENT
$pdata$?_Get_data@?$_Vector_alloc@U?$_Vec_base_types@PEAUVkImageView_T@@V?$allocator@PEAUVkImageView_T@@@std@@@std@@@std@@QEAAAEAV?$_Vector_val@U?$_Simple_types@PEAUVkImageView_T@@@std@@@2@XZ DD imagerel $LN3
	DD	imagerel $LN3+67
	DD	imagerel $unwind$?_Get_data@?$_Vector_alloc@U?$_Vec_base_types@PEAUVkImageView_T@@V?$allocator@PEAUVkImageView_T@@@std@@@std@@@std@@QEAAAEAV?$_Vector_val@U?$_Simple_types@PEAUVkImageView_T@@@std@@@2@XZ
pdata	ENDS
;	COMDAT pdata
pdata	SEGMENT
$pdata$?_Get_data@?$_Vector_alloc@U?$_Vec_base_types@PEAUVkImageView_T@@V?$allocator@PEAUVkImageView_T@@@std@@@std@@@std@@QEBAAEBV?$_Vector_val@U?$_Simple_types@PEAUVkImageView_T@@@std@@@2@XZ DD imagerel $LN3
	DD	imagerel $LN3+67
	DD	imagerel $unwind$?_Get_data@?$_Vector_alloc@U?$_Vec_base_types@PEAUVkImageView_T@@V?$allocator@PEAUVkImageView_T@@@std@@@std@@@std@@QEBAAEBV?$_Vector_val@U?$_Simple_types@PEAUVkImageView_T@@@std@@@2@XZ
pdata	ENDS
;	COMDAT pdata
pdata	SEGMENT
$pdata$?_Myfirst@?$_Vector_alloc@U?$_Vec_base_types@PEAUVkImageView_T@@V?$allocator@PEAUVkImageView_T@@@std@@@std@@@std@@QEAAAEAPEAPEAUVkImageView_T@@XZ DD imagerel $LN3
	DD	imagerel $LN3+68
	DD	imagerel $unwind$?_Myfirst@?$_Vector_alloc@U?$_Vec_base_types@PEAUVkImageView_T@@V?$allocator@PEAUVkImageView_T@@@std@@@std@@@std@@QEAAAEAPEAPEAUVkImageView_T@@XZ
pdata	ENDS
;	COMDAT pdata
pdata	SEGMENT
$pdata$?_Myfirst@?$_Vector_alloc@U?$_Vec_base_types@PEAUVkImageView_T@@V?$allocator@PEAUVkImageView_T@@@std@@@std@@@std@@QEBAAEBQEAPEAUVkImageView_T@@XZ DD imagerel $LN3
	DD	imagerel $LN3+68
	DD	imagerel $unwind$?_Myfirst@?$_Vector_alloc@U?$_Vec_base_types@PEAUVkImageView_T@@V?$allocator@PEAUVkImageView_T@@@std@@@std@@@std@@QEBAAEBQEAPEAUVkImageView_T@@XZ
pdata	ENDS
;	COMDAT pdata
pdata	SEGMENT
$pdata$?_Mylast@?$_Vector_alloc@U?$_Vec_base_types@PEAUVkImageView_T@@V?$allocator@PEAUVkImageView_T@@@std@@@std@@@std@@QEAAAEAPEAPEAUVkImageView_T@@XZ DD imagerel $LN3
	DD	imagerel $LN3+68
	DD	imagerel $unwind$?_Mylast@?$_Vector_alloc@U?$_Vec_base_types@PEAUVkImageView_T@@V?$allocator@PEAUVkImageView_T@@@std@@@std@@@std@@QEAAAEAPEAPEAUVkImageView_T@@XZ
pdata	ENDS
;	COMDAT pdata
pdata	SEGMENT
$pdata$?_Mylast@?$_Vector_alloc@U?$_Vec_base_types@PEAUVkImageView_T@@V?$allocator@PEAUVkImageView_T@@@std@@@std@@@std@@QEBAAEBQEAPEAUVkImageView_T@@XZ DD imagerel $LN3
	DD	imagerel $LN3+68
	DD	imagerel $unwind$?_Mylast@?$_Vector_alloc@U?$_Vec_base_types@PEAUVkImageView_T@@V?$allocator@PEAUVkImageView_T@@@std@@@std@@@std@@QEBAAEBQEAPEAUVkImageView_T@@XZ
pdata	ENDS
;	COMDAT pdata
pdata	SEGMENT
$pdata$?_Myend@?$_Vector_alloc@U?$_Vec_base_types@PEAUVkImageView_T@@V?$allocator@PEAUVkImageView_T@@@std@@@std@@@std@@QEAAAEAPEAPEAUVkImageView_T@@XZ DD imagerel $LN3
	DD	imagerel $LN3+68
	DD	imagerel $unwind$?_Myend@?$_Vector_alloc@U?$_Vec_base_types@PEAUVkImageView_T@@V?$allocator@PEAUVkImageView_T@@@std@@@std@@@std@@QEAAAEAPEAPEAUVkImageView_T@@XZ
pdata	ENDS
;	COMDAT pdata
pdata	SEGMENT
$pdata$?_Myend@?$_Vector_alloc@U?$_Vec_base_types@PEAUVkImageView_T@@V?$allocator@PEAUVkImageView_T@@@std@@@std@@@std@@QEBAAEBQEAPEAUVkImageView_T@@XZ DD imagerel $LN3
	DD	imagerel $LN3+68
	DD	imagerel $unwind$?_Myend@?$_Vector_alloc@U?$_Vec_base_types@PEAUVkImageView_T@@V?$allocator@PEAUVkImageView_T@@@std@@@std@@@std@@QEBAAEBQEAPEAUVkImageView_T@@XZ
pdata	ENDS
;	COMDAT pdata
pdata	SEGMENT
$pdata$?_Get_first@?$_Compressed_pair@U?$_Wrap_alloc@V?$allocator@PEAUVkImageView_T@@@std@@@std@@V?$_Vector_val@U?$_Simple_types@PEAUVkImageView_T@@@std@@@2@$00@std@@QEAAAEAU?$_Wrap_alloc@V?$allocator@PEAUVkImageView_T@@@std@@@2@XZ DD imagerel $LN3
	DD	imagerel $LN3+57
	DD	imagerel $unwind$?_Get_first@?$_Compressed_pair@U?$_Wrap_alloc@V?$allocator@PEAUVkImageView_T@@@std@@@std@@V?$_Vector_val@U?$_Simple_types@PEAUVkImageView_T@@@std@@@2@$00@std@@QEAAAEAU?$_Wrap_alloc@V?$allocator@PEAUVkImageView_T@@@std@@@2@XZ
pdata	ENDS
;	COMDAT pdata
pdata	SEGMENT
$pdata$?_Get_first@?$_Compressed_pair@U?$_Wrap_alloc@V?$allocator@PEAUVkImageView_T@@@std@@@std@@V?$_Vector_val@U?$_Simple_types@PEAUVkImageView_T@@@std@@@2@$00@std@@QEBAAEBU?$_Wrap_alloc@V?$allocator@PEAUVkImageView_T@@@std@@@2@XZ DD imagerel $LN3
	DD	imagerel $LN3+57
	DD	imagerel $unwind$?_Get_first@?$_Compressed_pair@U?$_Wrap_alloc@V?$allocator@PEAUVkImageView_T@@@std@@@std@@V?$_Vector_val@U?$_Simple_types@PEAUVkImageView_T@@@std@@@2@$00@std@@QEBAAEBU?$_Wrap_alloc@V?$allocator@PEAUVkImageView_T@@@std@@@2@XZ
pdata	ENDS
;	COMDAT pdata
pdata	SEGMENT
$pdata$?_Get_second@?$_Compressed_pair@U?$_Wrap_alloc@V?$allocator@PEAUVkImageView_T@@@std@@@std@@V?$_Vector_val@U?$_Simple_types@PEAUVkImageView_T@@@std@@@2@$00@std@@QEAAAEAV?$_Vector_val@U?$_Simple_types@PEAUVkImageView_T@@@std@@@2@XZ DD imagerel $LN3
	DD	imagerel $LN3+57
	DD	imagerel $unwind$?_Get_second@?$_Compressed_pair@U?$_Wrap_alloc@V?$allocator@PEAUVkImageView_T@@@std@@@std@@V?$_Vector_val@U?$_Simple_types@PEAUVkImageView_T@@@std@@@2@$00@std@@QEAAAEAV?$_Vector_val@U?$_Simple_types@PEAUVkImageView_T@@@std@@@2@XZ
pdata	ENDS
;	COMDAT pdata
pdata	SEGMENT
$pdata$?_Get_second@?$_Compressed_pair@U?$_Wrap_alloc@V?$allocator@PEAUVkImageView_T@@@std@@@std@@V?$_Vector_val@U?$_Simple_types@PEAUVkImageView_T@@@std@@@2@$00@std@@QEBAAEBV?$_Vector_val@U?$_Simple_types@PEAUVkImageView_T@@@std@@@2@XZ DD imagerel $LN3
	DD	imagerel $LN3+57
	DD	imagerel $unwind$?_Get_second@?$_Compressed_pair@U?$_Wrap_alloc@V?$allocator@PEAUVkImageView_T@@@std@@@std@@V?$_Vector_val@U?$_Simple_types@PEAUVkImageView_T@@@std@@@2@$00@std@@QEBAAEBV?$_Vector_val@U?$_Simple_types@PEAUVkImageView_T@@@std@@@2@XZ
pdata	ENDS
;	COMDAT pdata
pdata	SEGMENT
$pdata$?capacity@?$vector@PEAUVkImageView_T@@V?$allocator@PEAUVkImageView_T@@@std@@@std@@QEBA_KXZ DD imagerel $LN3
	DD	imagerel $LN3+106
	DD	imagerel $unwind$?capacity@?$vector@PEAUVkImageView_T@@V?$allocator@PEAUVkImageView_T@@@std@@@std@@QEBA_KXZ
pdata	ENDS
;	COMDAT pdata
pdata	SEGMENT
$pdata$?_Unused_capacity@?$vector@PEAUVkImageView_T@@V?$allocator@PEAUVkImageView_T@@@std@@@std@@QEBA_KXZ DD imagerel $LN3
	DD	imagerel $LN3+106
	DD	imagerel $unwind$?_Unused_capacity@?$vector@PEAUVkImageView_T@@V?$allocator@PEAUVkImageView_T@@@std@@@std@@QEBA_KXZ
pdata	ENDS
;	COMDAT pdata
pdata	SEGMENT
$pdata$?resize@?$vector@PEAUVkImageView_T@@V?$allocator@PEAUVkImageView_T@@@std@@@std@@QEAAX_K@Z DD imagerel $LN13
	DD	imagerel $LN13+356
	DD	imagerel $unwind$?resize@?$vector@PEAUVkImageView_T@@V?$allocator@PEAUVkImageView_T@@@std@@@std@@QEAAX_K@Z
pdata	ENDS
;	COMDAT pdata
pdata	SEGMENT
$pdata$?catch$0@?0??resize@?$vector@PEAUVkImageView_T@@V?$allocator@PEAUVkImageView_T@@@std@@@std@@QEAAX_K@Z@4HA DD imagerel ?catch$0@?0??resize@?$vector@PEAUVkImageView_T@@V?$allocator@PEAUVkImageView_T@@@std@@@std@@QEAAX_K@Z@4HA
	DD	imagerel ?catch$0@?0??resize@?$vector@PEAUVkImageView_T@@V?$allocator@PEAUVkImageView_T@@@std@@@std@@QEAAX_K@Z@4HA+57
	DD	imagerel $unwind$?catch$0@?0??resize@?$vector@PEAUVkImageView_T@@V?$allocator@PEAUVkImageView_T@@@std@@@std@@QEAAX_K@Z@4HA
pdata	ENDS
;	COMDAT pdata
pdata	SEGMENT
$pdata$?size@?$vector@PEAUVkImageView_T@@V?$allocator@PEAUVkImageView_T@@@std@@@std@@QEBA_KXZ DD imagerel $LN3
	DD	imagerel $LN3+106
	DD	imagerel $unwind$?size@?$vector@PEAUVkImageView_T@@V?$allocator@PEAUVkImageView_T@@@std@@@std@@QEBA_KXZ
pdata	ENDS
;	COMDAT pdata
pdata	SEGMENT
$pdata$?max_size@?$vector@PEAUVkImageView_T@@V?$allocator@PEAUVkImageView_T@@@std@@@std@@QEBA_KXZ DD imagerel $LN3
	DD	imagerel $LN3+79
	DD	imagerel $unwind$?max_size@?$vector@PEAUVkImageView_T@@V?$allocator@PEAUVkImageView_T@@@std@@@std@@QEBA_KXZ
pdata	ENDS
;	COMDAT pdata
pdata	SEGMENT
$pdata$??A?$vector@PEAUVkImageView_T@@V?$allocator@PEAUVkImageView_T@@@std@@@std@@QEAAAEAPEAUVkImageView_T@@_K@Z DD imagerel $LN6
	DD	imagerel $LN6+253
	DD	imagerel $unwind$??A?$vector@PEAUVkImageView_T@@V?$allocator@PEAUVkImageView_T@@@std@@@std@@QEAAAEAPEAUVkImageView_T@@_K@Z
pdata	ENDS
;	COMDAT pdata
pdata	SEGMENT
$pdata$?_Pop_back_n@?$vector@PEAUVkImageView_T@@V?$allocator@PEAUVkImageView_T@@@std@@@std@@QEAAX_K@Z DD imagerel $LN3
	DD	imagerel $LN3+171
	DD	imagerel $unwind$?_Pop_back_n@?$vector@PEAUVkImageView_T@@V?$allocator@PEAUVkImageView_T@@@std@@@std@@QEAAX_K@Z
pdata	ENDS
;	COMDAT pdata
pdata	SEGMENT
$pdata$?_Destroy@?$vector@PEAUVkImageView_T@@V?$allocator@PEAUVkImageView_T@@@std@@@std@@IEAAXPEAPEAUVkImageView_T@@0@Z DD imagerel $LN3
	DD	imagerel $LN3+96
	DD	imagerel $unwind$?_Destroy@?$vector@PEAUVkImageView_T@@V?$allocator@PEAUVkImageView_T@@@std@@@std@@IEAAXPEAPEAUVkImageView_T@@0@Z
pdata	ENDS
;	COMDAT pdata
pdata	SEGMENT
$pdata$?_Grow_to@?$vector@PEAUVkImageView_T@@V?$allocator@PEAUVkImageView_T@@@std@@@std@@IEBA_K_K@Z DD imagerel $LN6
	DD	imagerel $LN6+208
	DD	imagerel $unwind$?_Grow_to@?$vector@PEAUVkImageView_T@@V?$allocator@PEAUVkImageView_T@@@std@@@std@@IEBA_K_K@Z
pdata	ENDS
;	COMDAT pdata
pdata	SEGMENT
$pdata$?_Reallocate@?$vector@PEAUVkImageView_T@@V?$allocator@PEAUVkImageView_T@@@std@@@std@@IEAAX_K@Z DD imagerel $LN11
	DD	imagerel $LN11+489
	DD	imagerel $unwind$?_Reallocate@?$vector@PEAUVkImageView_T@@V?$allocator@PEAUVkImageView_T@@@std@@@std@@IEAAX_K@Z
pdata	ENDS
;	COMDAT pdata
pdata	SEGMENT
$pdata$?catch$0@?0??_Reallocate@?$vector@PEAUVkImageView_T@@V?$allocator@PEAUVkImageView_T@@@std@@@std@@IEAAX_K@Z@4HA DD imagerel ?catch$0@?0??_Reallocate@?$vector@PEAUVkImageView_T@@V?$allocator@PEAUVkImageView_T@@@std@@@std@@IEAAX_K@Z@4HA
	DD	imagerel ?catch$0@?0??_Reallocate@?$vector@PEAUVkImageView_T@@V?$allocator@PEAUVkImageView_T@@@std@@@std@@IEAAX_K@Z@4HA+76
	DD	imagerel $unwind$?catch$0@?0??_Reallocate@?$vector@PEAUVkImageView_T@@V?$allocator@PEAUVkImageView_T@@@std@@@std@@IEAAX_K@Z@4HA
pdata	ENDS
;	COMDAT pdata
pdata	SEGMENT
$pdata$?_Reserve@?$vector@PEAUVkImageView_T@@V?$allocator@PEAUVkImageView_T@@@std@@@std@@IEAAX_K@Z DD imagerel $LN5
	DD	imagerel $LN5+192
	DD	imagerel $unwind$?_Reserve@?$vector@PEAUVkImageView_T@@V?$allocator@PEAUVkImageView_T@@@std@@@std@@IEAAX_K@Z
pdata	ENDS
;	COMDAT pdata
pdata	SEGMENT
$pdata$?_Tidy@?$vector@PEAUVkImageView_T@@V?$allocator@PEAUVkImageView_T@@@std@@@std@@IEAAXXZ DD imagerel $LN4
	DD	imagerel $LN4+319
	DD	imagerel $unwind$?_Tidy@?$vector@PEAUVkImageView_T@@V?$allocator@PEAUVkImageView_T@@@std@@@std@@IEAAXXZ
pdata	ENDS
;	COMDAT pdata
pdata	SEGMENT
$pdata$?_Xlen@?$vector@PEAUVkImageView_T@@V?$allocator@PEAUVkImageView_T@@@std@@@std@@IEBAXXZ DD imagerel $LN3
	DD	imagerel $LN3+65
	DD	imagerel $unwind$?_Xlen@?$vector@PEAUVkImageView_T@@V?$allocator@PEAUVkImageView_T@@@std@@@std@@IEBAXXZ
pdata	ENDS
;	COMDAT pdata
pdata	SEGMENT
$pdata$?_Orphan_range@?$vector@PEAUVkImageView_T@@V?$allocator@PEAUVkImageView_T@@@std@@@std@@IEBAXPEAPEAUVkImageView_T@@0@Z DD imagerel $LN10
	DD	imagerel $LN10+274
	DD	imagerel $unwind$?_Orphan_range@?$vector@PEAUVkImageView_T@@V?$allocator@PEAUVkImageView_T@@@std@@@std@@IEBAXPEAPEAUVkImageView_T@@0@Z
pdata	ENDS
;	COMDAT pdata
pdata	SEGMENT
$pdata$?dtor$0@?0??_Orphan_range@?$vector@PEAUVkImageView_T@@V?$allocator@PEAUVkImageView_T@@@std@@@std@@IEBAXPEAPEAUVkImageView_T@@0@Z@4HA DD imagerel ?dtor$0@?0??_Orphan_range@?$vector@PEAUVkImageView_T@@V?$allocator@PEAUVkImageView_T@@@std@@@std@@IEBAXPEAPEAUVkImageView_T@@0@Z@4HA
	DD	imagerel ?dtor$0@?0??_Orphan_range@?$vector@PEAUVkImageView_T@@V?$allocator@PEAUVkImageView_T@@@std@@@std@@IEBAXPEAPEAUVkImageView_T@@0@Z@4HA+37
	DD	imagerel $unwind$?dtor$0@?0??_Orphan_range@?$vector@PEAUVkImageView_T@@V?$allocator@PEAUVkImageView_T@@@std@@@std@@IEBAXPEAPEAUVkImageView_T@@0@Z@4HA
pdata	ENDS
;	COMDAT pdata
pdata	SEGMENT
$pdata$?NewSurface@Cy@@YAPEAUVkSurfaceKHR_T@@PEBUWindowInfo@1@PEAUVkInstance_T@@@Z DD imagerel $LN16
	DD	imagerel $LN16+693
	DD	imagerel $unwind$?NewSurface@Cy@@YAPEAUVkSurfaceKHR_T@@PEBUWindowInfo@1@PEAUVkInstance_T@@@Z
pdata	ENDS
;	COMDAT pdata
pdata	SEGMENT
$pdata$?FindGraphicsQueueFamilyIndex@Cy@@YAIPEAUVkPhysicalDevice_T@@PEAUVkSurfaceKHR_T@@@Z DD imagerel $LN14
	DD	imagerel $LN14+476
	DD	imagerel $unwind$?FindGraphicsQueueFamilyIndex@Cy@@YAIPEAUVkPhysicalDevice_T@@PEAUVkSurfaceKHR_T@@@Z
pdata	ENDS
;	COMDAT pdata
pdata	SEGMENT
$pdata$?dtor$1@?0??FindGraphicsQueueFamilyIndex@Cy@@YAIPEAUVkPhysicalDevice_T@@PEAUVkSurfaceKHR_T@@@Z@4HA DD imagerel ?dtor$1@?0??FindGraphicsQueueFamilyIndex@Cy@@YAIPEAUVkPhysicalDevice_T@@PEAUVkSurfaceKHR_T@@@Z@4HA
	DD	imagerel ?dtor$1@?0??FindGraphicsQueueFamilyIndex@Cy@@YAIPEAUVkPhysicalDevice_T@@PEAUVkSurfaceKHR_T@@@Z@4HA+36
	DD	imagerel $unwind$?dtor$1@?0??FindGraphicsQueueFamilyIndex@Cy@@YAIPEAUVkPhysicalDevice_T@@PEAUVkSurfaceKHR_T@@@Z@4HA
pdata	ENDS
;	COMDAT pdata
pdata	SEGMENT
$pdata$?GetSurfaceColorSpaceAndFormat@Cy@@YAXPEAUVkPhysicalDevice_T@@PEAUSurfaceInfo@1@@Z DD imagerel $LN11
	DD	imagerel $LN11+505
	DD	imagerel $unwind$?GetSurfaceColorSpaceAndFormat@Cy@@YAXPEAUVkPhysicalDevice_T@@PEAUSurfaceInfo@1@@Z
pdata	ENDS
;	COMDAT pdata
pdata	SEGMENT
$pdata$?dtor$2@?0??GetSurfaceColorSpaceAndFormat@Cy@@YAXPEAUVkPhysicalDevice_T@@PEAUSurfaceInfo@1@@Z@4HA DD imagerel ?dtor$2@?0??GetSurfaceColorSpaceAndFormat@Cy@@YAXPEAUVkPhysicalDevice_T@@PEAUSurfaceInfo@1@@Z@4HA
	DD	imagerel ?dtor$2@?0??GetSurfaceColorSpaceAndFormat@Cy@@YAXPEAUVkPhysicalDevice_T@@PEAUSurfaceInfo@1@@Z@4HA+36
	DD	imagerel $unwind$?dtor$2@?0??GetSurfaceColorSpaceAndFormat@Cy@@YAXPEAUVkPhysicalDevice_T@@PEAUSurfaceInfo@1@@Z@4HA
pdata	ENDS
;	COMDAT pdata
pdata	SEGMENT
$pdata$?InitSwapChain@Cy@@YAXPEBUDeviceInfo@1@PEAUVkPhysicalDevice_T@@PEAUSurfaceInfo@1@PEAI3@Z DD imagerel $LN26
	DD	imagerel $LN26+1857
	DD	imagerel $unwind$?InitSwapChain@Cy@@YAXPEBUDeviceInfo@1@PEAUVkPhysicalDevice_T@@PEAUSurfaceInfo@1@PEAI3@Z
pdata	ENDS
;	COMDAT pdata
pdata	SEGMENT
$pdata$?dtor$5@?0??InitSwapChain@Cy@@YAXPEBUDeviceInfo@1@PEAUVkPhysicalDevice_T@@PEAUSurfaceInfo@1@PEAI3@Z@4HA DD imagerel ?dtor$5@?0??InitSwapChain@Cy@@YAXPEBUDeviceInfo@1@PEAUVkPhysicalDevice_T@@PEAUSurfaceInfo@1@PEAI3@Z@4HA
	DD	imagerel ?dtor$5@?0??InitSwapChain@Cy@@YAXPEBUDeviceInfo@1@PEAUVkPhysicalDevice_T@@PEAUSurfaceInfo@1@PEAI3@Z@4HA+36
	DD	imagerel $unwind$?dtor$5@?0??InitSwapChain@Cy@@YAXPEBUDeviceInfo@1@PEAUVkPhysicalDevice_T@@PEAUSurfaceInfo@1@PEAI3@Z@4HA
pdata	ENDS
;	COMDAT pdata
pdata	SEGMENT
$pdata$?AcquireNextImage@Cy@@YA?AW4VkResult@@PEBUDeviceInfo@1@PEAUSurfaceInfo@1@@Z DD imagerel $LN3
	DD	imagerel $LN3+127
	DD	imagerel $unwind$?AcquireNextImage@Cy@@YA?AW4VkResult@@PEBUDeviceInfo@1@PEAUSurfaceInfo@1@@Z
pdata	ENDS
;	COMDAT pdata
pdata	SEGMENT
$pdata$?QueuePresent@Cy@@YA?AW4VkResult@@PEBUDeviceInfo@1@PEBUSurfaceInfo@1@@Z DD imagerel $LN3
	DD	imagerel $LN3+214
	DD	imagerel $unwind$?QueuePresent@Cy@@YA?AW4VkResult@@PEBUDeviceInfo@1@PEBUSurfaceInfo@1@@Z
pdata	ENDS
;	COMDAT pdata
pdata	SEGMENT
$pdata$?DestroySurfaceInfo@Cy@@YAXPEAUVkInstance_T@@PEAUVkDevice_T@@PEAUSurfaceInfo@1@@Z DD imagerel $LN6
	DD	imagerel $LN6+198
	DD	imagerel $unwind$?DestroySurfaceInfo@Cy@@YAXPEAUVkInstance_T@@PEAUVkDevice_T@@PEAUSurfaceInfo@1@@Z
pdata	ENDS
;	COMDAT pdata
pdata	SEGMENT
$pdata$??0?$allocator@UVkQueueFamilyProperties@@@std@@QEAA@XZ DD imagerel $LN3
	DD	imagerel $LN3+57
	DD	imagerel $unwind$??0?$allocator@UVkQueueFamilyProperties@@@std@@QEAA@XZ
pdata	ENDS
;	COMDAT pdata
pdata	SEGMENT
$pdata$??0?$allocator@UVkQueueFamilyProperties@@@std@@QEAA@AEBV01@@Z DD imagerel $LN3
	DD	imagerel $LN3+62
	DD	imagerel $unwind$??0?$allocator@UVkQueueFamilyProperties@@@std@@QEAA@AEBV01@@Z
pdata	ENDS
;	COMDAT pdata
pdata	SEGMENT
$pdata$?deallocate@?$allocator@UVkQueueFamilyProperties@@@std@@QEAAXPEAUVkQueueFamilyProperties@@_K@Z DD imagerel $LN3
	DD	imagerel $LN3+87
	DD	imagerel $unwind$?deallocate@?$allocator@UVkQueueFamilyProperties@@@std@@QEAAXPEAUVkQueueFamilyProperties@@_K@Z
pdata	ENDS
;	COMDAT pdata
pdata	SEGMENT
$pdata$?allocate@?$allocator@UVkQueueFamilyProperties@@@std@@QEAAPEAUVkQueueFamilyProperties@@_K@Z DD imagerel $LN3
	DD	imagerel $LN3+77
	DD	imagerel $unwind$?allocate@?$allocator@UVkQueueFamilyProperties@@@std@@QEAAPEAUVkQueueFamilyProperties@@_K@Z
pdata	ENDS
;	COMDAT pdata
pdata	SEGMENT
$pdata$?max_size@?$allocator@UVkQueueFamilyProperties@@@std@@QEBA_KXZ DD imagerel $LN3
	DD	imagerel $LN3+60
	DD	imagerel $unwind$?max_size@?$allocator@UVkQueueFamilyProperties@@@std@@QEBA_KXZ
pdata	ENDS
;	COMDAT pdata
pdata	SEGMENT
$pdata$?max_size@?$allocator_traits@V?$allocator@UVkQueueFamilyProperties@@@std@@@std@@SA_KAEBV?$allocator@UVkQueueFamilyProperties@@@2@@Z DD imagerel $LN3
	DD	imagerel $LN3+64
	DD	imagerel $unwind$?max_size@?$allocator_traits@V?$allocator@UVkQueueFamilyProperties@@@std@@@std@@SA_KAEBV?$allocator@UVkQueueFamilyProperties@@@2@@Z
pdata	ENDS
;	COMDAT pdata
pdata	SEGMENT
$pdata$??0?$_Wrap_alloc@V?$allocator@UVkQueueFamilyProperties@@@std@@@std@@QEAA@AEBV?$allocator@UVkQueueFamilyProperties@@@1@@Z DD imagerel $LN3
	DD	imagerel $LN3+83
	DD	imagerel $unwind$??0?$_Wrap_alloc@V?$allocator@UVkQueueFamilyProperties@@@std@@@std@@QEAA@AEBV?$allocator@UVkQueueFamilyProperties@@@1@@Z
pdata	ENDS
;	COMDAT pdata
pdata	SEGMENT
$pdata$?allocate@?$_Wrap_alloc@V?$allocator@UVkQueueFamilyProperties@@@std@@@std@@QEAAPEAUVkQueueFamilyProperties@@_K@Z DD imagerel $LN3
	DD	imagerel $LN3+76
	DD	imagerel $unwind$?allocate@?$_Wrap_alloc@V?$allocator@UVkQueueFamilyProperties@@@std@@@std@@QEAAPEAUVkQueueFamilyProperties@@_K@Z
pdata	ENDS
;	COMDAT pdata
pdata	SEGMENT
$pdata$?deallocate@?$_Wrap_alloc@V?$allocator@UVkQueueFamilyProperties@@@std@@@std@@QEAAXPEAUVkQueueFamilyProperties@@_K@Z DD imagerel $LN3
	DD	imagerel $LN3+88
	DD	imagerel $unwind$?deallocate@?$_Wrap_alloc@V?$allocator@UVkQueueFamilyProperties@@@std@@@std@@QEAAXPEAUVkQueueFamilyProperties@@_K@Z
pdata	ENDS
;	COMDAT pdata
pdata	SEGMENT
$pdata$?max_size@?$_Wrap_alloc@V?$allocator@UVkQueueFamilyProperties@@@std@@@std@@QEBA_KU_Nil@2@@Z DD imagerel $LN3
	DD	imagerel $LN3+68
	DD	imagerel $unwind$?max_size@?$_Wrap_alloc@V?$allocator@UVkQueueFamilyProperties@@@std@@@std@@QEBA_KU_Nil@2@@Z
pdata	ENDS
;	COMDAT pdata
pdata	SEGMENT
$pdata$??0?$_Vector_alloc@U?$_Vec_base_types@UVkQueueFamilyProperties@@V?$allocator@UVkQueueFamilyProperties@@@std@@@std@@@std@@QEAA@AEBV?$allocator@UVkQueueFamilyProperties@@@1@@Z DD imagerel $LN4
	DD	imagerel $LN4+118
	DD	imagerel $unwind$??0?$_Vector_alloc@U?$_Vec_base_types@UVkQueueFamilyProperties@@V?$allocator@UVkQueueFamilyProperties@@@std@@@std@@@std@@QEAA@AEBV?$allocator@UVkQueueFamilyProperties@@@1@@Z
pdata	ENDS
;	COMDAT pdata
pdata	SEGMENT
$pdata$?dtor$0@?0???0?$_Vector_alloc@U?$_Vec_base_types@UVkQueueFamilyProperties@@V?$allocator@UVkQueueFamilyProperties@@@std@@@std@@@std@@QEAA@AEBV?$allocator@UVkQueueFamilyProperties@@@1@@Z@4HA DD imagerel ?dtor$0@?0???0?$_Vector_alloc@U?$_Vec_base_types@UVkQueueFamilyProperties@@V?$allocator@UVkQueueFamilyProperties@@@std@@@std@@@std@@QEAA@AEBV?$allocator@UVkQueueFamilyProperties@@@1@@Z@4HA
	DD	imagerel ?dtor$0@?0???0?$_Vector_alloc@U?$_Vec_base_types@UVkQueueFamilyProperties@@V?$allocator@UVkQueueFamilyProperties@@@std@@@std@@@std@@QEAA@AEBV?$allocator@UVkQueueFamilyProperties@@@1@@Z@4HA+39
	DD	imagerel $unwind$?dtor$0@?0???0?$_Vector_alloc@U?$_Vec_base_types@UVkQueueFamilyProperties@@V?$allocator@UVkQueueFamilyProperties@@@std@@@std@@@std@@QEAA@AEBV?$allocator@UVkQueueFamilyProperties@@@1@@Z@4HA
pdata	ENDS
;	COMDAT pdata
pdata	SEGMENT
$pdata$??1?$_Vector_alloc@U?$_Vec_base_types@UVkQueueFamilyProperties@@V?$allocator@UVkQueueFamilyProperties@@@std@@@std@@@std@@QEAA@XZ DD imagerel $LN3
	DD	imagerel $LN3+92
	DD	imagerel $unwind$??1?$_Vector_alloc@U?$_Vec_base_types@UVkQueueFamilyProperties@@V?$allocator@UVkQueueFamilyProperties@@@std@@@std@@@std@@QEAA@XZ
pdata	ENDS
;	COMDAT pdata
pdata	SEGMENT
$pdata$?_Alloc_proxy@?$_Vector_alloc@U?$_Vec_base_types@UVkQueueFamilyProperties@@V?$allocator@UVkQueueFamilyProperties@@@std@@@std@@@std@@QEAAXXZ DD imagerel $LN3
	DD	imagerel $LN3+264
	DD	imagerel $unwind$?_Alloc_proxy@?$_Vector_alloc@U?$_Vec_base_types@UVkQueueFamilyProperties@@V?$allocator@UVkQueueFamilyProperties@@@std@@@std@@@std@@QEAAXXZ
pdata	ENDS
;	COMDAT pdata
pdata	SEGMENT
$pdata$?_Free_proxy@?$_Vector_alloc@U?$_Vec_base_types@UVkQueueFamilyProperties@@V?$allocator@UVkQueueFamilyProperties@@@std@@@std@@@std@@QEAAXXZ DD imagerel $LN3
	DD	imagerel $LN3+209
	DD	imagerel $unwind$?_Free_proxy@?$_Vector_alloc@U?$_Vec_base_types@UVkQueueFamilyProperties@@V?$allocator@UVkQueueFamilyProperties@@@std@@@std@@@std@@QEAAXXZ
pdata	ENDS
;	COMDAT pdata
pdata	SEGMENT
$pdata$?_Myproxy@?$_Vector_alloc@U?$_Vec_base_types@UVkQueueFamilyProperties@@V?$allocator@UVkQueueFamilyProperties@@@std@@@std@@@std@@QEAAAEAPEAU_Container_proxy@2@XZ DD imagerel $LN3
	DD	imagerel $LN3+64
	DD	imagerel $unwind$?_Myproxy@?$_Vector_alloc@U?$_Vec_base_types@UVkQueueFamilyProperties@@V?$allocator@UVkQueueFamilyProperties@@@std@@@std@@@std@@QEAAAEAPEAU_Container_proxy@2@XZ
pdata	ENDS
;	COMDAT pdata
pdata	SEGMENT
$pdata$?_Orphan_all@?$_Vector_alloc@U?$_Vec_base_types@UVkQueueFamilyProperties@@V?$allocator@UVkQueueFamilyProperties@@@std@@@std@@@std@@QEAAXXZ DD imagerel $LN3
	DD	imagerel $LN3+72
	DD	imagerel $unwind$?_Orphan_all@?$_Vector_alloc@U?$_Vec_base_types@UVkQueueFamilyProperties@@V?$allocator@UVkQueueFamilyProperties@@@std@@@std@@@std@@QEAAXXZ
pdata	ENDS
;	COMDAT pdata
pdata	SEGMENT
$pdata$?_Getal@?$_Vector_alloc@U?$_Vec_base_types@UVkQueueFamilyProperties@@V?$allocator@UVkQueueFamilyProperties@@@std@@@std@@@std@@QEAAAEAU?$_Wrap_alloc@V?$allocator@UVkQueueFamilyProperties@@@std@@@2@XZ DD imagerel $LN3
	DD	imagerel $LN3+67
	DD	imagerel $unwind$?_Getal@?$_Vector_alloc@U?$_Vec_base_types@UVkQueueFamilyProperties@@V?$allocator@UVkQueueFamilyProperties@@@std@@@std@@@std@@QEAAAEAU?$_Wrap_alloc@V?$allocator@UVkQueueFamilyProperties@@@std@@@2@XZ
pdata	ENDS
;	COMDAT pdata
pdata	SEGMENT
$pdata$?_Getal@?$_Vector_alloc@U?$_Vec_base_types@UVkQueueFamilyProperties@@V?$allocator@UVkQueueFamilyProperties@@@std@@@std@@@std@@QEBAAEBU?$_Wrap_alloc@V?$allocator@UVkQueueFamilyProperties@@@std@@@2@XZ DD imagerel $LN3
	DD	imagerel $LN3+67
	DD	imagerel $unwind$?_Getal@?$_Vector_alloc@U?$_Vec_base_types@UVkQueueFamilyProperties@@V?$allocator@UVkQueueFamilyProperties@@@std@@@std@@@std@@QEBAAEBU?$_Wrap_alloc@V?$allocator@UVkQueueFamilyProperties@@@std@@@2@XZ
pdata	ENDS
;	COMDAT pdata
pdata	SEGMENT
$pdata$?_Get_data@?$_Vector_alloc@U?$_Vec_base_types@UVkQueueFamilyProperties@@V?$allocator@UVkQueueFamilyProperties@@@std@@@std@@@std@@QEAAAEAV?$_Vector_val@U?$_Simple_types@UVkQueueFamilyProperties@@@std@@@2@XZ DD imagerel $LN3
	DD	imagerel $LN3+67
	DD	imagerel $unwind$?_Get_data@?$_Vector_alloc@U?$_Vec_base_types@UVkQueueFamilyProperties@@V?$allocator@UVkQueueFamilyProperties@@@std@@@std@@@std@@QEAAAEAV?$_Vector_val@U?$_Simple_types@UVkQueueFamilyProperties@@@std@@@2@XZ
pdata	ENDS
;	COMDAT pdata
pdata	SEGMENT
$pdata$?_Get_data@?$_Vector_alloc@U?$_Vec_base_types@UVkQueueFamilyProperties@@V?$allocator@UVkQueueFamilyProperties@@@std@@@std@@@std@@QEBAAEBV?$_Vector_val@U?$_Simple_types@UVkQueueFamilyProperties@@@std@@@2@XZ DD imagerel $LN3
	DD	imagerel $LN3+67
	DD	imagerel $unwind$?_Get_data@?$_Vector_alloc@U?$_Vec_base_types@UVkQueueFamilyProperties@@V?$allocator@UVkQueueFamilyProperties@@@std@@@std@@@std@@QEBAAEBV?$_Vector_val@U?$_Simple_types@UVkQueueFamilyProperties@@@std@@@2@XZ
pdata	ENDS
;	COMDAT pdata
pdata	SEGMENT
$pdata$?_Myfirst@?$_Vector_alloc@U?$_Vec_base_types@UVkQueueFamilyProperties@@V?$allocator@UVkQueueFamilyProperties@@@std@@@std@@@std@@QEAAAEAPEAUVkQueueFamilyProperties@@XZ DD imagerel $LN3
	DD	imagerel $LN3+68
	DD	imagerel $unwind$?_Myfirst@?$_Vector_alloc@U?$_Vec_base_types@UVkQueueFamilyProperties@@V?$allocator@UVkQueueFamilyProperties@@@std@@@std@@@std@@QEAAAEAPEAUVkQueueFamilyProperties@@XZ
pdata	ENDS
;	COMDAT pdata
pdata	SEGMENT
$pdata$?_Myfirst@?$_Vector_alloc@U?$_Vec_base_types@UVkQueueFamilyProperties@@V?$allocator@UVkQueueFamilyProperties@@@std@@@std@@@std@@QEBAAEBQEAUVkQueueFamilyProperties@@XZ DD imagerel $LN3
	DD	imagerel $LN3+68
	DD	imagerel $unwind$?_Myfirst@?$_Vector_alloc@U?$_Vec_base_types@UVkQueueFamilyProperties@@V?$allocator@UVkQueueFamilyProperties@@@std@@@std@@@std@@QEBAAEBQEAUVkQueueFamilyProperties@@XZ
pdata	ENDS
;	COMDAT pdata
pdata	SEGMENT
$pdata$?_Mylast@?$_Vector_alloc@U?$_Vec_base_types@UVkQueueFamilyProperties@@V?$allocator@UVkQueueFamilyProperties@@@std@@@std@@@std@@QEAAAEAPEAUVkQueueFamilyProperties@@XZ DD imagerel $LN3
	DD	imagerel $LN3+68
	DD	imagerel $unwind$?_Mylast@?$_Vector_alloc@U?$_Vec_base_types@UVkQueueFamilyProperties@@V?$allocator@UVkQueueFamilyProperties@@@std@@@std@@@std@@QEAAAEAPEAUVkQueueFamilyProperties@@XZ
pdata	ENDS
;	COMDAT pdata
pdata	SEGMENT
$pdata$?_Mylast@?$_Vector_alloc@U?$_Vec_base_types@UVkQueueFamilyProperties@@V?$allocator@UVkQueueFamilyProperties@@@std@@@std@@@std@@QEBAAEBQEAUVkQueueFamilyProperties@@XZ DD imagerel $LN3
	DD	imagerel $LN3+68
	DD	imagerel $unwind$?_Mylast@?$_Vector_alloc@U?$_Vec_base_types@UVkQueueFamilyProperties@@V?$allocator@UVkQueueFamilyProperties@@@std@@@std@@@std@@QEBAAEBQEAUVkQueueFamilyProperties@@XZ
pdata	ENDS
;	COMDAT pdata
pdata	SEGMENT
$pdata$?_Myend@?$_Vector_alloc@U?$_Vec_base_types@UVkQueueFamilyProperties@@V?$allocator@UVkQueueFamilyProperties@@@std@@@std@@@std@@QEAAAEAPEAUVkQueueFamilyProperties@@XZ DD imagerel $LN3
	DD	imagerel $LN3+68
	DD	imagerel $unwind$?_Myend@?$_Vector_alloc@U?$_Vec_base_types@UVkQueueFamilyProperties@@V?$allocator@UVkQueueFamilyProperties@@@std@@@std@@@std@@QEAAAEAPEAUVkQueueFamilyProperties@@XZ
pdata	ENDS
;	COMDAT pdata
pdata	SEGMENT
$pdata$??0?$_Vector_val@U?$_Simple_types@UVkQueueFamilyProperties@@@std@@@std@@QEAA@XZ DD imagerel $LN4
	DD	imagerel $LN4+116
	DD	imagerel $unwind$??0?$_Vector_val@U?$_Simple_types@UVkQueueFamilyProperties@@@std@@@std@@QEAA@XZ
pdata	ENDS
;	COMDAT pdata
pdata	SEGMENT
$pdata$??1?$_Vector_val@U?$_Simple_types@UVkQueueFamilyProperties@@@std@@@std@@QEAA@XZ DD imagerel $LN3
	DD	imagerel $LN3+64
	DD	imagerel $unwind$??1?$_Vector_val@U?$_Simple_types@UVkQueueFamilyProperties@@@std@@@std@@QEAA@XZ
pdata	ENDS
;	COMDAT pdata
pdata	SEGMENT
$pdata$?_Get_first@?$_Compressed_pair@U?$_Wrap_alloc@V?$allocator@UVkQueueFamilyProperties@@@std@@@std@@V?$_Vector_val@U?$_Simple_types@UVkQueueFamilyProperties@@@std@@@2@$00@std@@QEAAAEAU?$_Wrap_alloc@V?$allocator@UVkQueueFamilyProperties@@@std@@@2@XZ DD imagerel $LN3
	DD	imagerel $LN3+57
	DD	imagerel $unwind$?_Get_first@?$_Compressed_pair@U?$_Wrap_alloc@V?$allocator@UVkQueueFamilyProperties@@@std@@@std@@V?$_Vector_val@U?$_Simple_types@UVkQueueFamilyProperties@@@std@@@2@$00@std@@QEAAAEAU?$_Wrap_alloc@V?$allocator@UVkQueueFamilyProperties@@@std@@@2@XZ
pdata	ENDS
;	COMDAT pdata
pdata	SEGMENT
$pdata$?_Get_first@?$_Compressed_pair@U?$_Wrap_alloc@V?$allocator@UVkQueueFamilyProperties@@@std@@@std@@V?$_Vector_val@U?$_Simple_types@UVkQueueFamilyProperties@@@std@@@2@$00@std@@QEBAAEBU?$_Wrap_alloc@V?$allocator@UVkQueueFamilyProperties@@@std@@@2@XZ DD imagerel $LN3
	DD	imagerel $LN3+57
	DD	imagerel $unwind$?_Get_first@?$_Compressed_pair@U?$_Wrap_alloc@V?$allocator@UVkQueueFamilyProperties@@@std@@@std@@V?$_Vector_val@U?$_Simple_types@UVkQueueFamilyProperties@@@std@@@2@$00@std@@QEBAAEBU?$_Wrap_alloc@V?$allocator@UVkQueueFamilyProperties@@@std@@@2@XZ
pdata	ENDS
;	COMDAT pdata
pdata	SEGMENT
$pdata$?_Get_second@?$_Compressed_pair@U?$_Wrap_alloc@V?$allocator@UVkQueueFamilyProperties@@@std@@@std@@V?$_Vector_val@U?$_Simple_types@UVkQueueFamilyProperties@@@std@@@2@$00@std@@QEAAAEAV?$_Vector_val@U?$_Simple_types@UVkQueueFamilyProperties@@@std@@@2@XZ DD imagerel $LN3
	DD	imagerel $LN3+57
	DD	imagerel $unwind$?_Get_second@?$_Compressed_pair@U?$_Wrap_alloc@V?$allocator@UVkQueueFamilyProperties@@@std@@@std@@V?$_Vector_val@U?$_Simple_types@UVkQueueFamilyProperties@@@std@@@2@$00@std@@QEAAAEAV?$_Vector_val@U?$_Simple_types@UVkQueueFamilyProperties@@@std@@@2@XZ
pdata	ENDS
;	COMDAT pdata
pdata	SEGMENT
$pdata$?_Get_second@?$_Compressed_pair@U?$_Wrap_alloc@V?$allocator@UVkQueueFamilyProperties@@@std@@@std@@V?$_Vector_val@U?$_Simple_types@UVkQueueFamilyProperties@@@std@@@2@$00@std@@QEBAAEBV?$_Vector_val@U?$_Simple_types@UVkQueueFamilyProperties@@@std@@@2@XZ DD imagerel $LN3
	DD	imagerel $LN3+57
	DD	imagerel $unwind$?_Get_second@?$_Compressed_pair@U?$_Wrap_alloc@V?$allocator@UVkQueueFamilyProperties@@@std@@@std@@V?$_Vector_val@U?$_Simple_types@UVkQueueFamilyProperties@@@std@@@2@$00@std@@QEBAAEBV?$_Vector_val@U?$_Simple_types@UVkQueueFamilyProperties@@@std@@@2@XZ
pdata	ENDS
;	COMDAT pdata
pdata	SEGMENT
$pdata$??1?$_Compressed_pair@U?$_Wrap_alloc@V?$allocator@UVkQueueFamilyProperties@@@std@@@std@@V?$_Vector_val@U?$_Simple_types@UVkQueueFamilyProperties@@@std@@@2@$00@std@@QEAA@XZ DD imagerel $LN3
	DD	imagerel $LN3+67
	DD	imagerel $unwind$??1?$_Compressed_pair@U?$_Wrap_alloc@V?$allocator@UVkQueueFamilyProperties@@@std@@@std@@V?$_Vector_val@U?$_Simple_types@UVkQueueFamilyProperties@@@std@@@2@$00@std@@QEAA@XZ
pdata	ENDS
;	COMDAT pdata
pdata	SEGMENT
$pdata$??0?$vector@UVkQueueFamilyProperties@@V?$allocator@UVkQueueFamilyProperties@@@std@@@std@@QEAA@_K@Z DD imagerel $LN12
	DD	imagerel $LN12+234
	DD	imagerel $unwind$??0?$vector@UVkQueueFamilyProperties@@V?$allocator@UVkQueueFamilyProperties@@@std@@@std@@QEAA@_K@Z
pdata	ENDS
;	COMDAT pdata
pdata	SEGMENT
$pdata$?dtor$0@?0???0?$vector@UVkQueueFamilyProperties@@V?$allocator@UVkQueueFamilyProperties@@@std@@@std@@QEAA@_K@Z@4HA DD imagerel ?dtor$0@?0???0?$vector@UVkQueueFamilyProperties@@V?$allocator@UVkQueueFamilyProperties@@@std@@@std@@QEAA@_K@Z@4HA
	DD	imagerel ?dtor$0@?0???0?$vector@UVkQueueFamilyProperties@@V?$allocator@UVkQueueFamilyProperties@@@std@@@std@@QEAA@_K@Z@4HA+39
	DD	imagerel $unwind$?dtor$0@?0???0?$vector@UVkQueueFamilyProperties@@V?$allocator@UVkQueueFamilyProperties@@@std@@@std@@QEAA@_K@Z@4HA
pdata	ENDS
;	COMDAT pdata
pdata	SEGMENT
$pdata$?catch$0@?0???0?$vector@UVkQueueFamilyProperties@@V?$allocator@UVkQueueFamilyProperties@@@std@@@std@@QEAA@_K@Z@4HA DD imagerel ?catch$0@?0???0?$vector@UVkQueueFamilyProperties@@V?$allocator@UVkQueueFamilyProperties@@@std@@@std@@QEAA@_K@Z@4HA
	DD	imagerel ?catch$0@?0???0?$vector@UVkQueueFamilyProperties@@V?$allocator@UVkQueueFamilyProperties@@@std@@@std@@QEAA@_K@Z@4HA+57
	DD	imagerel $unwind$?catch$0@?0???0?$vector@UVkQueueFamilyProperties@@V?$allocator@UVkQueueFamilyProperties@@@std@@@std@@QEAA@_K@Z@4HA
pdata	ENDS
;	COMDAT pdata
pdata	SEGMENT
$pdata$??1?$vector@UVkQueueFamilyProperties@@V?$allocator@UVkQueueFamilyProperties@@@std@@@std@@QEAA@XZ DD imagerel $LN3
	DD	imagerel $LN3+89
	DD	imagerel $unwind$??1?$vector@UVkQueueFamilyProperties@@V?$allocator@UVkQueueFamilyProperties@@@std@@@std@@QEAA@XZ
pdata	ENDS
;	COMDAT pdata
pdata	SEGMENT
$pdata$?size@?$vector@UVkQueueFamilyProperties@@V?$allocator@UVkQueueFamilyProperties@@@std@@@std@@QEBA_KXZ DD imagerel $LN3
	DD	imagerel $LN3+112
	DD	imagerel $unwind$?size@?$vector@UVkQueueFamilyProperties@@V?$allocator@UVkQueueFamilyProperties@@@std@@@std@@QEBA_KXZ
pdata	ENDS
;	COMDAT pdata
pdata	SEGMENT
$pdata$?max_size@?$vector@UVkQueueFamilyProperties@@V?$allocator@UVkQueueFamilyProperties@@@std@@@std@@QEBA_KXZ DD imagerel $LN3
	DD	imagerel $LN3+79
	DD	imagerel $unwind$?max_size@?$vector@UVkQueueFamilyProperties@@V?$allocator@UVkQueueFamilyProperties@@@std@@@std@@QEBA_KXZ
pdata	ENDS
;	COMDAT pdata
pdata	SEGMENT
$pdata$??A?$vector@UVkQueueFamilyProperties@@V?$allocator@UVkQueueFamilyProperties@@@std@@@std@@QEAAAEAUVkQueueFamilyProperties@@_K@Z DD imagerel $LN6
	DD	imagerel $LN6+253
	DD	imagerel $unwind$??A?$vector@UVkQueueFamilyProperties@@V?$allocator@UVkQueueFamilyProperties@@@std@@@std@@QEAAAEAUVkQueueFamilyProperties@@_K@Z
pdata	ENDS
;	COMDAT pdata
pdata	SEGMENT
$pdata$?data@?$vector@UVkQueueFamilyProperties@@V?$allocator@UVkQueueFamilyProperties@@@std@@@std@@QEAAPEAUVkQueueFamilyProperties@@XZ DD imagerel $LN3
	DD	imagerel $LN3+67
	DD	imagerel $unwind$?data@?$vector@UVkQueueFamilyProperties@@V?$allocator@UVkQueueFamilyProperties@@@std@@@std@@QEAAPEAUVkQueueFamilyProperties@@XZ
pdata	ENDS
;	COMDAT pdata
pdata	SEGMENT
$pdata$?_Buy@?$vector@UVkQueueFamilyProperties@@V?$allocator@UVkQueueFamilyProperties@@@std@@@std@@IEAA_N_K@Z DD imagerel $LN7
	DD	imagerel $LN7+331
	DD	imagerel $unwind$?_Buy@?$vector@UVkQueueFamilyProperties@@V?$allocator@UVkQueueFamilyProperties@@@std@@@std@@IEAA_N_K@Z
pdata	ENDS
;	COMDAT pdata
pdata	SEGMENT
$pdata$?_Destroy@?$vector@UVkQueueFamilyProperties@@V?$allocator@UVkQueueFamilyProperties@@@std@@@std@@IEAAXPEAUVkQueueFamilyProperties@@0@Z DD imagerel $LN3
	DD	imagerel $LN3+96
	DD	imagerel $unwind$?_Destroy@?$vector@UVkQueueFamilyProperties@@V?$allocator@UVkQueueFamilyProperties@@@std@@@std@@IEAAXPEAUVkQueueFamilyProperties@@0@Z
pdata	ENDS
;	COMDAT pdata
pdata	SEGMENT
$pdata$?_Tidy@?$vector@UVkQueueFamilyProperties@@V?$allocator@UVkQueueFamilyProperties@@@std@@@std@@IEAAXXZ DD imagerel $LN4
	DD	imagerel $LN4+325
	DD	imagerel $unwind$?_Tidy@?$vector@UVkQueueFamilyProperties@@V?$allocator@UVkQueueFamilyProperties@@@std@@@std@@IEAAXXZ
pdata	ENDS
;	COMDAT pdata
pdata	SEGMENT
$pdata$?_Xlen@?$vector@UVkQueueFamilyProperties@@V?$allocator@UVkQueueFamilyProperties@@@std@@@std@@IEBAXXZ DD imagerel $LN3
	DD	imagerel $LN3+65
	DD	imagerel $unwind$?_Xlen@?$vector@UVkQueueFamilyProperties@@V?$allocator@UVkQueueFamilyProperties@@@std@@@std@@IEBAXXZ
pdata	ENDS
;	COMDAT pdata
pdata	SEGMENT
$pdata$?__autoclassinit2@?$vector@UVkQueueFamilyProperties@@V?$allocator@UVkQueueFamilyProperties@@@std@@@std@@QEAAX_K@Z DD imagerel $LN3
	DD	imagerel $LN3+73
	DD	imagerel $unwind$?__autoclassinit2@?$vector@UVkQueueFamilyProperties@@V?$allocator@UVkQueueFamilyProperties@@@std@@@std@@QEAAX_K@Z
pdata	ENDS
;	COMDAT pdata
pdata	SEGMENT
$pdata$??0?$allocator@UVkSurfaceFormatKHR@@@std@@QEAA@XZ DD imagerel $LN3
	DD	imagerel $LN3+57
	DD	imagerel $unwind$??0?$allocator@UVkSurfaceFormatKHR@@@std@@QEAA@XZ
pdata	ENDS
;	COMDAT pdata
pdata	SEGMENT
$pdata$??0?$allocator@UVkSurfaceFormatKHR@@@std@@QEAA@AEBV01@@Z DD imagerel $LN3
	DD	imagerel $LN3+62
	DD	imagerel $unwind$??0?$allocator@UVkSurfaceFormatKHR@@@std@@QEAA@AEBV01@@Z
pdata	ENDS
;	COMDAT pdata
pdata	SEGMENT
$pdata$?deallocate@?$allocator@UVkSurfaceFormatKHR@@@std@@QEAAXPEAUVkSurfaceFormatKHR@@_K@Z DD imagerel $LN3
	DD	imagerel $LN3+87
	DD	imagerel $unwind$?deallocate@?$allocator@UVkSurfaceFormatKHR@@@std@@QEAAXPEAUVkSurfaceFormatKHR@@_K@Z
pdata	ENDS
;	COMDAT pdata
pdata	SEGMENT
$pdata$?allocate@?$allocator@UVkSurfaceFormatKHR@@@std@@QEAAPEAUVkSurfaceFormatKHR@@_K@Z DD imagerel $LN3
	DD	imagerel $LN3+77
	DD	imagerel $unwind$?allocate@?$allocator@UVkSurfaceFormatKHR@@@std@@QEAAPEAUVkSurfaceFormatKHR@@_K@Z
pdata	ENDS
;	COMDAT pdata
pdata	SEGMENT
$pdata$?max_size@?$allocator@UVkSurfaceFormatKHR@@@std@@QEBA_KXZ DD imagerel $LN3
	DD	imagerel $LN3+60
	DD	imagerel $unwind$?max_size@?$allocator@UVkSurfaceFormatKHR@@@std@@QEBA_KXZ
pdata	ENDS
;	COMDAT pdata
pdata	SEGMENT
$pdata$?max_size@?$allocator_traits@V?$allocator@UVkSurfaceFormatKHR@@@std@@@std@@SA_KAEBV?$allocator@UVkSurfaceFormatKHR@@@2@@Z DD imagerel $LN3
	DD	imagerel $LN3+64
	DD	imagerel $unwind$?max_size@?$allocator_traits@V?$allocator@UVkSurfaceFormatKHR@@@std@@@std@@SA_KAEBV?$allocator@UVkSurfaceFormatKHR@@@2@@Z
pdata	ENDS
;	COMDAT pdata
pdata	SEGMENT
$pdata$??0?$_Wrap_alloc@V?$allocator@UVkSurfaceFormatKHR@@@std@@@std@@QEAA@AEBV?$allocator@UVkSurfaceFormatKHR@@@1@@Z DD imagerel $LN3
	DD	imagerel $LN3+83
	DD	imagerel $unwind$??0?$_Wrap_alloc@V?$allocator@UVkSurfaceFormatKHR@@@std@@@std@@QEAA@AEBV?$allocator@UVkSurfaceFormatKHR@@@1@@Z
pdata	ENDS
;	COMDAT pdata
pdata	SEGMENT
$pdata$?allocate@?$_Wrap_alloc@V?$allocator@UVkSurfaceFormatKHR@@@std@@@std@@QEAAPEAUVkSurfaceFormatKHR@@_K@Z DD imagerel $LN3
	DD	imagerel $LN3+76
	DD	imagerel $unwind$?allocate@?$_Wrap_alloc@V?$allocator@UVkSurfaceFormatKHR@@@std@@@std@@QEAAPEAUVkSurfaceFormatKHR@@_K@Z
pdata	ENDS
;	COMDAT pdata
pdata	SEGMENT
$pdata$?deallocate@?$_Wrap_alloc@V?$allocator@UVkSurfaceFormatKHR@@@std@@@std@@QEAAXPEAUVkSurfaceFormatKHR@@_K@Z DD imagerel $LN3
	DD	imagerel $LN3+88
	DD	imagerel $unwind$?deallocate@?$_Wrap_alloc@V?$allocator@UVkSurfaceFormatKHR@@@std@@@std@@QEAAXPEAUVkSurfaceFormatKHR@@_K@Z
pdata	ENDS
;	COMDAT pdata
pdata	SEGMENT
$pdata$?max_size@?$_Wrap_alloc@V?$allocator@UVkSurfaceFormatKHR@@@std@@@std@@QEBA_KU_Nil@2@@Z DD imagerel $LN3
	DD	imagerel $LN3+68
	DD	imagerel $unwind$?max_size@?$_Wrap_alloc@V?$allocator@UVkSurfaceFormatKHR@@@std@@@std@@QEBA_KU_Nil@2@@Z
pdata	ENDS
;	COMDAT pdata
pdata	SEGMENT
$pdata$??0?$_Vector_alloc@U?$_Vec_base_types@UVkSurfaceFormatKHR@@V?$allocator@UVkSurfaceFormatKHR@@@std@@@std@@@std@@QEAA@AEBV?$allocator@UVkSurfaceFormatKHR@@@1@@Z DD imagerel $LN4
	DD	imagerel $LN4+118
	DD	imagerel $unwind$??0?$_Vector_alloc@U?$_Vec_base_types@UVkSurfaceFormatKHR@@V?$allocator@UVkSurfaceFormatKHR@@@std@@@std@@@std@@QEAA@AEBV?$allocator@UVkSurfaceFormatKHR@@@1@@Z
pdata	ENDS
;	COMDAT pdata
pdata	SEGMENT
$pdata$?dtor$0@?0???0?$_Vector_alloc@U?$_Vec_base_types@UVkSurfaceFormatKHR@@V?$allocator@UVkSurfaceFormatKHR@@@std@@@std@@@std@@QEAA@AEBV?$allocator@UVkSurfaceFormatKHR@@@1@@Z@4HA DD imagerel ?dtor$0@?0???0?$_Vector_alloc@U?$_Vec_base_types@UVkSurfaceFormatKHR@@V?$allocator@UVkSurfaceFormatKHR@@@std@@@std@@@std@@QEAA@AEBV?$allocator@UVkSurfaceFormatKHR@@@1@@Z@4HA
	DD	imagerel ?dtor$0@?0???0?$_Vector_alloc@U?$_Vec_base_types@UVkSurfaceFormatKHR@@V?$allocator@UVkSurfaceFormatKHR@@@std@@@std@@@std@@QEAA@AEBV?$allocator@UVkSurfaceFormatKHR@@@1@@Z@4HA+39
	DD	imagerel $unwind$?dtor$0@?0???0?$_Vector_alloc@U?$_Vec_base_types@UVkSurfaceFormatKHR@@V?$allocator@UVkSurfaceFormatKHR@@@std@@@std@@@std@@QEAA@AEBV?$allocator@UVkSurfaceFormatKHR@@@1@@Z@4HA
pdata	ENDS
;	COMDAT pdata
pdata	SEGMENT
$pdata$??1?$_Vector_alloc@U?$_Vec_base_types@UVkSurfaceFormatKHR@@V?$allocator@UVkSurfaceFormatKHR@@@std@@@std@@@std@@QEAA@XZ DD imagerel $LN3
	DD	imagerel $LN3+92
	DD	imagerel $unwind$??1?$_Vector_alloc@U?$_Vec_base_types@UVkSurfaceFormatKHR@@V?$allocator@UVkSurfaceFormatKHR@@@std@@@std@@@std@@QEAA@XZ
pdata	ENDS
;	COMDAT pdata
pdata	SEGMENT
$pdata$?_Alloc_proxy@?$_Vector_alloc@U?$_Vec_base_types@UVkSurfaceFormatKHR@@V?$allocator@UVkSurfaceFormatKHR@@@std@@@std@@@std@@QEAAXXZ DD imagerel $LN3
	DD	imagerel $LN3+264
	DD	imagerel $unwind$?_Alloc_proxy@?$_Vector_alloc@U?$_Vec_base_types@UVkSurfaceFormatKHR@@V?$allocator@UVkSurfaceFormatKHR@@@std@@@std@@@std@@QEAAXXZ
pdata	ENDS
;	COMDAT pdata
pdata	SEGMENT
$pdata$?_Free_proxy@?$_Vector_alloc@U?$_Vec_base_types@UVkSurfaceFormatKHR@@V?$allocator@UVkSurfaceFormatKHR@@@std@@@std@@@std@@QEAAXXZ DD imagerel $LN3
	DD	imagerel $LN3+209
	DD	imagerel $unwind$?_Free_proxy@?$_Vector_alloc@U?$_Vec_base_types@UVkSurfaceFormatKHR@@V?$allocator@UVkSurfaceFormatKHR@@@std@@@std@@@std@@QEAAXXZ
pdata	ENDS
;	COMDAT pdata
pdata	SEGMENT
$pdata$?_Myproxy@?$_Vector_alloc@U?$_Vec_base_types@UVkSurfaceFormatKHR@@V?$allocator@UVkSurfaceFormatKHR@@@std@@@std@@@std@@QEAAAEAPEAU_Container_proxy@2@XZ DD imagerel $LN3
	DD	imagerel $LN3+64
	DD	imagerel $unwind$?_Myproxy@?$_Vector_alloc@U?$_Vec_base_types@UVkSurfaceFormatKHR@@V?$allocator@UVkSurfaceFormatKHR@@@std@@@std@@@std@@QEAAAEAPEAU_Container_proxy@2@XZ
pdata	ENDS
;	COMDAT pdata
pdata	SEGMENT
$pdata$?_Orphan_all@?$_Vector_alloc@U?$_Vec_base_types@UVkSurfaceFormatKHR@@V?$allocator@UVkSurfaceFormatKHR@@@std@@@std@@@std@@QEAAXXZ DD imagerel $LN3
	DD	imagerel $LN3+72
	DD	imagerel $unwind$?_Orphan_all@?$_Vector_alloc@U?$_Vec_base_types@UVkSurfaceFormatKHR@@V?$allocator@UVkSurfaceFormatKHR@@@std@@@std@@@std@@QEAAXXZ
pdata	ENDS
;	COMDAT pdata
pdata	SEGMENT
$pdata$?_Getal@?$_Vector_alloc@U?$_Vec_base_types@UVkSurfaceFormatKHR@@V?$allocator@UVkSurfaceFormatKHR@@@std@@@std@@@std@@QEAAAEAU?$_Wrap_alloc@V?$allocator@UVkSurfaceFormatKHR@@@std@@@2@XZ DD imagerel $LN3
	DD	imagerel $LN3+67
	DD	imagerel $unwind$?_Getal@?$_Vector_alloc@U?$_Vec_base_types@UVkSurfaceFormatKHR@@V?$allocator@UVkSurfaceFormatKHR@@@std@@@std@@@std@@QEAAAEAU?$_Wrap_alloc@V?$allocator@UVkSurfaceFormatKHR@@@std@@@2@XZ
pdata	ENDS
;	COMDAT pdata
pdata	SEGMENT
$pdata$?_Getal@?$_Vector_alloc@U?$_Vec_base_types@UVkSurfaceFormatKHR@@V?$allocator@UVkSurfaceFormatKHR@@@std@@@std@@@std@@QEBAAEBU?$_Wrap_alloc@V?$allocator@UVkSurfaceFormatKHR@@@std@@@2@XZ DD imagerel $LN3
	DD	imagerel $LN3+67
	DD	imagerel $unwind$?_Getal@?$_Vector_alloc@U?$_Vec_base_types@UVkSurfaceFormatKHR@@V?$allocator@UVkSurfaceFormatKHR@@@std@@@std@@@std@@QEBAAEBU?$_Wrap_alloc@V?$allocator@UVkSurfaceFormatKHR@@@std@@@2@XZ
pdata	ENDS
;	COMDAT pdata
pdata	SEGMENT
$pdata$?_Get_data@?$_Vector_alloc@U?$_Vec_base_types@UVkSurfaceFormatKHR@@V?$allocator@UVkSurfaceFormatKHR@@@std@@@std@@@std@@QEAAAEAV?$_Vector_val@U?$_Simple_types@UVkSurfaceFormatKHR@@@std@@@2@XZ DD imagerel $LN3
	DD	imagerel $LN3+67
	DD	imagerel $unwind$?_Get_data@?$_Vector_alloc@U?$_Vec_base_types@UVkSurfaceFormatKHR@@V?$allocator@UVkSurfaceFormatKHR@@@std@@@std@@@std@@QEAAAEAV?$_Vector_val@U?$_Simple_types@UVkSurfaceFormatKHR@@@std@@@2@XZ
pdata	ENDS
;	COMDAT pdata
pdata	SEGMENT
$pdata$?_Get_data@?$_Vector_alloc@U?$_Vec_base_types@UVkSurfaceFormatKHR@@V?$allocator@UVkSurfaceFormatKHR@@@std@@@std@@@std@@QEBAAEBV?$_Vector_val@U?$_Simple_types@UVkSurfaceFormatKHR@@@std@@@2@XZ DD imagerel $LN3
	DD	imagerel $LN3+67
	DD	imagerel $unwind$?_Get_data@?$_Vector_alloc@U?$_Vec_base_types@UVkSurfaceFormatKHR@@V?$allocator@UVkSurfaceFormatKHR@@@std@@@std@@@std@@QEBAAEBV?$_Vector_val@U?$_Simple_types@UVkSurfaceFormatKHR@@@std@@@2@XZ
pdata	ENDS
;	COMDAT pdata
pdata	SEGMENT
$pdata$?_Myfirst@?$_Vector_alloc@U?$_Vec_base_types@UVkSurfaceFormatKHR@@V?$allocator@UVkSurfaceFormatKHR@@@std@@@std@@@std@@QEAAAEAPEAUVkSurfaceFormatKHR@@XZ DD imagerel $LN3
	DD	imagerel $LN3+68
	DD	imagerel $unwind$?_Myfirst@?$_Vector_alloc@U?$_Vec_base_types@UVkSurfaceFormatKHR@@V?$allocator@UVkSurfaceFormatKHR@@@std@@@std@@@std@@QEAAAEAPEAUVkSurfaceFormatKHR@@XZ
pdata	ENDS
;	COMDAT pdata
pdata	SEGMENT
$pdata$?_Myfirst@?$_Vector_alloc@U?$_Vec_base_types@UVkSurfaceFormatKHR@@V?$allocator@UVkSurfaceFormatKHR@@@std@@@std@@@std@@QEBAAEBQEAUVkSurfaceFormatKHR@@XZ DD imagerel $LN3
	DD	imagerel $LN3+68
	DD	imagerel $unwind$?_Myfirst@?$_Vector_alloc@U?$_Vec_base_types@UVkSurfaceFormatKHR@@V?$allocator@UVkSurfaceFormatKHR@@@std@@@std@@@std@@QEBAAEBQEAUVkSurfaceFormatKHR@@XZ
pdata	ENDS
;	COMDAT pdata
pdata	SEGMENT
$pdata$?_Mylast@?$_Vector_alloc@U?$_Vec_base_types@UVkSurfaceFormatKHR@@V?$allocator@UVkSurfaceFormatKHR@@@std@@@std@@@std@@QEAAAEAPEAUVkSurfaceFormatKHR@@XZ DD imagerel $LN3
	DD	imagerel $LN3+68
	DD	imagerel $unwind$?_Mylast@?$_Vector_alloc@U?$_Vec_base_types@UVkSurfaceFormatKHR@@V?$allocator@UVkSurfaceFormatKHR@@@std@@@std@@@std@@QEAAAEAPEAUVkSurfaceFormatKHR@@XZ
pdata	ENDS
;	COMDAT pdata
pdata	SEGMENT
$pdata$?_Mylast@?$_Vector_alloc@U?$_Vec_base_types@UVkSurfaceFormatKHR@@V?$allocator@UVkSurfaceFormatKHR@@@std@@@std@@@std@@QEBAAEBQEAUVkSurfaceFormatKHR@@XZ DD imagerel $LN3
	DD	imagerel $LN3+68
	DD	imagerel $unwind$?_Mylast@?$_Vector_alloc@U?$_Vec_base_types@UVkSurfaceFormatKHR@@V?$allocator@UVkSurfaceFormatKHR@@@std@@@std@@@std@@QEBAAEBQEAUVkSurfaceFormatKHR@@XZ
pdata	ENDS
;	COMDAT pdata
pdata	SEGMENT
$pdata$?_Myend@?$_Vector_alloc@U?$_Vec_base_types@UVkSurfaceFormatKHR@@V?$allocator@UVkSurfaceFormatKHR@@@std@@@std@@@std@@QEAAAEAPEAUVkSurfaceFormatKHR@@XZ DD imagerel $LN3
	DD	imagerel $LN3+68
	DD	imagerel $unwind$?_Myend@?$_Vector_alloc@U?$_Vec_base_types@UVkSurfaceFormatKHR@@V?$allocator@UVkSurfaceFormatKHR@@@std@@@std@@@std@@QEAAAEAPEAUVkSurfaceFormatKHR@@XZ
pdata	ENDS
;	COMDAT pdata
pdata	SEGMENT
$pdata$??0?$_Vector_val@U?$_Simple_types@UVkSurfaceFormatKHR@@@std@@@std@@QEAA@XZ DD imagerel $LN4
	DD	imagerel $LN4+116
	DD	imagerel $unwind$??0?$_Vector_val@U?$_Simple_types@UVkSurfaceFormatKHR@@@std@@@std@@QEAA@XZ
pdata	ENDS
;	COMDAT pdata
pdata	SEGMENT
$pdata$??1?$_Vector_val@U?$_Simple_types@UVkSurfaceFormatKHR@@@std@@@std@@QEAA@XZ DD imagerel $LN3
	DD	imagerel $LN3+64
	DD	imagerel $unwind$??1?$_Vector_val@U?$_Simple_types@UVkSurfaceFormatKHR@@@std@@@std@@QEAA@XZ
pdata	ENDS
;	COMDAT pdata
pdata	SEGMENT
$pdata$?_Get_first@?$_Compressed_pair@U?$_Wrap_alloc@V?$allocator@UVkSurfaceFormatKHR@@@std@@@std@@V?$_Vector_val@U?$_Simple_types@UVkSurfaceFormatKHR@@@std@@@2@$00@std@@QEAAAEAU?$_Wrap_alloc@V?$allocator@UVkSurfaceFormatKHR@@@std@@@2@XZ DD imagerel $LN3
	DD	imagerel $LN3+57
	DD	imagerel $unwind$?_Get_first@?$_Compressed_pair@U?$_Wrap_alloc@V?$allocator@UVkSurfaceFormatKHR@@@std@@@std@@V?$_Vector_val@U?$_Simple_types@UVkSurfaceFormatKHR@@@std@@@2@$00@std@@QEAAAEAU?$_Wrap_alloc@V?$allocator@UVkSurfaceFormatKHR@@@std@@@2@XZ
pdata	ENDS
;	COMDAT pdata
pdata	SEGMENT
$pdata$?_Get_first@?$_Compressed_pair@U?$_Wrap_alloc@V?$allocator@UVkSurfaceFormatKHR@@@std@@@std@@V?$_Vector_val@U?$_Simple_types@UVkSurfaceFormatKHR@@@std@@@2@$00@std@@QEBAAEBU?$_Wrap_alloc@V?$allocator@UVkSurfaceFormatKHR@@@std@@@2@XZ DD imagerel $LN3
	DD	imagerel $LN3+57
	DD	imagerel $unwind$?_Get_first@?$_Compressed_pair@U?$_Wrap_alloc@V?$allocator@UVkSurfaceFormatKHR@@@std@@@std@@V?$_Vector_val@U?$_Simple_types@UVkSurfaceFormatKHR@@@std@@@2@$00@std@@QEBAAEBU?$_Wrap_alloc@V?$allocator@UVkSurfaceFormatKHR@@@std@@@2@XZ
pdata	ENDS
;	COMDAT pdata
pdata	SEGMENT
$pdata$?_Get_second@?$_Compressed_pair@U?$_Wrap_alloc@V?$allocator@UVkSurfaceFormatKHR@@@std@@@std@@V?$_Vector_val@U?$_Simple_types@UVkSurfaceFormatKHR@@@std@@@2@$00@std@@QEAAAEAV?$_Vector_val@U?$_Simple_types@UVkSurfaceFormatKHR@@@std@@@2@XZ DD imagerel $LN3
	DD	imagerel $LN3+57
	DD	imagerel $unwind$?_Get_second@?$_Compressed_pair@U?$_Wrap_alloc@V?$allocator@UVkSurfaceFormatKHR@@@std@@@std@@V?$_Vector_val@U?$_Simple_types@UVkSurfaceFormatKHR@@@std@@@2@$00@std@@QEAAAEAV?$_Vector_val@U?$_Simple_types@UVkSurfaceFormatKHR@@@std@@@2@XZ
pdata	ENDS
;	COMDAT pdata
pdata	SEGMENT
$pdata$?_Get_second@?$_Compressed_pair@U?$_Wrap_alloc@V?$allocator@UVkSurfaceFormatKHR@@@std@@@std@@V?$_Vector_val@U?$_Simple_types@UVkSurfaceFormatKHR@@@std@@@2@$00@std@@QEBAAEBV?$_Vector_val@U?$_Simple_types@UVkSurfaceFormatKHR@@@std@@@2@XZ DD imagerel $LN3
	DD	imagerel $LN3+57
	DD	imagerel $unwind$?_Get_second@?$_Compressed_pair@U?$_Wrap_alloc@V?$allocator@UVkSurfaceFormatKHR@@@std@@@std@@V?$_Vector_val@U?$_Simple_types@UVkSurfaceFormatKHR@@@std@@@2@$00@std@@QEBAAEBV?$_Vector_val@U?$_Simple_types@UVkSurfaceFormatKHR@@@std@@@2@XZ
pdata	ENDS
;	COMDAT pdata
pdata	SEGMENT
$pdata$??1?$_Compressed_pair@U?$_Wrap_alloc@V?$allocator@UVkSurfaceFormatKHR@@@std@@@std@@V?$_Vector_val@U?$_Simple_types@UVkSurfaceFormatKHR@@@std@@@2@$00@std@@QEAA@XZ DD imagerel $LN3
	DD	imagerel $LN3+67
	DD	imagerel $unwind$??1?$_Compressed_pair@U?$_Wrap_alloc@V?$allocator@UVkSurfaceFormatKHR@@@std@@@std@@V?$_Vector_val@U?$_Simple_types@UVkSurfaceFormatKHR@@@std@@@2@$00@std@@QEAA@XZ
pdata	ENDS
;	COMDAT pdata
pdata	SEGMENT
$pdata$??0?$vector@UVkSurfaceFormatKHR@@V?$allocator@UVkSurfaceFormatKHR@@@std@@@std@@QEAA@_K@Z DD imagerel $LN12
	DD	imagerel $LN12+237
	DD	imagerel $unwind$??0?$vector@UVkSurfaceFormatKHR@@V?$allocator@UVkSurfaceFormatKHR@@@std@@@std@@QEAA@_K@Z
pdata	ENDS
;	COMDAT pdata
pdata	SEGMENT
$pdata$?dtor$0@?0???0?$vector@UVkSurfaceFormatKHR@@V?$allocator@UVkSurfaceFormatKHR@@@std@@@std@@QEAA@_K@Z@4HA DD imagerel ?dtor$0@?0???0?$vector@UVkSurfaceFormatKHR@@V?$allocator@UVkSurfaceFormatKHR@@@std@@@std@@QEAA@_K@Z@4HA
	DD	imagerel ?dtor$0@?0???0?$vector@UVkSurfaceFormatKHR@@V?$allocator@UVkSurfaceFormatKHR@@@std@@@std@@QEAA@_K@Z@4HA+39
	DD	imagerel $unwind$?dtor$0@?0???0?$vector@UVkSurfaceFormatKHR@@V?$allocator@UVkSurfaceFormatKHR@@@std@@@std@@QEAA@_K@Z@4HA
pdata	ENDS
;	COMDAT pdata
pdata	SEGMENT
$pdata$?catch$0@?0???0?$vector@UVkSurfaceFormatKHR@@V?$allocator@UVkSurfaceFormatKHR@@@std@@@std@@QEAA@_K@Z@4HA DD imagerel ?catch$0@?0???0?$vector@UVkSurfaceFormatKHR@@V?$allocator@UVkSurfaceFormatKHR@@@std@@@std@@QEAA@_K@Z@4HA
	DD	imagerel ?catch$0@?0???0?$vector@UVkSurfaceFormatKHR@@V?$allocator@UVkSurfaceFormatKHR@@@std@@@std@@QEAA@_K@Z@4HA+57
	DD	imagerel $unwind$?catch$0@?0???0?$vector@UVkSurfaceFormatKHR@@V?$allocator@UVkSurfaceFormatKHR@@@std@@@std@@QEAA@_K@Z@4HA
pdata	ENDS
;	COMDAT pdata
pdata	SEGMENT
$pdata$??1?$vector@UVkSurfaceFormatKHR@@V?$allocator@UVkSurfaceFormatKHR@@@std@@@std@@QEAA@XZ DD imagerel $LN3
	DD	imagerel $LN3+89
	DD	imagerel $unwind$??1?$vector@UVkSurfaceFormatKHR@@V?$allocator@UVkSurfaceFormatKHR@@@std@@@std@@QEAA@XZ
pdata	ENDS
;	COMDAT pdata
pdata	SEGMENT
$pdata$?size@?$vector@UVkSurfaceFormatKHR@@V?$allocator@UVkSurfaceFormatKHR@@@std@@@std@@QEBA_KXZ DD imagerel $LN3
	DD	imagerel $LN3+106
	DD	imagerel $unwind$?size@?$vector@UVkSurfaceFormatKHR@@V?$allocator@UVkSurfaceFormatKHR@@@std@@@std@@QEBA_KXZ
pdata	ENDS
;	COMDAT pdata
pdata	SEGMENT
$pdata$?max_size@?$vector@UVkSurfaceFormatKHR@@V?$allocator@UVkSurfaceFormatKHR@@@std@@@std@@QEBA_KXZ DD imagerel $LN3
	DD	imagerel $LN3+79
	DD	imagerel $unwind$?max_size@?$vector@UVkSurfaceFormatKHR@@V?$allocator@UVkSurfaceFormatKHR@@@std@@@std@@QEBA_KXZ
pdata	ENDS
;	COMDAT pdata
pdata	SEGMENT
$pdata$??A?$vector@UVkSurfaceFormatKHR@@V?$allocator@UVkSurfaceFormatKHR@@@std@@@std@@QEAAAEAUVkSurfaceFormatKHR@@_K@Z DD imagerel $LN6
	DD	imagerel $LN6+253
	DD	imagerel $unwind$??A?$vector@UVkSurfaceFormatKHR@@V?$allocator@UVkSurfaceFormatKHR@@@std@@@std@@QEAAAEAUVkSurfaceFormatKHR@@_K@Z
pdata	ENDS
;	COMDAT pdata
pdata	SEGMENT
$pdata$?data@?$vector@UVkSurfaceFormatKHR@@V?$allocator@UVkSurfaceFormatKHR@@@std@@@std@@QEAAPEAUVkSurfaceFormatKHR@@XZ DD imagerel $LN3
	DD	imagerel $LN3+67
	DD	imagerel $unwind$?data@?$vector@UVkSurfaceFormatKHR@@V?$allocator@UVkSurfaceFormatKHR@@@std@@@std@@QEAAPEAUVkSurfaceFormatKHR@@XZ
pdata	ENDS
;	COMDAT pdata
pdata	SEGMENT
$pdata$?_Buy@?$vector@UVkSurfaceFormatKHR@@V?$allocator@UVkSurfaceFormatKHR@@@std@@@std@@IEAA_N_K@Z DD imagerel $LN7
	DD	imagerel $LN7+331
	DD	imagerel $unwind$?_Buy@?$vector@UVkSurfaceFormatKHR@@V?$allocator@UVkSurfaceFormatKHR@@@std@@@std@@IEAA_N_K@Z
pdata	ENDS
;	COMDAT pdata
pdata	SEGMENT
$pdata$?_Destroy@?$vector@UVkSurfaceFormatKHR@@V?$allocator@UVkSurfaceFormatKHR@@@std@@@std@@IEAAXPEAUVkSurfaceFormatKHR@@0@Z DD imagerel $LN3
	DD	imagerel $LN3+96
	DD	imagerel $unwind$?_Destroy@?$vector@UVkSurfaceFormatKHR@@V?$allocator@UVkSurfaceFormatKHR@@@std@@@std@@IEAAXPEAUVkSurfaceFormatKHR@@0@Z
pdata	ENDS
;	COMDAT pdata
pdata	SEGMENT
$pdata$?_Tidy@?$vector@UVkSurfaceFormatKHR@@V?$allocator@UVkSurfaceFormatKHR@@@std@@@std@@IEAAXXZ DD imagerel $LN4
	DD	imagerel $LN4+319
	DD	imagerel $unwind$?_Tidy@?$vector@UVkSurfaceFormatKHR@@V?$allocator@UVkSurfaceFormatKHR@@@std@@@std@@IEAAXXZ
pdata	ENDS
;	COMDAT pdata
pdata	SEGMENT
$pdata$?_Xlen@?$vector@UVkSurfaceFormatKHR@@V?$allocator@UVkSurfaceFormatKHR@@@std@@@std@@IEBAXXZ DD imagerel $LN3
	DD	imagerel $LN3+65
	DD	imagerel $unwind$?_Xlen@?$vector@UVkSurfaceFormatKHR@@V?$allocator@UVkSurfaceFormatKHR@@@std@@@std@@IEBAXXZ
pdata	ENDS
;	COMDAT pdata
pdata	SEGMENT
$pdata$?__autoclassinit2@?$vector@UVkSurfaceFormatKHR@@V?$allocator@UVkSurfaceFormatKHR@@@std@@@std@@QEAAX_K@Z DD imagerel $LN3
	DD	imagerel $LN3+73
	DD	imagerel $unwind$?__autoclassinit2@?$vector@UVkSurfaceFormatKHR@@V?$allocator@UVkSurfaceFormatKHR@@@std@@@std@@QEAAX_K@Z
pdata	ENDS
;	COMDAT pdata
pdata	SEGMENT
$pdata$?GetSurfaceCaps@Cy@@YA?AUVkSurfaceCapabilitiesKHR@@PEAUVkPhysicalDevice_T@@PEAUVkSurfaceKHR_T@@@Z DD imagerel ?GetSurfaceCaps@Cy@@YA?AUVkSurfaceCapabilitiesKHR@@PEAUVkPhysicalDevice_T@@PEAUVkSurfaceKHR_T@@@Z
	DD	imagerel ?GetSurfaceCaps@Cy@@YA?AUVkSurfaceCapabilitiesKHR@@PEAUVkPhysicalDevice_T@@PEAUVkSurfaceKHR_T@@@Z+228
	DD	imagerel $unwind$?GetSurfaceCaps@Cy@@YA?AUVkSurfaceCapabilitiesKHR@@PEAUVkPhysicalDevice_T@@PEAUVkSurfaceKHR_T@@@Z
pdata	ENDS
;	COMDAT pdata
pdata	SEGMENT
$pdata$?GetPresentModes@Cy@@YA?AV?$vector@W4VkPresentModeKHR@@V?$allocator@W4VkPresentModeKHR@@@std@@@std@@PEAUVkPhysicalDevice_T@@PEAUVkSurfaceKHR_T@@@Z DD imagerel ?GetPresentModes@Cy@@YA?AV?$vector@W4VkPresentModeKHR@@V?$allocator@W4VkPresentModeKHR@@@std@@@std@@PEAUVkPhysicalDevice_T@@PEAUVkSurfaceKHR_T@@@Z
	DD	imagerel ?GetPresentModes@Cy@@YA?AV?$vector@W4VkPresentModeKHR@@V?$allocator@W4VkPresentModeKHR@@@std@@@std@@PEAUVkPhysicalDevice_T@@PEAUVkSurfaceKHR_T@@@Z+473
	DD	imagerel $unwind$?GetPresentModes@Cy@@YA?AV?$vector@W4VkPresentModeKHR@@V?$allocator@W4VkPresentModeKHR@@@std@@@std@@PEAUVkPhysicalDevice_T@@PEAUVkSurfaceKHR_T@@@Z
pdata	ENDS
;	COMDAT pdata
pdata	SEGMENT
$pdata$?dtor$2@?0??GetPresentModes@Cy@@YA?AV?$vector@W4VkPresentModeKHR@@V?$allocator@W4VkPresentModeKHR@@@std@@@std@@PEAUVkPhysicalDevice_T@@PEAUVkSurfaceKHR_T@@@Z@4HA DD imagerel ?dtor$2@?0??GetPresentModes@Cy@@YA?AV?$vector@W4VkPresentModeKHR@@V?$allocator@W4VkPresentModeKHR@@@std@@@std@@PEAUVkPhysicalDevice_T@@PEAUVkSurfaceKHR_T@@@Z@4HA
	DD	imagerel ?dtor$2@?0??GetPresentModes@Cy@@YA?AV?$vector@W4VkPresentModeKHR@@V?$allocator@W4VkPresentModeKHR@@@std@@@std@@PEAUVkPhysicalDevice_T@@PEAUVkSurfaceKHR_T@@@Z@4HA+36
	DD	imagerel $unwind$?dtor$2@?0??GetPresentModes@Cy@@YA?AV?$vector@W4VkPresentModeKHR@@V?$allocator@W4VkPresentModeKHR@@@std@@@std@@PEAUVkPhysicalDevice_T@@PEAUVkSurfaceKHR_T@@@Z@4HA
pdata	ENDS
;	COMDAT pdata
pdata	SEGMENT
$pdata$??0?$allocator@W4VkPresentModeKHR@@@std@@QEAA@XZ DD imagerel $LN3
	DD	imagerel $LN3+57
	DD	imagerel $unwind$??0?$allocator@W4VkPresentModeKHR@@@std@@QEAA@XZ
pdata	ENDS
;	COMDAT pdata
pdata	SEGMENT
$pdata$??0?$allocator@W4VkPresentModeKHR@@@std@@QEAA@AEBV01@@Z DD imagerel $LN3
	DD	imagerel $LN3+62
	DD	imagerel $unwind$??0?$allocator@W4VkPresentModeKHR@@@std@@QEAA@AEBV01@@Z
pdata	ENDS
;	COMDAT pdata
pdata	SEGMENT
$pdata$?deallocate@?$allocator@W4VkPresentModeKHR@@@std@@QEAAXPEAW4VkPresentModeKHR@@_K@Z DD imagerel $LN3
	DD	imagerel $LN3+87
	DD	imagerel $unwind$?deallocate@?$allocator@W4VkPresentModeKHR@@@std@@QEAAXPEAW4VkPresentModeKHR@@_K@Z
pdata	ENDS
;	COMDAT pdata
pdata	SEGMENT
$pdata$?allocate@?$allocator@W4VkPresentModeKHR@@@std@@QEAAPEAW4VkPresentModeKHR@@_K@Z DD imagerel $LN3
	DD	imagerel $LN3+77
	DD	imagerel $unwind$?allocate@?$allocator@W4VkPresentModeKHR@@@std@@QEAAPEAW4VkPresentModeKHR@@_K@Z
pdata	ENDS
;	COMDAT pdata
pdata	SEGMENT
$pdata$?max_size@?$allocator@W4VkPresentModeKHR@@@std@@QEBA_KXZ DD imagerel $LN3
	DD	imagerel $LN3+60
	DD	imagerel $unwind$?max_size@?$allocator@W4VkPresentModeKHR@@@std@@QEBA_KXZ
pdata	ENDS
;	COMDAT pdata
pdata	SEGMENT
$pdata$?max_size@?$allocator_traits@V?$allocator@W4VkPresentModeKHR@@@std@@@std@@SA_KAEBV?$allocator@W4VkPresentModeKHR@@@2@@Z DD imagerel $LN3
	DD	imagerel $LN3+64
	DD	imagerel $unwind$?max_size@?$allocator_traits@V?$allocator@W4VkPresentModeKHR@@@std@@@std@@SA_KAEBV?$allocator@W4VkPresentModeKHR@@@2@@Z
pdata	ENDS
;	COMDAT pdata
pdata	SEGMENT
$pdata$??0?$_Wrap_alloc@V?$allocator@W4VkPresentModeKHR@@@std@@@std@@QEAA@AEBV?$allocator@W4VkPresentModeKHR@@@1@@Z DD imagerel $LN3
	DD	imagerel $LN3+83
	DD	imagerel $unwind$??0?$_Wrap_alloc@V?$allocator@W4VkPresentModeKHR@@@std@@@std@@QEAA@AEBV?$allocator@W4VkPresentModeKHR@@@1@@Z
pdata	ENDS
;	COMDAT pdata
pdata	SEGMENT
$pdata$?allocate@?$_Wrap_alloc@V?$allocator@W4VkPresentModeKHR@@@std@@@std@@QEAAPEAW4VkPresentModeKHR@@_K@Z DD imagerel $LN3
	DD	imagerel $LN3+76
	DD	imagerel $unwind$?allocate@?$_Wrap_alloc@V?$allocator@W4VkPresentModeKHR@@@std@@@std@@QEAAPEAW4VkPresentModeKHR@@_K@Z
pdata	ENDS
;	COMDAT pdata
pdata	SEGMENT
$pdata$?deallocate@?$_Wrap_alloc@V?$allocator@W4VkPresentModeKHR@@@std@@@std@@QEAAXPEAW4VkPresentModeKHR@@_K@Z DD imagerel $LN3
	DD	imagerel $LN3+88
	DD	imagerel $unwind$?deallocate@?$_Wrap_alloc@V?$allocator@W4VkPresentModeKHR@@@std@@@std@@QEAAXPEAW4VkPresentModeKHR@@_K@Z
pdata	ENDS
;	COMDAT pdata
pdata	SEGMENT
$pdata$?max_size@?$_Wrap_alloc@V?$allocator@W4VkPresentModeKHR@@@std@@@std@@QEBA_KU_Nil@2@@Z DD imagerel $LN3
	DD	imagerel $LN3+68
	DD	imagerel $unwind$?max_size@?$_Wrap_alloc@V?$allocator@W4VkPresentModeKHR@@@std@@@std@@QEBA_KU_Nil@2@@Z
pdata	ENDS
;	COMDAT pdata
pdata	SEGMENT
$pdata$??0?$_Vector_alloc@U?$_Vec_base_types@W4VkPresentModeKHR@@V?$allocator@W4VkPresentModeKHR@@@std@@@std@@@std@@QEAA@AEBV?$allocator@W4VkPresentModeKHR@@@1@@Z DD imagerel $LN4
	DD	imagerel $LN4+118
	DD	imagerel $unwind$??0?$_Vector_alloc@U?$_Vec_base_types@W4VkPresentModeKHR@@V?$allocator@W4VkPresentModeKHR@@@std@@@std@@@std@@QEAA@AEBV?$allocator@W4VkPresentModeKHR@@@1@@Z
pdata	ENDS
;	COMDAT pdata
pdata	SEGMENT
$pdata$?dtor$0@?0???0?$_Vector_alloc@U?$_Vec_base_types@W4VkPresentModeKHR@@V?$allocator@W4VkPresentModeKHR@@@std@@@std@@@std@@QEAA@AEBV?$allocator@W4VkPresentModeKHR@@@1@@Z@4HA DD imagerel ?dtor$0@?0???0?$_Vector_alloc@U?$_Vec_base_types@W4VkPresentModeKHR@@V?$allocator@W4VkPresentModeKHR@@@std@@@std@@@std@@QEAA@AEBV?$allocator@W4VkPresentModeKHR@@@1@@Z@4HA
	DD	imagerel ?dtor$0@?0???0?$_Vector_alloc@U?$_Vec_base_types@W4VkPresentModeKHR@@V?$allocator@W4VkPresentModeKHR@@@std@@@std@@@std@@QEAA@AEBV?$allocator@W4VkPresentModeKHR@@@1@@Z@4HA+39
	DD	imagerel $unwind$?dtor$0@?0???0?$_Vector_alloc@U?$_Vec_base_types@W4VkPresentModeKHR@@V?$allocator@W4VkPresentModeKHR@@@std@@@std@@@std@@QEAA@AEBV?$allocator@W4VkPresentModeKHR@@@1@@Z@4HA
pdata	ENDS
;	COMDAT pdata
pdata	SEGMENT
$pdata$??0?$_Vector_alloc@U?$_Vec_base_types@W4VkPresentModeKHR@@V?$allocator@W4VkPresentModeKHR@@@std@@@std@@@std@@QEAA@$$QEAV?$allocator@W4VkPresentModeKHR@@@1@@Z DD imagerel $LN4
	DD	imagerel $LN4+123
	DD	imagerel $unwind$??0?$_Vector_alloc@U?$_Vec_base_types@W4VkPresentModeKHR@@V?$allocator@W4VkPresentModeKHR@@@std@@@std@@@std@@QEAA@$$QEAV?$allocator@W4VkPresentModeKHR@@@1@@Z
pdata	ENDS
;	COMDAT pdata
pdata	SEGMENT
$pdata$?dtor$0@?0???0?$_Vector_alloc@U?$_Vec_base_types@W4VkPresentModeKHR@@V?$allocator@W4VkPresentModeKHR@@@std@@@std@@@std@@QEAA@$$QEAV?$allocator@W4VkPresentModeKHR@@@1@@Z@4HA DD imagerel ?dtor$0@?0???0?$_Vector_alloc@U?$_Vec_base_types@W4VkPresentModeKHR@@V?$allocator@W4VkPresentModeKHR@@@std@@@std@@@std@@QEAA@$$QEAV?$allocator@W4VkPresentModeKHR@@@1@@Z@4HA
	DD	imagerel ?dtor$0@?0???0?$_Vector_alloc@U?$_Vec_base_types@W4VkPresentModeKHR@@V?$allocator@W4VkPresentModeKHR@@@std@@@std@@@std@@QEAA@$$QEAV?$allocator@W4VkPresentModeKHR@@@1@@Z@4HA+39
	DD	imagerel $unwind$?dtor$0@?0???0?$_Vector_alloc@U?$_Vec_base_types@W4VkPresentModeKHR@@V?$allocator@W4VkPresentModeKHR@@@std@@@std@@@std@@QEAA@$$QEAV?$allocator@W4VkPresentModeKHR@@@1@@Z@4HA
pdata	ENDS
;	COMDAT pdata
pdata	SEGMENT
$pdata$??1?$_Vector_alloc@U?$_Vec_base_types@W4VkPresentModeKHR@@V?$allocator@W4VkPresentModeKHR@@@std@@@std@@@std@@QEAA@XZ DD imagerel $LN3
	DD	imagerel $LN3+92
	DD	imagerel $unwind$??1?$_Vector_alloc@U?$_Vec_base_types@W4VkPresentModeKHR@@V?$allocator@W4VkPresentModeKHR@@@std@@@std@@@std@@QEAA@XZ
pdata	ENDS
;	COMDAT pdata
pdata	SEGMENT
$pdata$?_Alloc_proxy@?$_Vector_alloc@U?$_Vec_base_types@W4VkPresentModeKHR@@V?$allocator@W4VkPresentModeKHR@@@std@@@std@@@std@@QEAAXXZ DD imagerel $LN3
	DD	imagerel $LN3+264
	DD	imagerel $unwind$?_Alloc_proxy@?$_Vector_alloc@U?$_Vec_base_types@W4VkPresentModeKHR@@V?$allocator@W4VkPresentModeKHR@@@std@@@std@@@std@@QEAAXXZ
pdata	ENDS
;	COMDAT pdata
pdata	SEGMENT
$pdata$?_Free_proxy@?$_Vector_alloc@U?$_Vec_base_types@W4VkPresentModeKHR@@V?$allocator@W4VkPresentModeKHR@@@std@@@std@@@std@@QEAAXXZ DD imagerel $LN3
	DD	imagerel $LN3+209
	DD	imagerel $unwind$?_Free_proxy@?$_Vector_alloc@U?$_Vec_base_types@W4VkPresentModeKHR@@V?$allocator@W4VkPresentModeKHR@@@std@@@std@@@std@@QEAAXXZ
pdata	ENDS
;	COMDAT pdata
pdata	SEGMENT
$pdata$?_Myproxy@?$_Vector_alloc@U?$_Vec_base_types@W4VkPresentModeKHR@@V?$allocator@W4VkPresentModeKHR@@@std@@@std@@@std@@QEAAAEAPEAU_Container_proxy@2@XZ DD imagerel $LN3
	DD	imagerel $LN3+64
	DD	imagerel $unwind$?_Myproxy@?$_Vector_alloc@U?$_Vec_base_types@W4VkPresentModeKHR@@V?$allocator@W4VkPresentModeKHR@@@std@@@std@@@std@@QEAAAEAPEAU_Container_proxy@2@XZ
pdata	ENDS
;	COMDAT pdata
pdata	SEGMENT
$pdata$?_Orphan_all@?$_Vector_alloc@U?$_Vec_base_types@W4VkPresentModeKHR@@V?$allocator@W4VkPresentModeKHR@@@std@@@std@@@std@@QEAAXXZ DD imagerel $LN3
	DD	imagerel $LN3+72
	DD	imagerel $unwind$?_Orphan_all@?$_Vector_alloc@U?$_Vec_base_types@W4VkPresentModeKHR@@V?$allocator@W4VkPresentModeKHR@@@std@@@std@@@std@@QEAAXXZ
pdata	ENDS
;	COMDAT pdata
pdata	SEGMENT
$pdata$?_Swap_all@?$_Vector_alloc@U?$_Vec_base_types@W4VkPresentModeKHR@@V?$allocator@W4VkPresentModeKHR@@@std@@@std@@@std@@QEAAXAEAV12@@Z DD imagerel $LN3
	DD	imagerel $LN3+106
	DD	imagerel $unwind$?_Swap_all@?$_Vector_alloc@U?$_Vec_base_types@W4VkPresentModeKHR@@V?$allocator@W4VkPresentModeKHR@@@std@@@std@@@std@@QEAAXAEAV12@@Z
pdata	ENDS
;	COMDAT pdata
pdata	SEGMENT
$pdata$?_Getal@?$_Vector_alloc@U?$_Vec_base_types@W4VkPresentModeKHR@@V?$allocator@W4VkPresentModeKHR@@@std@@@std@@@std@@QEAAAEAU?$_Wrap_alloc@V?$allocator@W4VkPresentModeKHR@@@std@@@2@XZ DD imagerel $LN3
	DD	imagerel $LN3+67
	DD	imagerel $unwind$?_Getal@?$_Vector_alloc@U?$_Vec_base_types@W4VkPresentModeKHR@@V?$allocator@W4VkPresentModeKHR@@@std@@@std@@@std@@QEAAAEAU?$_Wrap_alloc@V?$allocator@W4VkPresentModeKHR@@@std@@@2@XZ
pdata	ENDS
;	COMDAT pdata
pdata	SEGMENT
$pdata$?_Getal@?$_Vector_alloc@U?$_Vec_base_types@W4VkPresentModeKHR@@V?$allocator@W4VkPresentModeKHR@@@std@@@std@@@std@@QEBAAEBU?$_Wrap_alloc@V?$allocator@W4VkPresentModeKHR@@@std@@@2@XZ DD imagerel $LN3
	DD	imagerel $LN3+67
	DD	imagerel $unwind$?_Getal@?$_Vector_alloc@U?$_Vec_base_types@W4VkPresentModeKHR@@V?$allocator@W4VkPresentModeKHR@@@std@@@std@@@std@@QEBAAEBU?$_Wrap_alloc@V?$allocator@W4VkPresentModeKHR@@@std@@@2@XZ
pdata	ENDS
;	COMDAT pdata
pdata	SEGMENT
$pdata$?_Get_data@?$_Vector_alloc@U?$_Vec_base_types@W4VkPresentModeKHR@@V?$allocator@W4VkPresentModeKHR@@@std@@@std@@@std@@QEAAAEAV?$_Vector_val@U?$_Simple_types@W4VkPresentModeKHR@@@std@@@2@XZ DD imagerel $LN3
	DD	imagerel $LN3+67
	DD	imagerel $unwind$?_Get_data@?$_Vector_alloc@U?$_Vec_base_types@W4VkPresentModeKHR@@V?$allocator@W4VkPresentModeKHR@@@std@@@std@@@std@@QEAAAEAV?$_Vector_val@U?$_Simple_types@W4VkPresentModeKHR@@@std@@@2@XZ
pdata	ENDS
;	COMDAT pdata
pdata	SEGMENT
$pdata$?_Get_data@?$_Vector_alloc@U?$_Vec_base_types@W4VkPresentModeKHR@@V?$allocator@W4VkPresentModeKHR@@@std@@@std@@@std@@QEBAAEBV?$_Vector_val@U?$_Simple_types@W4VkPresentModeKHR@@@std@@@2@XZ DD imagerel $LN3
	DD	imagerel $LN3+67
	DD	imagerel $unwind$?_Get_data@?$_Vector_alloc@U?$_Vec_base_types@W4VkPresentModeKHR@@V?$allocator@W4VkPresentModeKHR@@@std@@@std@@@std@@QEBAAEBV?$_Vector_val@U?$_Simple_types@W4VkPresentModeKHR@@@std@@@2@XZ
pdata	ENDS
;	COMDAT pdata
pdata	SEGMENT
$pdata$?_Myfirst@?$_Vector_alloc@U?$_Vec_base_types@W4VkPresentModeKHR@@V?$allocator@W4VkPresentModeKHR@@@std@@@std@@@std@@QEAAAEAPEAW4VkPresentModeKHR@@XZ DD imagerel $LN3
	DD	imagerel $LN3+68
	DD	imagerel $unwind$?_Myfirst@?$_Vector_alloc@U?$_Vec_base_types@W4VkPresentModeKHR@@V?$allocator@W4VkPresentModeKHR@@@std@@@std@@@std@@QEAAAEAPEAW4VkPresentModeKHR@@XZ
pdata	ENDS
;	COMDAT pdata
pdata	SEGMENT
$pdata$?_Myfirst@?$_Vector_alloc@U?$_Vec_base_types@W4VkPresentModeKHR@@V?$allocator@W4VkPresentModeKHR@@@std@@@std@@@std@@QEBAAEBQEAW4VkPresentModeKHR@@XZ DD imagerel $LN3
	DD	imagerel $LN3+68
	DD	imagerel $unwind$?_Myfirst@?$_Vector_alloc@U?$_Vec_base_types@W4VkPresentModeKHR@@V?$allocator@W4VkPresentModeKHR@@@std@@@std@@@std@@QEBAAEBQEAW4VkPresentModeKHR@@XZ
pdata	ENDS
;	COMDAT pdata
pdata	SEGMENT
$pdata$?_Mylast@?$_Vector_alloc@U?$_Vec_base_types@W4VkPresentModeKHR@@V?$allocator@W4VkPresentModeKHR@@@std@@@std@@@std@@QEAAAEAPEAW4VkPresentModeKHR@@XZ DD imagerel $LN3
	DD	imagerel $LN3+68
	DD	imagerel $unwind$?_Mylast@?$_Vector_alloc@U?$_Vec_base_types@W4VkPresentModeKHR@@V?$allocator@W4VkPresentModeKHR@@@std@@@std@@@std@@QEAAAEAPEAW4VkPresentModeKHR@@XZ
pdata	ENDS
;	COMDAT pdata
pdata	SEGMENT
$pdata$?_Mylast@?$_Vector_alloc@U?$_Vec_base_types@W4VkPresentModeKHR@@V?$allocator@W4VkPresentModeKHR@@@std@@@std@@@std@@QEBAAEBQEAW4VkPresentModeKHR@@XZ DD imagerel $LN3
	DD	imagerel $LN3+68
	DD	imagerel $unwind$?_Mylast@?$_Vector_alloc@U?$_Vec_base_types@W4VkPresentModeKHR@@V?$allocator@W4VkPresentModeKHR@@@std@@@std@@@std@@QEBAAEBQEAW4VkPresentModeKHR@@XZ
pdata	ENDS
;	COMDAT pdata
pdata	SEGMENT
$pdata$?_Myend@?$_Vector_alloc@U?$_Vec_base_types@W4VkPresentModeKHR@@V?$allocator@W4VkPresentModeKHR@@@std@@@std@@@std@@QEAAAEAPEAW4VkPresentModeKHR@@XZ DD imagerel $LN3
	DD	imagerel $LN3+68
	DD	imagerel $unwind$?_Myend@?$_Vector_alloc@U?$_Vec_base_types@W4VkPresentModeKHR@@V?$allocator@W4VkPresentModeKHR@@@std@@@std@@@std@@QEAAAEAPEAW4VkPresentModeKHR@@XZ
pdata	ENDS
;	COMDAT pdata
pdata	SEGMENT
$pdata$??0?$_Vector_val@U?$_Simple_types@W4VkPresentModeKHR@@@std@@@std@@QEAA@XZ DD imagerel $LN4
	DD	imagerel $LN4+116
	DD	imagerel $unwind$??0?$_Vector_val@U?$_Simple_types@W4VkPresentModeKHR@@@std@@@std@@QEAA@XZ
pdata	ENDS
;	COMDAT pdata
pdata	SEGMENT
$pdata$??1?$_Vector_val@U?$_Simple_types@W4VkPresentModeKHR@@@std@@@std@@QEAA@XZ DD imagerel $LN3
	DD	imagerel $LN3+64
	DD	imagerel $unwind$??1?$_Vector_val@U?$_Simple_types@W4VkPresentModeKHR@@@std@@@std@@QEAA@XZ
pdata	ENDS
;	COMDAT pdata
pdata	SEGMENT
$pdata$?_Get_first@?$_Compressed_pair@U?$_Wrap_alloc@V?$allocator@W4VkPresentModeKHR@@@std@@@std@@V?$_Vector_val@U?$_Simple_types@W4VkPresentModeKHR@@@std@@@2@$00@std@@QEAAAEAU?$_Wrap_alloc@V?$allocator@W4VkPresentModeKHR@@@std@@@2@XZ DD imagerel $LN3
	DD	imagerel $LN3+57
	DD	imagerel $unwind$?_Get_first@?$_Compressed_pair@U?$_Wrap_alloc@V?$allocator@W4VkPresentModeKHR@@@std@@@std@@V?$_Vector_val@U?$_Simple_types@W4VkPresentModeKHR@@@std@@@2@$00@std@@QEAAAEAU?$_Wrap_alloc@V?$allocator@W4VkPresentModeKHR@@@std@@@2@XZ
pdata	ENDS
;	COMDAT pdata
pdata	SEGMENT
$pdata$?_Get_first@?$_Compressed_pair@U?$_Wrap_alloc@V?$allocator@W4VkPresentModeKHR@@@std@@@std@@V?$_Vector_val@U?$_Simple_types@W4VkPresentModeKHR@@@std@@@2@$00@std@@QEBAAEBU?$_Wrap_alloc@V?$allocator@W4VkPresentModeKHR@@@std@@@2@XZ DD imagerel $LN3
	DD	imagerel $LN3+57
	DD	imagerel $unwind$?_Get_first@?$_Compressed_pair@U?$_Wrap_alloc@V?$allocator@W4VkPresentModeKHR@@@std@@@std@@V?$_Vector_val@U?$_Simple_types@W4VkPresentModeKHR@@@std@@@2@$00@std@@QEBAAEBU?$_Wrap_alloc@V?$allocator@W4VkPresentModeKHR@@@std@@@2@XZ
pdata	ENDS
;	COMDAT pdata
pdata	SEGMENT
$pdata$?_Get_second@?$_Compressed_pair@U?$_Wrap_alloc@V?$allocator@W4VkPresentModeKHR@@@std@@@std@@V?$_Vector_val@U?$_Simple_types@W4VkPresentModeKHR@@@std@@@2@$00@std@@QEAAAEAV?$_Vector_val@U?$_Simple_types@W4VkPresentModeKHR@@@std@@@2@XZ DD imagerel $LN3
	DD	imagerel $LN3+57
	DD	imagerel $unwind$?_Get_second@?$_Compressed_pair@U?$_Wrap_alloc@V?$allocator@W4VkPresentModeKHR@@@std@@@std@@V?$_Vector_val@U?$_Simple_types@W4VkPresentModeKHR@@@std@@@2@$00@std@@QEAAAEAV?$_Vector_val@U?$_Simple_types@W4VkPresentModeKHR@@@std@@@2@XZ
pdata	ENDS
;	COMDAT pdata
pdata	SEGMENT
$pdata$?_Get_second@?$_Compressed_pair@U?$_Wrap_alloc@V?$allocator@W4VkPresentModeKHR@@@std@@@std@@V?$_Vector_val@U?$_Simple_types@W4VkPresentModeKHR@@@std@@@2@$00@std@@QEBAAEBV?$_Vector_val@U?$_Simple_types@W4VkPresentModeKHR@@@std@@@2@XZ DD imagerel $LN3
	DD	imagerel $LN3+57
	DD	imagerel $unwind$?_Get_second@?$_Compressed_pair@U?$_Wrap_alloc@V?$allocator@W4VkPresentModeKHR@@@std@@@std@@V?$_Vector_val@U?$_Simple_types@W4VkPresentModeKHR@@@std@@@2@$00@std@@QEBAAEBV?$_Vector_val@U?$_Simple_types@W4VkPresentModeKHR@@@std@@@2@XZ
pdata	ENDS
;	COMDAT pdata
pdata	SEGMENT
$pdata$??1?$_Compressed_pair@U?$_Wrap_alloc@V?$allocator@W4VkPresentModeKHR@@@std@@@std@@V?$_Vector_val@U?$_Simple_types@W4VkPresentModeKHR@@@std@@@2@$00@std@@QEAA@XZ DD imagerel $LN3
	DD	imagerel $LN3+67
	DD	imagerel $unwind$??1?$_Compressed_pair@U?$_Wrap_alloc@V?$allocator@W4VkPresentModeKHR@@@std@@@std@@V?$_Vector_val@U?$_Simple_types@W4VkPresentModeKHR@@@std@@@2@$00@std@@QEAA@XZ
pdata	ENDS
;	COMDAT pdata
pdata	SEGMENT
$pdata$??0?$vector@W4VkPresentModeKHR@@V?$allocator@W4VkPresentModeKHR@@@std@@@std@@QEAA@_K@Z DD imagerel $LN12
	DD	imagerel $LN12+237
	DD	imagerel $unwind$??0?$vector@W4VkPresentModeKHR@@V?$allocator@W4VkPresentModeKHR@@@std@@@std@@QEAA@_K@Z
pdata	ENDS
;	COMDAT pdata
pdata	SEGMENT
$pdata$?dtor$0@?0???0?$vector@W4VkPresentModeKHR@@V?$allocator@W4VkPresentModeKHR@@@std@@@std@@QEAA@_K@Z@4HA DD imagerel ?dtor$0@?0???0?$vector@W4VkPresentModeKHR@@V?$allocator@W4VkPresentModeKHR@@@std@@@std@@QEAA@_K@Z@4HA
	DD	imagerel ?dtor$0@?0???0?$vector@W4VkPresentModeKHR@@V?$allocator@W4VkPresentModeKHR@@@std@@@std@@QEAA@_K@Z@4HA+39
	DD	imagerel $unwind$?dtor$0@?0???0?$vector@W4VkPresentModeKHR@@V?$allocator@W4VkPresentModeKHR@@@std@@@std@@QEAA@_K@Z@4HA
pdata	ENDS
;	COMDAT pdata
pdata	SEGMENT
$pdata$?catch$0@?0???0?$vector@W4VkPresentModeKHR@@V?$allocator@W4VkPresentModeKHR@@@std@@@std@@QEAA@_K@Z@4HA DD imagerel ?catch$0@?0???0?$vector@W4VkPresentModeKHR@@V?$allocator@W4VkPresentModeKHR@@@std@@@std@@QEAA@_K@Z@4HA
	DD	imagerel ?catch$0@?0???0?$vector@W4VkPresentModeKHR@@V?$allocator@W4VkPresentModeKHR@@@std@@@std@@QEAA@_K@Z@4HA+57
	DD	imagerel $unwind$?catch$0@?0???0?$vector@W4VkPresentModeKHR@@V?$allocator@W4VkPresentModeKHR@@@std@@@std@@QEAA@_K@Z@4HA
pdata	ENDS
;	COMDAT pdata
pdata	SEGMENT
$pdata$??0?$vector@W4VkPresentModeKHR@@V?$allocator@W4VkPresentModeKHR@@@std@@@std@@QEAA@$$QEAV01@@Z DD imagerel $LN3
	DD	imagerel $LN3+150
	DD	imagerel $unwind$??0?$vector@W4VkPresentModeKHR@@V?$allocator@W4VkPresentModeKHR@@@std@@@std@@QEAA@$$QEAV01@@Z
pdata	ENDS
;	COMDAT pdata
pdata	SEGMENT
$pdata$?_Assign_rv@?$vector@W4VkPresentModeKHR@@V?$allocator@W4VkPresentModeKHR@@@std@@@std@@QEAAX$$QEAV12@U?$integral_constant@_N$00@2@@Z DD imagerel $LN3
	DD	imagerel $LN3+270
	DD	imagerel $unwind$?_Assign_rv@?$vector@W4VkPresentModeKHR@@V?$allocator@W4VkPresentModeKHR@@@std@@@std@@QEAAX$$QEAV12@U?$integral_constant@_N$00@2@@Z
pdata	ENDS
;	COMDAT pdata
pdata	SEGMENT
$pdata$??1?$vector@W4VkPresentModeKHR@@V?$allocator@W4VkPresentModeKHR@@@std@@@std@@QEAA@XZ DD imagerel $LN3
	DD	imagerel $LN3+89
	DD	imagerel $unwind$??1?$vector@W4VkPresentModeKHR@@V?$allocator@W4VkPresentModeKHR@@@std@@@std@@QEAA@XZ
pdata	ENDS
;	COMDAT pdata
pdata	SEGMENT
$pdata$?size@?$vector@W4VkPresentModeKHR@@V?$allocator@W4VkPresentModeKHR@@@std@@@std@@QEBA_KXZ DD imagerel $LN3
	DD	imagerel $LN3+106
	DD	imagerel $unwind$?size@?$vector@W4VkPresentModeKHR@@V?$allocator@W4VkPresentModeKHR@@@std@@@std@@QEBA_KXZ
pdata	ENDS
;	COMDAT pdata
pdata	SEGMENT
$pdata$?max_size@?$vector@W4VkPresentModeKHR@@V?$allocator@W4VkPresentModeKHR@@@std@@@std@@QEBA_KXZ DD imagerel $LN3
	DD	imagerel $LN3+79
	DD	imagerel $unwind$?max_size@?$vector@W4VkPresentModeKHR@@V?$allocator@W4VkPresentModeKHR@@@std@@@std@@QEBA_KXZ
pdata	ENDS
;	COMDAT pdata
pdata	SEGMENT
$pdata$?at@?$vector@W4VkPresentModeKHR@@V?$allocator@W4VkPresentModeKHR@@@std@@@std@@QEAAAEAW4VkPresentModeKHR@@_K@Z DD imagerel $LN4
	DD	imagerel $LN4+116
	DD	imagerel $unwind$?at@?$vector@W4VkPresentModeKHR@@V?$allocator@W4VkPresentModeKHR@@@std@@@std@@QEAAAEAW4VkPresentModeKHR@@_K@Z
pdata	ENDS
;	COMDAT pdata
pdata	SEGMENT
$pdata$?data@?$vector@W4VkPresentModeKHR@@V?$allocator@W4VkPresentModeKHR@@@std@@@std@@QEAAPEAW4VkPresentModeKHR@@XZ DD imagerel $LN3
	DD	imagerel $LN3+67
	DD	imagerel $unwind$?data@?$vector@W4VkPresentModeKHR@@V?$allocator@W4VkPresentModeKHR@@@std@@@std@@QEAAPEAW4VkPresentModeKHR@@XZ
pdata	ENDS
;	COMDAT pdata
pdata	SEGMENT
$pdata$?_Buy@?$vector@W4VkPresentModeKHR@@V?$allocator@W4VkPresentModeKHR@@@std@@@std@@IEAA_N_K@Z DD imagerel $LN7
	DD	imagerel $LN7+331
	DD	imagerel $unwind$?_Buy@?$vector@W4VkPresentModeKHR@@V?$allocator@W4VkPresentModeKHR@@@std@@@std@@IEAA_N_K@Z
pdata	ENDS
;	COMDAT pdata
pdata	SEGMENT
$pdata$?_Destroy@?$vector@W4VkPresentModeKHR@@V?$allocator@W4VkPresentModeKHR@@@std@@@std@@IEAAXPEAW4VkPresentModeKHR@@0@Z DD imagerel $LN3
	DD	imagerel $LN3+96
	DD	imagerel $unwind$?_Destroy@?$vector@W4VkPresentModeKHR@@V?$allocator@W4VkPresentModeKHR@@@std@@@std@@IEAAXPEAW4VkPresentModeKHR@@0@Z
pdata	ENDS
;	COMDAT pdata
pdata	SEGMENT
$pdata$?_Tidy@?$vector@W4VkPresentModeKHR@@V?$allocator@W4VkPresentModeKHR@@@std@@@std@@IEAAXXZ DD imagerel $LN4
	DD	imagerel $LN4+319
	DD	imagerel $unwind$?_Tidy@?$vector@W4VkPresentModeKHR@@V?$allocator@W4VkPresentModeKHR@@@std@@@std@@IEAAXXZ
pdata	ENDS
;	COMDAT pdata
pdata	SEGMENT
$pdata$?_Xlen@?$vector@W4VkPresentModeKHR@@V?$allocator@W4VkPresentModeKHR@@@std@@@std@@IEBAXXZ DD imagerel $LN3
	DD	imagerel $LN3+65
	DD	imagerel $unwind$?_Xlen@?$vector@W4VkPresentModeKHR@@V?$allocator@W4VkPresentModeKHR@@@std@@@std@@IEBAXXZ
pdata	ENDS
;	COMDAT pdata
pdata	SEGMENT
$pdata$?_Xran@?$vector@W4VkPresentModeKHR@@V?$allocator@W4VkPresentModeKHR@@@std@@@std@@IEBAXXZ DD imagerel $LN3
	DD	imagerel $LN3+65
	DD	imagerel $unwind$?_Xran@?$vector@W4VkPresentModeKHR@@V?$allocator@W4VkPresentModeKHR@@@std@@@std@@IEBAXXZ
pdata	ENDS
;	COMDAT pdata
pdata	SEGMENT
$pdata$?__autoclassinit2@?$vector@W4VkPresentModeKHR@@V?$allocator@W4VkPresentModeKHR@@@std@@@std@@QEAAX_K@Z DD imagerel $LN3
	DD	imagerel $LN3+73
	DD	imagerel $unwind$?__autoclassinit2@?$vector@W4VkPresentModeKHR@@V?$allocator@W4VkPresentModeKHR@@@std@@@std@@QEAAX_K@Z
pdata	ENDS
;	COMDAT pdata
pdata	SEGMENT
$pdata$?GetPresentMode@Cy@@YA?AW4VkPresentModeKHR@@PEAV?$vector@W4VkPresentModeKHR@@V?$allocator@W4VkPresentModeKHR@@@std@@@std@@@Z DD imagerel $LN8
	DD	imagerel $LN8+167
	DD	imagerel $unwind$?GetPresentMode@Cy@@YA?AW4VkPresentModeKHR@@PEAV?$vector@W4VkPresentModeKHR@@V?$allocator@W4VkPresentModeKHR@@@std@@@std@@@Z
pdata	ENDS
;	COMDAT pdata
pdata	SEGMENT
$pdata$?GetSurfaceExtent@Cy@@YA?AUVkExtent2D@@PEAUVkSurfaceCapabilitiesKHR@@PEAI1@Z DD imagerel $LN5
	DD	imagerel $LN5+228
	DD	imagerel $unwind$?GetSurfaceExtent@Cy@@YA?AUVkExtent2D@@PEAUVkSurfaceCapabilitiesKHR@@PEAI1@Z
pdata	ENDS
;	COMDAT pdata
pdata	SEGMENT
$pdata$?GetDesiredNumSwapChainImages@Cy@@YAIPEBUVkSurfaceCapabilitiesKHR@@@Z DD imagerel $LN4
	DD	imagerel $LN4+108
	DD	imagerel $unwind$?GetDesiredNumSwapChainImages@Cy@@YAIPEBUVkSurfaceCapabilitiesKHR@@@Z
pdata	ENDS
;	COMDAT pdata
pdata	SEGMENT
$pdata$?GetSurfaceTransformBits@Cy@@YA?AW4VkSurfaceTransformFlagBitsKHR@@PEBUVkSurfaceCapabilitiesKHR@@@Z DD imagerel $LN5
	DD	imagerel $LN5+92
	DD	imagerel $unwind$?GetSurfaceTransformBits@Cy@@YA?AW4VkSurfaceTransformFlagBitsKHR@@PEBUVkSurfaceCapabilitiesKHR@@@Z
pdata	ENDS
;	COMDAT pdata
pdata	SEGMENT
$pdata$??$move@AEAU?$_Wrap_alloc@V?$allocator@W4VkPresentModeKHR@@@std@@@std@@@std@@YA$$QEAU?$_Wrap_alloc@V?$allocator@W4VkPresentModeKHR@@@std@@@0@AEAU10@@Z DD imagerel $LN3
	DD	imagerel $LN3+57
	DD	imagerel $unwind$??$move@AEAU?$_Wrap_alloc@V?$allocator@W4VkPresentModeKHR@@@std@@@std@@@std@@YA$$QEAU?$_Wrap_alloc@V?$allocator@W4VkPresentModeKHR@@@std@@@0@AEAU10@@Z
pdata	ENDS
;	COMDAT pdata
pdata	SEGMENT
$pdata$??$forward@V?$vector@W4VkPresentModeKHR@@V?$allocator@W4VkPresentModeKHR@@@std@@@std@@@std@@YA$$QEAV?$vector@W4VkPresentModeKHR@@V?$allocator@W4VkPresentModeKHR@@@std@@@0@AEAV10@@Z DD imagerel $LN3
	DD	imagerel $LN3+57
	DD	imagerel $unwind$??$forward@V?$vector@W4VkPresentModeKHR@@V?$allocator@W4VkPresentModeKHR@@@std@@@std@@@std@@YA$$QEAV?$vector@W4VkPresentModeKHR@@V?$allocator@W4VkPresentModeKHR@@@std@@@0@AEAV10@@Z
pdata	ENDS
;	COMDAT pdata
pdata	SEGMENT
$pdata$??$_Uninitialized_default_fill_n@PEAW4VkPresentModeKHR@@_KU?$_Wrap_alloc@V?$allocator@W4VkPresentModeKHR@@@std@@@std@@@std@@YAXPEAW4VkPresentModeKHR@@_KAEAU?$_Wrap_alloc@V?$allocator@W4VkPresentModeKHR@@@std@@@0@@Z DD imagerel $LN3
	DD	imagerel $LN3+139
	DD	imagerel $unwind$??$_Uninitialized_default_fill_n@PEAW4VkPresentModeKHR@@_KU?$_Wrap_alloc@V?$allocator@W4VkPresentModeKHR@@@std@@@std@@@std@@YAXPEAW4VkPresentModeKHR@@_KAEAU?$_Wrap_alloc@V?$allocator@W4VkPresentModeKHR@@@std@@@0@@Z
pdata	ENDS
;	COMDAT pdata
pdata	SEGMENT
$pdata$??$_Uninitialized_default_fill_n@PEAUVkSurfaceFormatKHR@@_KU?$_Wrap_alloc@V?$allocator@UVkSurfaceFormatKHR@@@std@@@std@@@std@@YAXPEAUVkSurfaceFormatKHR@@_KAEAU?$_Wrap_alloc@V?$allocator@UVkSurfaceFormatKHR@@@std@@@0@@Z DD imagerel $LN3
	DD	imagerel $LN3+139
	DD	imagerel $unwind$??$_Uninitialized_default_fill_n@PEAUVkSurfaceFormatKHR@@_KU?$_Wrap_alloc@V?$allocator@UVkSurfaceFormatKHR@@@std@@@std@@@std@@YAXPEAUVkSurfaceFormatKHR@@_KAEAU?$_Wrap_alloc@V?$allocator@UVkSurfaceFormatKHR@@@std@@@0@@Z
pdata	ENDS
;	COMDAT pdata
pdata	SEGMENT
$pdata$??$_Uninitialized_default_fill_n@PEAUVkQueueFamilyProperties@@_KU?$_Wrap_alloc@V?$allocator@UVkQueueFamilyProperties@@@std@@@std@@@std@@YAXPEAUVkQueueFamilyProperties@@_KAEAU?$_Wrap_alloc@V?$allocator@UVkQueueFamilyProperties@@@std@@@0@@Z DD imagerel $LN3
	DD	imagerel $LN3+139
	DD	imagerel $unwind$??$_Uninitialized_default_fill_n@PEAUVkQueueFamilyProperties@@_KU?$_Wrap_alloc@V?$allocator@UVkQueueFamilyProperties@@@std@@@std@@@std@@YAXPEAUVkQueueFamilyProperties@@_KAEAU?$_Wrap_alloc@V?$allocator@UVkQueueFamilyProperties@@@std@@@0@@Z
pdata	ENDS
;	COMDAT pdata
pdata	SEGMENT
$pdata$??$_Uninitialized_default_fill_n@PEAPEAUVkImage_T@@_KU?$_Wrap_alloc@V?$allocator@PEAUVkImage_T@@@std@@@std@@@std@@YAXPEAPEAUVkImage_T@@_KAEAU?$_Wrap_alloc@V?$allocator@PEAUVkImage_T@@@std@@@0@@Z DD imagerel $LN3
	DD	imagerel $LN3+139
	DD	imagerel $unwind$??$_Uninitialized_default_fill_n@PEAPEAUVkImage_T@@_KU?$_Wrap_alloc@V?$allocator@PEAUVkImage_T@@@std@@@std@@@std@@YAXPEAPEAUVkImage_T@@_KAEAU?$_Wrap_alloc@V?$allocator@PEAUVkImage_T@@@std@@@0@@Z
pdata	ENDS
;	COMDAT pdata
pdata	SEGMENT
$pdata$??$_Uninitialized_default_fill_n@PEAPEAUVkImageView_T@@_KU?$_Wrap_alloc@V?$allocator@PEAUVkImageView_T@@@std@@@std@@@std@@YAXPEAPEAUVkImageView_T@@_KAEAU?$_Wrap_alloc@V?$allocator@PEAUVkImageView_T@@@std@@@0@@Z DD imagerel $LN3
	DD	imagerel $LN3+139
	DD	imagerel $unwind$??$_Uninitialized_default_fill_n@PEAPEAUVkImageView_T@@_KU?$_Wrap_alloc@V?$allocator@PEAUVkImageView_T@@@std@@@std@@@std@@YAXPEAPEAUVkImageView_T@@_KAEAU?$_Wrap_alloc@V?$allocator@PEAUVkImageView_T@@@std@@@0@@Z
pdata	ENDS
;	COMDAT pdata
pdata	SEGMENT
$pdata$??$_Debug_pointer@$$CBD@std@@YAXPEBDPEBGI@Z DD imagerel $LN4
	DD	imagerel $LN4+99
	DD	imagerel $unwind$??$_Debug_pointer@$$CBD@std@@YAXPEBDPEBGI@Z
pdata	ENDS
;	COMDAT pdata
pdata	SEGMENT
$pdata$??$move@AEAV?$allocator@W4VkPresentModeKHR@@@std@@@std@@YA$$QEAV?$allocator@W4VkPresentModeKHR@@@0@AEAV10@@Z DD imagerel $LN3
	DD	imagerel $LN3+57
	DD	imagerel $unwind$??$move@AEAV?$allocator@W4VkPresentModeKHR@@@std@@@std@@YA$$QEAV?$allocator@W4VkPresentModeKHR@@@0@AEAV10@@Z
pdata	ENDS
;	COMDAT pdata
pdata	SEGMENT
$pdata$??$?0V?$allocator@W4VkPresentModeKHR@@@std@@$$V@?$_Compressed_pair@U?$_Wrap_alloc@V?$allocator@W4VkPresentModeKHR@@@std@@@std@@V?$_Vector_val@U?$_Simple_types@W4VkPresentModeKHR@@@std@@@2@$00@std@@QEAA@U_One_then_variadic_args_t@1@$$QEAV?$allocator@W4VkPresentModeKHR@@@1@@Z DD imagerel $LN4
	DD	imagerel $LN4+110
	DD	imagerel $unwind$??$?0V?$allocator@W4VkPresentModeKHR@@@std@@$$V@?$_Compressed_pair@U?$_Wrap_alloc@V?$allocator@W4VkPresentModeKHR@@@std@@@std@@V?$_Vector_val@U?$_Simple_types@W4VkPresentModeKHR@@@std@@@2@$00@std@@QEAA@U_One_then_variadic_args_t@1@$$QEAV?$allocator@W4VkPresentModeKHR@@@1@@Z
pdata	ENDS
;	COMDAT pdata
pdata	SEGMENT
$pdata$??$?0AEBV?$allocator@W4VkPresentModeKHR@@@std@@$$V@?$_Compressed_pair@U?$_Wrap_alloc@V?$allocator@W4VkPresentModeKHR@@@std@@@std@@V?$_Vector_val@U?$_Simple_types@W4VkPresentModeKHR@@@std@@@2@$00@std@@QEAA@U_One_then_variadic_args_t@1@AEBV?$allocator@W4VkPresentModeKHR@@@1@@Z DD imagerel $LN4
	DD	imagerel $LN4+110
	DD	imagerel $unwind$??$?0AEBV?$allocator@W4VkPresentModeKHR@@@std@@$$V@?$_Compressed_pair@U?$_Wrap_alloc@V?$allocator@W4VkPresentModeKHR@@@std@@@std@@V?$_Vector_val@U?$_Simple_types@W4VkPresentModeKHR@@@std@@@2@$00@std@@QEAA@U_One_then_variadic_args_t@1@AEBV?$allocator@W4VkPresentModeKHR@@@1@@Z
pdata	ENDS
;	COMDAT pdata
pdata	SEGMENT
$pdata$??$?0AEBV?$allocator@UVkSurfaceFormatKHR@@@std@@$$V@?$_Compressed_pair@U?$_Wrap_alloc@V?$allocator@UVkSurfaceFormatKHR@@@std@@@std@@V?$_Vector_val@U?$_Simple_types@UVkSurfaceFormatKHR@@@std@@@2@$00@std@@QEAA@U_One_then_variadic_args_t@1@AEBV?$allocator@UVkSurfaceFormatKHR@@@1@@Z DD imagerel $LN4
	DD	imagerel $LN4+110
	DD	imagerel $unwind$??$?0AEBV?$allocator@UVkSurfaceFormatKHR@@@std@@$$V@?$_Compressed_pair@U?$_Wrap_alloc@V?$allocator@UVkSurfaceFormatKHR@@@std@@@std@@V?$_Vector_val@U?$_Simple_types@UVkSurfaceFormatKHR@@@std@@@2@$00@std@@QEAA@U_One_then_variadic_args_t@1@AEBV?$allocator@UVkSurfaceFormatKHR@@@1@@Z
pdata	ENDS
;	COMDAT pdata
pdata	SEGMENT
$pdata$??$?0AEBV?$allocator@UVkQueueFamilyProperties@@@std@@$$V@?$_Compressed_pair@U?$_Wrap_alloc@V?$allocator@UVkQueueFamilyProperties@@@std@@@std@@V?$_Vector_val@U?$_Simple_types@UVkQueueFamilyProperties@@@std@@@2@$00@std@@QEAA@U_One_then_variadic_args_t@1@AEBV?$allocator@UVkQueueFamilyProperties@@@1@@Z DD imagerel $LN4
	DD	imagerel $LN4+110
	DD	imagerel $unwind$??$?0AEBV?$allocator@UVkQueueFamilyProperties@@@std@@$$V@?$_Compressed_pair@U?$_Wrap_alloc@V?$allocator@UVkQueueFamilyProperties@@@std@@@std@@V?$_Vector_val@U?$_Simple_types@UVkQueueFamilyProperties@@@std@@@2@$00@std@@QEAA@U_One_then_variadic_args_t@1@AEBV?$allocator@UVkQueueFamilyProperties@@@1@@Z
pdata	ENDS
;	COMDAT pdata
pdata	SEGMENT
$pdata$??$move@AEAV?$allocator@D@std@@@std@@YA$$QEAV?$allocator@D@0@AEAV10@@Z DD imagerel $LN3
	DD	imagerel $LN3+57
	DD	imagerel $unwind$??$move@AEAV?$allocator@D@std@@@std@@YA$$QEAV?$allocator@D@0@AEAV10@@Z
pdata	ENDS
;	COMDAT pdata
pdata	SEGMENT
$pdata$??$?0V?$allocator@D@std@@$$V@?$_Compressed_pair@U?$_Wrap_alloc@V?$allocator@D@std@@@std@@V?$_String_val@U?$_Simple_types@D@std@@@2@$00@std@@QEAA@U_One_then_variadic_args_t@1@$$QEAV?$allocator@D@1@@Z DD imagerel $LN4
	DD	imagerel $LN4+110
	DD	imagerel $unwind$??$?0V?$allocator@D@std@@$$V@?$_Compressed_pair@U?$_Wrap_alloc@V?$allocator@D@std@@@std@@V?$_String_val@U?$_Simple_types@D@std@@@2@$00@std@@QEAA@U_One_then_variadic_args_t@1@$$QEAV?$allocator@D@1@@Z
pdata	ENDS
;	COMDAT pdata
pdata	SEGMENT
$pdata$??$?0AEBV?$allocator@D@std@@$$V@?$_Compressed_pair@U?$_Wrap_alloc@V?$allocator@D@std@@@std@@V?$_String_val@U?$_Simple_types@D@std@@@2@$00@std@@QEAA@U_One_then_variadic_args_t@1@AEBV?$allocator@D@1@@Z DD imagerel $LN4
	DD	imagerel $LN4+110
	DD	imagerel $unwind$??$?0AEBV?$allocator@D@std@@$$V@?$_Compressed_pair@U?$_Wrap_alloc@V?$allocator@D@std@@@std@@V?$_String_val@U?$_Simple_types@D@std@@@2@$00@std@@QEAA@U_One_then_variadic_args_t@1@AEBV?$allocator@D@1@@Z
pdata	ENDS
;	COMDAT pdata
pdata	SEGMENT
$pdata$??$destroy@PEAD@?$_Wrap_alloc@V?$allocator@D@std@@@std@@QEAAXPEAPEAD@Z DD imagerel $LN3
	DD	imagerel $LN3+76
	DD	imagerel $unwind$??$destroy@PEAD@?$_Wrap_alloc@V?$allocator@D@std@@@std@@QEAAXPEAPEAD@Z
pdata	ENDS
;	COMDAT pdata
pdata	SEGMENT
$pdata$??$addressof@D@std@@YAPEADAEAD@Z DD imagerel $LN3
	DD	imagerel $LN3+71
	DD	imagerel $unwind$??$addressof@D@std@@YAPEADAEAD@Z
pdata	ENDS
;	COMDAT pdata
pdata	SEGMENT
$pdata$??$_Debug_pointer_if@$$CBD@std@@YAX_NPEBDPEBGI@Z DD imagerel $LN4
	DD	imagerel $LN4+114
	DD	imagerel $unwind$??$_Debug_pointer_if@$$CBD@std@@YAX_NPEBDPEBGI@Z
pdata	ENDS
;	COMDAT pdata
pdata	SEGMENT
$pdata$??$construct@PEADAEAPEAD@?$_Wrap_alloc@V?$allocator@D@std@@@std@@QEAAXPEAPEADAEAPEAD@Z DD imagerel $LN3
	DD	imagerel $LN3+96
	DD	imagerel $unwind$??$construct@PEADAEAPEAD@?$_Wrap_alloc@V?$allocator@D@std@@@std@@QEAAXPEAPEADAEAPEAD@Z
pdata	ENDS
;	COMDAT pdata
pdata	SEGMENT
$pdata$?deallocate@?$allocator@U_Container_proxy@std@@@std@@QEAAXPEAU_Container_proxy@2@_K@Z DD imagerel $LN3
	DD	imagerel $LN3+87
	DD	imagerel $unwind$?deallocate@?$allocator@U_Container_proxy@std@@@std@@QEAAXPEAU_Container_proxy@2@_K@Z
pdata	ENDS
;	COMDAT pdata
pdata	SEGMENT
$pdata$?allocate@?$allocator@U_Container_proxy@std@@@std@@QEAAPEAU_Container_proxy@2@_K@Z DD imagerel $LN3
	DD	imagerel $LN3+77
	DD	imagerel $unwind$?allocate@?$allocator@U_Container_proxy@std@@@std@@QEAAPEAU_Container_proxy@2@_K@Z
pdata	ENDS
;	COMDAT pdata
pdata	SEGMENT
$pdata$?allocate@?$_Wrap_alloc@V?$allocator@U_Container_proxy@std@@@std@@@std@@QEAAPEAU_Container_proxy@2@_K@Z DD imagerel $LN3
	DD	imagerel $LN3+76
	DD	imagerel $unwind$?allocate@?$_Wrap_alloc@V?$allocator@U_Container_proxy@std@@@std@@@std@@QEAAPEAU_Container_proxy@2@_K@Z
pdata	ENDS
;	COMDAT pdata
pdata	SEGMENT
$pdata$?deallocate@?$_Wrap_alloc@V?$allocator@U_Container_proxy@std@@@std@@@std@@QEAAXPEAU_Container_proxy@2@_K@Z DD imagerel $LN3
	DD	imagerel $LN3+88
	DD	imagerel $unwind$?deallocate@?$_Wrap_alloc@V?$allocator@U_Container_proxy@std@@@std@@@std@@QEAAXPEAU_Container_proxy@2@_K@Z
pdata	ENDS
;	COMDAT pdata
pdata	SEGMENT
$pdata$??$?0U?$_Wrap_alloc@V?$allocator@W4VkPresentModeKHR@@@std@@@std@@@?$_Wrap_alloc@V?$allocator@U_Container_proxy@std@@@std@@@std@@QEAA@AEAU?$_Wrap_alloc@V?$allocator@W4VkPresentModeKHR@@@std@@@1@@Z DD imagerel $LN3
	DD	imagerel $LN3+83
	DD	imagerel $unwind$??$?0U?$_Wrap_alloc@V?$allocator@W4VkPresentModeKHR@@@std@@@std@@@?$_Wrap_alloc@V?$allocator@U_Container_proxy@std@@@std@@@std@@QEAA@AEAU?$_Wrap_alloc@V?$allocator@W4VkPresentModeKHR@@@std@@@1@@Z
pdata	ENDS
;	COMDAT pdata
pdata	SEGMENT
$pdata$??$?0W4VkPresentModeKHR@@@?$allocator@U_Container_proxy@std@@@std@@QEAA@AEBV?$allocator@W4VkPresentModeKHR@@@1@@Z DD imagerel $LN3
	DD	imagerel $LN3+62
	DD	imagerel $unwind$??$?0W4VkPresentModeKHR@@@?$allocator@U_Container_proxy@std@@@std@@QEAA@AEBV?$allocator@W4VkPresentModeKHR@@@1@@Z
pdata	ENDS
;	COMDAT pdata
pdata	SEGMENT
$pdata$??$destroy@U_Container_proxy@std@@@?$_Wrap_alloc@V?$allocator@U_Container_proxy@std@@@std@@@std@@QEAAXPEAU_Container_proxy@1@@Z DD imagerel $LN3
	DD	imagerel $LN3+76
	DD	imagerel $unwind$??$destroy@U_Container_proxy@std@@@?$_Wrap_alloc@V?$allocator@U_Container_proxy@std@@@std@@@std@@QEAAXPEAU_Container_proxy@1@@Z
pdata	ENDS
;	COMDAT pdata
pdata	SEGMENT
$pdata$??$construct@U_Container_proxy@std@@U12@@?$_Wrap_alloc@V?$allocator@U_Container_proxy@std@@@std@@@std@@QEAAXPEAU_Container_proxy@1@$$QEAU21@@Z DD imagerel $LN3
	DD	imagerel $LN3+96
	DD	imagerel $unwind$??$construct@U_Container_proxy@std@@U12@@?$_Wrap_alloc@V?$allocator@U_Container_proxy@std@@@std@@@std@@QEAAXPEAU_Container_proxy@1@$$QEAU21@@Z
pdata	ENDS
;	COMDAT pdata
pdata	SEGMENT
$pdata$??$_Destroy_range@U?$_Wrap_alloc@V?$allocator@W4VkPresentModeKHR@@@std@@@std@@@std@@YAXPEAW4VkPresentModeKHR@@0AEAU?$_Wrap_alloc@V?$allocator@W4VkPresentModeKHR@@@std@@@0@@Z DD imagerel $LN3
	DD	imagerel $LN3+121
	DD	imagerel $unwind$??$_Destroy_range@U?$_Wrap_alloc@V?$allocator@W4VkPresentModeKHR@@@std@@@std@@@std@@YAXPEAW4VkPresentModeKHR@@0AEAU?$_Wrap_alloc@V?$allocator@W4VkPresentModeKHR@@@std@@@0@@Z
pdata	ENDS
;	COMDAT pdata
pdata	SEGMENT
$pdata$??$?0U?$_Wrap_alloc@V?$allocator@UVkSurfaceFormatKHR@@@std@@@std@@@?$_Wrap_alloc@V?$allocator@U_Container_proxy@std@@@std@@@std@@QEAA@AEAU?$_Wrap_alloc@V?$allocator@UVkSurfaceFormatKHR@@@std@@@1@@Z DD imagerel $LN3
	DD	imagerel $LN3+83
	DD	imagerel $unwind$??$?0U?$_Wrap_alloc@V?$allocator@UVkSurfaceFormatKHR@@@std@@@std@@@?$_Wrap_alloc@V?$allocator@U_Container_proxy@std@@@std@@@std@@QEAA@AEAU?$_Wrap_alloc@V?$allocator@UVkSurfaceFormatKHR@@@std@@@1@@Z
pdata	ENDS
;	COMDAT pdata
pdata	SEGMENT
$pdata$??$?0UVkSurfaceFormatKHR@@@?$allocator@U_Container_proxy@std@@@std@@QEAA@AEBV?$allocator@UVkSurfaceFormatKHR@@@1@@Z DD imagerel $LN3
	DD	imagerel $LN3+62
	DD	imagerel $unwind$??$?0UVkSurfaceFormatKHR@@@?$allocator@U_Container_proxy@std@@@std@@QEAA@AEBV?$allocator@UVkSurfaceFormatKHR@@@1@@Z
pdata	ENDS
;	COMDAT pdata
pdata	SEGMENT
$pdata$??$_Destroy_range@U?$_Wrap_alloc@V?$allocator@UVkSurfaceFormatKHR@@@std@@@std@@@std@@YAXPEAUVkSurfaceFormatKHR@@0AEAU?$_Wrap_alloc@V?$allocator@UVkSurfaceFormatKHR@@@std@@@0@@Z DD imagerel $LN3
	DD	imagerel $LN3+121
	DD	imagerel $unwind$??$_Destroy_range@U?$_Wrap_alloc@V?$allocator@UVkSurfaceFormatKHR@@@std@@@std@@@std@@YAXPEAUVkSurfaceFormatKHR@@0AEAU?$_Wrap_alloc@V?$allocator@UVkSurfaceFormatKHR@@@std@@@0@@Z
pdata	ENDS
;	COMDAT pdata
pdata	SEGMENT
$pdata$??$?0U?$_Wrap_alloc@V?$allocator@UVkQueueFamilyProperties@@@std@@@std@@@?$_Wrap_alloc@V?$allocator@U_Container_proxy@std@@@std@@@std@@QEAA@AEAU?$_Wrap_alloc@V?$allocator@UVkQueueFamilyProperties@@@std@@@1@@Z DD imagerel $LN3
	DD	imagerel $LN3+83
	DD	imagerel $unwind$??$?0U?$_Wrap_alloc@V?$allocator@UVkQueueFamilyProperties@@@std@@@std@@@?$_Wrap_alloc@V?$allocator@U_Container_proxy@std@@@std@@@std@@QEAA@AEAU?$_Wrap_alloc@V?$allocator@UVkQueueFamilyProperties@@@std@@@1@@Z
pdata	ENDS
;	COMDAT pdata
pdata	SEGMENT
$pdata$??$?0UVkQueueFamilyProperties@@@?$allocator@U_Container_proxy@std@@@std@@QEAA@AEBV?$allocator@UVkQueueFamilyProperties@@@1@@Z DD imagerel $LN3
	DD	imagerel $LN3+62
	DD	imagerel $unwind$??$?0UVkQueueFamilyProperties@@@?$allocator@U_Container_proxy@std@@@std@@QEAA@AEBV?$allocator@UVkQueueFamilyProperties@@@1@@Z
pdata	ENDS
;	COMDAT pdata
pdata	SEGMENT
$pdata$??$_Destroy_range@U?$_Wrap_alloc@V?$allocator@UVkQueueFamilyProperties@@@std@@@std@@@std@@YAXPEAUVkQueueFamilyProperties@@0AEAU?$_Wrap_alloc@V?$allocator@UVkQueueFamilyProperties@@@std@@@0@@Z DD imagerel $LN3
	DD	imagerel $LN3+121
	DD	imagerel $unwind$??$_Destroy_range@U?$_Wrap_alloc@V?$allocator@UVkQueueFamilyProperties@@@std@@@std@@@std@@YAXPEAUVkQueueFamilyProperties@@0AEAU?$_Wrap_alloc@V?$allocator@UVkQueueFamilyProperties@@@std@@@0@@Z
pdata	ENDS
;	COMDAT pdata
pdata	SEGMENT
$pdata$??$_Umove@PEAPEAUVkImage_T@@@?$vector@PEAUVkImage_T@@V?$allocator@PEAUVkImage_T@@@std@@@std@@IEAAPEAPEAUVkImage_T@@PEAPEAU2@00@Z DD imagerel $LN3
	DD	imagerel $LN3+108
	DD	imagerel $unwind$??$_Umove@PEAPEAUVkImage_T@@@?$vector@PEAUVkImage_T@@V?$allocator@PEAUVkImage_T@@@std@@@std@@IEAAPEAPEAUVkImage_T@@PEAPEAU2@00@Z
pdata	ENDS
;	COMDAT pdata
pdata	SEGMENT
$pdata$??$_Destroy_range@U?$_Wrap_alloc@V?$allocator@PEAUVkImage_T@@@std@@@std@@@std@@YAXPEAPEAUVkImage_T@@0AEAU?$_Wrap_alloc@V?$allocator@PEAUVkImage_T@@@std@@@0@@Z DD imagerel $LN3
	DD	imagerel $LN3+121
	DD	imagerel $unwind$??$_Destroy_range@U?$_Wrap_alloc@V?$allocator@PEAUVkImage_T@@@std@@@std@@@std@@YAXPEAPEAUVkImage_T@@0AEAU?$_Wrap_alloc@V?$allocator@PEAUVkImage_T@@@std@@@0@@Z
pdata	ENDS
;	COMDAT pdata
pdata	SEGMENT
$pdata$??$_Umove@PEAPEAUVkImageView_T@@@?$vector@PEAUVkImageView_T@@V?$allocator@PEAUVkImageView_T@@@std@@@std@@IEAAPEAPEAUVkImageView_T@@PEAPEAU2@00@Z DD imagerel $LN3
	DD	imagerel $LN3+108
	DD	imagerel $unwind$??$_Umove@PEAPEAUVkImageView_T@@@?$vector@PEAUVkImageView_T@@V?$allocator@PEAUVkImageView_T@@@std@@@std@@IEAAPEAPEAUVkImageView_T@@PEAPEAU2@00@Z
pdata	ENDS
;	COMDAT pdata
pdata	SEGMENT
$pdata$??$_Destroy_range@U?$_Wrap_alloc@V?$allocator@PEAUVkImageView_T@@@std@@@std@@@std@@YAXPEAPEAUVkImageView_T@@0AEAU?$_Wrap_alloc@V?$allocator@PEAUVkImageView_T@@@std@@@0@@Z DD imagerel $LN3
	DD	imagerel $LN3+121
	DD	imagerel $unwind$??$_Destroy_range@U?$_Wrap_alloc@V?$allocator@PEAUVkImageView_T@@@std@@@std@@@std@@YAXPEAPEAUVkImageView_T@@0AEAU?$_Wrap_alloc@V?$allocator@PEAUVkImageView_T@@@std@@@0@@Z
pdata	ENDS
;	COMDAT pdata
pdata	SEGMENT
$pdata$??$?0U?$_Wrap_alloc@V?$allocator@D@std@@@std@@@?$_Wrap_alloc@V?$allocator@U_Container_proxy@std@@@std@@@std@@QEAA@AEAU?$_Wrap_alloc@V?$allocator@D@std@@@1@@Z DD imagerel $LN3
	DD	imagerel $LN3+83
	DD	imagerel $unwind$??$?0U?$_Wrap_alloc@V?$allocator@D@std@@@std@@@?$_Wrap_alloc@V?$allocator@U_Container_proxy@std@@@std@@@std@@QEAA@AEAU?$_Wrap_alloc@V?$allocator@D@std@@@1@@Z
pdata	ENDS
;	COMDAT pdata
pdata	SEGMENT
$pdata$??$?0D@?$allocator@U_Container_proxy@std@@@std@@QEAA@AEBV?$allocator@D@1@@Z DD imagerel $LN3
	DD	imagerel $LN3+62
	DD	imagerel $unwind$??$?0D@?$allocator@U_Container_proxy@std@@@std@@QEAA@AEBV?$allocator@D@1@@Z
pdata	ENDS
;	COMDAT pdata
pdata	SEGMENT
$pdata$??$_Val_type@PEAW4VkPresentModeKHR@@@std@@YAPEAW4VkPresentModeKHR@@PEAW41@@Z DD imagerel $LN3
	DD	imagerel $LN3+52
	DD	imagerel $unwind$??$_Val_type@PEAW4VkPresentModeKHR@@@std@@YAPEAW4VkPresentModeKHR@@PEAW41@@Z
pdata	ENDS
;	COMDAT pdata
pdata	SEGMENT
$pdata$??$_Ptr_cat@W4VkPresentModeKHR@@W41@@std@@YA?AU_Scalar_ptr_iterator_tag@0@PEAW4VkPresentModeKHR@@0@Z DD imagerel $LN3
	DD	imagerel $LN3+81
	DD	imagerel $unwind$??$_Ptr_cat@W4VkPresentModeKHR@@W41@@std@@YA?AU_Scalar_ptr_iterator_tag@0@PEAW4VkPresentModeKHR@@0@Z
pdata	ENDS
;	COMDAT pdata
pdata	SEGMENT
$pdata$??$_Uninit_def_fill_n@W4VkPresentModeKHR@@_KW41@@std@@YAXPEAW4VkPresentModeKHR@@_KAEAU?$_Wrap_alloc@V?$allocator@W4VkPresentModeKHR@@@std@@@0@0U_Scalar_ptr_iterator_tag@0@@Z DD imagerel $LN3
	DD	imagerel $LN3+103
	DD	imagerel $unwind$??$_Uninit_def_fill_n@W4VkPresentModeKHR@@_KW41@@std@@YAXPEAW4VkPresentModeKHR@@_KAEAU?$_Wrap_alloc@V?$allocator@W4VkPresentModeKHR@@@std@@@0@0U_Scalar_ptr_iterator_tag@0@@Z
pdata	ENDS
;	COMDAT pdata
pdata	SEGMENT
$pdata$??$_Val_type@PEAUVkSurfaceFormatKHR@@@std@@YAPEAUVkSurfaceFormatKHR@@PEAU1@@Z DD imagerel $LN3
	DD	imagerel $LN3+52
	DD	imagerel $unwind$??$_Val_type@PEAUVkSurfaceFormatKHR@@@std@@YAPEAUVkSurfaceFormatKHR@@PEAU1@@Z
pdata	ENDS
;	COMDAT pdata
pdata	SEGMENT
$pdata$??$_Ptr_cat@UVkSurfaceFormatKHR@@U1@@std@@YA?AU_Nonscalar_ptr_iterator_tag@0@PEAUVkSurfaceFormatKHR@@0@Z DD imagerel $LN3
	DD	imagerel $LN3+81
	DD	imagerel $unwind$??$_Ptr_cat@UVkSurfaceFormatKHR@@U1@@std@@YA?AU_Nonscalar_ptr_iterator_tag@0@PEAUVkSurfaceFormatKHR@@0@Z
pdata	ENDS
;	COMDAT pdata
pdata	SEGMENT
$pdata$??$_Uninit_def_fill_n@PEAUVkSurfaceFormatKHR@@_KV?$allocator@UVkSurfaceFormatKHR@@@std@@U1@@std@@YAXPEAUVkSurfaceFormatKHR@@_KAEAU?$_Wrap_alloc@V?$allocator@UVkSurfaceFormatKHR@@@std@@@0@0U_Nonscalar_ptr_iterator_tag@0@@Z DD imagerel $LN16
	DD	imagerel $LN16+159
	DD	imagerel $unwind$??$_Uninit_def_fill_n@PEAUVkSurfaceFormatKHR@@_KV?$allocator@UVkSurfaceFormatKHR@@@std@@U1@@std@@YAXPEAUVkSurfaceFormatKHR@@_KAEAU?$_Wrap_alloc@V?$allocator@UVkSurfaceFormatKHR@@@std@@@0@0U_Nonscalar_ptr_iterator_tag@0@@Z
pdata	ENDS
;	COMDAT pdata
pdata	SEGMENT
$pdata$?catch$0@?0???$_Uninit_def_fill_n@PEAUVkSurfaceFormatKHR@@_KV?$allocator@UVkSurfaceFormatKHR@@@std@@U1@@std@@YAXPEAUVkSurfaceFormatKHR@@_KAEAU?$_Wrap_alloc@V?$allocator@UVkSurfaceFormatKHR@@@std@@@0@0U_Nonscalar_ptr_iterator_tag@0@@Z@4HA DD imagerel ?catch$0@?0???$_Uninit_def_fill_n@PEAUVkSurfaceFormatKHR@@_KV?$allocator@UVkSurfaceFormatKHR@@@std@@U1@@std@@YAXPEAUVkSurfaceFormatKHR@@_KAEAU?$_Wrap_alloc@V?$allocator@UVkSurfaceFormatKHR@@@std@@@0@0U_Nonscalar_ptr_iterator_tag@0@@Z@4HA
	DD	imagerel ?catch$0@?0???$_Uninit_def_fill_n@PEAUVkSurfaceFormatKHR@@_KV?$allocator@UVkSurfaceFormatKHR@@@std@@U1@@std@@YAXPEAUVkSurfaceFormatKHR@@_KAEAU?$_Wrap_alloc@V?$allocator@UVkSurfaceFormatKHR@@@std@@@0@0U_Nonscalar_ptr_iterator_tag@0@@Z@4HA+90
	DD	imagerel $unwind$?catch$0@?0???$_Uninit_def_fill_n@PEAUVkSurfaceFormatKHR@@_KV?$allocator@UVkSurfaceFormatKHR@@@std@@U1@@std@@YAXPEAUVkSurfaceFormatKHR@@_KAEAU?$_Wrap_alloc@V?$allocator@UVkSurfaceFormatKHR@@@std@@@0@0U_Nonscalar_ptr_iterator_tag@0@@Z@4HA
pdata	ENDS
;	COMDAT pdata
pdata	SEGMENT
$pdata$??$_Val_type@PEAUVkQueueFamilyProperties@@@std@@YAPEAUVkQueueFamilyProperties@@PEAU1@@Z DD imagerel $LN3
	DD	imagerel $LN3+52
	DD	imagerel $unwind$??$_Val_type@PEAUVkQueueFamilyProperties@@@std@@YAPEAUVkQueueFamilyProperties@@PEAU1@@Z
pdata	ENDS
;	COMDAT pdata
pdata	SEGMENT
$pdata$??$_Ptr_cat@UVkQueueFamilyProperties@@U1@@std@@YA?AU_Nonscalar_ptr_iterator_tag@0@PEAUVkQueueFamilyProperties@@0@Z DD imagerel $LN3
	DD	imagerel $LN3+81
	DD	imagerel $unwind$??$_Ptr_cat@UVkQueueFamilyProperties@@U1@@std@@YA?AU_Nonscalar_ptr_iterator_tag@0@PEAUVkQueueFamilyProperties@@0@Z
pdata	ENDS
;	COMDAT pdata
pdata	SEGMENT
$pdata$??$_Uninit_def_fill_n@PEAUVkQueueFamilyProperties@@_KV?$allocator@UVkQueueFamilyProperties@@@std@@U1@@std@@YAXPEAUVkQueueFamilyProperties@@_KAEAU?$_Wrap_alloc@V?$allocator@UVkQueueFamilyProperties@@@std@@@0@0U_Nonscalar_ptr_iterator_tag@0@@Z DD imagerel $LN16
	DD	imagerel $LN16+159
	DD	imagerel $unwind$??$_Uninit_def_fill_n@PEAUVkQueueFamilyProperties@@_KV?$allocator@UVkQueueFamilyProperties@@@std@@U1@@std@@YAXPEAUVkQueueFamilyProperties@@_KAEAU?$_Wrap_alloc@V?$allocator@UVkQueueFamilyProperties@@@std@@@0@0U_Nonscalar_ptr_iterator_tag@0@@Z
pdata	ENDS
;	COMDAT pdata
pdata	SEGMENT
$pdata$?catch$0@?0???$_Uninit_def_fill_n@PEAUVkQueueFamilyProperties@@_KV?$allocator@UVkQueueFamilyProperties@@@std@@U1@@std@@YAXPEAUVkQueueFamilyProperties@@_KAEAU?$_Wrap_alloc@V?$allocator@UVkQueueFamilyProperties@@@std@@@0@0U_Nonscalar_ptr_iterator_tag@0@@Z@4HA DD imagerel ?catch$0@?0???$_Uninit_def_fill_n@PEAUVkQueueFamilyProperties@@_KV?$allocator@UVkQueueFamilyProperties@@@std@@U1@@std@@YAXPEAUVkQueueFamilyProperties@@_KAEAU?$_Wrap_alloc@V?$allocator@UVkQueueFamilyProperties@@@std@@@0@0U_Nonscalar_ptr_iterator_tag@0@@Z@4HA
	DD	imagerel ?catch$0@?0???$_Uninit_def_fill_n@PEAUVkQueueFamilyProperties@@_KV?$allocator@UVkQueueFamilyProperties@@@std@@U1@@std@@YAXPEAUVkQueueFamilyProperties@@_KAEAU?$_Wrap_alloc@V?$allocator@UVkQueueFamilyProperties@@@std@@@0@0U_Nonscalar_ptr_iterator_tag@0@@Z@4HA+90
	DD	imagerel $unwind$?catch$0@?0???$_Uninit_def_fill_n@PEAUVkQueueFamilyProperties@@_KV?$allocator@UVkQueueFamilyProperties@@@std@@U1@@std@@YAXPEAUVkQueueFamilyProperties@@_KAEAU?$_Wrap_alloc@V?$allocator@UVkQueueFamilyProperties@@@std@@@0@0U_Nonscalar_ptr_iterator_tag@0@@Z@4HA
pdata	ENDS
;	COMDAT pdata
pdata	SEGMENT
$pdata$??$_Val_type@PEAPEAUVkImage_T@@@std@@YAPEAPEAUVkImage_T@@PEAPEAU1@@Z DD imagerel $LN3
	DD	imagerel $LN3+52
	DD	imagerel $unwind$??$_Val_type@PEAPEAUVkImage_T@@@std@@YAPEAPEAUVkImage_T@@PEAPEAU1@@Z
pdata	ENDS
;	COMDAT pdata
pdata	SEGMENT
$pdata$??$_Ptr_cat@PEAUVkImage_T@@PEAU1@@std@@YA?AU_Scalar_ptr_iterator_tag@0@PEAPEAUVkImage_T@@0@Z DD imagerel $LN3
	DD	imagerel $LN3+81
	DD	imagerel $unwind$??$_Ptr_cat@PEAUVkImage_T@@PEAU1@@std@@YA?AU_Scalar_ptr_iterator_tag@0@PEAPEAUVkImage_T@@0@Z
pdata	ENDS
;	COMDAT pdata
pdata	SEGMENT
$pdata$??$_Uninit_def_fill_n@PEAUVkImage_T@@_KPEAU1@@std@@YAXPEAPEAUVkImage_T@@_KAEAU?$_Wrap_alloc@V?$allocator@PEAUVkImage_T@@@std@@@0@0U_Scalar_ptr_iterator_tag@0@@Z DD imagerel $LN3
	DD	imagerel $LN3+104
	DD	imagerel $unwind$??$_Uninit_def_fill_n@PEAUVkImage_T@@_KPEAU1@@std@@YAXPEAPEAUVkImage_T@@_KAEAU?$_Wrap_alloc@V?$allocator@PEAUVkImage_T@@@std@@@0@0U_Scalar_ptr_iterator_tag@0@@Z
pdata	ENDS
;	COMDAT pdata
pdata	SEGMENT
$pdata$??$_Val_type@PEAPEAUVkImageView_T@@@std@@YAPEAPEAUVkImageView_T@@PEAPEAU1@@Z DD imagerel $LN3
	DD	imagerel $LN3+52
	DD	imagerel $unwind$??$_Val_type@PEAPEAUVkImageView_T@@@std@@YAPEAPEAUVkImageView_T@@PEAPEAU1@@Z
pdata	ENDS
;	COMDAT pdata
pdata	SEGMENT
$pdata$??$_Ptr_cat@PEAUVkImageView_T@@PEAU1@@std@@YA?AU_Scalar_ptr_iterator_tag@0@PEAPEAUVkImageView_T@@0@Z DD imagerel $LN3
	DD	imagerel $LN3+81
	DD	imagerel $unwind$??$_Ptr_cat@PEAUVkImageView_T@@PEAU1@@std@@YA?AU_Scalar_ptr_iterator_tag@0@PEAPEAUVkImageView_T@@0@Z
pdata	ENDS
;	COMDAT pdata
pdata	SEGMENT
$pdata$??$_Uninit_def_fill_n@PEAUVkImageView_T@@_KPEAU1@@std@@YAXPEAPEAUVkImageView_T@@_KAEAU?$_Wrap_alloc@V?$allocator@PEAUVkImageView_T@@@std@@@0@0U_Scalar_ptr_iterator_tag@0@@Z DD imagerel $LN3
	DD	imagerel $LN3+104
	DD	imagerel $unwind$??$_Uninit_def_fill_n@PEAUVkImageView_T@@_KPEAU1@@std@@YAXPEAPEAUVkImageView_T@@_KAEAU?$_Wrap_alloc@V?$allocator@PEAUVkImageView_T@@@std@@@0@0U_Scalar_ptr_iterator_tag@0@@Z
pdata	ENDS
;	COMDAT pdata
pdata	SEGMENT
$pdata$??$forward@V?$allocator@W4VkPresentModeKHR@@@std@@@std@@YA$$QEAV?$allocator@W4VkPresentModeKHR@@@0@AEAV10@@Z DD imagerel $LN3
	DD	imagerel $LN3+57
	DD	imagerel $unwind$??$forward@V?$allocator@W4VkPresentModeKHR@@@std@@@std@@YA$$QEAV?$allocator@W4VkPresentModeKHR@@@0@AEAV10@@Z
pdata	ENDS
;	COMDAT pdata
pdata	SEGMENT
$pdata$??$forward@AEBV?$allocator@W4VkPresentModeKHR@@@std@@@std@@YAAEBV?$allocator@W4VkPresentModeKHR@@@0@AEBV10@@Z DD imagerel $LN3
	DD	imagerel $LN3+57
	DD	imagerel $unwind$??$forward@AEBV?$allocator@W4VkPresentModeKHR@@@std@@@std@@YAAEBV?$allocator@W4VkPresentModeKHR@@@0@AEBV10@@Z
pdata	ENDS
;	COMDAT pdata
pdata	SEGMENT
$pdata$??$forward@AEBV?$allocator@UVkSurfaceFormatKHR@@@std@@@std@@YAAEBV?$allocator@UVkSurfaceFormatKHR@@@0@AEBV10@@Z DD imagerel $LN3
	DD	imagerel $LN3+57
	DD	imagerel $unwind$??$forward@AEBV?$allocator@UVkSurfaceFormatKHR@@@std@@@std@@YAAEBV?$allocator@UVkSurfaceFormatKHR@@@0@AEBV10@@Z
pdata	ENDS
;	COMDAT pdata
pdata	SEGMENT
$pdata$??$forward@AEBV?$allocator@UVkQueueFamilyProperties@@@std@@@std@@YAAEBV?$allocator@UVkQueueFamilyProperties@@@0@AEBV10@@Z DD imagerel $LN3
	DD	imagerel $LN3+57
	DD	imagerel $unwind$??$forward@AEBV?$allocator@UVkQueueFamilyProperties@@@std@@@std@@YAAEBV?$allocator@UVkQueueFamilyProperties@@@0@AEBV10@@Z
pdata	ENDS
;	COMDAT pdata
pdata	SEGMENT
$pdata$??$forward@V?$allocator@D@std@@@std@@YA$$QEAV?$allocator@D@0@AEAV10@@Z DD imagerel $LN3
	DD	imagerel $LN3+57
	DD	imagerel $unwind$??$forward@V?$allocator@D@std@@@std@@YA$$QEAV?$allocator@D@0@AEAV10@@Z
pdata	ENDS
;	COMDAT pdata
pdata	SEGMENT
$pdata$??$forward@AEBV?$allocator@D@std@@@std@@YAAEBV?$allocator@D@0@AEBV10@@Z DD imagerel $LN3
	DD	imagerel $LN3+57
	DD	imagerel $unwind$??$forward@AEBV?$allocator@D@std@@@std@@YAAEBV?$allocator@D@0@AEBV10@@Z
pdata	ENDS
;	COMDAT pdata
pdata	SEGMENT
$pdata$??$destroy@PEAD@?$allocator_traits@V?$allocator@D@std@@@std@@SAXAEAV?$allocator@D@1@PEAPEAD@Z DD imagerel $LN3
	DD	imagerel $LN3+76
	DD	imagerel $unwind$??$destroy@PEAD@?$allocator_traits@V?$allocator@D@std@@@std@@SAXAEAV?$allocator@D@1@PEAPEAD@Z
pdata	ENDS
;	COMDAT pdata
pdata	SEGMENT
$pdata$??$_Addressof@D@std@@YAPEADAEADU?$integral_constant@_N$0A@@0@@Z DD imagerel $LN3
	DD	imagerel $LN3+61
	DD	imagerel $unwind$??$_Addressof@D@std@@YAPEADAEADU?$integral_constant@_N$0A@@0@@Z
pdata	ENDS
;	COMDAT pdata
pdata	SEGMENT
$pdata$??$forward@AEAPEAD@std@@YAAEAPEADAEAPEAD@Z DD imagerel $LN3
	DD	imagerel $LN3+57
	DD	imagerel $unwind$??$forward@AEAPEAD@std@@YAAEAPEADAEAPEAD@Z
pdata	ENDS
;	COMDAT pdata
pdata	SEGMENT
$pdata$??$construct@PEADAEAPEAD@?$allocator_traits@V?$allocator@D@std@@@std@@SAXAEAV?$allocator@D@1@PEAPEADAEAPEAD@Z DD imagerel $LN3
	DD	imagerel $LN3+96
	DD	imagerel $unwind$??$construct@PEADAEAPEAD@?$allocator_traits@V?$allocator@D@std@@@std@@SAXAEAV?$allocator@D@1@PEAPEADAEAPEAD@Z
pdata	ENDS
;	COMDAT pdata
pdata	SEGMENT
$pdata$??$destroy@U_Container_proxy@std@@@?$allocator_traits@V?$allocator@U_Container_proxy@std@@@std@@@std@@SAXAEAV?$allocator@U_Container_proxy@std@@@1@PEAU_Container_proxy@1@@Z DD imagerel $LN3
	DD	imagerel $LN3+76
	DD	imagerel $unwind$??$destroy@U_Container_proxy@std@@@?$allocator_traits@V?$allocator@U_Container_proxy@std@@@std@@@std@@SAXAEAV?$allocator@U_Container_proxy@std@@@1@PEAU_Container_proxy@1@@Z
pdata	ENDS
;	COMDAT pdata
pdata	SEGMENT
$pdata$??$forward@U_Container_proxy@std@@@std@@YA$$QEAU_Container_proxy@0@AEAU10@@Z DD imagerel $LN3
	DD	imagerel $LN3+57
	DD	imagerel $unwind$??$forward@U_Container_proxy@std@@@std@@YA$$QEAU_Container_proxy@0@AEAU10@@Z
pdata	ENDS
;	COMDAT pdata
pdata	SEGMENT
$pdata$??$construct@U_Container_proxy@std@@U12@@?$allocator_traits@V?$allocator@U_Container_proxy@std@@@std@@@std@@SAXAEAV?$allocator@U_Container_proxy@std@@@1@PEAU_Container_proxy@1@$$QEAU31@@Z DD imagerel $LN3
	DD	imagerel $LN3+96
	DD	imagerel $unwind$??$construct@U_Container_proxy@std@@U12@@?$allocator_traits@V?$allocator@U_Container_proxy@std@@@std@@@std@@SAXAEAV?$allocator@U_Container_proxy@std@@@1@PEAU_Container_proxy@1@$$QEAU31@@Z
pdata	ENDS
;	COMDAT pdata
pdata	SEGMENT
$pdata$??$_Destroy_range@U?$_Wrap_alloc@V?$allocator@W4VkPresentModeKHR@@@std@@@std@@@std@@YAXPEAW4VkPresentModeKHR@@0AEAU?$_Wrap_alloc@V?$allocator@W4VkPresentModeKHR@@@std@@@0@U_Scalar_ptr_iterator_tag@0@@Z DD imagerel $LN3
	DD	imagerel $LN3+65
	DD	imagerel $unwind$??$_Destroy_range@U?$_Wrap_alloc@V?$allocator@W4VkPresentModeKHR@@@std@@@std@@@std@@YAXPEAW4VkPresentModeKHR@@0AEAU?$_Wrap_alloc@V?$allocator@W4VkPresentModeKHR@@@std@@@0@U_Scalar_ptr_iterator_tag@0@@Z
pdata	ENDS
;	COMDAT pdata
pdata	SEGMENT
$pdata$??$_Destroy_range@U?$_Wrap_alloc@V?$allocator@UVkSurfaceFormatKHR@@@std@@@std@@@std@@YAXPEAUVkSurfaceFormatKHR@@0AEAU?$_Wrap_alloc@V?$allocator@UVkSurfaceFormatKHR@@@std@@@0@U_Nonscalar_ptr_iterator_tag@0@@Z DD imagerel $LN6
	DD	imagerel $LN6+132
	DD	imagerel $unwind$??$_Destroy_range@U?$_Wrap_alloc@V?$allocator@UVkSurfaceFormatKHR@@@std@@@std@@@std@@YAXPEAUVkSurfaceFormatKHR@@0AEAU?$_Wrap_alloc@V?$allocator@UVkSurfaceFormatKHR@@@std@@@0@U_Nonscalar_ptr_iterator_tag@0@@Z
pdata	ENDS
;	COMDAT pdata
pdata	SEGMENT
$pdata$??$_Destroy_range@U?$_Wrap_alloc@V?$allocator@UVkQueueFamilyProperties@@@std@@@std@@@std@@YAXPEAUVkQueueFamilyProperties@@0AEAU?$_Wrap_alloc@V?$allocator@UVkQueueFamilyProperties@@@std@@@0@U_Nonscalar_ptr_iterator_tag@0@@Z DD imagerel $LN6
	DD	imagerel $LN6+132
	DD	imagerel $unwind$??$_Destroy_range@U?$_Wrap_alloc@V?$allocator@UVkQueueFamilyProperties@@@std@@@std@@@std@@YAXPEAUVkQueueFamilyProperties@@0AEAU?$_Wrap_alloc@V?$allocator@UVkQueueFamilyProperties@@@std@@@0@U_Nonscalar_ptr_iterator_tag@0@@Z
pdata	ENDS
;	COMDAT pdata
pdata	SEGMENT
$pdata$??$_Uninitialized_move@PEAPEAUVkImage_T@@PEAPEAU1@U?$_Wrap_alloc@V?$allocator@PEAUVkImage_T@@@std@@@std@@@std@@YAPEAPEAUVkImage_T@@PEAPEAU1@00AEAU?$_Wrap_alloc@V?$allocator@PEAUVkImage_T@@@std@@@0@@Z DD imagerel $LN3
	DD	imagerel $LN3+170
	DD	imagerel $unwind$??$_Uninitialized_move@PEAPEAUVkImage_T@@PEAPEAU1@U?$_Wrap_alloc@V?$allocator@PEAUVkImage_T@@@std@@@std@@@std@@YAPEAPEAUVkImage_T@@PEAPEAU1@00AEAU?$_Wrap_alloc@V?$allocator@PEAUVkImage_T@@@std@@@0@@Z
pdata	ENDS
;	COMDAT pdata
pdata	SEGMENT
$pdata$??$_Destroy_range@U?$_Wrap_alloc@V?$allocator@PEAUVkImage_T@@@std@@@std@@@std@@YAXPEAPEAUVkImage_T@@0AEAU?$_Wrap_alloc@V?$allocator@PEAUVkImage_T@@@std@@@0@U_Scalar_ptr_iterator_tag@0@@Z DD imagerel $LN3
	DD	imagerel $LN3+65
